ARM GAS  /tmp/ccGv91K0.s 			page 1


   1              		.syntax unified
   2              		.cpu cortex-m0
   3              		.fpu softvfp
   4              		.eabi_attribute 20, 1	@ Tag_ABI_FP_denormal
   5              		.eabi_attribute 21, 1	@ Tag_ABI_FP_exceptions
   6              		.eabi_attribute 23, 3	@ Tag_ABI_FP_number_model
   7              		.eabi_attribute 24, 1	@ Tag_ABI_align8_needed
   8              		.eabi_attribute 25, 1	@ Tag_ABI_align8_preserved
   9              		.eabi_attribute 26, 1	@ Tag_ABI_enum_size
  10              		.eabi_attribute 30, 6	@ Tag_ABI_optimization_goals
  11              		.eabi_attribute 34, 0	@ Tag_CPU_unaligned_access
  12              		.eabi_attribute 18, 4	@ Tag_ABI_PCS_wchar_t
  13              		.file	"syscalls.c"
  14              	@ GNU C11 (GNU Tools for ARM Embedded Processors) version 5.2.1 20151202 (release) [ARM/embedded-5-
  15              	@	compiled by GNU C version 4.7.4, GMP version 4.3.2, MPFR version 2.4.2, MPC version 0.8.1
  16              	@ GGC heuristics: --param ggc-min-expand=100 --param ggc-min-heapsize=131072
  17              	@ options passed:  -I . -I ./src -I ./cmsis_boot -I ./cmsis_core
  18              	@ -I ../STM32F0xx_StdPeriph_Lib_V1.3.1/Libraries/STM32F0xx_StdPeriph_Driver/inc
  19              	@ -I ./inc -I ./cmsis_boot -imultilib armv6-m
  20              	@ -iprefix /usr/local/sbin/gcc-arm-none-eabi-5_2-2015q4/bin/../lib/gcc/arm-none-eabi/5.2.1/
  21              	@ -isysroot /usr/local/sbin/gcc-arm-none-eabi-5_2-2015q4/bin/../arm-none-eabi
  22              	@ -D__USES_INITFINI__ cmsis_boot/syscalls/syscalls.c -mcpu=cortex-m0
  23              	@ -mthumb -auxbase-strip cmsis_boot/syscalls/syscalls.o -g -gdwarf-2 -O0
  24              	@ -Wall -fomit-frame-pointer -fdata-sections -ffunction-sections
  25              	@ -fverbose-asm
  26              	@ options enabled:  -faggressive-loop-optimizations -fauto-inc-dec
  27              	@ -fchkp-check-incomplete-type -fchkp-check-read -fchkp-check-write
  28              	@ -fchkp-instrument-calls -fchkp-narrow-bounds -fchkp-optimize
  29              	@ -fchkp-store-bounds -fchkp-use-static-bounds
  30              	@ -fchkp-use-static-const-bounds -fchkp-use-wrappers -fcommon
  31              	@ -fdata-sections -fdelete-null-pointer-checks -fdwarf2-cfi-asm
  32              	@ -fearly-inlining -feliminate-unused-debug-types -ffunction-cse
  33              	@ -ffunction-sections -fgcse-lm -fgnu-runtime -fgnu-unique -fident
  34              	@ -finline-atomics -fira-hoist-pressure -fira-share-save-slots
  35              	@ -fira-share-spill-slots -fivopts -fkeep-static-consts
  36              	@ -fleading-underscore -flifetime-dse -flto-odr-type-merging -fmath-errno
  37              	@ -fmerge-debug-strings -fomit-frame-pointer -fpeephole
  38              	@ -fprefetch-loop-arrays -freg-struct-return
  39              	@ -fsched-critical-path-heuristic -fsched-dep-count-heuristic
  40              	@ -fsched-group-heuristic -fsched-interblock -fsched-last-insn-heuristic
  41              	@ -fsched-rank-heuristic -fsched-spec -fsched-spec-insn-heuristic
  42              	@ -fsched-stalled-insns-dep -fsemantic-interposition -fshow-column
  43              	@ -fsigned-zeros -fsplit-ivs-in-unroller -fstdarg-opt
  44              	@ -fstrict-volatile-bitfields -fsync-libcalls -ftrapping-math
  45              	@ -ftree-coalesce-vars -ftree-cselim -ftree-forwprop -ftree-loop-if-convert
  46              	@ -ftree-loop-im -ftree-loop-ivcanon -ftree-loop-optimize
  47              	@ -ftree-parallelize-loops= -ftree-phiprop -ftree-reassoc -ftree-scev-cprop
  48              	@ -funit-at-a-time -fverbose-asm -fzero-initialized-in-bss -mlittle-endian
  49              	@ -mpic-data-is-text-relative -msched-prolog -mthumb
  50              	@ -mvectorize-with-neon-quad
  51              	
  52              		.text
  53              	.Ltext0:
  54              		.cfi_sections	.debug_frame
  55              		.section	.text._sbrk,"ax",%progbits
  56              		.align	2
  57              		.global	_sbrk
ARM GAS  /tmp/ccGv91K0.s 			page 2


  58              		.code	16
  59              		.thumb_func
  60              		.type	_sbrk, %function
  61              	_sbrk:
  62              	.LFB0:
  63              		.file 1 "cmsis_boot/syscalls/syscalls.c"
   1:cmsis_boot/syscalls/syscalls.c **** /**************************************************************************//*****
   2:cmsis_boot/syscalls/syscalls.c ****  * @file     stdio.c
   3:cmsis_boot/syscalls/syscalls.c ****  * @brief    Implementation of newlib syscall
   4:cmsis_boot/syscalls/syscalls.c ****  ********************************************************************************/
   5:cmsis_boot/syscalls/syscalls.c **** 
   6:cmsis_boot/syscalls/syscalls.c **** #include <stdio.h>
   7:cmsis_boot/syscalls/syscalls.c **** #include <stdarg.h>
   8:cmsis_boot/syscalls/syscalls.c **** #include <sys/types.h>
   9:cmsis_boot/syscalls/syscalls.c **** #include <sys/stat.h>
  10:cmsis_boot/syscalls/syscalls.c **** 
  11:cmsis_boot/syscalls/syscalls.c **** #undef errno
  12:cmsis_boot/syscalls/syscalls.c **** extern int errno;
  13:cmsis_boot/syscalls/syscalls.c **** extern int  _end;
  14:cmsis_boot/syscalls/syscalls.c **** 
  15:cmsis_boot/syscalls/syscalls.c **** __attribute__ ((used))
  16:cmsis_boot/syscalls/syscalls.c **** caddr_t _sbrk ( int incr )
  17:cmsis_boot/syscalls/syscalls.c **** {
  64              		.loc 1 17 0
  65              		.cfi_startproc
  66 0000 84B0     		sub	sp, sp, #16	@,,
  67              	.LCFI0:
  68              		.cfi_def_cfa_offset 16
  69 0002 0190     		str	r0, [sp, #4]	@ incr, incr
  18:cmsis_boot/syscalls/syscalls.c ****   static unsigned char *heap = NULL;
  19:cmsis_boot/syscalls/syscalls.c ****   unsigned char *prev_heap;
  20:cmsis_boot/syscalls/syscalls.c **** 
  21:cmsis_boot/syscalls/syscalls.c ****   if (heap == NULL) {
  70              		.loc 1 21 0
  71 0004 094B     		ldr	r3, .L4	@ tmp116,
  72 0006 1B68     		ldr	r3, [r3]	@ D.5367, heap
  73 0008 002B     		cmp	r3, #0	@ D.5367,
  74 000a 02D1     		bne	.L2	@,
  22:cmsis_boot/syscalls/syscalls.c ****     heap = (unsigned char *)&_end;
  75              		.loc 1 22 0
  76 000c 074B     		ldr	r3, .L4	@ tmp117,
  77 000e 084A     		ldr	r2, .L4+4	@ tmp118,
  78 0010 1A60     		str	r2, [r3]	@ tmp118, heap
  79              	.L2:
  23:cmsis_boot/syscalls/syscalls.c ****   }
  24:cmsis_boot/syscalls/syscalls.c ****   prev_heap = heap;
  80              		.loc 1 24 0
  81 0012 064B     		ldr	r3, .L4	@ tmp119,
  82 0014 1B68     		ldr	r3, [r3]	@ tmp120, heap
  83 0016 0393     		str	r3, [sp, #12]	@ tmp120, prev_heap
  25:cmsis_boot/syscalls/syscalls.c **** 
  26:cmsis_boot/syscalls/syscalls.c ****   heap += incr;
  84              		.loc 1 26 0
  85 0018 044B     		ldr	r3, .L4	@ tmp121,
  86 001a 1A68     		ldr	r2, [r3]	@ D.5367, heap
  87 001c 019B     		ldr	r3, [sp, #4]	@ D.5368, incr
  88 001e D218     		adds	r2, r2, r3	@ D.5367, D.5367, D.5368
ARM GAS  /tmp/ccGv91K0.s 			page 3


  89 0020 024B     		ldr	r3, .L4	@ tmp122,
  90 0022 1A60     		str	r2, [r3]	@ D.5367, heap
  27:cmsis_boot/syscalls/syscalls.c **** 
  28:cmsis_boot/syscalls/syscalls.c ****   return (caddr_t) prev_heap;
  91              		.loc 1 28 0
  92 0024 039B     		ldr	r3, [sp, #12]	@ D.5369, prev_heap
  29:cmsis_boot/syscalls/syscalls.c **** }
  93              		.loc 1 29 0
  94 0026 1800     		movs	r0, r3	@, <retval>
  95 0028 04B0     		add	sp, sp, #16	@,,
  96              		@ sp needed	@
  97 002a 7047     		bx	lr
  98              	.L5:
  99              		.align	2
 100              	.L4:
 101 002c 00000000 		.word	heap.5298
 102 0030 00000000 		.word	_end
 103              		.cfi_endproc
 104              	.LFE0:
 105              		.size	_sbrk, .-_sbrk
 106              		.section	.text.link,"ax",%progbits
 107              		.align	2
 108              		.global	link
 109              		.code	16
 110              		.thumb_func
 111              		.type	link, %function
 112              	link:
 113              	.LFB1:
  30:cmsis_boot/syscalls/syscalls.c **** 
  31:cmsis_boot/syscalls/syscalls.c **** __attribute__ ((used))
  32:cmsis_boot/syscalls/syscalls.c **** int link(char *old, char *new) {
 114              		.loc 1 32 0
 115              		.cfi_startproc
 116 0000 82B0     		sub	sp, sp, #8	@,,
 117              	.LCFI1:
 118              		.cfi_def_cfa_offset 8
 119 0002 0190     		str	r0, [sp, #4]	@ old, old
 120 0004 0091     		str	r1, [sp]	@ new, new
  33:cmsis_boot/syscalls/syscalls.c **** return -1;
 121              		.loc 1 33 0
 122 0006 0123     		movs	r3, #1	@ tmp113,
 123 0008 5B42     		rsbs	r3, r3, #0	@ D.5370, tmp113
  34:cmsis_boot/syscalls/syscalls.c **** }
 124              		.loc 1 34 0
 125 000a 1800     		movs	r0, r3	@, <retval>
 126 000c 02B0     		add	sp, sp, #8	@,,
 127              		@ sp needed	@
 128 000e 7047     		bx	lr
 129              		.cfi_endproc
 130              	.LFE1:
 131              		.size	link, .-link
 132              		.section	.text._close,"ax",%progbits
 133              		.align	2
 134              		.global	_close
 135              		.code	16
 136              		.thumb_func
 137              		.type	_close, %function
ARM GAS  /tmp/ccGv91K0.s 			page 4


 138              	_close:
 139              	.LFB2:
  35:cmsis_boot/syscalls/syscalls.c **** 
  36:cmsis_boot/syscalls/syscalls.c **** __attribute__ ((used))
  37:cmsis_boot/syscalls/syscalls.c **** int _close(int file)
  38:cmsis_boot/syscalls/syscalls.c **** {
 140              		.loc 1 38 0
 141              		.cfi_startproc
 142 0000 82B0     		sub	sp, sp, #8	@,,
 143              	.LCFI2:
 144              		.cfi_def_cfa_offset 8
 145 0002 0190     		str	r0, [sp, #4]	@ file, file
  39:cmsis_boot/syscalls/syscalls.c ****   return -1;
 146              		.loc 1 39 0
 147 0004 0123     		movs	r3, #1	@ tmp113,
 148 0006 5B42     		rsbs	r3, r3, #0	@ D.5371, tmp113
  40:cmsis_boot/syscalls/syscalls.c **** }
 149              		.loc 1 40 0
 150 0008 1800     		movs	r0, r3	@, <retval>
 151 000a 02B0     		add	sp, sp, #8	@,,
 152              		@ sp needed	@
 153 000c 7047     		bx	lr
 154              		.cfi_endproc
 155              	.LFE2:
 156              		.size	_close, .-_close
 157              		.section	.text._fstat,"ax",%progbits
 158              		.align	2
 159              		.global	_fstat
 160              		.code	16
 161              		.thumb_func
 162              		.type	_fstat, %function
 163              	_fstat:
 164              	.LFB3:
  41:cmsis_boot/syscalls/syscalls.c **** 
  42:cmsis_boot/syscalls/syscalls.c **** __attribute__ ((used))
  43:cmsis_boot/syscalls/syscalls.c **** int _fstat(int file, struct stat *st)
  44:cmsis_boot/syscalls/syscalls.c **** {
 165              		.loc 1 44 0
 166              		.cfi_startproc
 167 0000 82B0     		sub	sp, sp, #8	@,,
 168              	.LCFI3:
 169              		.cfi_def_cfa_offset 8
 170 0002 0190     		str	r0, [sp, #4]	@ file, file
 171 0004 0091     		str	r1, [sp]	@ st, st
  45:cmsis_boot/syscalls/syscalls.c ****   st->st_mode = S_IFCHR;
 172              		.loc 1 45 0
 173 0006 009B     		ldr	r3, [sp]	@ tmp112, st
 174 0008 8022     		movs	r2, #128	@ tmp115,
 175 000a 9201     		lsls	r2, r2, #6	@ tmp113, tmp115,
 176 000c 5A60     		str	r2, [r3, #4]	@ tmp113, st_2(D)->st_mode
  46:cmsis_boot/syscalls/syscalls.c ****   return 0;
 177              		.loc 1 46 0
 178 000e 0023     		movs	r3, #0	@ D.5372,
  47:cmsis_boot/syscalls/syscalls.c **** }
 179              		.loc 1 47 0
 180 0010 1800     		movs	r0, r3	@, <retval>
 181 0012 02B0     		add	sp, sp, #8	@,,
ARM GAS  /tmp/ccGv91K0.s 			page 5


 182              		@ sp needed	@
 183 0014 7047     		bx	lr
 184              		.cfi_endproc
 185              	.LFE3:
 186              		.size	_fstat, .-_fstat
 187 0016 C046     		.section	.text._isatty,"ax",%progbits
 188              		.align	2
 189              		.global	_isatty
 190              		.code	16
 191              		.thumb_func
 192              		.type	_isatty, %function
 193              	_isatty:
 194              	.LFB4:
  48:cmsis_boot/syscalls/syscalls.c **** 
  49:cmsis_boot/syscalls/syscalls.c **** __attribute__ ((used))
  50:cmsis_boot/syscalls/syscalls.c **** int _isatty(int file)
  51:cmsis_boot/syscalls/syscalls.c **** {
 195              		.loc 1 51 0
 196              		.cfi_startproc
 197 0000 82B0     		sub	sp, sp, #8	@,,
 198              	.LCFI4:
 199              		.cfi_def_cfa_offset 8
 200 0002 0190     		str	r0, [sp, #4]	@ file, file
  52:cmsis_boot/syscalls/syscalls.c ****   return 1;
 201              		.loc 1 52 0
 202 0004 0123     		movs	r3, #1	@ D.5373,
  53:cmsis_boot/syscalls/syscalls.c **** }
 203              		.loc 1 53 0
 204 0006 1800     		movs	r0, r3	@, <retval>
 205 0008 02B0     		add	sp, sp, #8	@,,
 206              		@ sp needed	@
 207 000a 7047     		bx	lr
 208              		.cfi_endproc
 209              	.LFE4:
 210              		.size	_isatty, .-_isatty
 211              		.section	.text._lseek,"ax",%progbits
 212              		.align	2
 213              		.global	_lseek
 214              		.code	16
 215              		.thumb_func
 216              		.type	_lseek, %function
 217              	_lseek:
 218              	.LFB5:
  54:cmsis_boot/syscalls/syscalls.c **** 
  55:cmsis_boot/syscalls/syscalls.c **** __attribute__ ((used))
  56:cmsis_boot/syscalls/syscalls.c **** int _lseek(int file, int ptr, int dir)
  57:cmsis_boot/syscalls/syscalls.c **** {
 219              		.loc 1 57 0
 220              		.cfi_startproc
 221 0000 84B0     		sub	sp, sp, #16	@,,
 222              	.LCFI5:
 223              		.cfi_def_cfa_offset 16
 224 0002 0390     		str	r0, [sp, #12]	@ file, file
 225 0004 0291     		str	r1, [sp, #8]	@ ptr, ptr
 226 0006 0192     		str	r2, [sp, #4]	@ dir, dir
  58:cmsis_boot/syscalls/syscalls.c ****   return 0;
 227              		.loc 1 58 0
ARM GAS  /tmp/ccGv91K0.s 			page 6


 228 0008 0023     		movs	r3, #0	@ D.5374,
  59:cmsis_boot/syscalls/syscalls.c **** }
 229              		.loc 1 59 0
 230 000a 1800     		movs	r0, r3	@, <retval>
 231 000c 04B0     		add	sp, sp, #16	@,,
 232              		@ sp needed	@
 233 000e 7047     		bx	lr
 234              		.cfi_endproc
 235              	.LFE5:
 236              		.size	_lseek, .-_lseek
 237              		.section	.text._read,"ax",%progbits
 238              		.align	2
 239              		.global	_read
 240              		.code	16
 241              		.thumb_func
 242              		.type	_read, %function
 243              	_read:
 244              	.LFB6:
  60:cmsis_boot/syscalls/syscalls.c **** __attribute__ ((used))
  61:cmsis_boot/syscalls/syscalls.c **** int _read(int file, char *ptr, int len)
  62:cmsis_boot/syscalls/syscalls.c **** {
 245              		.loc 1 62 0
 246              		.cfi_startproc
 247 0000 84B0     		sub	sp, sp, #16	@,,
 248              	.LCFI6:
 249              		.cfi_def_cfa_offset 16
 250 0002 0390     		str	r0, [sp, #12]	@ file, file
 251 0004 0291     		str	r1, [sp, #8]	@ ptr, ptr
 252 0006 0192     		str	r2, [sp, #4]	@ len, len
  63:cmsis_boot/syscalls/syscalls.c ****   return 0;
 253              		.loc 1 63 0
 254 0008 0023     		movs	r3, #0	@ D.5375,
  64:cmsis_boot/syscalls/syscalls.c **** }
 255              		.loc 1 64 0
 256 000a 1800     		movs	r0, r3	@, <retval>
 257 000c 04B0     		add	sp, sp, #16	@,,
 258              		@ sp needed	@
 259 000e 7047     		bx	lr
 260              		.cfi_endproc
 261              	.LFE6:
 262              		.size	_read, .-_read
 263              		.section	.text._write,"ax",%progbits
 264              		.align	2
 265              		.global	_write
 266              		.code	16
 267              		.thumb_func
 268              		.type	_write, %function
 269              	_write:
 270              	.LFB7:
  65:cmsis_boot/syscalls/syscalls.c **** __attribute__ ((used))
  66:cmsis_boot/syscalls/syscalls.c **** int _write(int file, char *ptr, int len)
  67:cmsis_boot/syscalls/syscalls.c **** {
 271              		.loc 1 67 0
 272              		.cfi_startproc
 273 0000 84B0     		sub	sp, sp, #16	@,,
 274              	.LCFI7:
 275              		.cfi_def_cfa_offset 16
ARM GAS  /tmp/ccGv91K0.s 			page 7


 276 0002 0390     		str	r0, [sp, #12]	@ file, file
 277 0004 0291     		str	r1, [sp, #8]	@ ptr, ptr
 278 0006 0192     		str	r2, [sp, #4]	@ len, len
  68:cmsis_boot/syscalls/syscalls.c ****   return len;
 279              		.loc 1 68 0
 280 0008 019B     		ldr	r3, [sp, #4]	@ D.5376, len
  69:cmsis_boot/syscalls/syscalls.c **** }
 281              		.loc 1 69 0
 282 000a 1800     		movs	r0, r3	@, <retval>
 283 000c 04B0     		add	sp, sp, #16	@,,
 284              		@ sp needed	@
 285 000e 7047     		bx	lr
 286              		.cfi_endproc
 287              	.LFE7:
 288              		.size	_write, .-_write
 289              		.section	.text.abort,"ax",%progbits
 290              		.align	2
 291              		.global	abort
 292              		.code	16
 293              		.thumb_func
 294              		.type	abort, %function
 295              	abort:
 296              	.LFB8:
  70:cmsis_boot/syscalls/syscalls.c **** 
  71:cmsis_boot/syscalls/syscalls.c **** __attribute__ ((used))
  72:cmsis_boot/syscalls/syscalls.c **** void abort(void)
  73:cmsis_boot/syscalls/syscalls.c **** {
 297              		.loc 1 73 0
 298              		.cfi_startproc
 299              	.L21:
  74:cmsis_boot/syscalls/syscalls.c ****   /* Abort called */
  75:cmsis_boot/syscalls/syscalls.c ****   while(1);
 300              		.loc 1 75 0 discriminator 1
 301 0000 FEE7     		b	.L21	@
 302              		.cfi_endproc
 303              	.LFE8:
 304              		.size	abort, .-abort
 305 0002 C046     		.section	.bss.heap.5298,"aw",%nobits
 306              		.align	2
 307              		.type	heap.5298, %object
 308              		.size	heap.5298, 4
 309              	heap.5298:
 310 0000 00000000 		.space	4
 311              		.text
 312              	.Letext0:
 313              		.file 2 "/usr/local/sbin/gcc-arm-none-eabi-5_2-2015q4/arm-none-eabi/include/sys/_types.h"
 314              		.file 3 "/usr/local/sbin/gcc-arm-none-eabi-5_2-2015q4/arm-none-eabi/include/sys/_timeval.h"
 315              		.file 4 "/usr/local/sbin/gcc-arm-none-eabi-5_2-2015q4/arm-none-eabi/include/sys/types.h"
 316              		.file 5 "/usr/local/sbin/gcc-arm-none-eabi-5_2-2015q4/arm-none-eabi/include/sys/stat.h"