ARM GAS  /tmp/ccyHaRvc.s 			page 1


   1              		.syntax unified
   2              		.cpu cortex-m0
   3              		.fpu softvfp
   4              		.eabi_attribute 20, 1	@ Tag_ABI_FP_denormal
   5              		.eabi_attribute 21, 1	@ Tag_ABI_FP_exceptions
   6              		.eabi_attribute 23, 3	@ Tag_ABI_FP_number_model
   7              		.eabi_attribute 24, 1	@ Tag_ABI_align8_needed
   8              		.eabi_attribute 25, 1	@ Tag_ABI_align8_preserved
   9              		.eabi_attribute 26, 1	@ Tag_ABI_enum_size
  10              		.eabi_attribute 30, 6	@ Tag_ABI_optimization_goals
  11              		.eabi_attribute 34, 0	@ Tag_CPU_unaligned_access
  12              		.eabi_attribute 18, 4	@ Tag_ABI_PCS_wchar_t
  13              		.file	"adc.c"
  14              	@ GNU C11 (GNU Tools for ARM Embedded Processors) version 5.2.1 20151202 (release) [ARM/embedded-5-
  15              	@	compiled by GNU C version 4.7.4, GMP version 4.3.2, MPFR version 2.4.2, MPC version 0.8.1
  16              	@ GGC heuristics: --param ggc-min-expand=100 --param ggc-min-heapsize=131072
  17              	@ options passed:  -I . -I ./src -I ./cmsis_boot -I ./cmsis_core
  18              	@ -I ../STM32F0xx_StdPeriph_Lib_V1.3.1/Libraries/STM32F0xx_StdPeriph_Driver/inc
  19              	@ -I ./inc -I ./cmsis_boot -imultilib armv6-m
  20              	@ -iprefix /usr/local/sbin/gcc-arm-none-eabi-5_2-2015q4/bin/../lib/gcc/arm-none-eabi/5.2.1/
  21              	@ -isysroot /usr/local/sbin/gcc-arm-none-eabi-5_2-2015q4/bin/../arm-none-eabi
  22              	@ -D__USES_INITFINI__ src/adc.c -mcpu=cortex-m0 -mthumb
  23              	@ -auxbase-strip src/adc.o -g -gdwarf-2 -O0 -Wall -fomit-frame-pointer
  24              	@ -fdata-sections -ffunction-sections -fverbose-asm
  25              	@ options enabled:  -faggressive-loop-optimizations -fauto-inc-dec
  26              	@ -fchkp-check-incomplete-type -fchkp-check-read -fchkp-check-write
  27              	@ -fchkp-instrument-calls -fchkp-narrow-bounds -fchkp-optimize
  28              	@ -fchkp-store-bounds -fchkp-use-static-bounds
  29              	@ -fchkp-use-static-const-bounds -fchkp-use-wrappers -fcommon
  30              	@ -fdata-sections -fdelete-null-pointer-checks -fdwarf2-cfi-asm
  31              	@ -fearly-inlining -feliminate-unused-debug-types -ffunction-cse
  32              	@ -ffunction-sections -fgcse-lm -fgnu-runtime -fgnu-unique -fident
  33              	@ -finline-atomics -fira-hoist-pressure -fira-share-save-slots
  34              	@ -fira-share-spill-slots -fivopts -fkeep-static-consts
  35              	@ -fleading-underscore -flifetime-dse -flto-odr-type-merging -fmath-errno
  36              	@ -fmerge-debug-strings -fomit-frame-pointer -fpeephole
  37              	@ -fprefetch-loop-arrays -freg-struct-return
  38              	@ -fsched-critical-path-heuristic -fsched-dep-count-heuristic
  39              	@ -fsched-group-heuristic -fsched-interblock -fsched-last-insn-heuristic
  40              	@ -fsched-rank-heuristic -fsched-spec -fsched-spec-insn-heuristic
  41              	@ -fsched-stalled-insns-dep -fsemantic-interposition -fshow-column
  42              	@ -fsigned-zeros -fsplit-ivs-in-unroller -fstdarg-opt
  43              	@ -fstrict-volatile-bitfields -fsync-libcalls -ftrapping-math
  44              	@ -ftree-coalesce-vars -ftree-cselim -ftree-forwprop -ftree-loop-if-convert
  45              	@ -ftree-loop-im -ftree-loop-ivcanon -ftree-loop-optimize
  46              	@ -ftree-parallelize-loops= -ftree-phiprop -ftree-reassoc -ftree-scev-cprop
  47              	@ -funit-at-a-time -fverbose-asm -fzero-initialized-in-bss -mlittle-endian
  48              	@ -mpic-data-is-text-relative -msched-prolog -mthumb
  49              	@ -mvectorize-with-neon-quad
  50              	
  51              		.text
  52              	.Ltext0:
  53              		.cfi_sections	.debug_frame
  54              		.section	.text.NVIC_EnableIRQ,"ax",%progbits
  55              		.align	2
  56              		.code	16
  57              		.thumb_func
ARM GAS  /tmp/ccyHaRvc.s 			page 2


  58              		.type	NVIC_EnableIRQ, %function
  59              	NVIC_EnableIRQ:
  60              	.LFB11:
  61              		.file 1 "./cmsis_core/core_cm0.h"
   1:./cmsis_core/core_cm0.h **** /**************************************************************************//**
   2:./cmsis_core/core_cm0.h ****  * @file     core_cm0.h
   3:./cmsis_core/core_cm0.h ****  * @brief    CMSIS Cortex-M0 Core Peripheral Access Layer Header File
   4:./cmsis_core/core_cm0.h ****  * @version  V1.30
   5:./cmsis_core/core_cm0.h ****  * @date     30. October 2009
   6:./cmsis_core/core_cm0.h ****  *
   7:./cmsis_core/core_cm0.h ****  * @note
   8:./cmsis_core/core_cm0.h ****  * Copyright (C) 2009 ARM Limited. All rights reserved.
   9:./cmsis_core/core_cm0.h ****  *
  10:./cmsis_core/core_cm0.h ****  * @par
  11:./cmsis_core/core_cm0.h ****  * ARM Limited (ARM) is supplying this software for use with Cortex-M 
  12:./cmsis_core/core_cm0.h ****  * processor based microcontrollers.  This file can be freely distributed 
  13:./cmsis_core/core_cm0.h ****  * within development tools that are supporting such ARM based processors. 
  14:./cmsis_core/core_cm0.h ****  *
  15:./cmsis_core/core_cm0.h ****  * @par
  16:./cmsis_core/core_cm0.h ****  * THIS SOFTWARE IS PROVIDED "AS IS".  NO WARRANTIES, WHETHER EXPRESS, IMPLIED
  17:./cmsis_core/core_cm0.h ****  * OR STATUTORY, INCLUDING, BUT NOT LIMITED TO, IMPLIED WARRANTIES OF
  18:./cmsis_core/core_cm0.h ****  * MERCHANTABILITY AND FITNESS FOR A PARTICULAR PURPOSE APPLY TO THIS SOFTWARE.
  19:./cmsis_core/core_cm0.h ****  * ARM SHALL NOT, IN ANY CIRCUMSTANCES, BE LIABLE FOR SPECIAL, INCIDENTAL, OR
  20:./cmsis_core/core_cm0.h ****  * CONSEQUENTIAL DAMAGES, FOR ANY REASON WHATSOEVER.
  21:./cmsis_core/core_cm0.h ****  *
  22:./cmsis_core/core_cm0.h ****  ******************************************************************************/
  23:./cmsis_core/core_cm0.h **** 
  24:./cmsis_core/core_cm0.h **** #ifndef __CM0_CORE_H__
  25:./cmsis_core/core_cm0.h **** #define __CM0_CORE_H__
  26:./cmsis_core/core_cm0.h **** 
  27:./cmsis_core/core_cm0.h **** /** @addtogroup CMSIS_CM0_core_LintCinfiguration CMSIS CM0 Core Lint Configuration
  28:./cmsis_core/core_cm0.h ****  *
  29:./cmsis_core/core_cm0.h ****  * List of Lint messages which will be suppressed and not shown:
  30:./cmsis_core/core_cm0.h ****  *   - not yet checked
  31:./cmsis_core/core_cm0.h ****  * .
  32:./cmsis_core/core_cm0.h ****  * Note:  To re-enable a Message, insert a space before 'lint' *
  33:./cmsis_core/core_cm0.h ****  *
  34:./cmsis_core/core_cm0.h ****  */
  35:./cmsis_core/core_cm0.h **** 
  36:./cmsis_core/core_cm0.h **** 
  37:./cmsis_core/core_cm0.h **** /** @addtogroup CMSIS_CM0_core_definitions CM0 Core Definitions
  38:./cmsis_core/core_cm0.h ****   This file defines all structures and symbols for CMSIS core:
  39:./cmsis_core/core_cm0.h ****     - CMSIS version number
  40:./cmsis_core/core_cm0.h ****     - Cortex-M core registers and bitfields
  41:./cmsis_core/core_cm0.h ****     - Cortex-M core peripheral base address
  42:./cmsis_core/core_cm0.h ****   @{
  43:./cmsis_core/core_cm0.h ****  */
  44:./cmsis_core/core_cm0.h **** 
  45:./cmsis_core/core_cm0.h **** #ifdef __cplusplus
  46:./cmsis_core/core_cm0.h ****  extern "C" {
  47:./cmsis_core/core_cm0.h **** #endif 
  48:./cmsis_core/core_cm0.h **** 
  49:./cmsis_core/core_cm0.h **** #define __CM0_CMSIS_VERSION_MAIN  (0x01)                                                       /*!<
  50:./cmsis_core/core_cm0.h **** #define __CM0_CMSIS_VERSION_SUB   (0x30)                                                       /*!<
  51:./cmsis_core/core_cm0.h **** #define __CM0_CMSIS_VERSION       ((__CM0_CMSIS_VERSION_MAIN << 16) | __CM0_CMSIS_VERSION_SUB) /*!<
  52:./cmsis_core/core_cm0.h **** 
  53:./cmsis_core/core_cm0.h **** #define __CORTEX_M                (0x00)                                                       /*!<
ARM GAS  /tmp/ccyHaRvc.s 			page 3


  54:./cmsis_core/core_cm0.h **** 
  55:./cmsis_core/core_cm0.h **** #include <stdint.h>                           /* Include standard types */
  56:./cmsis_core/core_cm0.h **** 
  57:./cmsis_core/core_cm0.h **** #if defined (__ICCARM__)
  58:./cmsis_core/core_cm0.h ****   #include <intrinsics.h>                     /* IAR Intrinsics   */
  59:./cmsis_core/core_cm0.h **** #endif
  60:./cmsis_core/core_cm0.h **** 
  61:./cmsis_core/core_cm0.h **** 
  62:./cmsis_core/core_cm0.h **** #ifndef __NVIC_PRIO_BITS
  63:./cmsis_core/core_cm0.h ****   #define __NVIC_PRIO_BITS    2               /*!< standard definition for NVIC Priority Bits */
  64:./cmsis_core/core_cm0.h **** #endif
  65:./cmsis_core/core_cm0.h **** 
  66:./cmsis_core/core_cm0.h **** 
  67:./cmsis_core/core_cm0.h **** 
  68:./cmsis_core/core_cm0.h **** 
  69:./cmsis_core/core_cm0.h **** /**
  70:./cmsis_core/core_cm0.h ****  * IO definitions
  71:./cmsis_core/core_cm0.h ****  *
  72:./cmsis_core/core_cm0.h ****  * define access restrictions to peripheral registers
  73:./cmsis_core/core_cm0.h ****  */
  74:./cmsis_core/core_cm0.h **** 
  75:./cmsis_core/core_cm0.h **** #ifdef __cplusplus
  76:./cmsis_core/core_cm0.h ****   #define     __I     volatile                /*!< defines 'read only' permissions      */
  77:./cmsis_core/core_cm0.h **** #else
  78:./cmsis_core/core_cm0.h ****   #define     __I     volatile const          /*!< defines 'read only' permissions      */
  79:./cmsis_core/core_cm0.h **** #endif
  80:./cmsis_core/core_cm0.h **** #define     __O     volatile                  /*!< defines 'write only' permissions     */
  81:./cmsis_core/core_cm0.h **** #define     __IO    volatile                  /*!< defines 'read / write' permissions   */
  82:./cmsis_core/core_cm0.h **** 
  83:./cmsis_core/core_cm0.h **** 
  84:./cmsis_core/core_cm0.h **** 
  85:./cmsis_core/core_cm0.h **** /*******************************************************************************
  86:./cmsis_core/core_cm0.h ****  *                 Register Abstraction
  87:./cmsis_core/core_cm0.h ****  ******************************************************************************/
  88:./cmsis_core/core_cm0.h **** /** @addtogroup CMSIS_CM0_core_register CMSIS CM0 Core Register
  89:./cmsis_core/core_cm0.h ****  @{
  90:./cmsis_core/core_cm0.h **** */
  91:./cmsis_core/core_cm0.h **** 
  92:./cmsis_core/core_cm0.h **** 
  93:./cmsis_core/core_cm0.h **** /** @addtogroup CMSIS_CM0_NVIC CMSIS CM0 NVIC
  94:./cmsis_core/core_cm0.h ****   memory mapped structure for Nested Vectored Interrupt Controller (NVIC)
  95:./cmsis_core/core_cm0.h ****   @{
  96:./cmsis_core/core_cm0.h ****  */
  97:./cmsis_core/core_cm0.h ****  /*
  98:./cmsis_core/core_cm0.h **** typedef struct
  99:./cmsis_core/core_cm0.h **** {
 100:./cmsis_core/core_cm0.h ****   __IO uint32_t ISER[1];                      //!< (Offset: 0x000) Interrupt Set Enable Register
 101:./cmsis_core/core_cm0.h ****        uint32_t RESERVED0[31];
 102:./cmsis_core/core_cm0.h ****   __IO uint32_t ICER[1];                      //!< (Offset: 0x080) Interrupt Clear Enable Register
 103:./cmsis_core/core_cm0.h ****        uint32_t RSERVED1[31];
 104:./cmsis_core/core_cm0.h ****   __IO uint32_t ISPR[1];                      //!< (Offset: 0x100) Interrupt Set Pending Register
 105:./cmsis_core/core_cm0.h ****        uint32_t RESERVED2[31];
 106:./cmsis_core/core_cm0.h ****   __IO uint32_t ICPR[1];                      //!< (Offset: 0x180) Interrupt Clear Pending Register
 107:./cmsis_core/core_cm0.h ****        uint32_t RESERVED3[31];
 108:./cmsis_core/core_cm0.h ****        uint32_t RESERVED4[64];
 109:./cmsis_core/core_cm0.h ****   __IO uint32_t IPR[8];                       //!< (Offset: 0x3EC) Interrupt Priority Register
 110:./cmsis_core/core_cm0.h **** }  NVIC_Type;
ARM GAS  /tmp/ccyHaRvc.s 			page 4


 111:./cmsis_core/core_cm0.h **** */
 112:./cmsis_core/core_cm0.h **** 
 113:./cmsis_core/core_cm0.h ****  typedef struct
 114:./cmsis_core/core_cm0.h ****  {
 115:./cmsis_core/core_cm0.h ****    __IO uint32_t ISER[1];                 /*!< Offset: 0x000 (R/W)  Interrupt Set Enable Register  
 116:./cmsis_core/core_cm0.h ****         uint32_t RESERVED0[31];
 117:./cmsis_core/core_cm0.h ****    __IO uint32_t ICER[1];                 /*!< Offset: 0x080 (R/W)  Interrupt Clear Enable Register
 118:./cmsis_core/core_cm0.h ****         uint32_t RSERVED1[31];
 119:./cmsis_core/core_cm0.h ****    __IO uint32_t ISPR[1];                 /*!< Offset: 0x100 (R/W)  Interrupt Set Pending Register 
 120:./cmsis_core/core_cm0.h ****         uint32_t RESERVED2[31];
 121:./cmsis_core/core_cm0.h ****    __IO uint32_t ICPR[1];                 /*!< Offset: 0x180 (R/W)  Interrupt Clear Pending Registe
 122:./cmsis_core/core_cm0.h ****         uint32_t RESERVED3[31];
 123:./cmsis_core/core_cm0.h ****         uint32_t RESERVED4[64];
 124:./cmsis_core/core_cm0.h ****    __IO uint32_t IP[8];                   /*!< Offset: 0x300 (R/W)  Interrupt Priority Register    
 125:./cmsis_core/core_cm0.h ****  }  NVIC_Type;
 126:./cmsis_core/core_cm0.h **** 
 127:./cmsis_core/core_cm0.h **** /*@}*/ /* end of group CMSIS_CM0_NVIC */
 128:./cmsis_core/core_cm0.h **** 
 129:./cmsis_core/core_cm0.h **** 
 130:./cmsis_core/core_cm0.h **** /** @addtogroup CMSIS_CM0_SCB CMSIS CM0 SCB
 131:./cmsis_core/core_cm0.h ****   memory mapped structure for System Control Block (SCB)
 132:./cmsis_core/core_cm0.h ****   @{
 133:./cmsis_core/core_cm0.h ****  */
 134:./cmsis_core/core_cm0.h **** typedef struct
 135:./cmsis_core/core_cm0.h **** {
 136:./cmsis_core/core_cm0.h ****   __I  uint32_t CPUID;                        /*!< Offset: 0x00  CPU ID Base Register              
 137:./cmsis_core/core_cm0.h ****   __IO uint32_t ICSR;                         /*!< Offset: 0x04  Interrupt Control State Register  
 138:./cmsis_core/core_cm0.h ****        uint32_t RESERVED0;                                      
 139:./cmsis_core/core_cm0.h ****   __IO uint32_t AIRCR;                        /*!< Offset: 0x0C  Application Interrupt / Reset Cont
 140:./cmsis_core/core_cm0.h ****   __IO uint32_t SCR;                          /*!< Offset: 0x10  System Control Register           
 141:./cmsis_core/core_cm0.h ****   __IO uint32_t CCR;                          /*!< Offset: 0x14  Configuration Control Register    
 142:./cmsis_core/core_cm0.h ****        uint32_t RESERVED1;                                      
 143:./cmsis_core/core_cm0.h ****   __IO uint32_t SHP[2];                       /*!< Offset: 0x1C  System Handlers Priority Registers
 144:./cmsis_core/core_cm0.h ****   __IO uint32_t SHCSR;                        /*!< Offset: 0x24  System Handler Control and State R
 145:./cmsis_core/core_cm0.h ****        uint32_t RESERVED2[2];                                   
 146:./cmsis_core/core_cm0.h ****   __IO uint32_t DFSR;                         /*!< Offset: 0x30  Debug Fault Status Register       
 147:./cmsis_core/core_cm0.h **** } SCB_Type;                                                
 148:./cmsis_core/core_cm0.h **** 
 149:./cmsis_core/core_cm0.h **** /* SCB CPUID Register Definitions */
 150:./cmsis_core/core_cm0.h **** #define SCB_CPUID_IMPLEMENTER_Pos          24                                             /*!< SCB 
 151:./cmsis_core/core_cm0.h **** #define SCB_CPUID_IMPLEMENTER_Msk          (0xFFul << SCB_CPUID_IMPLEMENTER_Pos)          /*!< SCB 
 152:./cmsis_core/core_cm0.h **** 
 153:./cmsis_core/core_cm0.h **** #define SCB_CPUID_VARIANT_Pos              20                                             /*!< SCB 
 154:./cmsis_core/core_cm0.h **** #define SCB_CPUID_VARIANT_Msk              (0xFul << SCB_CPUID_VARIANT_Pos)               /*!< SCB 
 155:./cmsis_core/core_cm0.h **** 
 156:./cmsis_core/core_cm0.h **** #define SCB_CPUID_ARCHITECTURE_Pos         16                                             /*!< SCB 
 157:./cmsis_core/core_cm0.h **** #define SCB_CPUID_ARCHITECTURE_Msk         (0xFul << SCB_CPUID_ARCHITECTURE_Pos)          /*!< SCB 
 158:./cmsis_core/core_cm0.h **** 
 159:./cmsis_core/core_cm0.h **** #define SCB_CPUID_PARTNO_Pos                4                                             /*!< SCB 
 160:./cmsis_core/core_cm0.h **** #define SCB_CPUID_PARTNO_Msk               (0xFFFul << SCB_CPUID_PARTNO_Pos)              /*!< SCB 
 161:./cmsis_core/core_cm0.h **** 
 162:./cmsis_core/core_cm0.h **** #define SCB_CPUID_REVISION_Pos              0                                             /*!< SCB 
 163:./cmsis_core/core_cm0.h **** #define SCB_CPUID_REVISION_Msk             (0xFul << SCB_CPUID_REVISION_Pos)              /*!< SCB 
 164:./cmsis_core/core_cm0.h **** 
 165:./cmsis_core/core_cm0.h **** /* SCB Interrupt Control State Register Definitions */
 166:./cmsis_core/core_cm0.h **** #define SCB_ICSR_NMIPENDSET_Pos            31                                             /*!< SCB 
 167:./cmsis_core/core_cm0.h **** #define SCB_ICSR_NMIPENDSET_Msk            (1ul << SCB_ICSR_NMIPENDSET_Pos)               /*!< SCB 
ARM GAS  /tmp/ccyHaRvc.s 			page 5


 168:./cmsis_core/core_cm0.h **** 
 169:./cmsis_core/core_cm0.h **** #define SCB_ICSR_PENDSVSET_Pos             28                                             /*!< SCB 
 170:./cmsis_core/core_cm0.h **** #define SCB_ICSR_PENDSVSET_Msk             (1ul << SCB_ICSR_PENDSVSET_Pos)                /*!< SCB 
 171:./cmsis_core/core_cm0.h **** 
 172:./cmsis_core/core_cm0.h **** #define SCB_ICSR_PENDSVCLR_Pos             27                                             /*!< SCB 
 173:./cmsis_core/core_cm0.h **** #define SCB_ICSR_PENDSVCLR_Msk             (1ul << SCB_ICSR_PENDSVCLR_Pos)                /*!< SCB 
 174:./cmsis_core/core_cm0.h **** 
 175:./cmsis_core/core_cm0.h **** #define SCB_ICSR_PENDSTSET_Pos             26                                             /*!< SCB 
 176:./cmsis_core/core_cm0.h **** #define SCB_ICSR_PENDSTSET_Msk             (1ul << SCB_ICSR_PENDSTSET_Pos)                /*!< SCB 
 177:./cmsis_core/core_cm0.h **** 
 178:./cmsis_core/core_cm0.h **** #define SCB_ICSR_PENDSTCLR_Pos             25                                             /*!< SCB 
 179:./cmsis_core/core_cm0.h **** #define SCB_ICSR_PENDSTCLR_Msk             (1ul << SCB_ICSR_PENDSTCLR_Pos)                /*!< SCB 
 180:./cmsis_core/core_cm0.h **** 
 181:./cmsis_core/core_cm0.h **** #define SCB_ICSR_ISRPREEMPT_Pos            23                                             /*!< SCB 
 182:./cmsis_core/core_cm0.h **** #define SCB_ICSR_ISRPREEMPT_Msk            (1ul << SCB_ICSR_ISRPREEMPT_Pos)               /*!< SCB 
 183:./cmsis_core/core_cm0.h **** 
 184:./cmsis_core/core_cm0.h **** #define SCB_ICSR_ISRPENDING_Pos            22                                             /*!< SCB 
 185:./cmsis_core/core_cm0.h **** #define SCB_ICSR_ISRPENDING_Msk            (1ul << SCB_ICSR_ISRPENDING_Pos)               /*!< SCB 
 186:./cmsis_core/core_cm0.h **** 
 187:./cmsis_core/core_cm0.h **** #define SCB_ICSR_VECTPENDING_Pos           12                                             /*!< SCB 
 188:./cmsis_core/core_cm0.h **** #define SCB_ICSR_VECTPENDING_Msk           (0x1FFul << SCB_ICSR_VECTPENDING_Pos)          /*!< SCB 
 189:./cmsis_core/core_cm0.h **** 
 190:./cmsis_core/core_cm0.h **** #define SCB_ICSR_VECTACTIVE_Pos             0                                             /*!< SCB 
 191:./cmsis_core/core_cm0.h **** #define SCB_ICSR_VECTACTIVE_Msk            (0x1FFul << SCB_ICSR_VECTACTIVE_Pos)           /*!< SCB 
 192:./cmsis_core/core_cm0.h **** 
 193:./cmsis_core/core_cm0.h **** /* SCB Application Interrupt and Reset Control Register Definitions */
 194:./cmsis_core/core_cm0.h **** #define SCB_AIRCR_VECTKEY_Pos              16                                             /*!< SCB 
 195:./cmsis_core/core_cm0.h **** #define SCB_AIRCR_VECTKEY_Msk              (0xFFFFul << SCB_AIRCR_VECTKEY_Pos)            /*!< SCB 
 196:./cmsis_core/core_cm0.h **** 
 197:./cmsis_core/core_cm0.h **** #define SCB_AIRCR_VECTKEYSTAT_Pos          16                                             /*!< SCB 
 198:./cmsis_core/core_cm0.h **** #define SCB_AIRCR_VECTKEYSTAT_Msk          (0xFFFFul << SCB_AIRCR_VECTKEYSTAT_Pos)        /*!< SCB 
 199:./cmsis_core/core_cm0.h **** 
 200:./cmsis_core/core_cm0.h **** #define SCB_AIRCR_ENDIANESS_Pos            15                                             /*!< SCB 
 201:./cmsis_core/core_cm0.h **** #define SCB_AIRCR_ENDIANESS_Msk            (1ul << SCB_AIRCR_ENDIANESS_Pos)               /*!< SCB 
 202:./cmsis_core/core_cm0.h **** 
 203:./cmsis_core/core_cm0.h **** #define SCB_AIRCR_SYSRESETREQ_Pos           2                                             /*!< SCB 
 204:./cmsis_core/core_cm0.h **** #define SCB_AIRCR_SYSRESETREQ_Msk          (1ul << SCB_AIRCR_SYSRESETREQ_Pos)             /*!< SCB 
 205:./cmsis_core/core_cm0.h **** 
 206:./cmsis_core/core_cm0.h **** #define SCB_AIRCR_VECTCLRACTIVE_Pos         1                                             /*!< SCB 
 207:./cmsis_core/core_cm0.h **** #define SCB_AIRCR_VECTCLRACTIVE_Msk        (1ul << SCB_AIRCR_VECTCLRACTIVE_Pos)           /*!< SCB 
 208:./cmsis_core/core_cm0.h **** 
 209:./cmsis_core/core_cm0.h **** /* SCB System Control Register Definitions */
 210:./cmsis_core/core_cm0.h **** #define SCB_SCR_SEVONPEND_Pos               4                                             /*!< SCB 
 211:./cmsis_core/core_cm0.h **** #define SCB_SCR_SEVONPEND_Msk              (1ul << SCB_SCR_SEVONPEND_Pos)                 /*!< SCB 
 212:./cmsis_core/core_cm0.h **** 
 213:./cmsis_core/core_cm0.h **** #define SCB_SCR_SLEEPDEEP_Pos               2                                             /*!< SCB 
 214:./cmsis_core/core_cm0.h **** #define SCB_SCR_SLEEPDEEP_Msk              (1ul << SCB_SCR_SLEEPDEEP_Pos)                 /*!< SCB 
 215:./cmsis_core/core_cm0.h **** 
 216:./cmsis_core/core_cm0.h **** #define SCB_SCR_SLEEPONEXIT_Pos             1                                             /*!< SCB 
 217:./cmsis_core/core_cm0.h **** #define SCB_SCR_SLEEPONEXIT_Msk            (1ul << SCB_SCR_SLEEPONEXIT_Pos)               /*!< SCB 
 218:./cmsis_core/core_cm0.h **** 
 219:./cmsis_core/core_cm0.h **** /* SCB Configuration Control Register Definitions */
 220:./cmsis_core/core_cm0.h **** #define SCB_CCR_STKALIGN_Pos                9                                             /*!< SCB 
 221:./cmsis_core/core_cm0.h **** #define SCB_CCR_STKALIGN_Msk               (1ul << SCB_CCR_STKALIGN_Pos)                  /*!< SCB 
 222:./cmsis_core/core_cm0.h **** 
 223:./cmsis_core/core_cm0.h **** #define SCB_CCR_UNALIGN_TRP_Pos             3                                             /*!< SCB 
 224:./cmsis_core/core_cm0.h **** #define SCB_CCR_UNALIGN_TRP_Msk            (1ul << SCB_CCR_UNALIGN_TRP_Pos)               /*!< SCB 
ARM GAS  /tmp/ccyHaRvc.s 			page 6


 225:./cmsis_core/core_cm0.h **** 
 226:./cmsis_core/core_cm0.h **** /* SCB System Handler Control and State Register Definitions */
 227:./cmsis_core/core_cm0.h **** #define SCB_SHCSR_SVCALLPENDED_Pos         15                                             /*!< SCB 
 228:./cmsis_core/core_cm0.h **** #define SCB_SHCSR_SVCALLPENDED_Msk         (1ul << SCB_SHCSR_SVCALLPENDED_Pos)            /*!< SCB 
 229:./cmsis_core/core_cm0.h **** 
 230:./cmsis_core/core_cm0.h **** /* SCB Debug Fault Status Register Definitions */
 231:./cmsis_core/core_cm0.h **** #define SCB_DFSR_EXTERNAL_Pos               4                                             /*!< SCB 
 232:./cmsis_core/core_cm0.h **** #define SCB_DFSR_EXTERNAL_Msk              (1ul << SCB_DFSR_EXTERNAL_Pos)                 /*!< SCB 
 233:./cmsis_core/core_cm0.h **** 
 234:./cmsis_core/core_cm0.h **** #define SCB_DFSR_VCATCH_Pos                 3                                             /*!< SCB 
 235:./cmsis_core/core_cm0.h **** #define SCB_DFSR_VCATCH_Msk                (1ul << SCB_DFSR_VCATCH_Pos)                   /*!< SCB 
 236:./cmsis_core/core_cm0.h **** 
 237:./cmsis_core/core_cm0.h **** #define SCB_DFSR_DWTTRAP_Pos                2                                             /*!< SCB 
 238:./cmsis_core/core_cm0.h **** #define SCB_DFSR_DWTTRAP_Msk               (1ul << SCB_DFSR_DWTTRAP_Pos)                  /*!< SCB 
 239:./cmsis_core/core_cm0.h **** 
 240:./cmsis_core/core_cm0.h **** #define SCB_DFSR_BKPT_Pos                   1                                             /*!< SCB 
 241:./cmsis_core/core_cm0.h **** #define SCB_DFSR_BKPT_Msk                  (1ul << SCB_DFSR_BKPT_Pos)                     /*!< SCB 
 242:./cmsis_core/core_cm0.h **** 
 243:./cmsis_core/core_cm0.h **** #define SCB_DFSR_HALTED_Pos                 0                                             /*!< SCB 
 244:./cmsis_core/core_cm0.h **** #define SCB_DFSR_HALTED_Msk                (1ul << SCB_DFSR_HALTED_Pos)                   /*!< SCB 
 245:./cmsis_core/core_cm0.h **** /*@}*/ /* end of group CMSIS_CM0_SCB */
 246:./cmsis_core/core_cm0.h **** 
 247:./cmsis_core/core_cm0.h **** 
 248:./cmsis_core/core_cm0.h **** /** @addtogroup CMSIS_CM0_SysTick CMSIS CM0 SysTick
 249:./cmsis_core/core_cm0.h ****   memory mapped structure for SysTick
 250:./cmsis_core/core_cm0.h ****   @{
 251:./cmsis_core/core_cm0.h ****  */
 252:./cmsis_core/core_cm0.h **** typedef struct
 253:./cmsis_core/core_cm0.h **** {
 254:./cmsis_core/core_cm0.h ****   __IO uint32_t CTRL;                         /*!< Offset: 0x00  SysTick Control and Status Registe
 255:./cmsis_core/core_cm0.h ****   __IO uint32_t LOAD;                         /*!< Offset: 0x04  SysTick Reload Value Register     
 256:./cmsis_core/core_cm0.h ****   __IO uint32_t VAL;                          /*!< Offset: 0x08  SysTick Current Value Register    
 257:./cmsis_core/core_cm0.h ****   __I  uint32_t CALIB;                        /*!< Offset: 0x0C  SysTick Calibration Register      
 258:./cmsis_core/core_cm0.h **** } SysTick_Type;
 259:./cmsis_core/core_cm0.h **** 
 260:./cmsis_core/core_cm0.h **** /* SysTick Control / Status Register Definitions */
 261:./cmsis_core/core_cm0.h **** #define SysTick_CTRL_COUNTFLAG_Pos         16                                             /*!< SysT
 262:./cmsis_core/core_cm0.h **** #define SysTick_CTRL_COUNTFLAG_Msk         (1ul << SysTick_CTRL_COUNTFLAG_Pos)            /*!< SysT
 263:./cmsis_core/core_cm0.h **** 
 264:./cmsis_core/core_cm0.h **** #define SysTick_CTRL_CLKSOURCE_Pos          2                                             /*!< SysT
 265:./cmsis_core/core_cm0.h **** #define SysTick_CTRL_CLKSOURCE_Msk         (1ul << SysTick_CTRL_CLKSOURCE_Pos)            /*!< SysT
 266:./cmsis_core/core_cm0.h **** 
 267:./cmsis_core/core_cm0.h **** #define SysTick_CTRL_TICKINT_Pos            1                                             /*!< SysT
 268:./cmsis_core/core_cm0.h **** #define SysTick_CTRL_TICKINT_Msk           (1ul << SysTick_CTRL_TICKINT_Pos)              /*!< SysT
 269:./cmsis_core/core_cm0.h **** 
 270:./cmsis_core/core_cm0.h **** #define SysTick_CTRL_ENABLE_Pos             0                                             /*!< SysT
 271:./cmsis_core/core_cm0.h **** #define SysTick_CTRL_ENABLE_Msk            (1ul << SysTick_CTRL_ENABLE_Pos)               /*!< SysT
 272:./cmsis_core/core_cm0.h **** 
 273:./cmsis_core/core_cm0.h **** /* SysTick Reload Register Definitions */
 274:./cmsis_core/core_cm0.h **** #define SysTick_LOAD_RELOAD_Pos             0                                             /*!< SysT
 275:./cmsis_core/core_cm0.h **** #define SysTick_LOAD_RELOAD_Msk            (0xFFFFFFul << SysTick_LOAD_RELOAD_Pos)        /*!< SysT
 276:./cmsis_core/core_cm0.h **** 
 277:./cmsis_core/core_cm0.h **** /* SysTick Current Register Definitions */
 278:./cmsis_core/core_cm0.h **** #define SysTick_VAL_CURRENT_Pos             0                                             /*!< SysT
 279:./cmsis_core/core_cm0.h **** #define SysTick_VAL_CURRENT_Msk            (0xFFFFFFul << SysTick_VAL_CURRENT_Pos)        /*!< SysT
 280:./cmsis_core/core_cm0.h **** 
 281:./cmsis_core/core_cm0.h **** /* SysTick Calibration Register Definitions */
ARM GAS  /tmp/ccyHaRvc.s 			page 7


 282:./cmsis_core/core_cm0.h **** #define SysTick_CALIB_NOREF_Pos            31                                             /*!< SysT
 283:./cmsis_core/core_cm0.h **** #define SysTick_CALIB_NOREF_Msk            (1ul << SysTick_CALIB_NOREF_Pos)               /*!< SysT
 284:./cmsis_core/core_cm0.h **** 
 285:./cmsis_core/core_cm0.h **** #define SysTick_CALIB_SKEW_Pos             30                                             /*!< SysT
 286:./cmsis_core/core_cm0.h **** #define SysTick_CALIB_SKEW_Msk             (1ul << SysTick_CALIB_SKEW_Pos)                /*!< SysT
 287:./cmsis_core/core_cm0.h **** 
 288:./cmsis_core/core_cm0.h **** #define SysTick_CALIB_TENMS_Pos             0                                             /*!< SysT
 289:./cmsis_core/core_cm0.h **** #define SysTick_CALIB_TENMS_Msk            (0xFFFFFFul << SysTick_VAL_CURRENT_Pos)        /*!< SysT
 290:./cmsis_core/core_cm0.h **** /*@}*/ /* end of group CMSIS_CM0_SysTick */
 291:./cmsis_core/core_cm0.h **** 
 292:./cmsis_core/core_cm0.h **** 
 293:./cmsis_core/core_cm0.h **** /** @addtogroup CMSIS_CM0_CoreDebug CMSIS CM0 Core Debug
 294:./cmsis_core/core_cm0.h ****   memory mapped structure for Core Debug Register
 295:./cmsis_core/core_cm0.h ****   @{
 296:./cmsis_core/core_cm0.h ****  */
 297:./cmsis_core/core_cm0.h **** typedef struct
 298:./cmsis_core/core_cm0.h **** {
 299:./cmsis_core/core_cm0.h ****   __IO uint32_t DHCSR;                        /*!< Offset: 0x00  Debug Halting Control and Status R
 300:./cmsis_core/core_cm0.h ****   __O  uint32_t DCRSR;                        /*!< Offset: 0x04  Debug Core Register Selector Regis
 301:./cmsis_core/core_cm0.h ****   __IO uint32_t DCRDR;                        /*!< Offset: 0x08  Debug Core Register Data Register 
 302:./cmsis_core/core_cm0.h ****   __IO uint32_t DEMCR;                        /*!< Offset: 0x0C  Debug Exception and Monitor Contro
 303:./cmsis_core/core_cm0.h **** } CoreDebug_Type;
 304:./cmsis_core/core_cm0.h **** 
 305:./cmsis_core/core_cm0.h **** /* Debug Halting Control and Status Register */
 306:./cmsis_core/core_cm0.h **** #define CoreDebug_DHCSR_DBGKEY_Pos         16                                             /*!< Core
 307:./cmsis_core/core_cm0.h **** #define CoreDebug_DHCSR_DBGKEY_Msk         (0xFFFFul << CoreDebug_DHCSR_DBGKEY_Pos)       /*!< Core
 308:./cmsis_core/core_cm0.h **** 
 309:./cmsis_core/core_cm0.h **** #define CoreDebug_DHCSR_S_RESET_ST_Pos     25                                             /*!< Core
 310:./cmsis_core/core_cm0.h **** #define CoreDebug_DHCSR_S_RESET_ST_Msk     (1ul << CoreDebug_DHCSR_S_RESET_ST_Pos)        /*!< Core
 311:./cmsis_core/core_cm0.h **** 
 312:./cmsis_core/core_cm0.h **** #define CoreDebug_DHCSR_S_RETIRE_ST_Pos    24                                             /*!< Core
 313:./cmsis_core/core_cm0.h **** #define CoreDebug_DHCSR_S_RETIRE_ST_Msk    (1ul << CoreDebug_DHCSR_S_RETIRE_ST_Pos)       /*!< Core
 314:./cmsis_core/core_cm0.h **** 
 315:./cmsis_core/core_cm0.h **** #define CoreDebug_DHCSR_S_LOCKUP_Pos       19                                             /*!< Core
 316:./cmsis_core/core_cm0.h **** #define CoreDebug_DHCSR_S_LOCKUP_Msk       (1ul << CoreDebug_DHCSR_S_LOCKUP_Pos)          /*!< Core
 317:./cmsis_core/core_cm0.h **** 
 318:./cmsis_core/core_cm0.h **** #define CoreDebug_DHCSR_S_SLEEP_Pos        18                                             /*!< Core
 319:./cmsis_core/core_cm0.h **** #define CoreDebug_DHCSR_S_SLEEP_Msk        (1ul << CoreDebug_DHCSR_S_SLEEP_Pos)           /*!< Core
 320:./cmsis_core/core_cm0.h **** 
 321:./cmsis_core/core_cm0.h **** #define CoreDebug_DHCSR_S_HALT_Pos         17                                             /*!< Core
 322:./cmsis_core/core_cm0.h **** #define CoreDebug_DHCSR_S_HALT_Msk         (1ul << CoreDebug_DHCSR_S_HALT_Pos)            /*!< Core
 323:./cmsis_core/core_cm0.h **** 
 324:./cmsis_core/core_cm0.h **** #define CoreDebug_DHCSR_S_REGRDY_Pos       16                                             /*!< Core
 325:./cmsis_core/core_cm0.h **** #define CoreDebug_DHCSR_S_REGRDY_Msk       (1ul << CoreDebug_DHCSR_S_REGRDY_Pos)          /*!< Core
 326:./cmsis_core/core_cm0.h **** 
 327:./cmsis_core/core_cm0.h **** #define CoreDebug_DHCSR_C_MASKINTS_Pos      3                                             /*!< Core
 328:./cmsis_core/core_cm0.h **** #define CoreDebug_DHCSR_C_MASKINTS_Msk     (1ul << CoreDebug_DHCSR_C_MASKINTS_Pos)        /*!< Core
 329:./cmsis_core/core_cm0.h **** 
 330:./cmsis_core/core_cm0.h **** #define CoreDebug_DHCSR_C_STEP_Pos          2                                             /*!< Core
 331:./cmsis_core/core_cm0.h **** #define CoreDebug_DHCSR_C_STEP_Msk         (1ul << CoreDebug_DHCSR_C_STEP_Pos)            /*!< Core
 332:./cmsis_core/core_cm0.h **** 
 333:./cmsis_core/core_cm0.h **** #define CoreDebug_DHCSR_C_HALT_Pos          1                                             /*!< Core
 334:./cmsis_core/core_cm0.h **** #define CoreDebug_DHCSR_C_HALT_Msk         (1ul << CoreDebug_DHCSR_C_HALT_Pos)            /*!< Core
 335:./cmsis_core/core_cm0.h **** 
 336:./cmsis_core/core_cm0.h **** #define CoreDebug_DHCSR_C_DEBUGEN_Pos       0                                             /*!< Core
 337:./cmsis_core/core_cm0.h **** #define CoreDebug_DHCSR_C_DEBUGEN_Msk      (1ul << CoreDebug_DHCSR_C_DEBUGEN_Pos)         /*!< Core
 338:./cmsis_core/core_cm0.h **** 
ARM GAS  /tmp/ccyHaRvc.s 			page 8


 339:./cmsis_core/core_cm0.h **** /* Debug Core Register Selector Register */
 340:./cmsis_core/core_cm0.h **** #define CoreDebug_DCRSR_REGWnR_Pos         16                                             /*!< Core
 341:./cmsis_core/core_cm0.h **** #define CoreDebug_DCRSR_REGWnR_Msk         (1ul << CoreDebug_DCRSR_REGWnR_Pos)            /*!< Core
 342:./cmsis_core/core_cm0.h **** 
 343:./cmsis_core/core_cm0.h **** #define CoreDebug_DCRSR_REGSEL_Pos          0                                             /*!< Core
 344:./cmsis_core/core_cm0.h **** #define CoreDebug_DCRSR_REGSEL_Msk         (0x1Ful << CoreDebug_DCRSR_REGSEL_Pos)         /*!< Core
 345:./cmsis_core/core_cm0.h **** 
 346:./cmsis_core/core_cm0.h **** /* Debug Exception and Monitor Control Register */
 347:./cmsis_core/core_cm0.h **** #define CoreDebug_DEMCR_DWTENA_Pos         24                                             /*!< Core
 348:./cmsis_core/core_cm0.h **** #define CoreDebug_DEMCR_DWTENA_Msk         (1ul << CoreDebug_DEMCR_DWTENA_Pos)            /*!< Core
 349:./cmsis_core/core_cm0.h **** 
 350:./cmsis_core/core_cm0.h **** #define CoreDebug_DEMCR_VC_HARDERR_Pos     10                                             /*!< Core
 351:./cmsis_core/core_cm0.h **** #define CoreDebug_DEMCR_VC_HARDERR_Msk     (1ul << CoreDebug_DEMCR_VC_HARDERR_Pos)        /*!< Core
 352:./cmsis_core/core_cm0.h **** 
 353:./cmsis_core/core_cm0.h **** #define CoreDebug_DEMCR_VC_CORERESET_Pos    0                                             /*!< Core
 354:./cmsis_core/core_cm0.h **** #define CoreDebug_DEMCR_VC_CORERESET_Msk   (1ul << CoreDebug_DEMCR_VC_CORERESET_Pos)      /*!< Core
 355:./cmsis_core/core_cm0.h **** /*@}*/ /* end of group CMSIS_CM0_CoreDebug */
 356:./cmsis_core/core_cm0.h **** 
 357:./cmsis_core/core_cm0.h **** 
 358:./cmsis_core/core_cm0.h **** /* Memory mapping of Cortex-M0 Hardware */
 359:./cmsis_core/core_cm0.h **** #define SCS_BASE            (0xE000E000)                              /*!< System Control Space Bas
 360:./cmsis_core/core_cm0.h **** #define CoreDebug_BASE      (0xE000EDF0)                              /*!< Core Debug Base Address 
 361:./cmsis_core/core_cm0.h **** #define SysTick_BASE        (SCS_BASE +  0x0010)                      /*!< SysTick Base Address    
 362:./cmsis_core/core_cm0.h **** #define NVIC_BASE           (SCS_BASE +  0x0100)                      /*!< NVIC Base Address       
 363:./cmsis_core/core_cm0.h **** #define SCB_BASE            (SCS_BASE +  0x0D00)                      /*!< System Control Block Bas
 364:./cmsis_core/core_cm0.h **** 
 365:./cmsis_core/core_cm0.h **** #define SCB                 ((SCB_Type *)           SCB_BASE)         /*!< SCB configuration struct
 366:./cmsis_core/core_cm0.h **** #define SysTick             ((SysTick_Type *)       SysTick_BASE)     /*!< SysTick configuration st
 367:./cmsis_core/core_cm0.h **** #define NVIC                ((NVIC_Type *)          NVIC_BASE)        /*!< NVIC configuration struc
 368:./cmsis_core/core_cm0.h **** #define CoreDebug           ((CoreDebug_Type *)     CoreDebug_BASE)   /*!< Core Debug configuration
 369:./cmsis_core/core_cm0.h **** 
 370:./cmsis_core/core_cm0.h **** /*@}*/ /* end of group CMSIS_CM0_core_register */
 371:./cmsis_core/core_cm0.h **** 
 372:./cmsis_core/core_cm0.h **** 
 373:./cmsis_core/core_cm0.h **** /*******************************************************************************
 374:./cmsis_core/core_cm0.h ****  *                Hardware Abstraction Layer
 375:./cmsis_core/core_cm0.h ****  ******************************************************************************/
 376:./cmsis_core/core_cm0.h **** 
 377:./cmsis_core/core_cm0.h **** #if defined ( __CC_ARM   )
 378:./cmsis_core/core_cm0.h ****   #define __ASM            __asm                                      /*!< asm keyword for ARM Comp
 379:./cmsis_core/core_cm0.h ****   #define __INLINE         __inline                                   /*!< inline keyword for ARM C
 380:./cmsis_core/core_cm0.h **** 
 381:./cmsis_core/core_cm0.h **** #elif defined ( __ICCARM__ )
 382:./cmsis_core/core_cm0.h ****   #define __ASM           __asm                                       /*!< asm keyword for IAR Comp
 383:./cmsis_core/core_cm0.h ****   #define __INLINE        inline                                      /*!< inline keyword for IAR C
 384:./cmsis_core/core_cm0.h **** 
 385:./cmsis_core/core_cm0.h **** #elif defined   (  __GNUC__  )
 386:./cmsis_core/core_cm0.h ****   #define __ASM            __asm                                      /*!< asm keyword for GNU Comp
 387:./cmsis_core/core_cm0.h ****   #define __INLINE         inline                                     /*!< inline keyword for GNU C
 388:./cmsis_core/core_cm0.h **** 
 389:./cmsis_core/core_cm0.h **** #elif defined   (  __TASKING__  )
 390:./cmsis_core/core_cm0.h ****   #define __ASM            __asm                                      /*!< asm keyword for TASKING 
 391:./cmsis_core/core_cm0.h ****   #define __INLINE         inline                                     /*!< inline keyword for TASKI
 392:./cmsis_core/core_cm0.h **** 
 393:./cmsis_core/core_cm0.h **** #endif
 394:./cmsis_core/core_cm0.h **** 
 395:./cmsis_core/core_cm0.h **** 
ARM GAS  /tmp/ccyHaRvc.s 			page 9


 396:./cmsis_core/core_cm0.h **** /* ###################  Compiler specific Intrinsics  ########################### */
 397:./cmsis_core/core_cm0.h **** 
 398:./cmsis_core/core_cm0.h **** #if defined ( __CC_ARM   ) /*------------------RealView Compiler -----------------*/
 399:./cmsis_core/core_cm0.h **** /* ARM armcc specific functions */
 400:./cmsis_core/core_cm0.h **** 
 401:./cmsis_core/core_cm0.h **** #define __enable_fault_irq                __enable_fiq
 402:./cmsis_core/core_cm0.h **** #define __disable_fault_irq               __disable_fiq
 403:./cmsis_core/core_cm0.h **** 
 404:./cmsis_core/core_cm0.h **** #define __NOP                             __nop
 405:./cmsis_core/core_cm0.h **** #define __WFI                             __wfi
 406:./cmsis_core/core_cm0.h **** #define __WFE                             __wfe
 407:./cmsis_core/core_cm0.h **** #define __SEV                             __sev
 408:./cmsis_core/core_cm0.h **** #define __ISB()                           __isb(0)
 409:./cmsis_core/core_cm0.h **** #define __DSB()                           __dsb(0)
 410:./cmsis_core/core_cm0.h **** #define __DMB()                           __dmb(0)
 411:./cmsis_core/core_cm0.h **** #define __REV                             __rev
 412:./cmsis_core/core_cm0.h **** 
 413:./cmsis_core/core_cm0.h **** 
 414:./cmsis_core/core_cm0.h **** /* intrinsic void __enable_irq();     */
 415:./cmsis_core/core_cm0.h **** /* intrinsic void __disable_irq();    */
 416:./cmsis_core/core_cm0.h **** 
 417:./cmsis_core/core_cm0.h **** 
 418:./cmsis_core/core_cm0.h **** /**
 419:./cmsis_core/core_cm0.h ****  * @brief  Return the Process Stack Pointer
 420:./cmsis_core/core_cm0.h ****  *
 421:./cmsis_core/core_cm0.h ****  * @return ProcessStackPointer
 422:./cmsis_core/core_cm0.h ****  *
 423:./cmsis_core/core_cm0.h ****  * Return the actual process stack pointer
 424:./cmsis_core/core_cm0.h ****  */
 425:./cmsis_core/core_cm0.h **** extern uint32_t __get_PSP(void);
 426:./cmsis_core/core_cm0.h **** 
 427:./cmsis_core/core_cm0.h **** /**
 428:./cmsis_core/core_cm0.h ****  * @brief  Set the Process Stack Pointer
 429:./cmsis_core/core_cm0.h ****  *
 430:./cmsis_core/core_cm0.h ****  * @param  topOfProcStack  Process Stack Pointer
 431:./cmsis_core/core_cm0.h ****  *
 432:./cmsis_core/core_cm0.h ****  * Assign the value ProcessStackPointer to the MSP 
 433:./cmsis_core/core_cm0.h ****  * (process stack pointer) Cortex processor register
 434:./cmsis_core/core_cm0.h ****  */
 435:./cmsis_core/core_cm0.h **** extern void __set_PSP(uint32_t topOfProcStack);
 436:./cmsis_core/core_cm0.h **** 
 437:./cmsis_core/core_cm0.h **** /**
 438:./cmsis_core/core_cm0.h ****  * @brief  Return the Main Stack Pointer
 439:./cmsis_core/core_cm0.h ****  *
 440:./cmsis_core/core_cm0.h ****  * @return Main Stack Pointer
 441:./cmsis_core/core_cm0.h ****  *
 442:./cmsis_core/core_cm0.h ****  * Return the current value of the MSP (main stack pointer)
 443:./cmsis_core/core_cm0.h ****  * Cortex processor register
 444:./cmsis_core/core_cm0.h ****  */
 445:./cmsis_core/core_cm0.h **** extern uint32_t __get_MSP(void);
 446:./cmsis_core/core_cm0.h **** 
 447:./cmsis_core/core_cm0.h **** /**
 448:./cmsis_core/core_cm0.h ****  * @brief  Set the Main Stack Pointer
 449:./cmsis_core/core_cm0.h ****  *
 450:./cmsis_core/core_cm0.h ****  * @param  topOfMainStack  Main Stack Pointer
 451:./cmsis_core/core_cm0.h ****  *
 452:./cmsis_core/core_cm0.h ****  * Assign the value mainStackPointer to the MSP 
ARM GAS  /tmp/ccyHaRvc.s 			page 10


 453:./cmsis_core/core_cm0.h ****  * (main stack pointer) Cortex processor register
 454:./cmsis_core/core_cm0.h ****  */
 455:./cmsis_core/core_cm0.h **** extern void __set_MSP(uint32_t topOfMainStack);
 456:./cmsis_core/core_cm0.h **** 
 457:./cmsis_core/core_cm0.h **** /**
 458:./cmsis_core/core_cm0.h ****  * @brief  Reverse byte order in unsigned short value
 459:./cmsis_core/core_cm0.h ****  *
 460:./cmsis_core/core_cm0.h ****  * @param   value  value to reverse
 461:./cmsis_core/core_cm0.h ****  * @return         reversed value
 462:./cmsis_core/core_cm0.h ****  *
 463:./cmsis_core/core_cm0.h ****  * Reverse byte order in unsigned short value
 464:./cmsis_core/core_cm0.h ****  */
 465:./cmsis_core/core_cm0.h **** extern uint32_t __REV16(uint16_t value);
 466:./cmsis_core/core_cm0.h **** 
 467:./cmsis_core/core_cm0.h **** /**
 468:./cmsis_core/core_cm0.h ****  * @brief  Reverse byte order in signed short value with sign extension to integer
 469:./cmsis_core/core_cm0.h ****  *
 470:./cmsis_core/core_cm0.h ****  * @param   value  value to reverse
 471:./cmsis_core/core_cm0.h ****  * @return         reversed value
 472:./cmsis_core/core_cm0.h ****  *
 473:./cmsis_core/core_cm0.h ****  * Reverse byte order in signed short value with sign extension to integer
 474:./cmsis_core/core_cm0.h ****  */
 475:./cmsis_core/core_cm0.h **** extern int32_t __REVSH(int16_t value);
 476:./cmsis_core/core_cm0.h **** 
 477:./cmsis_core/core_cm0.h **** 
 478:./cmsis_core/core_cm0.h **** #if (__ARMCC_VERSION < 400000)
 479:./cmsis_core/core_cm0.h **** 
 480:./cmsis_core/core_cm0.h **** /**
 481:./cmsis_core/core_cm0.h ****  * @brief  Return the Priority Mask value
 482:./cmsis_core/core_cm0.h ****  *
 483:./cmsis_core/core_cm0.h ****  * @return PriMask
 484:./cmsis_core/core_cm0.h ****  *
 485:./cmsis_core/core_cm0.h ****  * Return state of the priority mask bit from the priority mask register
 486:./cmsis_core/core_cm0.h ****  */
 487:./cmsis_core/core_cm0.h **** extern uint32_t __get_PRIMASK(void);
 488:./cmsis_core/core_cm0.h **** 
 489:./cmsis_core/core_cm0.h **** /**
 490:./cmsis_core/core_cm0.h ****  * @brief  Set the Priority Mask value
 491:./cmsis_core/core_cm0.h ****  *
 492:./cmsis_core/core_cm0.h ****  * @param   priMask  PriMask
 493:./cmsis_core/core_cm0.h ****  *
 494:./cmsis_core/core_cm0.h ****  * Set the priority mask bit in the priority mask register
 495:./cmsis_core/core_cm0.h ****  */
 496:./cmsis_core/core_cm0.h **** extern void __set_PRIMASK(uint32_t priMask);
 497:./cmsis_core/core_cm0.h **** 
 498:./cmsis_core/core_cm0.h **** /**
 499:./cmsis_core/core_cm0.h ****  * @brief  Return the Control Register value
 500:./cmsis_core/core_cm0.h ****  * 
 501:./cmsis_core/core_cm0.h ****  * @return Control value
 502:./cmsis_core/core_cm0.h ****  *
 503:./cmsis_core/core_cm0.h ****  * Return the content of the control register
 504:./cmsis_core/core_cm0.h ****  */
 505:./cmsis_core/core_cm0.h **** extern uint32_t __get_CONTROL(void);
 506:./cmsis_core/core_cm0.h **** 
 507:./cmsis_core/core_cm0.h **** /**
 508:./cmsis_core/core_cm0.h ****  * @brief  Set the Control Register value
 509:./cmsis_core/core_cm0.h ****  *
ARM GAS  /tmp/ccyHaRvc.s 			page 11


 510:./cmsis_core/core_cm0.h ****  * @param  control  Control value
 511:./cmsis_core/core_cm0.h ****  *
 512:./cmsis_core/core_cm0.h ****  * Set the control register
 513:./cmsis_core/core_cm0.h ****  */
 514:./cmsis_core/core_cm0.h **** extern void __set_CONTROL(uint32_t control);
 515:./cmsis_core/core_cm0.h **** 
 516:./cmsis_core/core_cm0.h **** #else  /* (__ARMCC_VERSION >= 400000)  */
 517:./cmsis_core/core_cm0.h **** 
 518:./cmsis_core/core_cm0.h **** 
 519:./cmsis_core/core_cm0.h **** /**
 520:./cmsis_core/core_cm0.h ****  * @brief  Return the Priority Mask value
 521:./cmsis_core/core_cm0.h ****  *
 522:./cmsis_core/core_cm0.h ****  * @return PriMask
 523:./cmsis_core/core_cm0.h ****  *
 524:./cmsis_core/core_cm0.h ****  * Return state of the priority mask bit from the priority mask register
 525:./cmsis_core/core_cm0.h ****  */
 526:./cmsis_core/core_cm0.h **** static __INLINE uint32_t __get_PRIMASK(void)
 527:./cmsis_core/core_cm0.h **** {
 528:./cmsis_core/core_cm0.h ****   register uint32_t __regPriMask         __ASM("primask");
 529:./cmsis_core/core_cm0.h ****   return(__regPriMask);
 530:./cmsis_core/core_cm0.h **** }
 531:./cmsis_core/core_cm0.h **** 
 532:./cmsis_core/core_cm0.h **** /**
 533:./cmsis_core/core_cm0.h ****  * @brief  Set the Priority Mask value
 534:./cmsis_core/core_cm0.h ****  *
 535:./cmsis_core/core_cm0.h ****  * @param  priMask  PriMask
 536:./cmsis_core/core_cm0.h ****  *
 537:./cmsis_core/core_cm0.h ****  * Set the priority mask bit in the priority mask register
 538:./cmsis_core/core_cm0.h ****  */
 539:./cmsis_core/core_cm0.h **** static __INLINE void __set_PRIMASK(uint32_t priMask)
 540:./cmsis_core/core_cm0.h **** {
 541:./cmsis_core/core_cm0.h ****   register uint32_t __regPriMask         __ASM("primask");
 542:./cmsis_core/core_cm0.h ****   __regPriMask = (priMask);
 543:./cmsis_core/core_cm0.h **** }
 544:./cmsis_core/core_cm0.h **** 
 545:./cmsis_core/core_cm0.h **** /**
 546:./cmsis_core/core_cm0.h ****  * @brief  Return the Control Register value
 547:./cmsis_core/core_cm0.h ****  * 
 548:./cmsis_core/core_cm0.h ****  * @return Control value
 549:./cmsis_core/core_cm0.h ****  *
 550:./cmsis_core/core_cm0.h ****  * Return the content of the control register
 551:./cmsis_core/core_cm0.h ****  */
 552:./cmsis_core/core_cm0.h **** static __INLINE uint32_t __get_CONTROL(void)
 553:./cmsis_core/core_cm0.h **** {
 554:./cmsis_core/core_cm0.h ****   register uint32_t __regControl         __ASM("control");
 555:./cmsis_core/core_cm0.h ****   return(__regControl);
 556:./cmsis_core/core_cm0.h **** }
 557:./cmsis_core/core_cm0.h **** 
 558:./cmsis_core/core_cm0.h **** /**
 559:./cmsis_core/core_cm0.h ****  * @brief  Set the Control Register value
 560:./cmsis_core/core_cm0.h ****  *
 561:./cmsis_core/core_cm0.h ****  * @param  control  Control value
 562:./cmsis_core/core_cm0.h ****  *
 563:./cmsis_core/core_cm0.h ****  * Set the control register
 564:./cmsis_core/core_cm0.h ****  */
 565:./cmsis_core/core_cm0.h **** static __INLINE void __set_CONTROL(uint32_t control)
 566:./cmsis_core/core_cm0.h **** {
ARM GAS  /tmp/ccyHaRvc.s 			page 12


 567:./cmsis_core/core_cm0.h ****   register uint32_t __regControl         __ASM("control");
 568:./cmsis_core/core_cm0.h ****   __regControl = control;
 569:./cmsis_core/core_cm0.h **** }
 570:./cmsis_core/core_cm0.h **** 
 571:./cmsis_core/core_cm0.h **** #endif /* __ARMCC_VERSION  */ 
 572:./cmsis_core/core_cm0.h **** 
 573:./cmsis_core/core_cm0.h **** 
 574:./cmsis_core/core_cm0.h **** 
 575:./cmsis_core/core_cm0.h **** #elif (defined (__ICCARM__)) /*------------------ ICC Compiler -------------------*/
 576:./cmsis_core/core_cm0.h **** /* IAR iccarm specific functions */
 577:./cmsis_core/core_cm0.h **** 
 578:./cmsis_core/core_cm0.h **** #define __enable_irq                              __enable_interrupt        /*!< global Interrupt e
 579:./cmsis_core/core_cm0.h **** #define __disable_irq                             __disable_interrupt       /*!< global Interrupt d
 580:./cmsis_core/core_cm0.h **** 
 581:./cmsis_core/core_cm0.h **** static __INLINE void __enable_fault_irq()         { __ASM ("cpsie f"); }
 582:./cmsis_core/core_cm0.h **** static __INLINE void __disable_fault_irq()        { __ASM ("cpsid f"); }
 583:./cmsis_core/core_cm0.h **** 
 584:./cmsis_core/core_cm0.h **** #define __NOP                                     __no_operation            /*!< no operation intri
 585:./cmsis_core/core_cm0.h **** static __INLINE  void __WFI()                     { __ASM ("wfi"); }
 586:./cmsis_core/core_cm0.h **** static __INLINE  void __WFE()                     { __ASM ("wfe"); }
 587:./cmsis_core/core_cm0.h **** static __INLINE  void __SEV()                     { __ASM ("sev"); }
 588:./cmsis_core/core_cm0.h **** 
 589:./cmsis_core/core_cm0.h **** /* intrinsic void __ISB(void)                                     */
 590:./cmsis_core/core_cm0.h **** /* intrinsic void __DSB(void)                                     */
 591:./cmsis_core/core_cm0.h **** /* intrinsic void __DMB(void)                                     */
 592:./cmsis_core/core_cm0.h **** /* intrinsic void __set_PRIMASK();                                */
 593:./cmsis_core/core_cm0.h **** /* intrinsic void __get_PRIMASK();                                */
 594:./cmsis_core/core_cm0.h **** 
 595:./cmsis_core/core_cm0.h **** 
 596:./cmsis_core/core_cm0.h **** /* intrinsic uint32_t __REV(uint32_t value);                      */
 597:./cmsis_core/core_cm0.h **** /* intrinsic uint32_t __REVSH(uint32_t value);                    */
 598:./cmsis_core/core_cm0.h **** 
 599:./cmsis_core/core_cm0.h **** 
 600:./cmsis_core/core_cm0.h **** /**
 601:./cmsis_core/core_cm0.h ****  * @brief  Return the Process Stack Pointer
 602:./cmsis_core/core_cm0.h ****  *
 603:./cmsis_core/core_cm0.h ****  * @return ProcessStackPointer
 604:./cmsis_core/core_cm0.h ****  *
 605:./cmsis_core/core_cm0.h ****  * Return the actual process stack pointer
 606:./cmsis_core/core_cm0.h ****  */
 607:./cmsis_core/core_cm0.h **** extern uint32_t __get_PSP(void);
 608:./cmsis_core/core_cm0.h **** 
 609:./cmsis_core/core_cm0.h **** /**
 610:./cmsis_core/core_cm0.h ****  * @brief  Set the Process Stack Pointer
 611:./cmsis_core/core_cm0.h ****  *
 612:./cmsis_core/core_cm0.h ****  * @param  topOfProcStack  Process Stack Pointer
 613:./cmsis_core/core_cm0.h ****  *
 614:./cmsis_core/core_cm0.h ****  * Assign the value ProcessStackPointer to the MSP 
 615:./cmsis_core/core_cm0.h ****  * (process stack pointer) Cortex processor register
 616:./cmsis_core/core_cm0.h ****  */
 617:./cmsis_core/core_cm0.h **** extern void __set_PSP(uint32_t topOfProcStack);
 618:./cmsis_core/core_cm0.h **** 
 619:./cmsis_core/core_cm0.h **** /**
 620:./cmsis_core/core_cm0.h ****  * @brief  Return the Main Stack Pointer
 621:./cmsis_core/core_cm0.h ****  *
 622:./cmsis_core/core_cm0.h ****  * @return Main Stack Pointer
 623:./cmsis_core/core_cm0.h ****  *
ARM GAS  /tmp/ccyHaRvc.s 			page 13


 624:./cmsis_core/core_cm0.h ****  * Return the current value of the MSP (main stack pointer)
 625:./cmsis_core/core_cm0.h ****  * Cortex processor register
 626:./cmsis_core/core_cm0.h ****  */
 627:./cmsis_core/core_cm0.h **** extern uint32_t __get_MSP(void);
 628:./cmsis_core/core_cm0.h **** 
 629:./cmsis_core/core_cm0.h **** /**
 630:./cmsis_core/core_cm0.h ****  * @brief  Set the Main Stack Pointer
 631:./cmsis_core/core_cm0.h ****  *
 632:./cmsis_core/core_cm0.h ****  * @param  topOfMainStack  Main Stack Pointer
 633:./cmsis_core/core_cm0.h ****  *
 634:./cmsis_core/core_cm0.h ****  * Assign the value mainStackPointer to the MSP 
 635:./cmsis_core/core_cm0.h ****  * (main stack pointer) Cortex processor register
 636:./cmsis_core/core_cm0.h ****  */
 637:./cmsis_core/core_cm0.h **** extern void __set_MSP(uint32_t topOfMainStack);
 638:./cmsis_core/core_cm0.h **** 
 639:./cmsis_core/core_cm0.h **** /**
 640:./cmsis_core/core_cm0.h ****  * @brief  Reverse byte order in unsigned short value
 641:./cmsis_core/core_cm0.h ****  *
 642:./cmsis_core/core_cm0.h ****  * @param  value  value to reverse
 643:./cmsis_core/core_cm0.h ****  * @return        reversed value
 644:./cmsis_core/core_cm0.h ****  *
 645:./cmsis_core/core_cm0.h ****  * Reverse byte order in unsigned short value
 646:./cmsis_core/core_cm0.h ****  */
 647:./cmsis_core/core_cm0.h **** extern uint32_t __REV16(uint16_t value);
 648:./cmsis_core/core_cm0.h **** 
 649:./cmsis_core/core_cm0.h **** 
 650:./cmsis_core/core_cm0.h **** #elif (defined (__GNUC__)) /*------------------ GNU Compiler ---------------------*/
 651:./cmsis_core/core_cm0.h **** /* GNU gcc specific functions */
 652:./cmsis_core/core_cm0.h **** 
 653:./cmsis_core/core_cm0.h **** static __INLINE void __enable_irq()               { __ASM volatile ("cpsie i"); }
 654:./cmsis_core/core_cm0.h **** static __INLINE void __disable_irq()              { __ASM volatile ("cpsid i"); }
 655:./cmsis_core/core_cm0.h **** 
 656:./cmsis_core/core_cm0.h **** static __INLINE void __enable_fault_irq()         { __ASM volatile ("cpsie f"); }
 657:./cmsis_core/core_cm0.h **** static __INLINE void __disable_fault_irq()        { __ASM volatile ("cpsid f"); }
 658:./cmsis_core/core_cm0.h **** 
 659:./cmsis_core/core_cm0.h **** static __INLINE void __NOP()                      { __ASM volatile ("nop"); }
 660:./cmsis_core/core_cm0.h **** static __INLINE void __WFI()                      { __ASM volatile ("wfi"); }
 661:./cmsis_core/core_cm0.h **** static __INLINE void __WFE()                      { __ASM volatile ("wfe"); }
 662:./cmsis_core/core_cm0.h **** static __INLINE void __SEV()                      { __ASM volatile ("sev"); }
 663:./cmsis_core/core_cm0.h **** static __INLINE void __ISB()                      { __ASM volatile ("isb"); }
 664:./cmsis_core/core_cm0.h **** static __INLINE void __DSB()                      { __ASM volatile ("dsb"); }
 665:./cmsis_core/core_cm0.h **** static __INLINE void __DMB()                      { __ASM volatile ("dmb"); }
 666:./cmsis_core/core_cm0.h **** 
 667:./cmsis_core/core_cm0.h **** 
 668:./cmsis_core/core_cm0.h **** /**
 669:./cmsis_core/core_cm0.h ****  * @brief  Return the Process Stack Pointer
 670:./cmsis_core/core_cm0.h ****  *
 671:./cmsis_core/core_cm0.h ****  * @return ProcessStackPointer
 672:./cmsis_core/core_cm0.h ****  *
 673:./cmsis_core/core_cm0.h ****  * Return the actual process stack pointer
 674:./cmsis_core/core_cm0.h ****  */
 675:./cmsis_core/core_cm0.h **** extern uint32_t __get_PSP(void);
 676:./cmsis_core/core_cm0.h **** 
 677:./cmsis_core/core_cm0.h **** /**
 678:./cmsis_core/core_cm0.h ****  * @brief  Set the Process Stack Pointer
 679:./cmsis_core/core_cm0.h ****  *
 680:./cmsis_core/core_cm0.h ****  * @param  topOfProcStack  Process Stack Pointer
ARM GAS  /tmp/ccyHaRvc.s 			page 14


 681:./cmsis_core/core_cm0.h ****  *
 682:./cmsis_core/core_cm0.h ****  * Assign the value ProcessStackPointer to the MSP 
 683:./cmsis_core/core_cm0.h ****  * (process stack pointer) Cortex processor register
 684:./cmsis_core/core_cm0.h ****  */
 685:./cmsis_core/core_cm0.h **** extern void __set_PSP(uint32_t topOfProcStack);
 686:./cmsis_core/core_cm0.h **** 
 687:./cmsis_core/core_cm0.h **** /**
 688:./cmsis_core/core_cm0.h ****  * @brief  Return the Main Stack Pointer
 689:./cmsis_core/core_cm0.h ****  *
 690:./cmsis_core/core_cm0.h ****  * @return Main Stack Pointer
 691:./cmsis_core/core_cm0.h ****  *
 692:./cmsis_core/core_cm0.h ****  * Return the current value of the MSP (main stack pointer)
 693:./cmsis_core/core_cm0.h ****  * Cortex processor register
 694:./cmsis_core/core_cm0.h ****  */
 695:./cmsis_core/core_cm0.h **** extern uint32_t __get_MSP(void);
 696:./cmsis_core/core_cm0.h **** 
 697:./cmsis_core/core_cm0.h **** /**
 698:./cmsis_core/core_cm0.h ****  * @brief  Set the Main Stack Pointer
 699:./cmsis_core/core_cm0.h ****  *
 700:./cmsis_core/core_cm0.h ****  * @param  topOfMainStack  Main Stack Pointer
 701:./cmsis_core/core_cm0.h ****  *
 702:./cmsis_core/core_cm0.h ****  * Assign the value mainStackPointer to the MSP 
 703:./cmsis_core/core_cm0.h ****  * (main stack pointer) Cortex processor register
 704:./cmsis_core/core_cm0.h ****  */
 705:./cmsis_core/core_cm0.h **** extern void __set_MSP(uint32_t topOfMainStack);
 706:./cmsis_core/core_cm0.h **** 
 707:./cmsis_core/core_cm0.h **** /**
 708:./cmsis_core/core_cm0.h ****  * @brief  Return the Priority Mask value
 709:./cmsis_core/core_cm0.h ****  *
 710:./cmsis_core/core_cm0.h ****  * @return PriMask
 711:./cmsis_core/core_cm0.h ****  *
 712:./cmsis_core/core_cm0.h ****  * Return state of the priority mask bit from the priority mask register
 713:./cmsis_core/core_cm0.h ****  */
 714:./cmsis_core/core_cm0.h **** extern uint32_t  __get_PRIMASK(void);
 715:./cmsis_core/core_cm0.h **** 
 716:./cmsis_core/core_cm0.h **** /**
 717:./cmsis_core/core_cm0.h ****  * @brief  Set the Priority Mask value
 718:./cmsis_core/core_cm0.h ****  *
 719:./cmsis_core/core_cm0.h ****  * @param  priMask  PriMask
 720:./cmsis_core/core_cm0.h ****  *
 721:./cmsis_core/core_cm0.h ****  * Set the priority mask bit in the priority mask register
 722:./cmsis_core/core_cm0.h ****  */
 723:./cmsis_core/core_cm0.h **** extern void __set_PRIMASK(uint32_t priMask);
 724:./cmsis_core/core_cm0.h **** 
 725:./cmsis_core/core_cm0.h **** /**
 726:./cmsis_core/core_cm0.h ****  * @brief  Return the Control Register value
 727:./cmsis_core/core_cm0.h **** * 
 728:./cmsis_core/core_cm0.h **** *  @return Control value
 729:./cmsis_core/core_cm0.h ****  *
 730:./cmsis_core/core_cm0.h ****  * Return the content of the control register
 731:./cmsis_core/core_cm0.h ****  */
 732:./cmsis_core/core_cm0.h **** extern uint32_t __get_CONTROL(void);
 733:./cmsis_core/core_cm0.h **** 
 734:./cmsis_core/core_cm0.h **** /**
 735:./cmsis_core/core_cm0.h ****  * @brief  Set the Control Register value
 736:./cmsis_core/core_cm0.h ****  *
 737:./cmsis_core/core_cm0.h ****  * @param  control  Control value
ARM GAS  /tmp/ccyHaRvc.s 			page 15


 738:./cmsis_core/core_cm0.h ****  *
 739:./cmsis_core/core_cm0.h ****  * Set the control register
 740:./cmsis_core/core_cm0.h ****  */
 741:./cmsis_core/core_cm0.h **** extern void __set_CONTROL(uint32_t control);
 742:./cmsis_core/core_cm0.h **** 
 743:./cmsis_core/core_cm0.h **** /**
 744:./cmsis_core/core_cm0.h ****  * @brief  Reverse byte order in integer value
 745:./cmsis_core/core_cm0.h ****  *
 746:./cmsis_core/core_cm0.h ****  * @param  value  value to reverse
 747:./cmsis_core/core_cm0.h ****  * @return        reversed value
 748:./cmsis_core/core_cm0.h ****  *
 749:./cmsis_core/core_cm0.h ****  * Reverse byte order in integer value
 750:./cmsis_core/core_cm0.h ****  */
 751:./cmsis_core/core_cm0.h **** extern uint32_t __REV(uint32_t value);
 752:./cmsis_core/core_cm0.h **** 
 753:./cmsis_core/core_cm0.h **** /**
 754:./cmsis_core/core_cm0.h ****  * @brief  Reverse byte order in unsigned short value
 755:./cmsis_core/core_cm0.h ****  *
 756:./cmsis_core/core_cm0.h ****  * @param  value  value to reverse
 757:./cmsis_core/core_cm0.h ****  * @return        reversed value
 758:./cmsis_core/core_cm0.h ****  *
 759:./cmsis_core/core_cm0.h ****  * Reverse byte order in unsigned short value
 760:./cmsis_core/core_cm0.h ****  */
 761:./cmsis_core/core_cm0.h **** extern uint32_t __REV16(uint16_t value);
 762:./cmsis_core/core_cm0.h **** 
 763:./cmsis_core/core_cm0.h **** /**
 764:./cmsis_core/core_cm0.h ****  * @brief  Reverse byte order in signed short value with sign extension to integer
 765:./cmsis_core/core_cm0.h ****  *
 766:./cmsis_core/core_cm0.h ****  * @param  value  value to reverse
 767:./cmsis_core/core_cm0.h ****  * @return        reversed value
 768:./cmsis_core/core_cm0.h ****  *
 769:./cmsis_core/core_cm0.h ****  * Reverse byte order in signed short value with sign extension to integer
 770:./cmsis_core/core_cm0.h ****  */
 771:./cmsis_core/core_cm0.h **** extern int32_t __REVSH(int16_t value);
 772:./cmsis_core/core_cm0.h **** 
 773:./cmsis_core/core_cm0.h **** 
 774:./cmsis_core/core_cm0.h **** #elif (defined (__TASKING__)) /*------------------ TASKING Compiler ---------------------*/
 775:./cmsis_core/core_cm0.h **** /* TASKING carm specific functions */
 776:./cmsis_core/core_cm0.h **** 
 777:./cmsis_core/core_cm0.h **** /*
 778:./cmsis_core/core_cm0.h ****  * The CMSIS functions have been implemented as intrinsics in the compiler.
 779:./cmsis_core/core_cm0.h ****  * Please use "carm -?i" to get an up to date list of all instrinsics,
 780:./cmsis_core/core_cm0.h ****  * Including the CMSIS ones.
 781:./cmsis_core/core_cm0.h ****  */
 782:./cmsis_core/core_cm0.h **** 
 783:./cmsis_core/core_cm0.h **** #endif
 784:./cmsis_core/core_cm0.h **** 
 785:./cmsis_core/core_cm0.h **** 
 786:./cmsis_core/core_cm0.h **** /** @addtogroup CMSIS_CM0_Core_FunctionInterface CMSIS CM0 Core Function Interface
 787:./cmsis_core/core_cm0.h ****   Core  Function Interface containing:
 788:./cmsis_core/core_cm0.h ****   - Core NVIC Functions
 789:./cmsis_core/core_cm0.h ****   - Core SysTick Functions
 790:./cmsis_core/core_cm0.h ****   - Core Reset Functions
 791:./cmsis_core/core_cm0.h **** */
 792:./cmsis_core/core_cm0.h **** /*@{*/
 793:./cmsis_core/core_cm0.h **** 
 794:./cmsis_core/core_cm0.h **** /* ##########################   NVIC functions  #################################### */
ARM GAS  /tmp/ccyHaRvc.s 			page 16


 795:./cmsis_core/core_cm0.h **** 
 796:./cmsis_core/core_cm0.h **** /* Interrupt Priorities are WORD accessible only under ARMv6M                   */
 797:./cmsis_core/core_cm0.h **** /* The following MACROS handle generation of the register offset and byte masks */
 798:./cmsis_core/core_cm0.h **** #define _BIT_SHIFT(IRQn)         (  (((uint32_t)(IRQn)       )    &  0x03) * 8 )
 799:./cmsis_core/core_cm0.h **** #define _SHP_IDX(IRQn)           ( ((((uint32_t)(IRQn) & 0x0F)-8) >>    2)     )
 800:./cmsis_core/core_cm0.h **** #define _IP_IDX(IRQn)            (   ((uint32_t)(IRQn)            >>    2)     )
 801:./cmsis_core/core_cm0.h **** 
 802:./cmsis_core/core_cm0.h **** 
 803:./cmsis_core/core_cm0.h **** /**
 804:./cmsis_core/core_cm0.h ****  * @brief  Enable Interrupt in NVIC Interrupt Controller
 805:./cmsis_core/core_cm0.h ****  *
 806:./cmsis_core/core_cm0.h ****  * @param  IRQn   The positive number of the external interrupt to enable
 807:./cmsis_core/core_cm0.h ****  *
 808:./cmsis_core/core_cm0.h ****  * Enable a device specific interupt in the NVIC interrupt controller.
 809:./cmsis_core/core_cm0.h ****  * The interrupt number cannot be a negative value.
 810:./cmsis_core/core_cm0.h ****  */
 811:./cmsis_core/core_cm0.h **** static __INLINE void NVIC_EnableIRQ(IRQn_Type IRQn)
 812:./cmsis_core/core_cm0.h **** {
  62              		.loc 1 812 0
  63              		.cfi_startproc
  64 0000 82B0     		sub	sp, sp, #8	@,,
  65              	.LCFI0:
  66              		.cfi_def_cfa_offset 8
  67 0002 0200     		movs	r2, r0	@ tmp116, IRQn
  68 0004 6B46     		mov	r3, sp	@ tmp122,
  69 0006 0733     		adds	r3, r3, #7	@ tmp117,
  70 0008 1A70     		strb	r2, [r3]	@ tmp118, IRQn
 813:./cmsis_core/core_cm0.h ****   NVIC->ISER[0] = (1 << ((uint32_t)(IRQn) & 0x1F)); /* enable interrupt */
  71              		.loc 1 813 0
  72 000a 074B     		ldr	r3, .L2	@ D.5091,
  73 000c 6A46     		mov	r2, sp	@ tmp123,
  74 000e 0732     		adds	r2, r2, #7	@ tmp119,
  75 0010 1278     		ldrb	r2, [r2]	@ D.5092, IRQn
  76 0012 1100     		movs	r1, r2	@ D.5093, D.5092
  77 0014 1F22     		movs	r2, #31	@ tmp120,
  78 0016 0A40     		ands	r2, r1	@ D.5093, D.5093
  79 0018 0121     		movs	r1, #1	@ tmp121,
  80 001a 9140     		lsls	r1, r1, r2	@ D.5094, D.5094, D.5093
  81 001c 0A00     		movs	r2, r1	@ D.5094, D.5094
  82 001e 1A60     		str	r2, [r3]	@ D.5093, _1->ISER
 814:./cmsis_core/core_cm0.h **** }
  83              		.loc 1 814 0
  84 0020 C046     		nop
  85 0022 02B0     		add	sp, sp, #8	@,,
  86              		@ sp needed	@
  87 0024 7047     		bx	lr
  88              	.L3:
  89 0026 C046     		.align	2
  90              	.L2:
  91 0028 00E100E0 		.word	-536813312
  92              		.cfi_endproc
  93              	.LFE11:
  94              		.size	NVIC_EnableIRQ, .-NVIC_EnableIRQ
  95              		.section	.text.NVIC_SetPriority,"ax",%progbits
  96              		.align	2
  97              		.code	16
  98              		.thumb_func
ARM GAS  /tmp/ccyHaRvc.s 			page 17


  99              		.type	NVIC_SetPriority, %function
 100              	NVIC_SetPriority:
 101              	.LFB16:
 815:./cmsis_core/core_cm0.h **** 
 816:./cmsis_core/core_cm0.h **** /**
 817:./cmsis_core/core_cm0.h ****  * @brief  Disable the interrupt line for external interrupt specified
 818:./cmsis_core/core_cm0.h ****  * 
 819:./cmsis_core/core_cm0.h ****  * @param  IRQn   The positive number of the external interrupt to disable
 820:./cmsis_core/core_cm0.h ****  * 
 821:./cmsis_core/core_cm0.h ****  * Disable a device specific interupt in the NVIC interrupt controller.
 822:./cmsis_core/core_cm0.h ****  * The interrupt number cannot be a negative value.
 823:./cmsis_core/core_cm0.h ****  */
 824:./cmsis_core/core_cm0.h **** static __INLINE void NVIC_DisableIRQ(IRQn_Type IRQn)
 825:./cmsis_core/core_cm0.h **** {
 826:./cmsis_core/core_cm0.h ****   NVIC->ICER[0] = (1 << ((uint32_t)(IRQn) & 0x1F)); /* disable interrupt */
 827:./cmsis_core/core_cm0.h **** }
 828:./cmsis_core/core_cm0.h **** 
 829:./cmsis_core/core_cm0.h **** /**
 830:./cmsis_core/core_cm0.h ****  * @brief  Read the interrupt pending bit for a device specific interrupt source
 831:./cmsis_core/core_cm0.h ****  * 
 832:./cmsis_core/core_cm0.h ****  * @param  IRQn    The number of the device specifc interrupt
 833:./cmsis_core/core_cm0.h ****  * @return         1 = interrupt pending, 0 = interrupt not pending
 834:./cmsis_core/core_cm0.h ****  *
 835:./cmsis_core/core_cm0.h ****  * Read the pending register in NVIC and return 1 if its status is pending, 
 836:./cmsis_core/core_cm0.h ****  * otherwise it returns 0
 837:./cmsis_core/core_cm0.h ****  */
 838:./cmsis_core/core_cm0.h **** static __INLINE uint32_t NVIC_GetPendingIRQ(IRQn_Type IRQn)
 839:./cmsis_core/core_cm0.h **** {
 840:./cmsis_core/core_cm0.h ****   return((uint32_t) ((NVIC->ISPR[0] & (1 << ((uint32_t)(IRQn) & 0x1F)))?1:0)); /* Return 1 if pendi
 841:./cmsis_core/core_cm0.h **** }
 842:./cmsis_core/core_cm0.h **** 
 843:./cmsis_core/core_cm0.h **** /**
 844:./cmsis_core/core_cm0.h ****  * @brief  Set the pending bit for an external interrupt
 845:./cmsis_core/core_cm0.h ****  * 
 846:./cmsis_core/core_cm0.h ****  * @param  IRQn    The number of the interrupt for set pending
 847:./cmsis_core/core_cm0.h ****  *
 848:./cmsis_core/core_cm0.h ****  * Set the pending bit for the specified interrupt.
 849:./cmsis_core/core_cm0.h ****  * The interrupt number cannot be a negative value.
 850:./cmsis_core/core_cm0.h ****  */
 851:./cmsis_core/core_cm0.h **** static __INLINE void NVIC_SetPendingIRQ(IRQn_Type IRQn)
 852:./cmsis_core/core_cm0.h **** {
 853:./cmsis_core/core_cm0.h ****   NVIC->ISPR[0] = (1 << ((uint32_t)(IRQn) & 0x1F)); /* set interrupt pending */
 854:./cmsis_core/core_cm0.h **** }
 855:./cmsis_core/core_cm0.h **** 
 856:./cmsis_core/core_cm0.h **** /**
 857:./cmsis_core/core_cm0.h ****  * @brief  Clear the pending bit for an external interrupt
 858:./cmsis_core/core_cm0.h ****  *
 859:./cmsis_core/core_cm0.h ****  * @param  IRQn    The number of the interrupt for clear pending
 860:./cmsis_core/core_cm0.h ****  *
 861:./cmsis_core/core_cm0.h ****  * Clear the pending bit for the specified interrupt. 
 862:./cmsis_core/core_cm0.h ****  * The interrupt number cannot be a negative value.
 863:./cmsis_core/core_cm0.h ****  */
 864:./cmsis_core/core_cm0.h **** static __INLINE void NVIC_ClearPendingIRQ(IRQn_Type IRQn)
 865:./cmsis_core/core_cm0.h **** {
 866:./cmsis_core/core_cm0.h ****   NVIC->ICPR[0] = (1 << ((uint32_t)(IRQn) & 0x1F)); /* Clear pending interrupt */
 867:./cmsis_core/core_cm0.h **** }
 868:./cmsis_core/core_cm0.h **** 
ARM GAS  /tmp/ccyHaRvc.s 			page 18


 869:./cmsis_core/core_cm0.h **** /**
 870:./cmsis_core/core_cm0.h ****  * @brief  Set the priority for an interrupt
 871:./cmsis_core/core_cm0.h ****  *
 872:./cmsis_core/core_cm0.h ****  * @param  IRQn      The number of the interrupt for set priority
 873:./cmsis_core/core_cm0.h ****  * @param  priority  The priority to set
 874:./cmsis_core/core_cm0.h ****  *
 875:./cmsis_core/core_cm0.h ****  * Set the priority for the specified interrupt. The interrupt 
 876:./cmsis_core/core_cm0.h ****  * number can be positive to specify an external (device specific) 
 877:./cmsis_core/core_cm0.h ****  * interrupt, or negative to specify an internal (core) interrupt.
 878:./cmsis_core/core_cm0.h ****  *
 879:./cmsis_core/core_cm0.h ****  * Note: The priority cannot be set for every core interrupt.
 880:./cmsis_core/core_cm0.h ****  */
 881:./cmsis_core/core_cm0.h **** /*
 882:./cmsis_core/core_cm0.h **** static __INLINE void NVIC_SetPriority(IRQn_Type IRQn, uint32_t priority)
 883:./cmsis_core/core_cm0.h **** {
 884:./cmsis_core/core_cm0.h ****   if(IRQn < 0) {
 885:./cmsis_core/core_cm0.h ****     SCB->SHP[_SHP_IDX(IRQn)] = (SCB->SHP[_SHP_IDX(IRQn)] & ~(0xFF << _BIT_SHIFT(IRQn))) | 
 886:./cmsis_core/core_cm0.h ****         (((priority << (8 - __NVIC_PRIO_BITS)) & 0xFF) << _BIT_SHIFT(IRQn)); }
 887:./cmsis_core/core_cm0.h ****   else {
 888:./cmsis_core/core_cm0.h ****     NVIC->IPR[_IP_IDX(IRQn)] = (NVIC->IPR[_IP_IDX(IRQn)] & ~(0xFF << _BIT_SHIFT(IRQn))) |
 889:./cmsis_core/core_cm0.h ****         (((priority << (8 - __NVIC_PRIO_BITS)) & 0xFF) << _BIT_SHIFT(IRQn)); }
 890:./cmsis_core/core_cm0.h **** }
 891:./cmsis_core/core_cm0.h **** */
 892:./cmsis_core/core_cm0.h **** static __INLINE void NVIC_SetPriority(IRQn_Type IRQn, uint32_t priority)
 893:./cmsis_core/core_cm0.h **** {
 102              		.loc 1 893 0
 103              		.cfi_startproc
 104 0000 30B5     		push	{r4, r5, lr}	@
 105              	.LCFI1:
 106              		.cfi_def_cfa_offset 12
 107              		.cfi_offset 4, -12
 108              		.cfi_offset 5, -8
 109              		.cfi_offset 14, -4
 110 0002 83B0     		sub	sp, sp, #12	@,,
 111              	.LCFI2:
 112              		.cfi_def_cfa_offset 24
 113 0004 0200     		movs	r2, r0	@ tmp162, IRQn
 114 0006 0091     		str	r1, [sp]	@ priority, priority
 115 0008 6B46     		mov	r3, sp	@ tmp199,
 116 000a 0733     		adds	r3, r3, #7	@ tmp163,
 117 000c 1A70     		strb	r2, [r3]	@ tmp164, IRQn
 894:./cmsis_core/core_cm0.h ****   if(IRQn < 0) {
 118              		.loc 1 894 0
 119 000e 6B46     		mov	r3, sp	@ tmp200,
 120 0010 0733     		adds	r3, r3, #7	@ tmp165,
 121 0012 1B78     		ldrb	r3, [r3]	@ tmp166, IRQn
 122 0014 7F2B     		cmp	r3, #127	@ tmp166,
 123 0016 36D9     		bls	.L5	@,
 895:./cmsis_core/core_cm0.h ****     SCB->SHP[_SHP_IDX(IRQn)] = (SCB->SHP[_SHP_IDX(IRQn)] & ~(0xFF << _BIT_SHIFT(IRQn))) |
 124              		.loc 1 895 0
 125 0018 324C     		ldr	r4, .L8	@ D.5095,
 126 001a 6B46     		mov	r3, sp	@ tmp201,
 127 001c 0733     		adds	r3, r3, #7	@ tmp167,
 128 001e 1B78     		ldrb	r3, [r3]	@ D.5096, IRQn
 129 0020 1A00     		movs	r2, r3	@ D.5097, D.5096
 130 0022 0F23     		movs	r3, #15	@ tmp168,
 131 0024 1340     		ands	r3, r2	@ D.5097, D.5097
ARM GAS  /tmp/ccyHaRvc.s 			page 19


 132 0026 083B     		subs	r3, r3, #8	@ D.5097,
 133 0028 9908     		lsrs	r1, r3, #2	@ D.5097, D.5097,
 134 002a 2E4A     		ldr	r2, .L8	@ D.5095,
 135 002c 6B46     		mov	r3, sp	@ tmp202,
 136 002e 0733     		adds	r3, r3, #7	@ tmp169,
 137 0030 1B78     		ldrb	r3, [r3]	@ D.5096, IRQn
 138 0032 1800     		movs	r0, r3	@ D.5097, D.5096
 139 0034 0F23     		movs	r3, #15	@ tmp170,
 140 0036 0340     		ands	r3, r0	@ D.5097, D.5097
 141 0038 083B     		subs	r3, r3, #8	@ D.5097,
 142 003a 9B08     		lsrs	r3, r3, #2	@ D.5097, D.5097,
 143 003c 0633     		adds	r3, r3, #6	@ tmp171,
 144 003e 9B00     		lsls	r3, r3, #2	@ tmp172, tmp171,
 145 0040 D318     		adds	r3, r2, r3	@ tmp173, D.5095, tmp172
 146 0042 0433     		adds	r3, r3, #4	@ tmp174,
 147 0044 1B68     		ldr	r3, [r3]	@ D.5097, _9->SHP
 148 0046 6A46     		mov	r2, sp	@ tmp203,
 149 0048 0732     		adds	r2, r2, #7	@ tmp175,
 150 004a 1278     		ldrb	r2, [r2]	@ D.5096, IRQn
 151 004c 1000     		movs	r0, r2	@ D.5097, D.5096
 152 004e 0322     		movs	r2, #3	@ tmp176,
 153 0050 0240     		ands	r2, r0	@ D.5097, D.5097
 154 0052 D200     		lsls	r2, r2, #3	@ D.5097, D.5097,
 155 0054 FF20     		movs	r0, #255	@ tmp177,
 156 0056 9040     		lsls	r0, r0, r2	@ D.5098, D.5098, D.5097
 157 0058 0200     		movs	r2, r0	@ D.5098, D.5098
 158 005a D243     		mvns	r2, r2	@ D.5098, D.5098
 159 005c 1A40     		ands	r2, r3	@ D.5097, D.5097
 896:./cmsis_core/core_cm0.h ****         (((priority << (8 - __NVIC_PRIO_BITS)) & 0xFF) << _BIT_SHIFT(IRQn)); }
 160              		.loc 1 896 0
 161 005e 009B     		ldr	r3, [sp]	@ tmp178, priority
 162 0060 9B01     		lsls	r3, r3, #6	@ D.5097, tmp178,
 163 0062 FF20     		movs	r0, #255	@ tmp179,
 164 0064 1840     		ands	r0, r3	@ D.5097, D.5097
 165 0066 6B46     		mov	r3, sp	@ tmp205,
 166 0068 0733     		adds	r3, r3, #7	@ tmp180,
 167 006a 1B78     		ldrb	r3, [r3]	@ D.5096, IRQn
 168 006c 1D00     		movs	r5, r3	@ D.5097, D.5096
 169 006e 0323     		movs	r3, #3	@ tmp181,
 170 0070 2B40     		ands	r3, r5	@ D.5097, D.5097
 171 0072 DB00     		lsls	r3, r3, #3	@ D.5097, D.5097,
 172 0074 9840     		lsls	r0, r0, r3	@ D.5097, D.5097, D.5097
 173 0076 0300     		movs	r3, r0	@ D.5097, D.5097
 895:./cmsis_core/core_cm0.h ****     SCB->SHP[_SHP_IDX(IRQn)] = (SCB->SHP[_SHP_IDX(IRQn)] & ~(0xFF << _BIT_SHIFT(IRQn))) |
 174              		.loc 1 895 0
 175 0078 1A43     		orrs	r2, r3	@ D.5097, D.5097
 176 007a 8B1D     		adds	r3, r1, #6	@ tmp182, D.5097,
 177 007c 9B00     		lsls	r3, r3, #2	@ tmp183, tmp182,
 178 007e E318     		adds	r3, r4, r3	@ tmp184, D.5095, tmp183
 179 0080 0433     		adds	r3, r3, #4	@ tmp185,
 180 0082 1A60     		str	r2, [r3]	@ D.5097, _3->SHP
 897:./cmsis_core/core_cm0.h ****   else {
 898:./cmsis_core/core_cm0.h ****     NVIC->IP[_IP_IDX(IRQn)] = (NVIC->IP[_IP_IDX(IRQn)] & ~(0xFF << _BIT_SHIFT(IRQn))) |
 899:./cmsis_core/core_cm0.h ****         (((priority << (8 - __NVIC_PRIO_BITS)) & 0xFF) << _BIT_SHIFT(IRQn)); }
 900:./cmsis_core/core_cm0.h **** }
 181              		.loc 1 900 0
 182 0084 2BE0     		b	.L7	@
ARM GAS  /tmp/ccyHaRvc.s 			page 20


 183              	.L5:
 898:./cmsis_core/core_cm0.h ****         (((priority << (8 - __NVIC_PRIO_BITS)) & 0xFF) << _BIT_SHIFT(IRQn)); }
 184              		.loc 1 898 0
 185 0086 184C     		ldr	r4, .L8+4	@ D.5099,
 186 0088 6B46     		mov	r3, sp	@ tmp207,
 187 008a 0733     		adds	r3, r3, #7	@ tmp186,
 188 008c 1B78     		ldrb	r3, [r3]	@ D.5097, IRQn
 189 008e 5BB2     		sxtb	r3, r3	@ D.5097, D.5097
 190 0090 9B08     		lsrs	r3, r3, #2	@ D.5097, D.5097,
 191 0092 1549     		ldr	r1, .L8+4	@ D.5099,
 192 0094 6A46     		mov	r2, sp	@ tmp208,
 193 0096 0732     		adds	r2, r2, #7	@ tmp187,
 194 0098 1278     		ldrb	r2, [r2]	@ D.5097, IRQn
 195 009a 52B2     		sxtb	r2, r2	@ D.5097, D.5097
 196 009c 9208     		lsrs	r2, r2, #2	@ D.5097, D.5097,
 197 009e C032     		adds	r2, r2, #192	@ tmp188,
 198 00a0 9200     		lsls	r2, r2, #2	@ tmp189, tmp188,
 199 00a2 5258     		ldr	r2, [r2, r1]	@ D.5097, _38->IP
 200 00a4 6946     		mov	r1, sp	@ tmp209,
 201 00a6 0731     		adds	r1, r1, #7	@ tmp190,
 202 00a8 0978     		ldrb	r1, [r1]	@ D.5096, IRQn
 203 00aa 0800     		movs	r0, r1	@ D.5097, D.5096
 204 00ac 0321     		movs	r1, #3	@ tmp191,
 205 00ae 0140     		ands	r1, r0	@ D.5097, D.5097
 206 00b0 C900     		lsls	r1, r1, #3	@ D.5097, D.5097,
 207 00b2 FF20     		movs	r0, #255	@ tmp192,
 208 00b4 8840     		lsls	r0, r0, r1	@ D.5098, D.5098, D.5097
 209 00b6 0100     		movs	r1, r0	@ D.5098, D.5098
 210 00b8 C943     		mvns	r1, r1	@ D.5098, D.5098
 211 00ba 1140     		ands	r1, r2	@ D.5097, D.5097
 899:./cmsis_core/core_cm0.h **** }
 212              		.loc 1 899 0
 213 00bc 009A     		ldr	r2, [sp]	@ tmp193, priority
 214 00be 9201     		lsls	r2, r2, #6	@ D.5097, tmp193,
 215 00c0 FF20     		movs	r0, #255	@ tmp194,
 216 00c2 1040     		ands	r0, r2	@ D.5097, D.5097
 217 00c4 6A46     		mov	r2, sp	@ tmp211,
 218 00c6 0732     		adds	r2, r2, #7	@ tmp195,
 219 00c8 1278     		ldrb	r2, [r2]	@ D.5096, IRQn
 220 00ca 1500     		movs	r5, r2	@ D.5097, D.5096
 221 00cc 0322     		movs	r2, #3	@ tmp196,
 222 00ce 2A40     		ands	r2, r5	@ D.5097, D.5097
 223 00d0 D200     		lsls	r2, r2, #3	@ D.5097, D.5097,
 224 00d2 9040     		lsls	r0, r0, r2	@ D.5097, D.5097, D.5097
 225 00d4 0200     		movs	r2, r0	@ D.5097, D.5097
 898:./cmsis_core/core_cm0.h ****         (((priority << (8 - __NVIC_PRIO_BITS)) & 0xFF) << _BIT_SHIFT(IRQn)); }
 226              		.loc 1 898 0
 227 00d6 0A43     		orrs	r2, r1	@ D.5097, D.5097
 228 00d8 C033     		adds	r3, r3, #192	@ tmp197,
 229 00da 9B00     		lsls	r3, r3, #2	@ tmp198, tmp197,
 230 00dc 1A51     		str	r2, [r3, r4]	@ D.5097, _35->IP
 231              	.L7:
 232              		.loc 1 900 0
 233 00de C046     		nop
 234 00e0 03B0     		add	sp, sp, #12	@,,
 235              		@ sp needed	@
 236 00e2 30BD     		pop	{r4, r5, pc}
ARM GAS  /tmp/ccyHaRvc.s 			page 21


 237              	.L9:
 238              		.align	2
 239              	.L8:
 240 00e4 00ED00E0 		.word	-536810240
 241 00e8 00E100E0 		.word	-536813312
 242              		.cfi_endproc
 243              	.LFE16:
 244              		.size	NVIC_SetPriority, .-NVIC_SetPriority
 245              		.comm	p_channel,4,4
 246              		.comm	VoltagePhoto,64,4
 247              		.global	photo_index
 248              		.section	.bss.photo_index,"aw",%nobits
 249              		.type	photo_index, %object
 250              		.size	photo_index, 1
 251              	photo_index:
 252 0000 00       		.space	1
 253              		.global	last_photo
 254              		.section	.bss.last_photo,"aw",%nobits
 255              		.align	1
 256              		.type	last_photo, %object
 257              		.size	last_photo, 2
 258              	last_photo:
 259 0000 0000     		.space	2
 260              		.global	new_photo_sample
 261              		.section	.bss.new_photo_sample,"aw",%nobits
 262              		.type	new_photo_sample, %object
 263              		.size	new_photo_sample, 1
 264              	new_photo_sample:
 265 0000 00       		.space	1
 266              		.section	.text.AdcConfig,"ax",%progbits
 267              		.align	2
 268              		.global	AdcConfig
 269              		.code	16
 270              		.thumb_func
 271              		.type	AdcConfig, %function
 272              	AdcConfig:
 273              	.LFB20:
 274              		.file 2 "src/adc.c"
   1:src/adc.c     **** /*
   2:src/adc.c     ****  * adc.c
   3:src/adc.c     ****  *
   4:src/adc.c     ****  *  Created on: 04/05/2015
   5:src/adc.c     ****  *      Author: Mariano
   6:src/adc.c     ****  */
   7:src/adc.c     **** #include "adc.h"
   8:src/adc.c     **** #include "stm32f0xx.h"
   9:src/adc.c     **** #include "hard.h"
  10:src/adc.c     **** // #include "dsp.h"
  11:src/adc.c     **** 
  12:src/adc.c     **** 
  13:src/adc.c     **** //--- VARIABLES EXTERNAS ---//
  14:src/adc.c     **** extern volatile unsigned short adc_ch [];
  15:src/adc.c     **** extern volatile unsigned short tt_take_photo_sample;
  16:src/adc.c     **** 
  17:src/adc.c     **** #ifdef ADC_WITH_INT
  18:src/adc.c     **** extern volatile unsigned char seq_ready;
  19:src/adc.c     **** #endif
ARM GAS  /tmp/ccyHaRvc.s 			page 22


  20:src/adc.c     **** 
  21:src/adc.c     **** #ifdef ADC_WITH_TEMP_SENSE
  22:src/adc.c     **** extern volatile unsigned short tt_take_temp_sample;
  23:src/adc.c     **** #endif
  24:src/adc.c     **** 
  25:src/adc.c     **** //--- VARIABLES GLOBALES ---//
  26:src/adc.c     **** #ifdef ADC_WITH_INT
  27:src/adc.c     **** volatile unsigned short * p_channel;
  28:src/adc.c     **** #endif
  29:src/adc.c     **** 
  30:src/adc.c     **** #ifdef ADC_WITH_TEMP_SENSE
  31:src/adc.c     **** // ------- del sensor de Temperatura -------
  32:src/adc.c     **** unsigned short board_temp [SIZEOF_BOARD_TEMP];
  33:src/adc.c     **** unsigned short last_temp = 0;
  34:src/adc.c     **** unsigned char board_temp_index = 0;
  35:src/adc.c     **** unsigned char new_temp_sample = 0;
  36:src/adc.c     **** #endif
  37:src/adc.c     **** 
  38:src/adc.c     **** // ------- del PhotoTransistor -------
  39:src/adc.c     **** #define SIZEOF_PHOTO_TRANS		32
  40:src/adc.c     **** #define DIVISOR_PHOTO			5
  41:src/adc.c     **** unsigned short VoltagePhoto [SIZEOF_PHOTO_TRANS];
  42:src/adc.c     **** unsigned char photo_index = 0;
  43:src/adc.c     **** unsigned short last_photo = 0;
  44:src/adc.c     **** unsigned char new_photo_sample = 0;
  45:src/adc.c     **** 
  46:src/adc.c     **** 
  47:src/adc.c     **** 
  48:src/adc.c     **** //Single conversion mode (CONT=0)
  49:src/adc.c     **** //In Single conversion mode, the ADC performs a single sequence of conversions,
  50:src/adc.c     **** //converting all the channels once.
  51:src/adc.c     **** 
  52:src/adc.c     **** //Continuous conversion mode (CONT=1)
  53:src/adc.c     **** //In continuous conversion mode, when a software or hardware trigger event occurs,
  54:src/adc.c     **** //the ADC performs a sequence of conversions, converting all the channels once and then
  55:src/adc.c     **** //automatically re-starts and continuously performs the same sequence of conversions
  56:src/adc.c     **** 
  57:src/adc.c     **** //Discontinuous mode (DISCEN)
  58:src/adc.c     **** //In this mode (DISCEN=1), a hardware or software trigger event is required to start
  59:src/adc.c     **** //each conversion defined in the sequence. Only with (CONT=0)
  60:src/adc.c     **** 
  61:src/adc.c     **** void AdcConfig (void)
  62:src/adc.c     **** {
 275              		.loc 2 62 0
 276              		.cfi_startproc
 277 0000 10B5     		push	{r4, lr}	@
 278              	.LCFI3:
 279              		.cfi_def_cfa_offset 8
 280              		.cfi_offset 4, -8
 281              		.cfi_offset 14, -4
  63:src/adc.c     **** 	if (!RCC_ADC_CLK)
 282              		.loc 2 63 0
 283 0002 2A4B     		ldr	r3, .L12	@ D.5100,
 284 0004 9A69     		ldr	r2, [r3, #24]	@ D.5101, _2->APB2ENR
 285 0006 8023     		movs	r3, #128	@ tmp166,
 286 0008 9B00     		lsls	r3, r3, #2	@ tmp145, tmp166,
 287 000a 1340     		ands	r3, r2	@ D.5101, D.5101
ARM GAS  /tmp/ccyHaRvc.s 			page 23


 288 000c 06D1     		bne	.L11	@,
  64:src/adc.c     **** 		RCC_ADC_CLK_ON;
 289              		.loc 2 64 0
 290 000e 274B     		ldr	r3, .L12	@ D.5100,
 291 0010 264A     		ldr	r2, .L12	@ D.5100,
 292 0012 9269     		ldr	r2, [r2, #24]	@ D.5101, _7->APB2ENR
 293 0014 8021     		movs	r1, #128	@ tmp165,
 294 0016 8900     		lsls	r1, r1, #2	@ tmp146, tmp165,
 295 0018 0A43     		orrs	r2, r1	@ D.5101, tmp146
 296 001a 9A61     		str	r2, [r3, #24]	@ D.5101, _6->APB2ENR
 297              	.L11:
  65:src/adc.c     **** 
  66:src/adc.c     **** 	// preseteo los registros a default, la mayoria necesita tener ADC apagado
  67:src/adc.c     **** 	ADC1->CR = 0x00000000;
 298              		.loc 2 67 0
 299 001c 244B     		ldr	r3, .L12+4	@ D.5102,
 300 001e 0022     		movs	r2, #0	@ tmp147,
 301 0020 9A60     		str	r2, [r3, #8]	@ tmp147, _11->CR
  68:src/adc.c     **** 	ADC1->IER = 0x00000000;
 302              		.loc 2 68 0
 303 0022 234B     		ldr	r3, .L12+4	@ D.5102,
 304 0024 0022     		movs	r2, #0	@ tmp148,
 305 0026 5A60     		str	r2, [r3, #4]	@ tmp148, _13->IER
  69:src/adc.c     **** 	ADC1->CFGR1 = 0x00000000;
 306              		.loc 2 69 0
 307 0028 214B     		ldr	r3, .L12+4	@ D.5102,
 308 002a 0022     		movs	r2, #0	@ tmp149,
 309 002c DA60     		str	r2, [r3, #12]	@ tmp149, _15->CFGR1
  70:src/adc.c     **** 	ADC1->CFGR2 = 0x00000000;
 310              		.loc 2 70 0
 311 002e 204B     		ldr	r3, .L12+4	@ D.5102,
 312 0030 0022     		movs	r2, #0	@ tmp150,
 313 0032 1A61     		str	r2, [r3, #16]	@ tmp150, _17->CFGR2
  71:src/adc.c     **** 	ADC1->SMPR = 0x00000000;
 314              		.loc 2 71 0
 315 0034 1E4B     		ldr	r3, .L12+4	@ D.5102,
 316 0036 0022     		movs	r2, #0	@ tmp151,
 317 0038 5A61     		str	r2, [r3, #20]	@ tmp151, _19->SMPR
  72:src/adc.c     **** 	ADC1->TR = 0x0FFF0000;
 318              		.loc 2 72 0
 319 003a 1D4B     		ldr	r3, .L12+4	@ D.5102,
 320 003c 1D4A     		ldr	r2, .L12+8	@ tmp152,
 321 003e 1A62     		str	r2, [r3, #32]	@ tmp152, _21->TR
  73:src/adc.c     **** 	ADC1->CHSELR = 0x00000000;
 322              		.loc 2 73 0
 323 0040 1B4B     		ldr	r3, .L12+4	@ D.5102,
 324 0042 0022     		movs	r2, #0	@ tmp153,
 325 0044 9A62     		str	r2, [r3, #40]	@ tmp153, _23->CHSELR
  74:src/adc.c     **** 
  75:src/adc.c     **** 	//set clock
  76:src/adc.c     **** 	ADC1->CFGR2 = ADC_ClockMode_SynClkDiv4;
 326              		.loc 2 76 0
 327 0046 1A4B     		ldr	r3, .L12+4	@ D.5102,
 328 0048 8022     		movs	r2, #128	@ tmp162,
 329 004a 1206     		lsls	r2, r2, #24	@ tmp154, tmp162,
 330 004c 1A61     		str	r2, [r3, #16]	@ tmp154, _25->CFGR2
  77:src/adc.c     **** 
ARM GAS  /tmp/ccyHaRvc.s 			page 24


  78:src/adc.c     **** 	//set resolution, trigger & Continuos or Discontinuous
  79:src/adc.c     **** 	ADC1->CFGR1 |= ADC_Resolution_12b | ADC_ExternalTrigConvEdge_Rising | ADC_ExternalTrigConv_T3_TRGO
 331              		.loc 2 79 0
 332 004e 184B     		ldr	r3, .L12+4	@ D.5102,
 333 0050 174A     		ldr	r2, .L12+4	@ D.5102,
 334 0052 D268     		ldr	r2, [r2, #12]	@ D.5101, _28->CFGR1
 335 0054 9821     		movs	r1, #152	@ tmp163,
 336 0056 C900     		lsls	r1, r1, #3	@ tmp155, tmp163,
 337 0058 0A43     		orrs	r2, r1	@ D.5101, tmp155
 338 005a DA60     		str	r2, [r3, #12]	@ D.5101, _27->CFGR1
  80:src/adc.c     **** 	//ADC1->CFGR1 |= ADC_Resolution_12b | ADC_ExternalTrigConvEdge_Rising | ADC_ExternalTrigConv_T1_TR
  81:src/adc.c     **** 	//ADC1->CFGR1 |= ADC_Resolution_12b | ADC_CFGR1_DISCEN;
  82:src/adc.c     **** 	// ADC1->CFGR1 |= ADC_Resolution_12b;
  83:src/adc.c     **** 
  84:src/adc.c     **** 	//DMA Config
  85:src/adc.c     **** 	//ADC1->CFGR1 |= ADC_CFGR1_DMAEN | ADC_CFGR1_DMACFG;
  86:src/adc.c     **** 
  87:src/adc.c     **** 	//set sampling time
  88:src/adc.c     **** 	ADC1->SMPR |= ADC_SampleTime_41_5Cycles;		//17.39 son SP 420
 339              		.loc 2 88 0
 340 005c 144B     		ldr	r3, .L12+4	@ D.5102,
 341 005e 144A     		ldr	r2, .L12+4	@ D.5102,
 342 0060 5269     		ldr	r2, [r2, #20]	@ D.5101, _33->SMPR
 343 0062 0421     		movs	r1, #4	@ tmp156,
 344 0064 0A43     		orrs	r2, r1	@ D.5101, tmp156
 345 0066 5A61     		str	r2, [r3, #20]	@ D.5101, _32->SMPR
  89:src/adc.c     **** 	// ADC1->SMPR |= ADC_SampleTime_28_5Cycles;		//17.39 son SP 420
  90:src/adc.c     **** 	//ADC1->SMPR |= ADC_SampleTime_7_5Cycles;		//17.36 de salida son SP 420 pero a veces pega
  91:src/adc.c     **** 													//las dos int (usar DMA?) y pierde el valor intermedio
  92:src/adc.c     **** 	//ADC1->SMPR |= ADC_SampleTime_1_5Cycles;			//20.7 de salida son SP 420 (regula mal)
  93:src/adc.c     **** 
  94:src/adc.c     **** #ifdef ADC_WITH_INT
  95:src/adc.c     **** 	//set channel selection
  96:src/adc.c     **** 	ADC1->CHSELR |= ADC_Channel_0 | ADC_Channel_1 | ADC_Channel_8;
 346              		.loc 2 96 0
 347 0068 114B     		ldr	r3, .L12+4	@ D.5102,
 348 006a 114A     		ldr	r2, .L12+4	@ D.5102,
 349 006c 926A     		ldr	r2, [r2, #40]	@ D.5101, _38->CHSELR
 350 006e 0421     		movs	r1, #4	@ tmp164,
 351 0070 FF31     		adds	r1, r1, #255	@ tmp157,
 352 0072 0A43     		orrs	r2, r1	@ D.5101, tmp157
 353 0074 9A62     		str	r2, [r3, #40]	@ D.5101, _37->CHSELR
  97:src/adc.c     **** 
  98:src/adc.c     **** 	//set interrupts
  99:src/adc.c     **** 	ADC1->IER |= ADC_IT_EOC;
 354              		.loc 2 99 0
 355 0076 0E4B     		ldr	r3, .L12+4	@ D.5102,
 356 0078 0D4A     		ldr	r2, .L12+4	@ D.5102,
 357 007a 5268     		ldr	r2, [r2, #4]	@ D.5101, _43->IER
 358 007c 0421     		movs	r1, #4	@ tmp158,
 359 007e 0A43     		orrs	r2, r1	@ D.5101, tmp158
 360 0080 5A60     		str	r2, [r3, #4]	@ D.5101, _42->IER
 100:src/adc.c     **** 
 101:src/adc.c     **** 	//set pointer
 102:src/adc.c     **** 	p_channel = &adc_ch[0];
 361              		.loc 2 102 0
 362 0082 0D4B     		ldr	r3, .L12+12	@ tmp159,
ARM GAS  /tmp/ccyHaRvc.s 			page 25


 363 0084 0D4A     		ldr	r2, .L12+16	@ tmp160,
 364 0086 1A60     		str	r2, [r3]	@ tmp160, p_channel
 103:src/adc.c     **** 
 104:src/adc.c     **** 	NVIC_EnableIRQ(ADC1_COMP_IRQn);
 365              		.loc 2 104 0
 366 0088 0C20     		movs	r0, #12	@,
 367 008a FFF7FEFF 		bl	NVIC_EnableIRQ	@
 105:src/adc.c     **** 	NVIC_SetPriority(ADC1_COMP_IRQn, 3);
 368              		.loc 2 105 0
 369 008e 0321     		movs	r1, #3	@,
 370 0090 0C20     		movs	r0, #12	@,
 371 0092 FFF7FEFF 		bl	NVIC_SetPriority	@
 106:src/adc.c     **** #endif
 107:src/adc.c     **** 
 108:src/adc.c     **** #ifdef ADC_WITH_TEMP_SENSE
 109:src/adc.c     **** 	ADC->CCR |= ADC_CCR_TSEN;
 110:src/adc.c     **** #endif
 111:src/adc.c     **** 
 112:src/adc.c     **** 	//calibrar ADC
 113:src/adc.c     **** 	ADCGetCalibrationFactor();
 372              		.loc 2 113 0
 373 0096 FFF7FEFF 		bl	ADCGetCalibrationFactor	@
 114:src/adc.c     **** 
 115:src/adc.c     **** 	// Enable ADC1
 116:src/adc.c     **** 	ADC1->CR |= ADC_CR_ADEN;
 374              		.loc 2 116 0
 375 009a 054B     		ldr	r3, .L12+4	@ D.5102,
 376 009c 044A     		ldr	r2, .L12+4	@ D.5102,
 377 009e 9268     		ldr	r2, [r2, #8]	@ D.5101, _52->CR
 378 00a0 0121     		movs	r1, #1	@ tmp161,
 379 00a2 0A43     		orrs	r2, r1	@ D.5101, tmp161
 380 00a4 9A60     		str	r2, [r3, #8]	@ D.5101, _51->CR
 117:src/adc.c     **** }
 381              		.loc 2 117 0
 382 00a6 C046     		nop
 383              		@ sp needed	@
 384 00a8 10BD     		pop	{r4, pc}
 385              	.L13:
 386 00aa C046     		.align	2
 387              	.L12:
 388 00ac 00100240 		.word	1073876992
 389 00b0 00240140 		.word	1073816576
 390 00b4 0000FF0F 		.word	268369920
 391 00b8 00000000 		.word	p_channel
 392 00bc 00000000 		.word	adc_ch
 393              		.cfi_endproc
 394              	.LFE20:
 395              		.size	AdcConfig, .-AdcConfig
 396              		.section	.text.ADC1_COMP_IRQHandler,"ax",%progbits
 397              		.align	2
 398              		.global	ADC1_COMP_IRQHandler
 399              		.code	16
 400              		.thumb_func
 401              		.type	ADC1_COMP_IRQHandler, %function
 402              	ADC1_COMP_IRQHandler:
 403              	.LFB21:
 118:src/adc.c     **** 
ARM GAS  /tmp/ccyHaRvc.s 			page 26


 119:src/adc.c     **** #ifdef ADC_WITH_INT
 120:src/adc.c     **** void ADC1_COMP_IRQHandler (void)
 121:src/adc.c     **** {
 404              		.loc 2 121 0
 405              		.cfi_startproc
 122:src/adc.c     **** 	if (ADC1->ISR & ADC_IT_EOC)
 406              		.loc 2 122 0
 407 0000 184B     		ldr	r3, .L19	@ D.5103,
 408 0002 1B68     		ldr	r3, [r3]	@ D.5104, _3->ISR
 409 0004 0422     		movs	r2, #4	@ tmp131,
 410 0006 1340     		ands	r3, r2	@ D.5104, tmp131
 411 0008 2AD0     		beq	.L18	@,
 123:src/adc.c     **** 	{
 124:src/adc.c     **** 		if (ADC1->ISR & ADC_IT_EOSEQ)	//seguro que es channel8 en posicion 3
 412              		.loc 2 124 0
 413 000a 164B     		ldr	r3, .L19	@ D.5103,
 414 000c 1B68     		ldr	r3, [r3]	@ D.5104, _7->ISR
 415 000e 0822     		movs	r2, #8	@ tmp132,
 416 0010 1340     		ands	r3, r2	@ D.5104, tmp132
 417 0012 0FD0     		beq	.L16	@,
 125:src/adc.c     **** 		{
 126:src/adc.c     **** 			p_channel = &adc_ch[2];
 418              		.loc 2 126 0
 419 0014 144B     		ldr	r3, .L19+4	@ tmp133,
 420 0016 154A     		ldr	r2, .L19+8	@ tmp134,
 421 0018 1A60     		str	r2, [r3]	@ tmp134, p_channel
 127:src/adc.c     **** 			*p_channel = ADC1->DR;
 422              		.loc 2 127 0
 423 001a 134B     		ldr	r3, .L19+4	@ tmp135,
 424 001c 1A68     		ldr	r2, [r3]	@ D.5105, p_channel
 425 001e 114B     		ldr	r3, .L19	@ D.5103,
 426 0020 1B6C     		ldr	r3, [r3, #64]	@ D.5104, _12->DR
 427 0022 9BB2     		uxth	r3, r3	@ D.5106, D.5104
 428 0024 1380     		strh	r3, [r2]	@ tmp136, *_11
 128:src/adc.c     **** 			p_channel = &adc_ch[0];
 429              		.loc 2 128 0
 430 0026 104B     		ldr	r3, .L19+4	@ tmp137,
 431 0028 114A     		ldr	r2, .L19+12	@ tmp138,
 432 002a 1A60     		str	r2, [r3]	@ tmp138, p_channel
 129:src/adc.c     **** 			seq_ready = 1;
 433              		.loc 2 129 0
 434 002c 114B     		ldr	r3, .L19+16	@ tmp139,
 435 002e 0122     		movs	r2, #1	@ tmp140,
 436 0030 1A70     		strb	r2, [r3]	@ tmp141, seq_ready
 437 0032 0FE0     		b	.L17	@
 438              	.L16:
 130:src/adc.c     **** 		}
 131:src/adc.c     **** 		else
 132:src/adc.c     **** 		{
 133:src/adc.c     **** 			*p_channel = ADC1->DR;		//
 439              		.loc 2 133 0
 440 0034 0C4B     		ldr	r3, .L19+4	@ tmp142,
 441 0036 1A68     		ldr	r2, [r3]	@ D.5105, p_channel
 442 0038 0A4B     		ldr	r3, .L19	@ D.5103,
 443 003a 1B6C     		ldr	r3, [r3, #64]	@ D.5104, _19->DR
 444 003c 9BB2     		uxth	r3, r3	@ D.5106, D.5104
 445 003e 1380     		strh	r3, [r2]	@ tmp143, *_18
ARM GAS  /tmp/ccyHaRvc.s 			page 27


 134:src/adc.c     **** 			if (p_channel < &adc_ch[2])
 446              		.loc 2 134 0
 447 0040 094B     		ldr	r3, .L19+4	@ tmp144,
 448 0042 1A68     		ldr	r2, [r3]	@ D.5105, p_channel
 449 0044 094B     		ldr	r3, .L19+8	@ tmp145,
 450 0046 9A42     		cmp	r2, r3	@ D.5105, tmp145
 451 0048 04D2     		bcs	.L17	@,
 135:src/adc.c     **** 				p_channel++;
 452              		.loc 2 135 0
 453 004a 074B     		ldr	r3, .L19+4	@ tmp146,
 454 004c 1B68     		ldr	r3, [r3]	@ D.5105, p_channel
 455 004e 9A1C     		adds	r2, r3, #2	@ D.5105, D.5105,
 456 0050 054B     		ldr	r3, .L19+4	@ tmp147,
 457 0052 1A60     		str	r2, [r3]	@ D.5105, p_channel
 458              	.L17:
 136:src/adc.c     **** 		}
 137:src/adc.c     **** 
 138:src/adc.c     **** 		//clear pending
 139:src/adc.c     **** 		ADC1->ISR |= ADC_IT_EOC | ADC_IT_EOSEQ;
 459              		.loc 2 139 0
 460 0054 034B     		ldr	r3, .L19	@ D.5103,
 461 0056 034A     		ldr	r2, .L19	@ D.5103,
 462 0058 1268     		ldr	r2, [r2]	@ D.5104, _28->ISR
 463 005a 0C21     		movs	r1, #12	@ tmp148,
 464 005c 0A43     		orrs	r2, r1	@ D.5104, tmp148
 465 005e 1A60     		str	r2, [r3]	@ D.5104, _27->ISR
 466              	.L18:
 140:src/adc.c     **** 	}
 141:src/adc.c     **** }
 467              		.loc 2 141 0
 468 0060 C046     		nop
 469              		@ sp needed	@
 470 0062 7047     		bx	lr
 471              	.L20:
 472              		.align	2
 473              	.L19:
 474 0064 00240140 		.word	1073816576
 475 0068 00000000 		.word	p_channel
 476 006c 04000000 		.word	adc_ch+4
 477 0070 00000000 		.word	adc_ch
 478 0074 00000000 		.word	seq_ready
 479              		.cfi_endproc
 480              	.LFE21:
 481              		.size	ADC1_COMP_IRQHandler, .-ADC1_COMP_IRQHandler
 482              		.section	.text.SetADC1_SampleTime,"ax",%progbits
 483              		.align	2
 484              		.global	SetADC1_SampleTime
 485              		.code	16
 486              		.thumb_func
 487              		.type	SetADC1_SampleTime, %function
 488              	SetADC1_SampleTime:
 489              	.LFB22:
 142:src/adc.c     **** #endif
 143:src/adc.c     **** 
 144:src/adc.c     **** 
 145:src/adc.c     **** //Setea el sample time en el ADC
 146:src/adc.c     **** void SetADC1_SampleTime (void)
ARM GAS  /tmp/ccyHaRvc.s 			page 28


 147:src/adc.c     **** {
 490              		.loc 2 147 0
 491              		.cfi_startproc
 492 0000 82B0     		sub	sp, sp, #8	@,,
 493              	.LCFI4:
 494              		.cfi_def_cfa_offset 8
 148:src/adc.c     **** 	uint32_t tmpreg = 0;
 495              		.loc 2 148 0
 496 0002 0023     		movs	r3, #0	@ tmp111,
 497 0004 0193     		str	r3, [sp, #4]	@ tmp111, tmpreg
 149:src/adc.c     **** 
 150:src/adc.c     **** 	/* Clear the Sampling time Selection bits */
 151:src/adc.c     **** 	tmpreg &= ~ADC_SMPR1_SMPR;
 498              		.loc 2 151 0
 499 0006 019B     		ldr	r3, [sp, #4]	@ tmp113, tmpreg
 500 0008 0722     		movs	r2, #7	@ tmp114,
 501 000a 9343     		bics	r3, r2	@ tmp112, tmp114
 502 000c 0193     		str	r3, [sp, #4]	@ tmp112, tmpreg
 152:src/adc.c     **** 
 153:src/adc.c     **** 	/* Set the ADC Sampling Time register */
 154:src/adc.c     **** 	tmpreg |= (uint32_t)ADC_SampleTime_239_5Cycles;
 503              		.loc 2 154 0
 504 000e 019B     		ldr	r3, [sp, #4]	@ tmp116, tmpreg
 505 0010 0722     		movs	r2, #7	@ tmp117,
 506 0012 1343     		orrs	r3, r2	@ tmp115, tmp117
 507 0014 0193     		str	r3, [sp, #4]	@ tmp115, tmpreg
 155:src/adc.c     **** 
 156:src/adc.c     **** 	/* Configure the ADC Sample time register */
 157:src/adc.c     **** 	ADC1->SMPR = tmpreg ;
 508              		.loc 2 157 0
 509 0016 034B     		ldr	r3, .L22	@ D.5107,
 510 0018 019A     		ldr	r2, [sp, #4]	@ tmp118, tmpreg
 511 001a 5A61     		str	r2, [r3, #20]	@ tmp118, _4->SMPR
 158:src/adc.c     **** }
 512              		.loc 2 158 0
 513 001c C046     		nop
 514 001e 02B0     		add	sp, sp, #8	@,,
 515              		@ sp needed	@
 516 0020 7047     		bx	lr
 517              	.L23:
 518 0022 C046     		.align	2
 519              	.L22:
 520 0024 00240140 		.word	1073816576
 521              		.cfi_endproc
 522              	.LFE22:
 523              		.size	SetADC1_SampleTime, .-SetADC1_SampleTime
 524              		.section	.text.ReadADC1_SameSampleTime,"ax",%progbits
 525              		.align	2
 526              		.global	ReadADC1_SameSampleTime
 527              		.code	16
 528              		.thumb_func
 529              		.type	ReadADC1_SameSampleTime, %function
 530              	ReadADC1_SameSampleTime:
 531              	.LFB23:
 159:src/adc.c     **** 
 160:src/adc.c     **** 
 161:src/adc.c     **** //lee el ADC sin cambiar el sample time anterior
ARM GAS  /tmp/ccyHaRvc.s 			page 29


 162:src/adc.c     **** unsigned short ReadADC1_SameSampleTime (unsigned int channel)
 163:src/adc.c     **** {
 532              		.loc 2 163 0
 533              		.cfi_startproc
 534 0000 82B0     		sub	sp, sp, #8	@,,
 535              	.LCFI5:
 536              		.cfi_def_cfa_offset 8
 537 0002 0190     		str	r0, [sp, #4]	@ channel, channel
 164:src/adc.c     **** 	// Configure the ADC Channel
 165:src/adc.c     **** 	ADC1->CHSELR = channel;
 538              		.loc 2 165 0
 539 0004 0A4B     		ldr	r3, .L27	@ D.5108,
 540 0006 019A     		ldr	r2, [sp, #4]	@ tmp122, channel
 541 0008 9A62     		str	r2, [r3, #40]	@ tmp122, _1->CHSELR
 166:src/adc.c     **** 
 167:src/adc.c     **** 	// Start the conversion
 168:src/adc.c     **** 	ADC1->CR |= (uint32_t)ADC_CR_ADSTART;
 542              		.loc 2 168 0
 543 000a 094B     		ldr	r3, .L27	@ D.5108,
 544 000c 084A     		ldr	r2, .L27	@ D.5108,
 545 000e 9268     		ldr	r2, [r2, #8]	@ D.5109, _6->CR
 546 0010 0421     		movs	r1, #4	@ tmp123,
 547 0012 0A43     		orrs	r2, r1	@ D.5109, tmp123
 548 0014 9A60     		str	r2, [r3, #8]	@ D.5109, _5->CR
 169:src/adc.c     **** 
 170:src/adc.c     **** 	// Wait until conversion completion
 171:src/adc.c     **** 	while((ADC1->ISR & ADC_ISR_EOC) == 0);
 549              		.loc 2 171 0
 550 0016 C046     		nop
 551              	.L25:
 552              		.loc 2 171 0 is_stmt 0 discriminator 1
 553 0018 054B     		ldr	r3, .L27	@ D.5108,
 554 001a 1B68     		ldr	r3, [r3]	@ D.5109, _10->ISR
 555 001c 0422     		movs	r2, #4	@ tmp124,
 556 001e 1340     		ands	r3, r2	@ D.5109, tmp124
 557 0020 FAD0     		beq	.L25	@,
 172:src/adc.c     **** 
 173:src/adc.c     **** 	// Get the conversion value
 174:src/adc.c     **** 	return (uint16_t) ADC1->DR;
 558              		.loc 2 174 0 is_stmt 1
 559 0022 034B     		ldr	r3, .L27	@ D.5108,
 560 0024 1B6C     		ldr	r3, [r3, #64]	@ D.5109, _13->DR
 561 0026 9BB2     		uxth	r3, r3	@ D.5110, D.5109
 175:src/adc.c     **** }
 562              		.loc 2 175 0
 563 0028 1800     		movs	r0, r3	@, <retval>
 564 002a 02B0     		add	sp, sp, #8	@,,
 565              		@ sp needed	@
 566 002c 7047     		bx	lr
 567              	.L28:
 568 002e C046     		.align	2
 569              	.L27:
 570 0030 00240140 		.word	1073816576
 571              		.cfi_endproc
 572              	.LFE23:
 573              		.size	ReadADC1_SameSampleTime, .-ReadADC1_SameSampleTime
 574              		.section	.text.ReadADC1Check,"ax",%progbits
ARM GAS  /tmp/ccyHaRvc.s 			page 30


 575              		.align	2
 576              		.global	ReadADC1Check
 577              		.code	16
 578              		.thumb_func
 579              		.type	ReadADC1Check, %function
 580              	ReadADC1Check:
 581              	.LFB24:
 176:src/adc.c     **** 
 177:src/adc.c     **** unsigned short ReadADC1Check (unsigned char channel)
 178:src/adc.c     **** {
 582              		.loc 2 178 0
 583              		.cfi_startproc
 584 0000 82B0     		sub	sp, sp, #8	@,,
 585              	.LCFI6:
 586              		.cfi_def_cfa_offset 8
 587 0002 0200     		movs	r2, r0	@ tmp137, channel
 588 0004 6B46     		mov	r3, sp	@ tmp153,
 589 0006 0733     		adds	r3, r3, #7	@ tmp138,
 590 0008 1A70     		strb	r2, [r3]	@ tmp139, channel
 179:src/adc.c     **** 	if (ADC1->CR & 0x01)			//reviso ADEN
 591              		.loc 2 179 0
 592 000a 204B     		ldr	r3, .L41	@ D.5112,
 593 000c 9B68     		ldr	r3, [r3, #8]	@ D.5113, _3->CR
 594 000e 0122     		movs	r2, #1	@ tmp140,
 595 0010 1340     		ands	r3, r2	@ D.5113, tmp140
 596 0012 01D0     		beq	.L39	@,
 180:src/adc.c     **** 		return 0xFFFF;
 597              		.loc 2 180 0
 598 0014 1E4B     		ldr	r3, .L41+4	@ D.5111,
 599 0016 35E0     		b	.L31	@
 600              	.L39:
 181:src/adc.c     **** 
 182:src/adc.c     **** 	//espero que este listo para convertir
 183:src/adc.c     **** 	while ((ADC1->ISR & 0x01) == 0);	//espero ARDY = 1
 601              		.loc 2 183 0
 602 0018 C046     		nop
 603              	.L32:
 604              		.loc 2 183 0 is_stmt 0 discriminator 1
 605 001a 1C4B     		ldr	r3, .L41	@ D.5112,
 606 001c 1B68     		ldr	r3, [r3]	@ D.5113, _8->ISR
 607 001e 0122     		movs	r2, #1	@ tmp141,
 608 0020 1340     		ands	r3, r2	@ D.5113, tmp141
 609 0022 FAD0     		beq	.L32	@,
 184:src/adc.c     **** 
 185:src/adc.c     **** 	if ((ADC1->CFGR1 & 0x00010000) == 0)			//reviso DISCONTINUOS = 1
 610              		.loc 2 185 0 is_stmt 1
 611 0024 194B     		ldr	r3, .L41	@ D.5112,
 612 0026 DA68     		ldr	r2, [r3, #12]	@ D.5113, _11->CFGR1
 613 0028 8023     		movs	r3, #128	@ tmp152,
 614 002a 5B02     		lsls	r3, r3, #9	@ tmp142, tmp152,
 615 002c 1340     		ands	r3, r2	@ D.5113, D.5113
 616 002e 01D1     		bne	.L33	@,
 186:src/adc.c     **** 		return 0xFFFF;
 617              		.loc 2 186 0
 618 0030 174B     		ldr	r3, .L41+4	@ D.5111,
 619 0032 27E0     		b	.L31	@
 620              	.L33:
ARM GAS  /tmp/ccyHaRvc.s 			page 31


 187:src/adc.c     **** 
 188:src/adc.c     **** 	if (ADC1->CFGR1 & 0x00002000)					//reviso CONT = 0
 621              		.loc 2 188 0
 622 0034 154B     		ldr	r3, .L41	@ D.5112,
 623 0036 DA68     		ldr	r2, [r3, #12]	@ D.5113, _15->CFGR1
 624 0038 8023     		movs	r3, #128	@ tmp151,
 625 003a 9B01     		lsls	r3, r3, #6	@ tmp143, tmp151,
 626 003c 1340     		ands	r3, r2	@ D.5113, D.5113
 627 003e 01D0     		beq	.L34	@,
 189:src/adc.c     **** 		return 0xFFFF;
 628              		.loc 2 189 0
 629 0040 134B     		ldr	r3, .L41+4	@ D.5111,
 630 0042 1FE0     		b	.L31	@
 631              	.L34:
 190:src/adc.c     **** 
 191:src/adc.c     **** 	if (ADC1->CFGR1 & 0x00000C00)					//reviso TRIGGER = 00
 632              		.loc 2 191 0
 633 0044 114B     		ldr	r3, .L41	@ D.5112,
 634 0046 DA68     		ldr	r2, [r3, #12]	@ D.5113, _19->CFGR1
 635 0048 C023     		movs	r3, #192	@ tmp150,
 636 004a 1B01     		lsls	r3, r3, #4	@ tmp144, tmp150,
 637 004c 1340     		ands	r3, r2	@ D.5113, D.5113
 638 004e 01D0     		beq	.L35	@,
 192:src/adc.c     **** 		return 0xFFFF;
 639              		.loc 2 192 0
 640 0050 0F4B     		ldr	r3, .L41+4	@ D.5111,
 641 0052 17E0     		b	.L31	@
 642              	.L35:
 193:src/adc.c     **** 
 194:src/adc.c     **** 	if (ADC1->CFGR1 & 0x00000020)					//reviso ALIGN = 0
 643              		.loc 2 194 0
 644 0054 0D4B     		ldr	r3, .L41	@ D.5112,
 645 0056 DB68     		ldr	r3, [r3, #12]	@ D.5113, _23->CFGR1
 646 0058 2022     		movs	r2, #32	@ tmp145,
 647 005a 1340     		ands	r3, r2	@ D.5113, tmp145
 648 005c 01D0     		beq	.L36	@,
 195:src/adc.c     **** 		return 0xFFFF;
 649              		.loc 2 195 0
 650 005e 0C4B     		ldr	r3, .L41+4	@ D.5111,
 651 0060 10E0     		b	.L31	@
 652              	.L36:
 196:src/adc.c     **** 
 197:src/adc.c     **** 	if (ADC1->CFGR1 & 0x00000018)					//reviso RES = 00
 653              		.loc 2 197 0
 654 0062 0A4B     		ldr	r3, .L41	@ D.5112,
 655 0064 DB68     		ldr	r3, [r3, #12]	@ D.5113, _27->CFGR1
 656 0066 1822     		movs	r2, #24	@ tmp146,
 657 0068 1340     		ands	r3, r2	@ D.5113, tmp146
 658 006a 01D0     		beq	.L40	@,
 198:src/adc.c     **** 		return 0xFFFF;
 659              		.loc 2 198 0
 660 006c 084B     		ldr	r3, .L41+4	@ D.5111,
 661 006e 09E0     		b	.L31	@
 662              	.L40:
 199:src/adc.c     **** 
 200:src/adc.c     **** 	//espero que no se este convirtiendo ADCSTART = 0
 201:src/adc.c     **** 	while ((ADC1->CR & 0x02) != 0);	//espero ADCSTART = 0
ARM GAS  /tmp/ccyHaRvc.s 			page 32


 663              		.loc 2 201 0
 664 0070 C046     		nop
 665              	.L38:
 666              		.loc 2 201 0 is_stmt 0 discriminator 1
 667 0072 064B     		ldr	r3, .L41	@ D.5112,
 668 0074 9B68     		ldr	r3, [r3, #8]	@ D.5113, _31->CR
 669 0076 0222     		movs	r2, #2	@ tmp147,
 670 0078 1340     		ands	r3, r2	@ D.5113, tmp147
 671 007a FAD1     		bne	.L38	@,
 202:src/adc.c     **** 
 203:src/adc.c     **** 	ADC1->CHSELR = 0x00000001;	//solo convierto CH0
 672              		.loc 2 203 0 is_stmt 1
 673 007c 034B     		ldr	r3, .L41	@ D.5112,
 674 007e 0122     		movs	r2, #1	@ tmp148,
 675 0080 9A62     		str	r2, [r3, #40]	@ tmp148, _34->CHSELR
 204:src/adc.c     **** 
 205:src/adc.c     **** 	return 1;
 676              		.loc 2 205 0
 677 0082 0123     		movs	r3, #1	@ D.5111,
 678              	.L31:
 206:src/adc.c     **** }
 679              		.loc 2 206 0
 680 0084 1800     		movs	r0, r3	@, <retval>
 681 0086 02B0     		add	sp, sp, #8	@,,
 682              		@ sp needed	@
 683 0088 7047     		bx	lr
 684              	.L42:
 685 008a C046     		.align	2
 686              	.L41:
 687 008c 00240140 		.word	1073816576
 688 0090 FFFF0000 		.word	65535
 689              		.cfi_endproc
 690              	.LFE24:
 691              		.size	ReadADC1Check, .-ReadADC1Check
 692              		.section	.text.ADCGetCalibrationFactor,"ax",%progbits
 693              		.align	2
 694              		.global	ADCGetCalibrationFactor
 695              		.code	16
 696              		.thumb_func
 697              		.type	ADCGetCalibrationFactor, %function
 698              	ADCGetCalibrationFactor:
 699              	.LFB25:
 207:src/adc.c     **** 
 208:src/adc.c     **** unsigned int ADCGetCalibrationFactor (void)
 209:src/adc.c     **** {
 700              		.loc 2 209 0
 701              		.cfi_startproc
 702 0000 84B0     		sub	sp, sp, #16	@,,
 703              	.LCFI7:
 704              		.cfi_def_cfa_offset 16
 210:src/adc.c     ****   uint32_t tmpreg = 0, calibrationcounter = 0, calibrationstatus = 0;
 705              		.loc 2 210 0
 706 0002 0023     		movs	r3, #0	@ tmp122,
 707 0004 0393     		str	r3, [sp, #12]	@ tmp122, tmpreg
 708 0006 0023     		movs	r3, #0	@ tmp123,
 709 0008 0293     		str	r3, [sp, #8]	@ tmp123, calibrationcounter
 710 000a 0023     		movs	r3, #0	@ tmp124,
ARM GAS  /tmp/ccyHaRvc.s 			page 33


 711 000c 0193     		str	r3, [sp, #4]	@ tmp124, calibrationstatus
 211:src/adc.c     **** 
 212:src/adc.c     ****   /* Set the ADC calibartion */
 213:src/adc.c     ****   ADC1->CR |= (uint32_t)ADC_CR_ADCAL;
 712              		.loc 2 213 0
 713 000e 124B     		ldr	r3, .L49	@ D.5114,
 714 0010 114A     		ldr	r2, .L49	@ D.5114,
 715 0012 9268     		ldr	r2, [r2, #8]	@ D.5115, _7->CR
 716 0014 8021     		movs	r1, #128	@ tmp137,
 717 0016 0906     		lsls	r1, r1, #24	@ tmp125, tmp137,
 718 0018 0A43     		orrs	r2, r1	@ D.5115, tmp125
 719 001a 9A60     		str	r2, [r3, #8]	@ D.5115, _6->CR
 720              	.L45:
 214:src/adc.c     **** 
 215:src/adc.c     ****   /* Wait until no ADC calibration is completed */
 216:src/adc.c     ****   do
 217:src/adc.c     ****   {
 218:src/adc.c     ****     calibrationstatus = ADC1->CR & ADC_CR_ADCAL;
 721              		.loc 2 218 0 discriminator 2
 722 001c 0E4B     		ldr	r3, .L49	@ D.5114,
 723 001e 9B68     		ldr	r3, [r3, #8]	@ D.5115, _12->CR
 724 0020 DB0F     		lsrs	r3, r3, #31	@ tmp127, D.5115,
 725 0022 DB07     		lsls	r3, r3, #31	@ tmp126, tmp127,
 726 0024 0193     		str	r3, [sp, #4]	@ tmp126, calibrationstatus
 219:src/adc.c     ****     calibrationcounter++;
 727              		.loc 2 219 0 discriminator 2
 728 0026 029B     		ldr	r3, [sp, #8]	@ tmp129, calibrationcounter
 729 0028 0133     		adds	r3, r3, #1	@ tmp128,
 730 002a 0293     		str	r3, [sp, #8]	@ tmp128, calibrationcounter
 220:src/adc.c     ****   } while((calibrationcounter != CALIBRATION_TIMEOUT) && (calibrationstatus != 0x00));
 731              		.loc 2 220 0 discriminator 2
 732 002c 029A     		ldr	r2, [sp, #8]	@ tmp130, calibrationcounter
 733 002e F023     		movs	r3, #240	@ tmp136,
 734 0030 1B02     		lsls	r3, r3, #8	@ tmp131, tmp136,
 735 0032 9A42     		cmp	r2, r3	@ tmp130, tmp131
 736 0034 02D0     		beq	.L44	@,
 737              		.loc 2 220 0 is_stmt 0 discriminator 1
 738 0036 019B     		ldr	r3, [sp, #4]	@ tmp132, calibrationstatus
 739 0038 002B     		cmp	r3, #0	@ tmp132,
 740 003a EFD1     		bne	.L45	@,
 741              	.L44:
 221:src/adc.c     **** 
 222:src/adc.c     ****   if((uint32_t)(ADC1->CR & ADC_CR_ADCAL) == RESET)
 742              		.loc 2 222 0 is_stmt 1
 743 003c 064B     		ldr	r3, .L49	@ D.5114,
 744 003e 9B68     		ldr	r3, [r3, #8]	@ D.5115, _16->CR
 745 0040 002B     		cmp	r3, #0	@ D.5116,
 746 0042 03DB     		blt	.L46	@,
 223:src/adc.c     ****   {
 224:src/adc.c     ****     /*Get the calibration factor from the ADC data register */
 225:src/adc.c     ****     tmpreg = ADC1->DR;
 747              		.loc 2 225 0
 748 0044 044B     		ldr	r3, .L49	@ D.5114,
 749 0046 1B6C     		ldr	r3, [r3, #64]	@ tmp133, _19->DR
 750 0048 0393     		str	r3, [sp, #12]	@ tmp133, tmpreg
 751 004a 01E0     		b	.L47	@
 752              	.L46:
ARM GAS  /tmp/ccyHaRvc.s 			page 34


 226:src/adc.c     ****   }
 227:src/adc.c     ****   else
 228:src/adc.c     ****   {
 229:src/adc.c     ****     /* Error factor */
 230:src/adc.c     ****     tmpreg = 0x00000000;
 753              		.loc 2 230 0
 754 004c 0023     		movs	r3, #0	@ tmp134,
 755 004e 0393     		str	r3, [sp, #12]	@ tmp134, tmpreg
 756              	.L47:
 231:src/adc.c     ****   }
 232:src/adc.c     ****   return tmpreg;
 757              		.loc 2 232 0
 758 0050 039B     		ldr	r3, [sp, #12]	@ D.5117, tmpreg
 233:src/adc.c     **** }
 759              		.loc 2 233 0
 760 0052 1800     		movs	r0, r3	@, <retval>
 761 0054 04B0     		add	sp, sp, #16	@,,
 762              		@ sp needed	@
 763 0056 7047     		bx	lr
 764              	.L50:
 765              		.align	2
 766              	.L49:
 767 0058 00240140 		.word	1073816576
 768              		.cfi_endproc
 769              	.LFE25:
 770              		.size	ADCGetCalibrationFactor, .-ADCGetCalibrationFactor
 771              		.section	.text.UpdatePhotoTransistor,"ax",%progbits
 772              		.align	2
 773              		.global	UpdatePhotoTransistor
 774              		.code	16
 775              		.thumb_func
 776              		.type	UpdatePhotoTransistor, %function
 777              	UpdatePhotoTransistor:
 778              	.LFB26:
 234:src/adc.c     **** 
 235:src/adc.c     **** #ifdef ADC_WITH_TEMP_SENSE
 236:src/adc.c     **** void UpdateTemp(void)
 237:src/adc.c     **** {
 238:src/adc.c     **** 	//hago update cada 1 seg
 239:src/adc.c     **** 	if (!tt_take_temp_sample)
 240:src/adc.c     **** 	{
 241:src/adc.c     **** 		tt_take_temp_sample = 1000;
 242:src/adc.c     **** 
 243:src/adc.c     **** 		board_temp [board_temp_index] = ReadADC1_SameSampleTime(ADC_CH16);
 244:src/adc.c     **** 		//board_temp [0] = ReadADC1_SameSampleTime(ADC_CH16);
 245:src/adc.c     **** 
 246:src/adc.c     **** 		if (board_temp_index < (SIZEOF_BOARD_TEMP - 1))
 247:src/adc.c     **** 			board_temp_index++;
 248:src/adc.c     **** 		else
 249:src/adc.c     **** 			board_temp_index = 0;
 250:src/adc.c     **** 
 251:src/adc.c     **** 		new_temp_sample = 1;
 252:src/adc.c     **** 	}
 253:src/adc.c     **** }
 254:src/adc.c     **** 
 255:src/adc.c     **** //devuelve el valor promedio de la temperatura
 256:src/adc.c     **** //si existen nuevas muestras hace la cuenta, sino contesta el ultimo valor calculado
ARM GAS  /tmp/ccyHaRvc.s 			page 35


 257:src/adc.c     **** unsigned short GetTemp (void)
 258:src/adc.c     **** {
 259:src/adc.c     ****     unsigned char i;
 260:src/adc.c     ****     unsigned int t = 0;
 261:src/adc.c     **** 
 262:src/adc.c     ****     if (new_temp_sample)
 263:src/adc.c     ****     {
 264:src/adc.c     ****         for (i = 0; i < SIZEOF_BOARD_TEMP; i++)
 265:src/adc.c     ****             t += board_temp[i];
 266:src/adc.c     **** 
 267:src/adc.c     ****         last_temp = t >> 3;
 268:src/adc.c     ****         new_temp_sample = 0;
 269:src/adc.c     ****     }
 270:src/adc.c     **** 
 271:src/adc.c     ****     return ConvertTemp(last_temp);
 272:src/adc.c     **** }
 273:src/adc.c     **** 
 274:src/adc.c     **** void FillTempBuffer (void)
 275:src/adc.c     **** {
 276:src/adc.c     **** 	unsigned char i;
 277:src/adc.c     **** 	unsigned short dummy;
 278:src/adc.c     **** 
 279:src/adc.c     **** 	dummy = ReadADC1_SameSampleTime(ADC_CH16);
 280:src/adc.c     **** 
 281:src/adc.c     **** 	for (i = 0; i < SIZEOF_BOARD_TEMP; i++)
 282:src/adc.c     **** 		 board_temp[i] = dummy;
 283:src/adc.c     **** 
 284:src/adc.c     **** }
 285:src/adc.c     **** 
 286:src/adc.c     **** short ConvertTemp (unsigned short adc_temp)
 287:src/adc.c     **** {
 288:src/adc.c     **** 	int32_t temperature; /* will contain the temperature in degree Celsius */
 289:src/adc.c     **** 	//temperature = (((int32_t) ADC1->DR * VDD_APPLI / VDD_CALIB) - (int32_t) *TEMP30_CAL_ADDR );
 290:src/adc.c     **** 	temperature = (int32_t) *TEMP30_CAL_ADDR - adc_temp;
 291:src/adc.c     **** 	temperature *= 1000;
 292:src/adc.c     **** 	temperature = temperature / 5336;	//4.3mV / C
 293:src/adc.c     **** 	temperature = temperature + 30;
 294:src/adc.c     **** 
 295:src/adc.c     **** 	return (short) temperature;
 296:src/adc.c     **** }
 297:src/adc.c     **** #endif //ADC_WITH_TEMP_SENSE
 298:src/adc.c     **** 
 299:src/adc.c     **** void UpdatePhotoTransistor(void)
 300:src/adc.c     **** {
 779              		.loc 2 300 0
 780              		.cfi_startproc
 301:src/adc.c     **** 	//hago update cada 1 seg
 302:src/adc.c     **** 	if (!tt_take_photo_sample)
 781              		.loc 2 302 0
 782 0000 124B     		ldr	r3, .L56	@ tmp117,
 783 0002 1B88     		ldrh	r3, [r3]	@ tmp118, tt_take_photo_sample
 784 0004 9BB2     		uxth	r3, r3	@ D.5118, tmp118
 785 0006 002B     		cmp	r3, #0	@ D.5118,
 786 0008 1DD1     		bne	.L55	@,
 303:src/adc.c     **** 	{
 304:src/adc.c     **** 		tt_take_photo_sample = 1000;
 787              		.loc 2 304 0
ARM GAS  /tmp/ccyHaRvc.s 			page 36


 788 000a 104B     		ldr	r3, .L56	@ tmp119,
 789 000c FA22     		movs	r2, #250	@ tmp140,
 790 000e 9200     		lsls	r2, r2, #2	@ tmp120, tmp140,
 791 0010 1A80     		strh	r2, [r3]	@ tmp121, tt_take_photo_sample
 305:src/adc.c     **** 
 306:src/adc.c     **** 		// VoltagePhoto [photo_index] = ReadADC1_SameSampleTime(ADC_CH1);
 307:src/adc.c     **** 		VoltagePhoto [photo_index] = Light_Sense;
 792              		.loc 2 307 0
 793 0012 0F4B     		ldr	r3, .L56+4	@ tmp122,
 794 0014 1B78     		ldrb	r3, [r3]	@ D.5119, photo_index
 795 0016 1A00     		movs	r2, r3	@ D.5120, D.5119
 796 0018 0E4B     		ldr	r3, .L56+8	@ tmp123,
 797 001a 5B88     		ldrh	r3, [r3, #2]	@ tmp125,
 798 001c 99B2     		uxth	r1, r3	@ D.5118, tmp125
 799 001e 0E4B     		ldr	r3, .L56+12	@ tmp126,
 800 0020 5200     		lsls	r2, r2, #1	@ tmp127, D.5120,
 801 0022 D152     		strh	r1, [r2, r3]	@ tmp128, VoltagePhoto
 308:src/adc.c     **** 
 309:src/adc.c     **** 		if (photo_index < (SIZEOF_PHOTO_TRANS - 1))
 802              		.loc 2 309 0
 803 0024 0A4B     		ldr	r3, .L56+4	@ tmp129,
 804 0026 1B78     		ldrb	r3, [r3]	@ D.5119, photo_index
 805 0028 1E2B     		cmp	r3, #30	@ D.5119,
 806 002a 06D8     		bhi	.L53	@,
 310:src/adc.c     **** 			photo_index++;
 807              		.loc 2 310 0
 808 002c 084B     		ldr	r3, .L56+4	@ tmp130,
 809 002e 1B78     		ldrb	r3, [r3]	@ D.5119, photo_index
 810 0030 0133     		adds	r3, r3, #1	@ tmp131,
 811 0032 DAB2     		uxtb	r2, r3	@ D.5119, tmp131
 812 0034 064B     		ldr	r3, .L56+4	@ tmp132,
 813 0036 1A70     		strb	r2, [r3]	@ tmp133, photo_index
 814 0038 02E0     		b	.L54	@
 815              	.L53:
 311:src/adc.c     **** 		else
 312:src/adc.c     **** 			photo_index = 0;
 816              		.loc 2 312 0
 817 003a 054B     		ldr	r3, .L56+4	@ tmp134,
 818 003c 0022     		movs	r2, #0	@ tmp135,
 819 003e 1A70     		strb	r2, [r3]	@ tmp136, photo_index
 820              	.L54:
 313:src/adc.c     **** 
 314:src/adc.c     **** 		new_photo_sample = 1;
 821              		.loc 2 314 0
 822 0040 064B     		ldr	r3, .L56+16	@ tmp137,
 823 0042 0122     		movs	r2, #1	@ tmp138,
 824 0044 1A70     		strb	r2, [r3]	@ tmp139, new_photo_sample
 825              	.L55:
 315:src/adc.c     **** 	}
 316:src/adc.c     **** }
 826              		.loc 2 316 0
 827 0046 C046     		nop
 828              		@ sp needed	@
 829 0048 7047     		bx	lr
 830              	.L57:
 831 004a C046     		.align	2
 832              	.L56:
ARM GAS  /tmp/ccyHaRvc.s 			page 37


 833 004c 00000000 		.word	tt_take_photo_sample
 834 0050 00000000 		.word	photo_index
 835 0054 00000000 		.word	adc_ch
 836 0058 00000000 		.word	VoltagePhoto
 837 005c 00000000 		.word	new_photo_sample
 838              		.cfi_endproc
 839              	.LFE26:
 840              		.size	UpdatePhotoTransistor, .-UpdatePhotoTransistor
 841              		.section	.text.FillPhotoBuffer,"ax",%progbits
 842              		.align	2
 843              		.global	FillPhotoBuffer
 844              		.code	16
 845              		.thumb_func
 846              		.type	FillPhotoBuffer, %function
 847              	FillPhotoBuffer:
 848              	.LFB27:
 317:src/adc.c     **** 
 318:src/adc.c     **** void FillPhotoBuffer (void)
 319:src/adc.c     **** {
 849              		.loc 2 319 0
 850              		.cfi_startproc
 851 0000 82B0     		sub	sp, sp, #8	@,,
 852              	.LCFI8:
 853              		.cfi_def_cfa_offset 8
 320:src/adc.c     **** 	unsigned char i;
 321:src/adc.c     **** 	unsigned short dummy;
 322:src/adc.c     **** 
 323:src/adc.c     **** 	// dummy = ReadADC1_SameSampleTime(ADC_CH1);
 324:src/adc.c     **** 	dummy = Light_Sense;
 854              		.loc 2 324 0
 855 0002 01AB     		add	r3, sp, #4	@ tmp112,,
 856 0004 0F4A     		ldr	r2, .L61	@ tmp113,
 857 0006 5288     		ldrh	r2, [r2, #2]	@ tmp114,
 858 0008 1A80     		strh	r2, [r3]	@ tmp114, dummy
 325:src/adc.c     **** 
 326:src/adc.c     **** 	for (i = 0; i < SIZEOF_PHOTO_TRANS; i++)
 859              		.loc 2 326 0
 860 000a 6B46     		mov	r3, sp	@ tmp129,
 861 000c 0733     		adds	r3, r3, #7	@ tmp115,
 862 000e 0022     		movs	r2, #0	@ tmp116,
 863 0010 1A70     		strb	r2, [r3]	@ tmp117, i
 864 0012 0EE0     		b	.L59	@
 865              	.L60:
 327:src/adc.c     **** 		 VoltagePhoto[i] = dummy;
 866              		.loc 2 327 0 discriminator 3
 867 0014 6B46     		mov	r3, sp	@ tmp130,
 868 0016 0733     		adds	r3, r3, #7	@ tmp118,
 869 0018 1A78     		ldrb	r2, [r3]	@ D.5121, i
 870 001a 0B4B     		ldr	r3, .L61+4	@ tmp119,
 871 001c 5200     		lsls	r2, r2, #1	@ tmp120, D.5121,
 872 001e 01A9     		add	r1, sp, #4	@ tmp121,,
 873 0020 0988     		ldrh	r1, [r1]	@ tmp122, dummy
 874 0022 D152     		strh	r1, [r2, r3]	@ tmp122, VoltagePhoto
 326:src/adc.c     **** 		 VoltagePhoto[i] = dummy;
 875              		.loc 2 326 0 discriminator 3
 876 0024 6B46     		mov	r3, sp	@ tmp131,
 877 0026 0733     		adds	r3, r3, #7	@ tmp123,
ARM GAS  /tmp/ccyHaRvc.s 			page 38


 878 0028 1A78     		ldrb	r2, [r3]	@ D.5122, i
 879 002a 6B46     		mov	r3, sp	@ tmp132,
 880 002c 0733     		adds	r3, r3, #7	@ tmp124,
 881 002e 0132     		adds	r2, r2, #1	@ tmp125,
 882 0030 1A70     		strb	r2, [r3]	@ tmp126, i
 883              	.L59:
 326:src/adc.c     **** 		 VoltagePhoto[i] = dummy;
 884              		.loc 2 326 0 is_stmt 0 discriminator 1
 885 0032 6B46     		mov	r3, sp	@ tmp133,
 886 0034 0733     		adds	r3, r3, #7	@ tmp127,
 887 0036 1B78     		ldrb	r3, [r3]	@ tmp128, i
 888 0038 1F2B     		cmp	r3, #31	@ tmp128,
 889 003a EBD9     		bls	.L60	@,
 328:src/adc.c     **** 
 329:src/adc.c     **** }
 890              		.loc 2 329 0 is_stmt 1
 891 003c C046     		nop
 892 003e 02B0     		add	sp, sp, #8	@,,
 893              		@ sp needed	@
 894 0040 7047     		bx	lr
 895              	.L62:
 896 0042 C046     		.align	2
 897              	.L61:
 898 0044 00000000 		.word	adc_ch
 899 0048 00000000 		.word	VoltagePhoto
 900              		.cfi_endproc
 901              	.LFE27:
 902              		.size	FillPhotoBuffer, .-FillPhotoBuffer
 903              		.section	.text.GetPhoto,"ax",%progbits
 904              		.align	2
 905              		.global	GetPhoto
 906              		.code	16
 907              		.thumb_func
 908              		.type	GetPhoto, %function
 909              	GetPhoto:
 910              	.LFB28:
 330:src/adc.c     **** 
 331:src/adc.c     **** //devuelve el valor promedio del PhotoTransistor
 332:src/adc.c     **** //si existen nuevas muestras hace la cuenta, sino contesta el ultimo valor calculado
 333:src/adc.c     **** unsigned short GetPhoto (void)
 334:src/adc.c     **** {
 911              		.loc 2 334 0
 912              		.cfi_startproc
 913 0000 82B0     		sub	sp, sp, #8	@,,
 914              	.LCFI9:
 915              		.cfi_def_cfa_offset 8
 335:src/adc.c     ****     unsigned char i;
 336:src/adc.c     ****     unsigned int t = 0;
 916              		.loc 2 336 0
 917 0002 0023     		movs	r3, #0	@ tmp119,
 918 0004 0093     		str	r3, [sp]	@ tmp119, t
 337:src/adc.c     **** 
 338:src/adc.c     ****     if (new_photo_sample)
 919              		.loc 2 338 0
 920 0006 164B     		ldr	r3, .L68	@ tmp120,
 921 0008 1B78     		ldrb	r3, [r3]	@ D.5123, new_photo_sample
 922 000a 002B     		cmp	r3, #0	@ D.5123,
ARM GAS  /tmp/ccyHaRvc.s 			page 39


 923 000c 22D0     		beq	.L64	@,
 339:src/adc.c     ****     {
 340:src/adc.c     ****         for (i = 0; i < SIZEOF_PHOTO_TRANS; i++)
 924              		.loc 2 340 0
 925 000e 6B46     		mov	r3, sp	@ tmp143,
 926 0010 0733     		adds	r3, r3, #7	@ tmp121,
 927 0012 0022     		movs	r2, #0	@ tmp122,
 928 0014 1A70     		strb	r2, [r3]	@ tmp123, i
 929 0016 10E0     		b	.L65	@
 930              	.L66:
 341:src/adc.c     ****         {
 342:src/adc.c     ****             t += VoltagePhoto[i];
 931              		.loc 2 342 0 discriminator 3
 932 0018 6B46     		mov	r3, sp	@ tmp144,
 933 001a 0733     		adds	r3, r3, #7	@ tmp124,
 934 001c 1A78     		ldrb	r2, [r3]	@ D.5124, i
 935 001e 114B     		ldr	r3, .L68+4	@ tmp125,
 936 0020 5200     		lsls	r2, r2, #1	@ tmp126, D.5124,
 937 0022 D35A     		ldrh	r3, [r2, r3]	@ D.5125, VoltagePhoto
 938 0024 1A00     		movs	r2, r3	@ D.5126, D.5125
 939 0026 009B     		ldr	r3, [sp]	@ tmp128, t
 940 0028 9B18     		adds	r3, r3, r2	@ tmp127, tmp128, D.5126
 941 002a 0093     		str	r3, [sp]	@ tmp127, t
 340:src/adc.c     ****         {
 942              		.loc 2 340 0 discriminator 3
 943 002c 6B46     		mov	r3, sp	@ tmp145,
 944 002e 0733     		adds	r3, r3, #7	@ tmp129,
 945 0030 1A78     		ldrb	r2, [r3]	@ D.5123, i
 946 0032 6B46     		mov	r3, sp	@ tmp146,
 947 0034 0733     		adds	r3, r3, #7	@ tmp130,
 948 0036 0132     		adds	r2, r2, #1	@ tmp131,
 949 0038 1A70     		strb	r2, [r3]	@ tmp132, i
 950              	.L65:
 340:src/adc.c     ****         {
 951              		.loc 2 340 0 is_stmt 0 discriminator 1
 952 003a 6B46     		mov	r3, sp	@ tmp147,
 953 003c 0733     		adds	r3, r3, #7	@ tmp133,
 954 003e 1B78     		ldrb	r3, [r3]	@ tmp134, i
 955 0040 1F2B     		cmp	r3, #31	@ tmp134,
 956 0042 E9D9     		bls	.L66	@,
 343:src/adc.c     ****         }
 344:src/adc.c     **** 
 345:src/adc.c     ****         last_photo = t >> DIVISOR_PHOTO;
 957              		.loc 2 345 0 is_stmt 1
 958 0044 009B     		ldr	r3, [sp]	@ tmp135, t
 959 0046 5B09     		lsrs	r3, r3, #5	@ D.5126, tmp135,
 960 0048 9AB2     		uxth	r2, r3	@ D.5125, D.5126
 961 004a 074B     		ldr	r3, .L68+8	@ tmp136,
 962 004c 1A80     		strh	r2, [r3]	@ tmp137, last_photo
 346:src/adc.c     ****         new_photo_sample = 0;
 963              		.loc 2 346 0
 964 004e 044B     		ldr	r3, .L68	@ tmp138,
 965 0050 0022     		movs	r2, #0	@ tmp139,
 966 0052 1A70     		strb	r2, [r3]	@ tmp140, new_photo_sample
 967              	.L64:
 347:src/adc.c     ****     }
 348:src/adc.c     **** 
ARM GAS  /tmp/ccyHaRvc.s 			page 40


 349:src/adc.c     ****     return last_photo;
 968              		.loc 2 349 0
 969 0054 044B     		ldr	r3, .L68+8	@ tmp141,
 970 0056 1B88     		ldrh	r3, [r3]	@ D.5125, last_photo
 350:src/adc.c     **** }
 971              		.loc 2 350 0
 972 0058 1800     		movs	r0, r3	@, <retval>
 973 005a 02B0     		add	sp, sp, #8	@,,
 974              		@ sp needed	@
 975 005c 7047     		bx	lr
 976              	.L69:
 977 005e C046     		.align	2
 978              	.L68:
 979 0060 00000000 		.word	new_photo_sample
 980 0064 00000000 		.word	VoltagePhoto
 981 0068 00000000 		.word	last_photo
 982              		.cfi_endproc
 983              	.LFE28:
 984              		.size	GetPhoto, .-GetPhoto
 985              		.text
 986              	.Letext0:
 987              		.file 3 "./cmsis_boot/stm32f0xx.h"
 988              		.file 4 "/usr/local/sbin/gcc-arm-none-eabi-5_2-2015q4/arm-none-eabi/include/machine/_default_types
 989              		.file 5 "/usr/local/sbin/gcc-arm-none-eabi-5_2-2015q4/arm-none-eabi/include/sys/_stdint.h"