ARM GAS  /tmp/ccOLcpfU.s 			page 1


   1              		.syntax unified
   2              		.cpu cortex-m0
   3              		.fpu softvfp
   4              		.eabi_attribute 20, 1	@ Tag_ABI_FP_denormal
   5              		.eabi_attribute 21, 1	@ Tag_ABI_FP_exceptions
   6              		.eabi_attribute 23, 3	@ Tag_ABI_FP_number_model
   7              		.eabi_attribute 24, 1	@ Tag_ABI_align8_needed
   8              		.eabi_attribute 25, 1	@ Tag_ABI_align8_preserved
   9              		.eabi_attribute 26, 1	@ Tag_ABI_enum_size
  10              		.eabi_attribute 30, 6	@ Tag_ABI_optimization_goals
  11              		.eabi_attribute 34, 0	@ Tag_CPU_unaligned_access
  12              		.eabi_attribute 18, 4	@ Tag_ABI_PCS_wchar_t
  13              		.file	"gps_vktel.c"
  14              	@ GNU C11 (GNU Tools for ARM Embedded Processors) version 5.2.1 20151202 (release) [ARM/embedded-5-
  15              	@	compiled by GNU C version 4.7.4, GMP version 4.3.2, MPFR version 2.4.2, MPC version 0.8.1
  16              	@ GGC heuristics: --param ggc-min-expand=100 --param ggc-min-heapsize=131072
  17              	@ options passed:  -I . -I ./src -I ./cmsis_boot -I ./cmsis_core
  18              	@ -I ../STM32F0xx_StdPeriph_Lib_V1.3.1/Libraries/STM32F0xx_StdPeriph_Driver/inc
  19              	@ -I ./inc -I ./cmsis_boot -imultilib armv6-m
  20              	@ -iprefix /usr/local/sbin/gcc-arm-none-eabi-5_2-2015q4/bin/../lib/gcc/arm-none-eabi/5.2.1/
  21              	@ -isysroot /usr/local/sbin/gcc-arm-none-eabi-5_2-2015q4/bin/../arm-none-eabi
  22              	@ -D__USES_INITFINI__ src/gps_vktel.c -mcpu=cortex-m0 -mthumb
  23              	@ -auxbase-strip src/gps_vktel.o -g -gdwarf-2 -O0 -Wall
  24              	@ -fomit-frame-pointer -fdata-sections -ffunction-sections -fverbose-asm
  25              	@ options enabled:  -faggressive-loop-optimizations -fauto-inc-dec
  26              	@ -fchkp-check-incomplete-type -fchkp-check-read -fchkp-check-write
  27              	@ -fchkp-instrument-calls -fchkp-narrow-bounds -fchkp-optimize
  28              	@ -fchkp-store-bounds -fchkp-use-static-bounds
  29              	@ -fchkp-use-static-const-bounds -fchkp-use-wrappers -fcommon
  30              	@ -fdata-sections -fdelete-null-pointer-checks -fdwarf2-cfi-asm
  31              	@ -fearly-inlining -feliminate-unused-debug-types -ffunction-cse
  32              	@ -ffunction-sections -fgcse-lm -fgnu-runtime -fgnu-unique -fident
  33              	@ -finline-atomics -fira-hoist-pressure -fira-share-save-slots
  34              	@ -fira-share-spill-slots -fivopts -fkeep-static-consts
  35              	@ -fleading-underscore -flifetime-dse -flto-odr-type-merging -fmath-errno
  36              	@ -fmerge-debug-strings -fomit-frame-pointer -fpeephole
  37              	@ -fprefetch-loop-arrays -freg-struct-return
  38              	@ -fsched-critical-path-heuristic -fsched-dep-count-heuristic
  39              	@ -fsched-group-heuristic -fsched-interblock -fsched-last-insn-heuristic
  40              	@ -fsched-rank-heuristic -fsched-spec -fsched-spec-insn-heuristic
  41              	@ -fsched-stalled-insns-dep -fsemantic-interposition -fshow-column
  42              	@ -fsigned-zeros -fsplit-ivs-in-unroller -fstdarg-opt
  43              	@ -fstrict-volatile-bitfields -fsync-libcalls -ftrapping-math
  44              	@ -ftree-coalesce-vars -ftree-cselim -ftree-forwprop -ftree-loop-if-convert
  45              	@ -ftree-loop-im -ftree-loop-ivcanon -ftree-loop-optimize
  46              	@ -ftree-parallelize-loops= -ftree-phiprop -ftree-reassoc -ftree-scev-cprop
  47              	@ -funit-at-a-time -fverbose-asm -fzero-initialized-in-bss -mlittle-endian
  48              	@ -mpic-data-is-text-relative -msched-prolog -mthumb
  49              	@ -mvectorize-with-neon-quad
  50              	
  51              		.text
  52              	.Ltext0:
  53              		.cfi_sections	.debug_frame
  54              		.global	gps_state
  55              		.section	.bss.gps_state,"aw",%nobits
  56              		.type	gps_state, %object
  57              		.size	gps_state, 1
ARM GAS  /tmp/ccOLcpfU.s 			page 2


  58              	gps_state:
  59 0000 00       		.space	1
  60              		.comm	gps_timeout,2,2
  61              		.comm	gps_buff,128,4
  62              		.global	str_conf1
  63              		.section	.data.str_conf1,"aw",%progbits
  64              		.align	2
  65              		.type	str_conf1, %object
  66              		.size	str_conf1, 22
  67              	str_conf1:
  68 0000 B5       		.byte	-75
  69 0001 62       		.byte	98
  70 0002 06       		.byte	6
  71 0003 08       		.byte	8
  72 0004 06       		.byte	6
  73 0005 00       		.byte	0
  74 0006 10       		.byte	16
  75 0007 27       		.byte	39
  76 0008 01       		.byte	1
  77 0009 00       		.byte	0
  78 000a 01       		.byte	1
  79 000b 00       		.byte	0
  80 000c 4D       		.byte	77
  81 000d DD       		.byte	-35
  82 000e B5       		.byte	-75
  83 000f 62       		.byte	98
  84 0010 06       		.byte	6
  85 0011 08       		.byte	8
  86 0012 00       		.byte	0
  87 0013 00       		.byte	0
  88 0014 0E       		.byte	14
  89 0015 30       		.byte	48
  90              		.global	str_conf2
  91              		.section	.data.str_conf2,"aw",%progbits
  92              		.align	2
  93              		.type	str_conf2, %object
  94              		.size	str_conf2, 26
  95              	str_conf2:
  96 0000 24       		.byte	36
  97 0001 45       		.byte	69
  98 0002 49       		.byte	73
  99 0003 47       		.byte	71
 100 0004 50       		.byte	80
 101 0005 51       		.byte	81
 102 0006 2C       		.byte	44
 103 0007 44       		.byte	68
 104 0008 54       		.byte	84
 105 0009 4D       		.byte	77
 106 000a 2A       		.byte	42
 107 000b 33       		.byte	51
 108 000c 42       		.byte	66
 109 000d 0D       		.byte	13
 110 000e 0A       		.byte	10
 111 000f B5       		.byte	-75
 112 0010 62       		.byte	98
 113 0011 06       		.byte	6
 114 0012 01       		.byte	1
ARM GAS  /tmp/ccOLcpfU.s 			page 3


 115 0013 03       		.byte	3
 116 0014 00       		.byte	0
 117 0015 F0       		.byte	-16
 118 0016 0A       		.byte	10
 119 0017 00       		.byte	0
 120 0018 04       		.byte	4
 121 0019 23       		.byte	35
 122              		.global	str_conf3
 123              		.section	.data.str_conf3,"aw",%progbits
 124              		.align	2
 125              		.type	str_conf3, %object
 126              		.size	str_conf3, 26
 127              	str_conf3:
 128 0000 24       		.byte	36
 129 0001 45       		.byte	69
 130 0002 49       		.byte	73
 131 0003 47       		.byte	71
 132 0004 50       		.byte	80
 133 0005 51       		.byte	81
 134 0006 2C       		.byte	44
 135 0007 47       		.byte	71
 136 0008 42       		.byte	66
 137 0009 53       		.byte	83
 138 000a 2A       		.byte	42
 139 000b 33       		.byte	51
 140 000c 30       		.byte	48
 141 000d 0D       		.byte	13
 142 000e 0A       		.byte	10
 143 000f B5       		.byte	-75
 144 0010 62       		.byte	98
 145 0011 06       		.byte	6
 146 0012 01       		.byte	1
 147 0013 03       		.byte	3
 148 0014 00       		.byte	0
 149 0015 F0       		.byte	-16
 150 0016 09       		.byte	9
 151 0017 00       		.byte	0
 152 0018 03       		.byte	3
 153 0019 21       		.byte	33
 154              		.global	str_conf4
 155              		.section	.data.str_conf4,"aw",%progbits
 156              		.align	2
 157              		.type	str_conf4, %object
 158              		.size	str_conf4, 26
 159              	str_conf4:
 160 0000 24       		.byte	36
 161 0001 45       		.byte	69
 162 0002 49       		.byte	73
 163 0003 47       		.byte	71
 164 0004 50       		.byte	80
 165 0005 51       		.byte	81
 166 0006 2C       		.byte	44
 167 0007 47       		.byte	71
 168 0008 47       		.byte	71
 169 0009 41       		.byte	65
 170 000a 2A       		.byte	42
 171 000b 32       		.byte	50
ARM GAS  /tmp/ccOLcpfU.s 			page 4


 172 000c 37       		.byte	55
 173 000d 0D       		.byte	13
 174 000e 0A       		.byte	10
 175 000f B5       		.byte	-75
 176 0010 62       		.byte	98
 177 0011 06       		.byte	6
 178 0012 01       		.byte	1
 179 0013 03       		.byte	3
 180 0014 00       		.byte	0
 181 0015 F0       		.byte	-16
 182 0016 00       		.byte	0
 183 0017 00       		.byte	0
 184 0018 FA       		.byte	-6
 185 0019 0F       		.byte	15
 186              		.global	str_conf5
 187              		.section	.data.str_conf5,"aw",%progbits
 188              		.align	2
 189              		.type	str_conf5, %object
 190              		.size	str_conf5, 26
 191              	str_conf5:
 192 0000 24       		.byte	36
 193 0001 45       		.byte	69
 194 0002 49       		.byte	73
 195 0003 47       		.byte	71
 196 0004 50       		.byte	80
 197 0005 51       		.byte	81
 198 0006 2C       		.byte	44
 199 0007 47       		.byte	71
 200 0008 4C       		.byte	76
 201 0009 4C       		.byte	76
 202 000a 2A       		.byte	42
 203 000b 32       		.byte	50
 204 000c 31       		.byte	49
 205 000d 0D       		.byte	13
 206 000e 0A       		.byte	10
 207 000f B5       		.byte	-75
 208 0010 62       		.byte	98
 209 0011 06       		.byte	6
 210 0012 01       		.byte	1
 211 0013 03       		.byte	3
 212 0014 00       		.byte	0
 213 0015 F0       		.byte	-16
 214 0016 01       		.byte	1
 215 0017 01       		.byte	1
 216 0018 FC       		.byte	-4
 217 0019 12       		.byte	18
 218              		.global	str_conf6
 219              		.section	.data.str_conf6,"aw",%progbits
 220              		.align	2
 221              		.type	str_conf6, %object
 222              		.size	str_conf6, 26
 223              	str_conf6:
 224 0000 24       		.byte	36
 225 0001 45       		.byte	69
 226 0002 49       		.byte	73
 227 0003 47       		.byte	71
 228 0004 50       		.byte	80
ARM GAS  /tmp/ccOLcpfU.s 			page 5


 229 0005 51       		.byte	81
 230 0006 2C       		.byte	44
 231 0007 47       		.byte	71
 232 0008 52       		.byte	82
 233 0009 53       		.byte	83
 234 000a 2A       		.byte	42
 235 000b 32       		.byte	50
 236 000c 30       		.byte	48
 237 000d 0D       		.byte	13
 238 000e 0A       		.byte	10
 239 000f B5       		.byte	-75
 240 0010 62       		.byte	98
 241 0011 06       		.byte	6
 242 0012 01       		.byte	1
 243 0013 03       		.byte	3
 244 0014 00       		.byte	0
 245 0015 F0       		.byte	-16
 246 0016 06       		.byte	6
 247 0017 00       		.byte	0
 248 0018 00       		.byte	0
 249 0019 1B       		.byte	27
 250              		.global	str_conf7
 251              		.section	.data.str_conf7,"aw",%progbits
 252              		.align	2
 253              		.type	str_conf7, %object
 254              		.size	str_conf7, 26
 255              	str_conf7:
 256 0000 24       		.byte	36
 257 0001 45       		.byte	69
 258 0002 49       		.byte	73
 259 0003 47       		.byte	71
 260 0004 50       		.byte	80
 261 0005 51       		.byte	81
 262 0006 2C       		.byte	44
 263 0007 47       		.byte	71
 264 0008 53       		.byte	83
 265 0009 41       		.byte	65
 266 000a 2A       		.byte	42
 267 000b 33       		.byte	51
 268 000c 33       		.byte	51
 269 000d 0D       		.byte	13
 270 000e 0A       		.byte	10
 271 000f B5       		.byte	-75
 272 0010 62       		.byte	98
 273 0011 06       		.byte	6
 274 0012 01       		.byte	1
 275 0013 03       		.byte	3
 276 0014 00       		.byte	0
 277 0015 F0       		.byte	-16
 278 0016 02       		.byte	2
 279 0017 00       		.byte	0
 280 0018 FC       		.byte	-4
 281 0019 13       		.byte	19
 282              		.global	str_conf8
 283              		.section	.data.str_conf8,"aw",%progbits
 284              		.align	2
 285              		.type	str_conf8, %object
ARM GAS  /tmp/ccOLcpfU.s 			page 6


 286              		.size	str_conf8, 26
 287              	str_conf8:
 288 0000 24       		.byte	36
 289 0001 45       		.byte	69
 290 0002 49       		.byte	73
 291 0003 47       		.byte	71
 292 0004 50       		.byte	80
 293 0005 51       		.byte	81
 294 0006 2C       		.byte	44
 295 0007 47       		.byte	71
 296 0008 53       		.byte	83
 297 0009 54       		.byte	84
 298 000a 2A       		.byte	42
 299 000b 32       		.byte	50
 300 000c 36       		.byte	54
 301 000d 0D       		.byte	13
 302 000e 0A       		.byte	10
 303 000f B5       		.byte	-75
 304 0010 62       		.byte	98
 305 0011 06       		.byte	6
 306 0012 01       		.byte	1
 307 0013 03       		.byte	3
 308 0014 00       		.byte	0
 309 0015 F0       		.byte	-16
 310 0016 07       		.byte	7
 311 0017 00       		.byte	0
 312 0018 01       		.byte	1
 313 0019 1D       		.byte	29
 314              		.global	str_conf9
 315              		.section	.data.str_conf9,"aw",%progbits
 316              		.align	2
 317              		.type	str_conf9, %object
 318              		.size	str_conf9, 26
 319              	str_conf9:
 320 0000 24       		.byte	36
 321 0001 45       		.byte	69
 322 0002 49       		.byte	73
 323 0003 47       		.byte	71
 324 0004 50       		.byte	80
 325 0005 51       		.byte	81
 326 0006 2C       		.byte	44
 327 0007 47       		.byte	71
 328 0008 53       		.byte	83
 329 0009 56       		.byte	86
 330 000a 2A       		.byte	42
 331 000b 32       		.byte	50
 332 000c 34       		.byte	52
 333 000d 0D       		.byte	13
 334 000e 0A       		.byte	10
 335 000f B5       		.byte	-75
 336 0010 62       		.byte	98
 337 0011 06       		.byte	6
 338 0012 01       		.byte	1
 339 0013 03       		.byte	3
 340 0014 00       		.byte	0
 341 0015 F0       		.byte	-16
 342 0016 03       		.byte	3
ARM GAS  /tmp/ccOLcpfU.s 			page 7


 343 0017 00       		.byte	0
 344 0018 FD       		.byte	-3
 345 0019 15       		.byte	21
 346              		.global	str_conf10
 347              		.section	.data.str_conf10,"aw",%progbits
 348              		.align	2
 349              		.type	str_conf10, %object
 350              		.size	str_conf10, 26
 351              	str_conf10:
 352 0000 24       		.byte	36
 353 0001 45       		.byte	69
 354 0002 49       		.byte	73
 355 0003 47       		.byte	71
 356 0004 50       		.byte	80
 357 0005 51       		.byte	81
 358 0006 2C       		.byte	44
 359 0007 52       		.byte	82
 360 0008 4D       		.byte	77
 361 0009 43       		.byte	67
 362 000a 2A       		.byte	42
 363 000b 33       		.byte	51
 364 000c 41       		.byte	65
 365 000d 0D       		.byte	13
 366 000e 0A       		.byte	10
 367 000f B5       		.byte	-75
 368 0010 62       		.byte	98
 369 0011 06       		.byte	6
 370 0012 01       		.byte	1
 371 0013 03       		.byte	3
 372 0014 00       		.byte	0
 373 0015 F0       		.byte	-16
 374 0016 04       		.byte	4
 375 0017 00       		.byte	0
 376 0018 FE       		.byte	-2
 377 0019 17       		.byte	23
 378              		.global	str_conf11
 379              		.section	.data.str_conf11,"aw",%progbits
 380              		.align	2
 381              		.type	str_conf11, %object
 382              		.size	str_conf11, 26
 383              	str_conf11:
 384 0000 24       		.byte	36
 385 0001 45       		.byte	69
 386 0002 49       		.byte	73
 387 0003 47       		.byte	71
 388 0004 50       		.byte	80
 389 0005 51       		.byte	81
 390 0006 2C       		.byte	44
 391 0007 56       		.byte	86
 392 0008 54       		.byte	84
 393 0009 47       		.byte	71
 394 000a 2A       		.byte	42
 395 000b 32       		.byte	50
 396 000c 33       		.byte	51
 397 000d 0D       		.byte	13
 398 000e 0A       		.byte	10
 399 000f B5       		.byte	-75
ARM GAS  /tmp/ccOLcpfU.s 			page 8


 400 0010 62       		.byte	98
 401 0011 06       		.byte	6
 402 0012 01       		.byte	1
 403 0013 03       		.byte	3
 404 0014 00       		.byte	0
 405 0015 F0       		.byte	-16
 406 0016 05       		.byte	5
 407 0017 00       		.byte	0
 408 0018 FF       		.byte	-1
 409 0019 19       		.byte	25
 410              		.global	str_conf12
 411              		.section	.data.str_conf12,"aw",%progbits
 412              		.align	2
 413              		.type	str_conf12, %object
 414              		.size	str_conf12, 26
 415              	str_conf12:
 416 0000 24       		.byte	36
 417 0001 45       		.byte	69
 418 0002 49       		.byte	73
 419 0003 47       		.byte	71
 420 0004 50       		.byte	80
 421 0005 51       		.byte	81
 422 0006 2C       		.byte	44
 423 0007 5A       		.byte	90
 424 0008 44       		.byte	68
 425 0009 41       		.byte	65
 426 000a 2A       		.byte	42
 427 000b 33       		.byte	51
 428 000c 39       		.byte	57
 429 000d 0D       		.byte	13
 430 000e 0A       		.byte	10
 431 000f B5       		.byte	-75
 432 0010 62       		.byte	98
 433 0011 06       		.byte	6
 434 0012 01       		.byte	1
 435 0013 03       		.byte	3
 436 0014 00       		.byte	0
 437 0015 F0       		.byte	-16
 438 0016 08       		.byte	8
 439 0017 00       		.byte	0
 440 0018 02       		.byte	2
 441 0019 1F       		.byte	31
 442              		.global	str_factory
 443              		.section	.data.str_factory,"aw",%progbits
 444              		.align	2
 445              		.type	str_factory, %object
 446              		.size	str_factory, 21
 447              	str_factory:
 448 0000 B5       		.byte	-75
 449 0001 62       		.byte	98
 450 0002 06       		.byte	6
 451 0003 09       		.byte	9
 452 0004 0D       		.byte	13
 453 0005 00       		.byte	0
 454 0006 FF       		.byte	-1
 455 0007 FF       		.byte	-1
 456 0008 00       		.byte	0
ARM GAS  /tmp/ccOLcpfU.s 			page 9


 457 0009 00       		.byte	0
 458 000a 00       		.byte	0
 459 000b 00       		.byte	0
 460 000c 00       		.byte	0
 461 000d 00       		.byte	0
 462 000e FF       		.byte	-1
 463 000f FF       		.byte	-1
 464 0010 00       		.byte	0
 465 0011 00       		.byte	0
 466 0012 07       		.byte	7
 467 0013 1F       		.byte	31
 468 0014 9E       		.byte	-98
 469              		.global	str_save
 470              		.section	.data.str_save,"aw",%progbits
 471              		.align	2
 472              		.type	str_save, %object
 473              		.size	str_save, 21
 474              	str_save:
 475 0000 B5       		.byte	-75
 476 0001 62       		.byte	98
 477 0002 06       		.byte	6
 478 0003 09       		.byte	9
 479 0004 0D       		.byte	13
 480 0005 00       		.byte	0
 481 0006 00       		.byte	0
 482 0007 00       		.byte	0
 483 0008 00       		.byte	0
 484 0009 00       		.byte	0
 485 000a FF       		.byte	-1
 486 000b FF       		.byte	-1
 487 000c 00       		.byte	0
 488 000d 00       		.byte	0
 489 000e 00       		.byte	0
 490 000f 00       		.byte	0
 491 0010 00       		.byte	0
 492 0011 00       		.byte	0
 493 0012 17       		.byte	23
 494 0013 31       		.byte	49
 495 0014 BF       		.byte	-65
 496              		.section	.text.GPSStart,"ax",%progbits
 497              		.align	2
 498              		.global	GPSStart
 499              		.code	16
 500              		.thumb_func
 501              		.type	GPSStart, %function
 502              	GPSStart:
 503              	.LFB20:
 504              		.file 1 "src/gps_vktel.c"
   1:src/gps_vktel.c **** /*
   2:src/gps_vktel.c ****  * gps_vktel.c
   3:src/gps_vktel.c ****  *
   4:src/gps_vktel.c ****  *  Created on: 27/10/2016
   5:src/gps_vktel.c ****  *      Author: Mariano
   6:src/gps_vktel.c ****  */
   7:src/gps_vktel.c **** 
   8:src/gps_vktel.c **** #include "gps_vktel.h"
   9:src/gps_vktel.c **** #include "main_menu.h"
ARM GAS  /tmp/ccOLcpfU.s 			page 10


  10:src/gps_vktel.c **** #include "uart.h"
  11:src/gps_vktel.c **** 
  12:src/gps_vktel.c **** 
  13:src/gps_vktel.c **** #define gps_mini_timeout	usart1_mini_timeout
  14:src/gps_vktel.c **** #define gps_pckt_ready		usart1_pckt_ready
  15:src/gps_vktel.c **** #define gps_have_data		usart1_have_data
  16:src/gps_vktel.c **** #define gps_pckt_bytes		usart1_pckt_bytes
  17:src/gps_vktel.c **** 
  18:src/gps_vktel.c **** //--- Externals variables ---//
  19:src/gps_vktel.c **** extern volatile unsigned char gps_mini_timeout;
  20:src/gps_vktel.c **** extern volatile unsigned char gps_pckt_ready;
  21:src/gps_vktel.c **** extern volatile unsigned char gps_have_data;
  22:src/gps_vktel.c **** extern unsigned char gps_pckt_bytes;
  23:src/gps_vktel.c **** extern unsigned char gps_buff [];
  24:src/gps_vktel.c **** 
  25:src/gps_vktel.c **** 
  26:src/gps_vktel.c **** //--- Private variables ---//
  27:src/gps_vktel.c **** GPSState gps_state = GPS_INIT;
  28:src/gps_vktel.c **** 
  29:src/gps_vktel.c **** volatile unsigned short gps_timeout;
  30:src/gps_vktel.c **** unsigned char gps_buff [SIZEOF_GPSBUFF];
  31:src/gps_vktel.c **** 
  32:src/gps_vktel.c **** // ------- String de configuracion del GPS -------
  33:src/gps_vktel.c **** unsigned char str_conf1 [] = One_Output_Ten_Secs_String_Cmd;
  34:src/gps_vktel.c **** //unsigned char str_conf1 [] = One_Output_One_Secs_String_Cmd;
  35:src/gps_vktel.c **** 
  36:src/gps_vktel.c **** 
  37:src/gps_vktel.c **** //--- PRUEBA ALL ENABLE ---//
  38:src/gps_vktel.c **** //unsigned char str_conf2 [] = Enable_GPDTM_String_Cmd;
  39:src/gps_vktel.c **** //unsigned char str_conf3 [] = Enable_GPGBS_String_Cmd;
  40:src/gps_vktel.c **** //unsigned char str_conf4 [] = Enable_GPGGA_String_Cmd;
  41:src/gps_vktel.c **** //unsigned char str_conf5 [] = Enable_GPGLL_String_Cmd;
  42:src/gps_vktel.c **** //unsigned char str_conf6 [] = Enable_GPGRS_String_Cmd;
  43:src/gps_vktel.c **** //
  44:src/gps_vktel.c **** //unsigned char str_conf7 [] = Enable_GPGSA_String_Cmd;
  45:src/gps_vktel.c **** //unsigned char str_conf8 [] = Enable_GPGST_String_Cmd;
  46:src/gps_vktel.c **** //unsigned char str_conf9 [] = Enable_GPGSV_String_Cmd;
  47:src/gps_vktel.c **** //unsigned char str_conf10 [] = Enable_GPRMC_String_Cmd;
  48:src/gps_vktel.c **** //unsigned char str_conf11 [] = Enable_GPVTG_String_Cmd;
  49:src/gps_vktel.c **** //
  50:src/gps_vktel.c **** //unsigned char str_conf12 [] = Enable_GPZDA_String_Cmd;
  51:src/gps_vktel.c **** 
  52:src/gps_vktel.c **** //--- PRUEBA SOLO GPGLL ENABLE ---//
  53:src/gps_vktel.c **** unsigned char str_conf2 [] = Disable_GPDTM_String_Cmd;
  54:src/gps_vktel.c **** unsigned char str_conf3 [] = Disable_GPGBS_String_Cmd;
  55:src/gps_vktel.c **** unsigned char str_conf4 [] = Disable_GPGGA_String_Cmd;
  56:src/gps_vktel.c **** unsigned char str_conf5 [] = Enable_GPGLL_String_Cmd;
  57:src/gps_vktel.c **** unsigned char str_conf6 [] = Disable_GPGRS_String_Cmd;
  58:src/gps_vktel.c **** 
  59:src/gps_vktel.c **** unsigned char str_conf7 [] = Disable_GPGSA_String_Cmd;
  60:src/gps_vktel.c **** unsigned char str_conf8 [] = Disable_GPGST_String_Cmd;
  61:src/gps_vktel.c **** unsigned char str_conf9 [] = Disable_GPGSV_String_Cmd;
  62:src/gps_vktel.c **** unsigned char str_conf10 [] = Disable_GPRMC_String_Cmd;
  63:src/gps_vktel.c **** unsigned char str_conf11 [] = Disable_GPVTG_String_Cmd;
  64:src/gps_vktel.c **** 
  65:src/gps_vktel.c **** unsigned char str_conf12 [] = Disable_GPZDA_String_Cmd;
  66:src/gps_vktel.c **** 
ARM GAS  /tmp/ccOLcpfU.s 			page 11


  67:src/gps_vktel.c **** unsigned char str_factory [] = Set_Factory_String_Cmd;
  68:src/gps_vktel.c **** unsigned char str_save [] = Save_Changes_String_Cmd;
  69:src/gps_vktel.c **** 
  70:src/gps_vktel.c **** 
  71:src/gps_vktel.c **** //Inicio del GPS
  72:src/gps_vktel.c **** //contesta RESP_CONTNUE o RESP_OK
  73:src/gps_vktel.c **** unsigned char GPSStart(void)
  74:src/gps_vktel.c **** {
 505              		.loc 1 74 0
 506              		.cfi_startproc
 507 0000 00B5     		push	{lr}	@
 508              	.LCFI0:
 509              		.cfi_def_cfa_offset 4
 510              		.cfi_offset 14, -4
 511 0002 83B0     		sub	sp, sp, #12	@,,
 512              	.LCFI1:
 513              		.cfi_def_cfa_offset 16
  75:src/gps_vktel.c **** 	unsigned char resp = RESP_CONTINUE;
 514              		.loc 1 75 0
 515 0004 6B46     		mov	r3, sp	@ tmp174,
 516 0006 0733     		adds	r3, r3, #7	@ tmp125,
 517 0008 0022     		movs	r2, #0	@ tmp126,
 518 000a 1A70     		strb	r2, [r3]	@ tmp127, resp
  76:src/gps_vktel.c **** 
  77:src/gps_vktel.c **** 	switch (gps_state)
 519              		.loc 1 77 0
 520 000c 2F4B     		ldr	r3, .L16	@ tmp128,
 521 000e 1B78     		ldrb	r3, [r3]	@ D.5016, gps_state
 522 0010 012B     		cmp	r3, #1	@ D.5017,
 523 0012 17D0     		beq	.L3	@,
 524 0014 02DC     		bgt	.L4	@,
 525 0016 002B     		cmp	r3, #0	@ D.5017,
 526 0018 05D0     		beq	.L5	@,
 527 001a 47E0     		b	.L2	@
 528              	.L4:
 529 001c 022B     		cmp	r3, #2	@ D.5017,
 530 001e 26D0     		beq	.L6	@,
 531 0020 032B     		cmp	r3, #3	@ D.5017,
 532 0022 36D0     		beq	.L7	@,
 533 0024 42E0     		b	.L2	@
 534              	.L5:
  78:src/gps_vktel.c **** 	{
  79:src/gps_vktel.c **** 		case GPS_INIT:
  80:src/gps_vktel.c **** 			GPS_PIN_DISA;
 535              		.loc 1 80 0
 536 0026 9023     		movs	r3, #144	@ tmp172,
 537 0028 DB05     		lsls	r3, r3, #23	@ D.5018, tmp172,
 538 002a 8022     		movs	r2, #128	@ tmp173,
 539 002c 1206     		lsls	r2, r2, #24	@ tmp129, tmp173,
 540 002e 9A61     		str	r2, [r3, #24]	@ tmp129, _11->BSRR
  81:src/gps_vktel.c **** 			gps_timeout = 100;
 541              		.loc 1 81 0
 542 0030 274B     		ldr	r3, .L16+4	@ tmp130,
 543 0032 6422     		movs	r2, #100	@ tmp131,
 544 0034 1A80     		strh	r2, [r3]	@ tmp132, gps_timeout
  82:src/gps_vktel.c **** 			gps_state++;
 545              		.loc 1 82 0
ARM GAS  /tmp/ccOLcpfU.s 			page 12


 546 0036 254B     		ldr	r3, .L16	@ tmp133,
 547 0038 1B78     		ldrb	r3, [r3]	@ D.5016, gps_state
 548 003a 0133     		adds	r3, r3, #1	@ tmp134,
 549 003c DAB2     		uxtb	r2, r3	@ D.5016, tmp134
 550 003e 234B     		ldr	r3, .L16	@ tmp135,
 551 0040 1A70     		strb	r2, [r3]	@ tmp136, gps_state
  83:src/gps_vktel.c **** 			break;
 552              		.loc 1 83 0
 553 0042 3CE0     		b	.L8	@
 554              	.L3:
  84:src/gps_vktel.c **** 
  85:src/gps_vktel.c **** 		case GPS_INIT2:
  86:src/gps_vktel.c **** 			if (!gps_timeout)
 555              		.loc 1 86 0
 556 0044 224B     		ldr	r3, .L16+4	@ tmp137,
 557 0046 1B88     		ldrh	r3, [r3]	@ tmp138, gps_timeout
 558 0048 9BB2     		uxth	r3, r3	@ D.5019, tmp138
 559 004a 002B     		cmp	r3, #0	@ D.5019,
 560 004c 32D1     		bne	.L13	@,
  87:src/gps_vktel.c **** 			{
  88:src/gps_vktel.c **** 				GPS_PIN_ENA;
 561              		.loc 1 88 0
 562 004e 9023     		movs	r3, #144	@ tmp169,
 563 0050 DB05     		lsls	r3, r3, #23	@ D.5018, tmp169,
 564 0052 8022     		movs	r2, #128	@ tmp170,
 565 0054 1202     		lsls	r2, r2, #8	@ tmp139, tmp170,
 566 0056 9A61     		str	r2, [r3, #24]	@ tmp139, _19->BSRR
  89:src/gps_vktel.c **** 				gps_timeout = 300;	//300ms startup
 567              		.loc 1 89 0
 568 0058 1D4B     		ldr	r3, .L16+4	@ tmp140,
 569 005a 9622     		movs	r2, #150	@ tmp171,
 570 005c 5200     		lsls	r2, r2, #1	@ tmp141, tmp171,
 571 005e 1A80     		strh	r2, [r3]	@ tmp142, gps_timeout
  90:src/gps_vktel.c **** 				gps_state++;
 572              		.loc 1 90 0
 573 0060 1A4B     		ldr	r3, .L16	@ tmp143,
 574 0062 1B78     		ldrb	r3, [r3]	@ D.5016, gps_state
 575 0064 0133     		adds	r3, r3, #1	@ tmp144,
 576 0066 DAB2     		uxtb	r2, r3	@ D.5016, tmp144
 577 0068 184B     		ldr	r3, .L16	@ tmp145,
 578 006a 1A70     		strb	r2, [r3]	@ tmp146, gps_state
  91:src/gps_vktel.c **** 			}
  92:src/gps_vktel.c **** 			break;
 579              		.loc 1 92 0
 580 006c 22E0     		b	.L13	@
 581              	.L6:
  93:src/gps_vktel.c **** 
  94:src/gps_vktel.c **** 		case GPS_INIT3:
  95:src/gps_vktel.c **** 			if (!gps_timeout)
 582              		.loc 1 95 0
 583 006e 184B     		ldr	r3, .L16+4	@ tmp147,
 584 0070 1B88     		ldrh	r3, [r3]	@ tmp148, gps_timeout
 585 0072 9BB2     		uxth	r3, r3	@ D.5019, tmp148
 586 0074 002B     		cmp	r3, #0	@ D.5019,
 587 0076 1FD1     		bne	.L14	@,
  96:src/gps_vktel.c **** 			{
  97:src/gps_vktel.c **** 				Usart1SendSingle(0xFF);
ARM GAS  /tmp/ccOLcpfU.s 			page 13


 588              		.loc 1 97 0
 589 0078 FF20     		movs	r0, #255	@,
 590 007a FFF7FEFF 		bl	Usart1SendSingle	@
  98:src/gps_vktel.c **** 				gps_timeout = 2;
 591              		.loc 1 98 0
 592 007e 144B     		ldr	r3, .L16+4	@ tmp149,
 593 0080 0222     		movs	r2, #2	@ tmp150,
 594 0082 1A80     		strh	r2, [r3]	@ tmp151, gps_timeout
  99:src/gps_vktel.c **** 				gps_state++;
 595              		.loc 1 99 0
 596 0084 114B     		ldr	r3, .L16	@ tmp152,
 597 0086 1B78     		ldrb	r3, [r3]	@ D.5016, gps_state
 598 0088 0133     		adds	r3, r3, #1	@ tmp153,
 599 008a DAB2     		uxtb	r2, r3	@ D.5016, tmp153
 600 008c 0F4B     		ldr	r3, .L16	@ tmp154,
 601 008e 1A70     		strb	r2, [r3]	@ tmp155, gps_state
 100:src/gps_vktel.c **** 			}
 101:src/gps_vktel.c **** 			break;
 602              		.loc 1 101 0
 603 0090 12E0     		b	.L14	@
 604              	.L7:
 102:src/gps_vktel.c **** 
 103:src/gps_vktel.c **** 		case GPS_INIT4:
 104:src/gps_vktel.c **** 			if (!gps_timeout)
 605              		.loc 1 104 0
 606 0092 0F4B     		ldr	r3, .L16+4	@ tmp156,
 607 0094 1B88     		ldrh	r3, [r3]	@ tmp157, gps_timeout
 608 0096 9BB2     		uxth	r3, r3	@ D.5019, tmp157
 609 0098 002B     		cmp	r3, #0	@ D.5019,
 610 009a 0FD1     		bne	.L15	@,
 105:src/gps_vktel.c **** 			{
 106:src/gps_vktel.c **** 				resp = RESP_OK;
 611              		.loc 1 106 0
 612 009c 6B46     		mov	r3, sp	@ tmp175,
 613 009e 0733     		adds	r3, r3, #7	@ tmp158,
 614 00a0 1422     		movs	r2, #20	@ tmp159,
 615 00a2 1A70     		strb	r2, [r3]	@ tmp160, resp
 107:src/gps_vktel.c **** 				gps_state = GPS_INIT;
 616              		.loc 1 107 0
 617 00a4 094B     		ldr	r3, .L16	@ tmp161,
 618 00a6 0022     		movs	r2, #0	@ tmp162,
 619 00a8 1A70     		strb	r2, [r3]	@ tmp163, gps_state
 108:src/gps_vktel.c **** 			}
 109:src/gps_vktel.c **** 			break;
 620              		.loc 1 109 0
 621 00aa 07E0     		b	.L15	@
 622              	.L2:
 110:src/gps_vktel.c **** 
 111:src/gps_vktel.c **** 		default:
 112:src/gps_vktel.c **** 			gps_state = GPS_INIT;
 623              		.loc 1 112 0
 624 00ac 074B     		ldr	r3, .L16	@ tmp164,
 625 00ae 0022     		movs	r2, #0	@ tmp165,
 626 00b0 1A70     		strb	r2, [r3]	@ tmp166, gps_state
 113:src/gps_vktel.c **** 			break;
 627              		.loc 1 113 0
 628 00b2 04E0     		b	.L8	@
ARM GAS  /tmp/ccOLcpfU.s 			page 14


 629              	.L13:
  92:src/gps_vktel.c **** 
 630              		.loc 1 92 0
 631 00b4 C046     		nop
 632 00b6 02E0     		b	.L8	@
 633              	.L14:
 101:src/gps_vktel.c **** 
 634              		.loc 1 101 0
 635 00b8 C046     		nop
 636 00ba 00E0     		b	.L8	@
 637              	.L15:
 109:src/gps_vktel.c **** 
 638              		.loc 1 109 0
 639 00bc C046     		nop
 640              	.L8:
 114:src/gps_vktel.c **** 	}
 115:src/gps_vktel.c **** 	return resp;
 641              		.loc 1 115 0
 642 00be 6B46     		mov	r3, sp	@ tmp176,
 643 00c0 0733     		adds	r3, r3, #7	@ tmp167,
 644 00c2 1B78     		ldrb	r3, [r3]	@ D.5020, resp
 116:src/gps_vktel.c **** }
 645              		.loc 1 116 0
 646 00c4 1800     		movs	r0, r3	@, <retval>
 647 00c6 03B0     		add	sp, sp, #12	@,,
 648              		@ sp needed	@
 649 00c8 00BD     		pop	{pc}
 650              	.L17:
 651 00ca C046     		.align	2
 652              	.L16:
 653 00cc 00000000 		.word	gps_state
 654 00d0 00000000 		.word	gps_timeout
 655              		.cfi_endproc
 656              	.LFE20:
 657              		.size	GPSStart, .-GPSStart
 658              		.section	.text.GPSTimeoutCounters,"ax",%progbits
 659              		.align	2
 660              		.global	GPSTimeoutCounters
 661              		.code	16
 662              		.thumb_func
 663              		.type	GPSTimeoutCounters, %function
 664              	GPSTimeoutCounters:
 665              	.LFB21:
 117:src/gps_vktel.c **** 
 118:src/gps_vktel.c **** //Timers internos para el GPS
 119:src/gps_vktel.c **** void GPSTimeoutCounters (void)
 120:src/gps_vktel.c **** {
 666              		.loc 1 120 0
 667              		.cfi_startproc
 121:src/gps_vktel.c **** 	if (gps_timeout)
 668              		.loc 1 121 0
 669 0000 064B     		ldr	r3, .L21	@ tmp113,
 670 0002 1B88     		ldrh	r3, [r3]	@ tmp114, gps_timeout
 671 0004 9BB2     		uxth	r3, r3	@ D.5022, tmp114
 672 0006 002B     		cmp	r3, #0	@ D.5022,
 673 0008 06D0     		beq	.L20	@,
 122:src/gps_vktel.c **** 		gps_timeout--;
ARM GAS  /tmp/ccOLcpfU.s 			page 15


 674              		.loc 1 122 0
 675 000a 044B     		ldr	r3, .L21	@ tmp115,
 676 000c 1B88     		ldrh	r3, [r3]	@ tmp116, gps_timeout
 677 000e 9BB2     		uxth	r3, r3	@ D.5022, tmp116
 678 0010 013B     		subs	r3, r3, #1	@ tmp117,
 679 0012 9AB2     		uxth	r2, r3	@ D.5022, tmp117
 680 0014 014B     		ldr	r3, .L21	@ tmp118,
 681 0016 1A80     		strh	r2, [r3]	@ tmp119, gps_timeout
 682              	.L20:
 123:src/gps_vktel.c **** 
 124:src/gps_vktel.c **** //	if (gps_mini_timeout)	//descuenta general
 125:src/gps_vktel.c **** //		gps_mini_timeout--;
 126:src/gps_vktel.c **** //
 127:src/gps_vktel.c **** }
 683              		.loc 1 127 0
 684 0018 C046     		nop
 685              		@ sp needed	@
 686 001a 7047     		bx	lr
 687              	.L22:
 688              		.align	2
 689              	.L21:
 690 001c 00000000 		.word	gps_timeout
 691              		.cfi_endproc
 692              	.LFE21:
 693              		.size	GPSTimeoutCounters, .-GPSTimeoutCounters
 694              		.section	.text.GPSProcess,"ax",%progbits
 695              		.align	2
 696              		.global	GPSProcess
 697              		.code	16
 698              		.thumb_func
 699              		.type	GPSProcess, %function
 700              	GPSProcess:
 701              	.LFB22:
 128:src/gps_vktel.c **** 
 129:src/gps_vktel.c **** void GPSProcess (void)
 130:src/gps_vktel.c **** {
 702              		.loc 1 130 0
 703              		.cfi_startproc
 704 0000 10B5     		push	{r4, lr}	@
 705              	.LCFI2:
 706              		.cfi_def_cfa_offset 8
 707              		.cfi_offset 4, -8
 708              		.cfi_offset 14, -4
 131:src/gps_vktel.c **** 	if ((gps_have_data) && (!gps_mini_timeout))
 709              		.loc 1 131 0
 710 0002 0D4B     		ldr	r3, .L26	@ tmp113,
 711 0004 1B78     		ldrb	r3, [r3]	@ tmp114, usart1_have_data
 712 0006 DBB2     		uxtb	r3, r3	@ D.5023, tmp114
 713 0008 002B     		cmp	r3, #0	@ D.5023,
 714 000a 13D0     		beq	.L25	@,
 715              		.loc 1 131 0 is_stmt 0 discriminator 1
 716 000c 0B4B     		ldr	r3, .L26+4	@ tmp115,
 717 000e 1B78     		ldrb	r3, [r3]	@ tmp116, usart1_mini_timeout
 718 0010 DBB2     		uxtb	r3, r3	@ D.5023, tmp116
 719 0012 002B     		cmp	r3, #0	@ D.5023,
 720 0014 0ED1     		bne	.L25	@,
 132:src/gps_vktel.c **** 	{
ARM GAS  /tmp/ccOLcpfU.s 			page 16


 133:src/gps_vktel.c **** 		gps_have_data = 0;
 721              		.loc 1 133 0 is_stmt 1
 722 0016 084B     		ldr	r3, .L26	@ tmp117,
 723 0018 0022     		movs	r2, #0	@ tmp118,
 724 001a 1A70     		strb	r2, [r3]	@ tmp119, usart1_have_data
 134:src/gps_vktel.c **** 		gps_pckt_ready = 1;
 725              		.loc 1 134 0
 726 001c 084B     		ldr	r3, .L26+8	@ tmp120,
 727 001e 0122     		movs	r2, #1	@ tmp121,
 728 0020 1A70     		strb	r2, [r3]	@ tmp122, usart1_pckt_ready
 135:src/gps_vktel.c **** 		gps_pckt_bytes = ReadUsart1Buffer(gps_buff, SIZEOF_GPSBUFF);
 729              		.loc 1 135 0
 730 0022 084B     		ldr	r3, .L26+12	@ tmp123,
 731 0024 8021     		movs	r1, #128	@,
 732 0026 1800     		movs	r0, r3	@, tmp123
 733 0028 FFF7FEFF 		bl	ReadUsart1Buffer	@
 734 002c 0300     		movs	r3, r0	@ tmp124,
 735 002e 1A00     		movs	r2, r3	@ D.5023, tmp125
 736 0030 054B     		ldr	r3, .L26+16	@ tmp126,
 737 0032 1A70     		strb	r2, [r3]	@ tmp127, usart1_pckt_bytes
 738              	.L25:
 136:src/gps_vktel.c **** 
 137:src/gps_vktel.c **** 	}
 138:src/gps_vktel.c **** }
 739              		.loc 1 138 0
 740 0034 C046     		nop
 741              		@ sp needed	@
 742 0036 10BD     		pop	{r4, pc}
 743              	.L27:
 744              		.align	2
 745              	.L26:
 746 0038 00000000 		.word	usart1_have_data
 747 003c 00000000 		.word	usart1_mini_timeout
 748 0040 00000000 		.word	usart1_pckt_ready
 749 0044 00000000 		.word	gps_buff
 750 0048 00000000 		.word	usart1_pckt_bytes
 751              		.cfi_endproc
 752              	.LFE22:
 753              		.size	GPSProcess, .-GPSProcess
 754              		.section	.text.GPSConfigResetSM,"ax",%progbits
 755              		.align	2
 756              		.global	GPSConfigResetSM
 757              		.code	16
 758              		.thumb_func
 759              		.type	GPSConfigResetSM, %function
 760              	GPSConfigResetSM:
 761              	.LFB23:
 139:src/gps_vktel.c **** 
 140:src/gps_vktel.c **** void GPSConfigResetSM(void)
 141:src/gps_vktel.c **** {
 762              		.loc 1 141 0
 763              		.cfi_startproc
 142:src/gps_vktel.c **** 	gps_state = GPS_INIT;
 764              		.loc 1 142 0
 765 0000 024B     		ldr	r3, .L29	@ tmp110,
 766 0002 0022     		movs	r2, #0	@ tmp111,
 767 0004 1A70     		strb	r2, [r3]	@ tmp112, gps_state
ARM GAS  /tmp/ccOLcpfU.s 			page 17


 143:src/gps_vktel.c **** }
 768              		.loc 1 143 0
 769 0006 C046     		nop
 770              		@ sp needed	@
 771 0008 7047     		bx	lr
 772              	.L30:
 773 000a C046     		.align	2
 774              	.L29:
 775 000c 00000000 		.word	gps_state
 776              		.cfi_endproc
 777              	.LFE23:
 778              		.size	GPSConfigResetSM, .-GPSConfigResetSM
 779              		.section	.text.GPSConfig,"ax",%progbits
 780              		.align	2
 781              		.global	GPSConfig
 782              		.code	16
 783              		.thumb_func
 784              		.type	GPSConfig, %function
 785              	GPSConfig:
 786              	.LFB24:
 144:src/gps_vktel.c **** 
 145:src/gps_vktel.c **** //Configuracion inicial del GPS
 146:src/gps_vktel.c **** //contesta RESP_CONTNUE o RESP_OK
 147:src/gps_vktel.c **** unsigned char GPSConfig(void)
 148:src/gps_vktel.c **** {
 787              		.loc 1 148 0
 788              		.cfi_startproc
 789 0000 00B5     		push	{lr}	@
 790              	.LCFI3:
 791              		.cfi_def_cfa_offset 4
 792              		.cfi_offset 14, -4
 793 0002 83B0     		sub	sp, sp, #12	@,,
 794              	.LCFI4:
 795              		.cfi_def_cfa_offset 16
 149:src/gps_vktel.c **** 	unsigned char resp = RESP_CONTINUE;
 796              		.loc 1 149 0
 797 0004 6B46     		mov	r3, sp	@ tmp287,
 798 0006 0733     		adds	r3, r3, #7	@ tmp148,
 799 0008 0022     		movs	r2, #0	@ tmp149,
 800 000a 1A70     		strb	r2, [r3]	@ tmp150, resp
 150:src/gps_vktel.c **** 
 151:src/gps_vktel.c **** 	switch (gps_state)
 801              		.loc 1 151 0
 802 000c 964B     		ldr	r3, .L73	@ tmp151,
 803 000e 1B78     		ldrb	r3, [r3]	@ D.5024, gps_state
 804 0010 0C2B     		cmp	r3, #12	@ D.5025,
 805 0012 00D9     		bls	.LCB272	@
 806 0014 06E1     		b	.L32	@long jump	@
 807              	.LCB272:
 808 0016 9A00     		lsls	r2, r3, #2	@ tmp152, D.5025,
 809 0018 944B     		ldr	r3, .L73+4	@ tmp154,
 810 001a D318     		adds	r3, r2, r3	@ tmp153, tmp152, tmp154
 811 001c 1B68     		ldr	r3, [r3]	@ tmp155,
 812 001e 9F46     		mov	pc, r3	@ tmp155
 813              		.section	.rodata.GPSConfig,"a",%progbits
 814              		.align	2
 815              	.L34:
ARM GAS  /tmp/ccOLcpfU.s 			page 18


 816 0000 20000000 		.word	.L33
 817 0004 3E000000 		.word	.L35
 818 0008 68000000 		.word	.L36
 819 000c 92000000 		.word	.L37
 820 0010 BC000000 		.word	.L38
 821 0014 E6000000 		.word	.L39
 822 0018 10010000 		.word	.L40
 823 001c 3A010000 		.word	.L41
 824 0020 64010000 		.word	.L42
 825 0024 8E010000 		.word	.L43
 826 0028 B6010000 		.word	.L44
 827 002c DE010000 		.word	.L45
 828 0030 00020000 		.word	.L46
 829              		.section	.text.GPSConfig
 830              	.L33:
 152:src/gps_vktel.c **** 	{
 153:src/gps_vktel.c **** 		case GPS_INIT:
 154:src/gps_vktel.c **** 			Usart1SendUnsigned(str_conf1, sizeof(str_conf1));
 831              		.loc 1 154 0
 832 0020 934B     		ldr	r3, .L73+8	@ tmp156,
 833 0022 1621     		movs	r1, #22	@,
 834 0024 1800     		movs	r0, r3	@, tmp156
 835 0026 FFF7FEFF 		bl	Usart1SendUnsigned	@
 155:src/gps_vktel.c **** 			gps_timeout = 100;
 836              		.loc 1 155 0
 837 002a 924B     		ldr	r3, .L73+12	@ tmp157,
 838 002c 6422     		movs	r2, #100	@ tmp158,
 839 002e 1A80     		strh	r2, [r3]	@ tmp159, gps_timeout
 156:src/gps_vktel.c **** 			gps_state++;
 840              		.loc 1 156 0
 841 0030 8D4B     		ldr	r3, .L73	@ tmp160,
 842 0032 1B78     		ldrb	r3, [r3]	@ D.5024, gps_state
 843 0034 0133     		adds	r3, r3, #1	@ tmp161,
 844 0036 DAB2     		uxtb	r2, r3	@ D.5024, tmp161
 845 0038 8B4B     		ldr	r3, .L73	@ tmp162,
 846 003a 1A70     		strb	r2, [r3]	@ tmp163, gps_state
 157:src/gps_vktel.c **** 			break;
 847              		.loc 1 157 0
 848 003c 0DE1     		b	.L47	@
 849              	.L35:
 158:src/gps_vktel.c **** 
 159:src/gps_vktel.c **** 		case GPS_INIT2:
 160:src/gps_vktel.c **** 			if (!gps_timeout)
 850              		.loc 1 160 0
 851 003e 8D4B     		ldr	r3, .L73+12	@ tmp164,
 852 0040 1B88     		ldrh	r3, [r3]	@ tmp165, gps_timeout
 853 0042 9BB2     		uxth	r3, r3	@ D.5026, tmp165
 854 0044 002B     		cmp	r3, #0	@ D.5026,
 855 0046 00D0     		beq	.LCB305	@
 856 0048 F0E0     		b	.L61	@long jump	@
 857              	.LCB305:
 161:src/gps_vktel.c **** 			{
 162:src/gps_vktel.c **** 				Usart1SendUnsigned(str_conf2, sizeof(str_conf2));
 858              		.loc 1 162 0
 859 004a 8B4B     		ldr	r3, .L73+16	@ tmp166,
 860 004c 1A21     		movs	r1, #26	@,
 861 004e 1800     		movs	r0, r3	@, tmp166
ARM GAS  /tmp/ccOLcpfU.s 			page 19


 862 0050 FFF7FEFF 		bl	Usart1SendUnsigned	@
 163:src/gps_vktel.c **** 				gps_timeout = 100;
 863              		.loc 1 163 0
 864 0054 874B     		ldr	r3, .L73+12	@ tmp167,
 865 0056 6422     		movs	r2, #100	@ tmp168,
 866 0058 1A80     		strh	r2, [r3]	@ tmp169, gps_timeout
 164:src/gps_vktel.c **** 				gps_state++;
 867              		.loc 1 164 0
 868 005a 834B     		ldr	r3, .L73	@ tmp170,
 869 005c 1B78     		ldrb	r3, [r3]	@ D.5024, gps_state
 870 005e 0133     		adds	r3, r3, #1	@ tmp171,
 871 0060 DAB2     		uxtb	r2, r3	@ D.5024, tmp171
 872 0062 814B     		ldr	r3, .L73	@ tmp172,
 873 0064 1A70     		strb	r2, [r3]	@ tmp173, gps_state
 165:src/gps_vktel.c **** 			}
 166:src/gps_vktel.c **** 			break;
 874              		.loc 1 166 0
 875 0066 E1E0     		b	.L61	@
 876              	.L36:
 167:src/gps_vktel.c **** 
 168:src/gps_vktel.c **** 		case GPS_INIT3:
 169:src/gps_vktel.c **** 			if (!gps_timeout)
 877              		.loc 1 169 0
 878 0068 824B     		ldr	r3, .L73+12	@ tmp174,
 879 006a 1B88     		ldrh	r3, [r3]	@ tmp175, gps_timeout
 880 006c 9BB2     		uxth	r3, r3	@ D.5026, tmp175
 881 006e 002B     		cmp	r3, #0	@ D.5026,
 882 0070 00D0     		beq	.LCB327	@
 883 0072 DDE0     		b	.L62	@long jump	@
 884              	.LCB327:
 170:src/gps_vktel.c **** 			{
 171:src/gps_vktel.c **** 				Usart1SendUnsigned(str_conf3, sizeof(str_conf3));
 885              		.loc 1 171 0
 886 0074 814B     		ldr	r3, .L73+20	@ tmp176,
 887 0076 1A21     		movs	r1, #26	@,
 888 0078 1800     		movs	r0, r3	@, tmp176
 889 007a FFF7FEFF 		bl	Usart1SendUnsigned	@
 172:src/gps_vktel.c **** 				gps_timeout = 100;
 890              		.loc 1 172 0
 891 007e 7D4B     		ldr	r3, .L73+12	@ tmp177,
 892 0080 6422     		movs	r2, #100	@ tmp178,
 893 0082 1A80     		strh	r2, [r3]	@ tmp179, gps_timeout
 173:src/gps_vktel.c **** 				gps_state++;
 894              		.loc 1 173 0
 895 0084 784B     		ldr	r3, .L73	@ tmp180,
 896 0086 1B78     		ldrb	r3, [r3]	@ D.5024, gps_state
 897 0088 0133     		adds	r3, r3, #1	@ tmp181,
 898 008a DAB2     		uxtb	r2, r3	@ D.5024, tmp181
 899 008c 764B     		ldr	r3, .L73	@ tmp182,
 900 008e 1A70     		strb	r2, [r3]	@ tmp183, gps_state
 174:src/gps_vktel.c **** 			}
 175:src/gps_vktel.c **** 			break;
 901              		.loc 1 175 0
 902 0090 CEE0     		b	.L62	@
 903              	.L37:
 176:src/gps_vktel.c **** 
 177:src/gps_vktel.c **** 		case GPS_INIT4:
ARM GAS  /tmp/ccOLcpfU.s 			page 20


 178:src/gps_vktel.c **** 			if (!gps_timeout)
 904              		.loc 1 178 0
 905 0092 784B     		ldr	r3, .L73+12	@ tmp184,
 906 0094 1B88     		ldrh	r3, [r3]	@ tmp185, gps_timeout
 907 0096 9BB2     		uxth	r3, r3	@ D.5026, tmp185
 908 0098 002B     		cmp	r3, #0	@ D.5026,
 909 009a 00D0     		beq	.LCB349	@
 910 009c CAE0     		b	.L63	@long jump	@
 911              	.LCB349:
 179:src/gps_vktel.c **** 			{
 180:src/gps_vktel.c **** 				Usart1SendUnsigned(str_conf4, sizeof(str_conf4));
 912              		.loc 1 180 0
 913 009e 784B     		ldr	r3, .L73+24	@ tmp186,
 914 00a0 1A21     		movs	r1, #26	@,
 915 00a2 1800     		movs	r0, r3	@, tmp186
 916 00a4 FFF7FEFF 		bl	Usart1SendUnsigned	@
 181:src/gps_vktel.c **** 				gps_timeout = 100;
 917              		.loc 1 181 0
 918 00a8 724B     		ldr	r3, .L73+12	@ tmp187,
 919 00aa 6422     		movs	r2, #100	@ tmp188,
 920 00ac 1A80     		strh	r2, [r3]	@ tmp189, gps_timeout
 182:src/gps_vktel.c **** 				gps_state++;
 921              		.loc 1 182 0
 922 00ae 6E4B     		ldr	r3, .L73	@ tmp190,
 923 00b0 1B78     		ldrb	r3, [r3]	@ D.5024, gps_state
 924 00b2 0133     		adds	r3, r3, #1	@ tmp191,
 925 00b4 DAB2     		uxtb	r2, r3	@ D.5024, tmp191
 926 00b6 6C4B     		ldr	r3, .L73	@ tmp192,
 927 00b8 1A70     		strb	r2, [r3]	@ tmp193, gps_state
 183:src/gps_vktel.c **** 			}
 184:src/gps_vktel.c **** 			break;
 928              		.loc 1 184 0
 929 00ba BBE0     		b	.L63	@
 930              	.L38:
 185:src/gps_vktel.c **** 
 186:src/gps_vktel.c **** 		case GPS_INIT5:
 187:src/gps_vktel.c **** 			if (!gps_timeout)
 931              		.loc 1 187 0
 932 00bc 6D4B     		ldr	r3, .L73+12	@ tmp194,
 933 00be 1B88     		ldrh	r3, [r3]	@ tmp195, gps_timeout
 934 00c0 9BB2     		uxth	r3, r3	@ D.5026, tmp195
 935 00c2 002B     		cmp	r3, #0	@ D.5026,
 936 00c4 00D0     		beq	.LCB371	@
 937 00c6 B7E0     		b	.L64	@long jump	@
 938              	.LCB371:
 188:src/gps_vktel.c **** 			{
 189:src/gps_vktel.c **** 				Usart1SendUnsigned(str_conf5, sizeof(str_conf5));
 939              		.loc 1 189 0
 940 00c8 6E4B     		ldr	r3, .L73+28	@ tmp196,
 941 00ca 1A21     		movs	r1, #26	@,
 942 00cc 1800     		movs	r0, r3	@, tmp196
 943 00ce FFF7FEFF 		bl	Usart1SendUnsigned	@
 190:src/gps_vktel.c **** 				gps_timeout = 100;
 944              		.loc 1 190 0
 945 00d2 684B     		ldr	r3, .L73+12	@ tmp197,
 946 00d4 6422     		movs	r2, #100	@ tmp198,
 947 00d6 1A80     		strh	r2, [r3]	@ tmp199, gps_timeout
ARM GAS  /tmp/ccOLcpfU.s 			page 21


 191:src/gps_vktel.c **** 				gps_state++;
 948              		.loc 1 191 0
 949 00d8 634B     		ldr	r3, .L73	@ tmp200,
 950 00da 1B78     		ldrb	r3, [r3]	@ D.5024, gps_state
 951 00dc 0133     		adds	r3, r3, #1	@ tmp201,
 952 00de DAB2     		uxtb	r2, r3	@ D.5024, tmp201
 953 00e0 614B     		ldr	r3, .L73	@ tmp202,
 954 00e2 1A70     		strb	r2, [r3]	@ tmp203, gps_state
 192:src/gps_vktel.c **** 			}
 193:src/gps_vktel.c **** 			break;
 955              		.loc 1 193 0
 956 00e4 A8E0     		b	.L64	@
 957              	.L39:
 194:src/gps_vktel.c **** 
 195:src/gps_vktel.c **** 		case GPS_INIT6:
 196:src/gps_vktel.c **** 			if (!gps_timeout)
 958              		.loc 1 196 0
 959 00e6 634B     		ldr	r3, .L73+12	@ tmp204,
 960 00e8 1B88     		ldrh	r3, [r3]	@ tmp205, gps_timeout
 961 00ea 9BB2     		uxth	r3, r3	@ D.5026, tmp205
 962 00ec 002B     		cmp	r3, #0	@ D.5026,
 963 00ee 00D0     		beq	.LCB393	@
 964 00f0 A4E0     		b	.L65	@long jump	@
 965              	.LCB393:
 197:src/gps_vktel.c **** 			{
 198:src/gps_vktel.c **** 				Usart1SendUnsigned(str_conf6, sizeof(str_conf6));
 966              		.loc 1 198 0
 967 00f2 654B     		ldr	r3, .L73+32	@ tmp206,
 968 00f4 1A21     		movs	r1, #26	@,
 969 00f6 1800     		movs	r0, r3	@, tmp206
 970 00f8 FFF7FEFF 		bl	Usart1SendUnsigned	@
 199:src/gps_vktel.c **** 				gps_timeout = 100;
 971              		.loc 1 199 0
 972 00fc 5D4B     		ldr	r3, .L73+12	@ tmp207,
 973 00fe 6422     		movs	r2, #100	@ tmp208,
 974 0100 1A80     		strh	r2, [r3]	@ tmp209, gps_timeout
 200:src/gps_vktel.c **** 				gps_state++;
 975              		.loc 1 200 0
 976 0102 594B     		ldr	r3, .L73	@ tmp210,
 977 0104 1B78     		ldrb	r3, [r3]	@ D.5024, gps_state
 978 0106 0133     		adds	r3, r3, #1	@ tmp211,
 979 0108 DAB2     		uxtb	r2, r3	@ D.5024, tmp211
 980 010a 574B     		ldr	r3, .L73	@ tmp212,
 981 010c 1A70     		strb	r2, [r3]	@ tmp213, gps_state
 201:src/gps_vktel.c **** 			}
 202:src/gps_vktel.c **** 			break;
 982              		.loc 1 202 0
 983 010e 95E0     		b	.L65	@
 984              	.L40:
 203:src/gps_vktel.c **** 
 204:src/gps_vktel.c **** 		case GPS_INIT7:
 205:src/gps_vktel.c **** 			if (!gps_timeout)
 985              		.loc 1 205 0
 986 0110 584B     		ldr	r3, .L73+12	@ tmp214,
 987 0112 1B88     		ldrh	r3, [r3]	@ tmp215, gps_timeout
 988 0114 9BB2     		uxth	r3, r3	@ D.5026, tmp215
 989 0116 002B     		cmp	r3, #0	@ D.5026,
ARM GAS  /tmp/ccOLcpfU.s 			page 22


 990 0118 00D0     		beq	.LCB415	@
 991 011a 91E0     		b	.L66	@long jump	@
 992              	.LCB415:
 206:src/gps_vktel.c **** 			{
 207:src/gps_vktel.c **** 				Usart1SendUnsigned(str_conf7, sizeof(str_conf7));
 993              		.loc 1 207 0
 994 011c 5B4B     		ldr	r3, .L73+36	@ tmp216,
 995 011e 1A21     		movs	r1, #26	@,
 996 0120 1800     		movs	r0, r3	@, tmp216
 997 0122 FFF7FEFF 		bl	Usart1SendUnsigned	@
 208:src/gps_vktel.c **** 				gps_timeout = 100;
 998              		.loc 1 208 0
 999 0126 534B     		ldr	r3, .L73+12	@ tmp217,
 1000 0128 6422     		movs	r2, #100	@ tmp218,
 1001 012a 1A80     		strh	r2, [r3]	@ tmp219, gps_timeout
 209:src/gps_vktel.c **** 				gps_state++;
 1002              		.loc 1 209 0
 1003 012c 4E4B     		ldr	r3, .L73	@ tmp220,
 1004 012e 1B78     		ldrb	r3, [r3]	@ D.5024, gps_state
 1005 0130 0133     		adds	r3, r3, #1	@ tmp221,
 1006 0132 DAB2     		uxtb	r2, r3	@ D.5024, tmp221
 1007 0134 4C4B     		ldr	r3, .L73	@ tmp222,
 1008 0136 1A70     		strb	r2, [r3]	@ tmp223, gps_state
 210:src/gps_vktel.c **** 			}
 211:src/gps_vktel.c **** 			break;
 1009              		.loc 1 211 0
 1010 0138 82E0     		b	.L66	@
 1011              	.L41:
 212:src/gps_vktel.c **** 
 213:src/gps_vktel.c **** 		case GPS_INIT8:
 214:src/gps_vktel.c **** 			if (!gps_timeout)
 1012              		.loc 1 214 0
 1013 013a 4E4B     		ldr	r3, .L73+12	@ tmp224,
 1014 013c 1B88     		ldrh	r3, [r3]	@ tmp225, gps_timeout
 1015 013e 9BB2     		uxth	r3, r3	@ D.5026, tmp225
 1016 0140 002B     		cmp	r3, #0	@ D.5026,
 1017 0142 00D0     		beq	.LCB437	@
 1018 0144 7EE0     		b	.L67	@long jump	@
 1019              	.LCB437:
 215:src/gps_vktel.c **** 			{
 216:src/gps_vktel.c **** 				Usart1SendUnsigned(str_conf8, sizeof(str_conf8));
 1020              		.loc 1 216 0
 1021 0146 524B     		ldr	r3, .L73+40	@ tmp226,
 1022 0148 1A21     		movs	r1, #26	@,
 1023 014a 1800     		movs	r0, r3	@, tmp226
 1024 014c FFF7FEFF 		bl	Usart1SendUnsigned	@
 217:src/gps_vktel.c **** 				gps_timeout = 100;
 1025              		.loc 1 217 0
 1026 0150 484B     		ldr	r3, .L73+12	@ tmp227,
 1027 0152 6422     		movs	r2, #100	@ tmp228,
 1028 0154 1A80     		strh	r2, [r3]	@ tmp229, gps_timeout
 218:src/gps_vktel.c **** 				gps_state++;
 1029              		.loc 1 218 0
 1030 0156 444B     		ldr	r3, .L73	@ tmp230,
 1031 0158 1B78     		ldrb	r3, [r3]	@ D.5024, gps_state
 1032 015a 0133     		adds	r3, r3, #1	@ tmp231,
 1033 015c DAB2     		uxtb	r2, r3	@ D.5024, tmp231
ARM GAS  /tmp/ccOLcpfU.s 			page 23


 1034 015e 424B     		ldr	r3, .L73	@ tmp232,
 1035 0160 1A70     		strb	r2, [r3]	@ tmp233, gps_state
 219:src/gps_vktel.c **** 			}
 220:src/gps_vktel.c **** 			break;
 1036              		.loc 1 220 0
 1037 0162 6FE0     		b	.L67	@
 1038              	.L42:
 221:src/gps_vktel.c **** 
 222:src/gps_vktel.c **** 		case GPS_INIT9:
 223:src/gps_vktel.c **** 			if (!gps_timeout)
 1039              		.loc 1 223 0
 1040 0164 434B     		ldr	r3, .L73+12	@ tmp234,
 1041 0166 1B88     		ldrh	r3, [r3]	@ tmp235, gps_timeout
 1042 0168 9BB2     		uxth	r3, r3	@ D.5026, tmp235
 1043 016a 002B     		cmp	r3, #0	@ D.5026,
 1044 016c 00D0     		beq	.LCB459	@
 1045 016e 6BE0     		b	.L68	@long jump	@
 1046              	.LCB459:
 224:src/gps_vktel.c **** 			{
 225:src/gps_vktel.c **** 				Usart1SendUnsigned(str_conf9, sizeof(str_conf9));
 1047              		.loc 1 225 0
 1048 0170 484B     		ldr	r3, .L73+44	@ tmp236,
 1049 0172 1A21     		movs	r1, #26	@,
 1050 0174 1800     		movs	r0, r3	@, tmp236
 1051 0176 FFF7FEFF 		bl	Usart1SendUnsigned	@
 226:src/gps_vktel.c **** 				gps_timeout = 100;
 1052              		.loc 1 226 0
 1053 017a 3E4B     		ldr	r3, .L73+12	@ tmp237,
 1054 017c 6422     		movs	r2, #100	@ tmp238,
 1055 017e 1A80     		strh	r2, [r3]	@ tmp239, gps_timeout
 227:src/gps_vktel.c **** 				gps_state++;
 1056              		.loc 1 227 0
 1057 0180 394B     		ldr	r3, .L73	@ tmp240,
 1058 0182 1B78     		ldrb	r3, [r3]	@ D.5024, gps_state
 1059 0184 0133     		adds	r3, r3, #1	@ tmp241,
 1060 0186 DAB2     		uxtb	r2, r3	@ D.5024, tmp241
 1061 0188 374B     		ldr	r3, .L73	@ tmp242,
 1062 018a 1A70     		strb	r2, [r3]	@ tmp243, gps_state
 228:src/gps_vktel.c **** 			}
 229:src/gps_vktel.c **** 			break;
 1063              		.loc 1 229 0
 1064 018c 5CE0     		b	.L68	@
 1065              	.L43:
 230:src/gps_vktel.c **** 
 231:src/gps_vktel.c **** 		case GPS_INIT10:
 232:src/gps_vktel.c **** 			if (!gps_timeout)
 1066              		.loc 1 232 0
 1067 018e 394B     		ldr	r3, .L73+12	@ tmp244,
 1068 0190 1B88     		ldrh	r3, [r3]	@ tmp245, gps_timeout
 1069 0192 9BB2     		uxth	r3, r3	@ D.5026, tmp245
 1070 0194 002B     		cmp	r3, #0	@ D.5026,
 1071 0196 59D1     		bne	.L69	@,
 233:src/gps_vktel.c **** 			{
 234:src/gps_vktel.c **** 				Usart1SendUnsigned(str_conf10, sizeof(str_conf10));
 1072              		.loc 1 234 0
 1073 0198 3F4B     		ldr	r3, .L73+48	@ tmp246,
 1074 019a 1A21     		movs	r1, #26	@,
ARM GAS  /tmp/ccOLcpfU.s 			page 24


 1075 019c 1800     		movs	r0, r3	@, tmp246
 1076 019e FFF7FEFF 		bl	Usart1SendUnsigned	@
 235:src/gps_vktel.c **** 				gps_timeout = 100;
 1077              		.loc 1 235 0
 1078 01a2 344B     		ldr	r3, .L73+12	@ tmp247,
 1079 01a4 6422     		movs	r2, #100	@ tmp248,
 1080 01a6 1A80     		strh	r2, [r3]	@ tmp249, gps_timeout
 236:src/gps_vktel.c **** 				gps_state++;
 1081              		.loc 1 236 0
 1082 01a8 2F4B     		ldr	r3, .L73	@ tmp250,
 1083 01aa 1B78     		ldrb	r3, [r3]	@ D.5024, gps_state
 1084 01ac 0133     		adds	r3, r3, #1	@ tmp251,
 1085 01ae DAB2     		uxtb	r2, r3	@ D.5024, tmp251
 1086 01b0 2D4B     		ldr	r3, .L73	@ tmp252,
 1087 01b2 1A70     		strb	r2, [r3]	@ tmp253, gps_state
 237:src/gps_vktel.c **** 			}
 238:src/gps_vktel.c **** 			break;
 1088              		.loc 1 238 0
 1089 01b4 4AE0     		b	.L69	@
 1090              	.L44:
 239:src/gps_vktel.c **** 
 240:src/gps_vktel.c **** 		case GPS_INIT11:
 241:src/gps_vktel.c **** 			if (!gps_timeout)
 1091              		.loc 1 241 0
 1092 01b6 2F4B     		ldr	r3, .L73+12	@ tmp254,
 1093 01b8 1B88     		ldrh	r3, [r3]	@ tmp255, gps_timeout
 1094 01ba 9BB2     		uxth	r3, r3	@ D.5026, tmp255
 1095 01bc 002B     		cmp	r3, #0	@ D.5026,
 1096 01be 47D1     		bne	.L70	@,
 242:src/gps_vktel.c **** 			{
 243:src/gps_vktel.c **** 				Usart1SendUnsigned(str_conf11, sizeof(str_conf11));
 1097              		.loc 1 243 0
 1098 01c0 364B     		ldr	r3, .L73+52	@ tmp256,
 1099 01c2 1A21     		movs	r1, #26	@,
 1100 01c4 1800     		movs	r0, r3	@, tmp256
 1101 01c6 FFF7FEFF 		bl	Usart1SendUnsigned	@
 244:src/gps_vktel.c **** 				gps_timeout = 100;
 1102              		.loc 1 244 0
 1103 01ca 2A4B     		ldr	r3, .L73+12	@ tmp257,
 1104 01cc 6422     		movs	r2, #100	@ tmp258,
 1105 01ce 1A80     		strh	r2, [r3]	@ tmp259, gps_timeout
 245:src/gps_vktel.c **** 				gps_state++;
 1106              		.loc 1 245 0
 1107 01d0 254B     		ldr	r3, .L73	@ tmp260,
 1108 01d2 1B78     		ldrb	r3, [r3]	@ D.5024, gps_state
 1109 01d4 0133     		adds	r3, r3, #1	@ tmp261,
 1110 01d6 DAB2     		uxtb	r2, r3	@ D.5024, tmp261
 1111 01d8 234B     		ldr	r3, .L73	@ tmp262,
 1112 01da 1A70     		strb	r2, [r3]	@ tmp263, gps_state
 246:src/gps_vktel.c **** 			}
 247:src/gps_vktel.c **** 			break;
 1113              		.loc 1 247 0
 1114 01dc 38E0     		b	.L70	@
 1115              	.L45:
 248:src/gps_vktel.c **** 
 249:src/gps_vktel.c **** 		case GPS_INIT12:
 250:src/gps_vktel.c **** 			if (!gps_timeout)
ARM GAS  /tmp/ccOLcpfU.s 			page 25


 1116              		.loc 1 250 0
 1117 01de 254B     		ldr	r3, .L73+12	@ tmp264,
 1118 01e0 1B88     		ldrh	r3, [r3]	@ tmp265, gps_timeout
 1119 01e2 9BB2     		uxth	r3, r3	@ D.5026, tmp265
 1120 01e4 002B     		cmp	r3, #0	@ D.5026,
 1121 01e6 35D1     		bne	.L71	@,
 251:src/gps_vktel.c **** 			{
 252:src/gps_vktel.c **** 				Usart1SendUnsigned(str_conf12, sizeof(str_conf12));
 1122              		.loc 1 252 0
 1123 01e8 2D4B     		ldr	r3, .L73+56	@ tmp266,
 1124 01ea 1A21     		movs	r1, #26	@,
 1125 01ec 1800     		movs	r0, r3	@, tmp266
 1126 01ee FFF7FEFF 		bl	Usart1SendUnsigned	@
 253:src/gps_vktel.c **** 				gps_timeout = 100;
 1127              		.loc 1 253 0
 1128 01f2 204B     		ldr	r3, .L73+12	@ tmp267,
 1129 01f4 6422     		movs	r2, #100	@ tmp268,
 1130 01f6 1A80     		strh	r2, [r3]	@ tmp269, gps_timeout
 254:src/gps_vktel.c **** 				gps_state = GPS_SAVE;
 1131              		.loc 1 254 0
 1132 01f8 1B4B     		ldr	r3, .L73	@ tmp270,
 1133 01fa 0C22     		movs	r2, #12	@ tmp271,
 1134 01fc 1A70     		strb	r2, [r3]	@ tmp272, gps_state
 255:src/gps_vktel.c **** 			}
 256:src/gps_vktel.c **** 			break;
 1135              		.loc 1 256 0
 1136 01fe 29E0     		b	.L71	@
 1137              	.L46:
 257:src/gps_vktel.c **** 
 258:src/gps_vktel.c **** 		case GPS_SAVE:
 259:src/gps_vktel.c **** 			if (!gps_timeout)
 1138              		.loc 1 259 0
 1139 0200 1C4B     		ldr	r3, .L73+12	@ tmp273,
 1140 0202 1B88     		ldrh	r3, [r3]	@ tmp274, gps_timeout
 1141 0204 9BB2     		uxth	r3, r3	@ D.5026, tmp274
 1142 0206 002B     		cmp	r3, #0	@ D.5026,
 1143 0208 26D1     		bne	.L72	@,
 260:src/gps_vktel.c **** 			{
 261:src/gps_vktel.c **** 				Usart1SendUnsigned(str_save, sizeof(str_save));
 1144              		.loc 1 261 0
 1145 020a 264B     		ldr	r3, .L73+60	@ tmp275,
 1146 020c 1521     		movs	r1, #21	@,
 1147 020e 1800     		movs	r0, r3	@, tmp275
 1148 0210 FFF7FEFF 		bl	Usart1SendUnsigned	@
 262:src/gps_vktel.c **** //				gps_timeout = 100;
 263:src/gps_vktel.c **** //				gps_state++;
 264:src/gps_vktel.c **** 				resp = RESP_OK;
 1149              		.loc 1 264 0
 1150 0214 6B46     		mov	r3, sp	@ tmp288,
 1151 0216 0733     		adds	r3, r3, #7	@ tmp276,
 1152 0218 1422     		movs	r2, #20	@ tmp277,
 1153 021a 1A70     		strb	r2, [r3]	@ tmp278, resp
 265:src/gps_vktel.c **** 				gps_state = GPS_INIT;
 1154              		.loc 1 265 0
 1155 021c 124B     		ldr	r3, .L73	@ tmp279,
 1156 021e 0022     		movs	r2, #0	@ tmp280,
 1157 0220 1A70     		strb	r2, [r3]	@ tmp281, gps_state
ARM GAS  /tmp/ccOLcpfU.s 			page 26


 266:src/gps_vktel.c **** 			}
 267:src/gps_vktel.c **** 			break;
 1158              		.loc 1 267 0
 1159 0222 19E0     		b	.L72	@
 1160              	.L32:
 268:src/gps_vktel.c **** 
 269:src/gps_vktel.c **** 		default:
 270:src/gps_vktel.c **** 			gps_state = GPS_INIT;
 1161              		.loc 1 270 0
 1162 0224 104B     		ldr	r3, .L73	@ tmp282,
 1163 0226 0022     		movs	r2, #0	@ tmp283,
 1164 0228 1A70     		strb	r2, [r3]	@ tmp284, gps_state
 271:src/gps_vktel.c **** 			break;
 1165              		.loc 1 271 0
 1166 022a 16E0     		b	.L47	@
 1167              	.L61:
 166:src/gps_vktel.c **** 
 1168              		.loc 1 166 0
 1169 022c C046     		nop
 1170 022e 14E0     		b	.L47	@
 1171              	.L62:
 175:src/gps_vktel.c **** 
 1172              		.loc 1 175 0
 1173 0230 C046     		nop
 1174 0232 12E0     		b	.L47	@
 1175              	.L63:
 184:src/gps_vktel.c **** 
 1176              		.loc 1 184 0
 1177 0234 C046     		nop
 1178 0236 10E0     		b	.L47	@
 1179              	.L64:
 193:src/gps_vktel.c **** 
 1180              		.loc 1 193 0
 1181 0238 C046     		nop
 1182 023a 0EE0     		b	.L47	@
 1183              	.L65:
 202:src/gps_vktel.c **** 
 1184              		.loc 1 202 0
 1185 023c C046     		nop
 1186 023e 0CE0     		b	.L47	@
 1187              	.L66:
 211:src/gps_vktel.c **** 
 1188              		.loc 1 211 0
 1189 0240 C046     		nop
 1190 0242 0AE0     		b	.L47	@
 1191              	.L67:
 220:src/gps_vktel.c **** 
 1192              		.loc 1 220 0
 1193 0244 C046     		nop
 1194 0246 08E0     		b	.L47	@
 1195              	.L68:
 229:src/gps_vktel.c **** 
 1196              		.loc 1 229 0
 1197 0248 C046     		nop
 1198 024a 06E0     		b	.L47	@
 1199              	.L69:
 238:src/gps_vktel.c **** 
ARM GAS  /tmp/ccOLcpfU.s 			page 27


 1200              		.loc 1 238 0
 1201 024c C046     		nop
 1202 024e 04E0     		b	.L47	@
 1203              	.L70:
 247:src/gps_vktel.c **** 
 1204              		.loc 1 247 0
 1205 0250 C046     		nop
 1206 0252 02E0     		b	.L47	@
 1207              	.L71:
 256:src/gps_vktel.c **** 
 1208              		.loc 1 256 0
 1209 0254 C046     		nop
 1210 0256 00E0     		b	.L47	@
 1211              	.L72:
 267:src/gps_vktel.c **** 
 1212              		.loc 1 267 0
 1213 0258 C046     		nop
 1214              	.L47:
 272:src/gps_vktel.c **** 	}
 273:src/gps_vktel.c **** 
 274:src/gps_vktel.c **** 	return resp;
 1215              		.loc 1 274 0
 1216 025a 6B46     		mov	r3, sp	@ tmp289,
 1217 025c 0733     		adds	r3, r3, #7	@ tmp285,
 1218 025e 1B78     		ldrb	r3, [r3]	@ D.5027, resp
 275:src/gps_vktel.c **** }
 1219              		.loc 1 275 0
 1220 0260 1800     		movs	r0, r3	@, <retval>
 1221 0262 03B0     		add	sp, sp, #12	@,,
 1222              		@ sp needed	@
 1223 0264 00BD     		pop	{pc}
 1224              	.L74:
 1225 0266 C046     		.align	2
 1226              	.L73:
 1227 0268 00000000 		.word	gps_state
 1228 026c 00000000 		.word	.L34
 1229 0270 00000000 		.word	str_conf1
 1230 0274 00000000 		.word	gps_timeout
 1231 0278 00000000 		.word	str_conf2
 1232 027c 00000000 		.word	str_conf3
 1233 0280 00000000 		.word	str_conf4
 1234 0284 00000000 		.word	str_conf5
 1235 0288 00000000 		.word	str_conf6
 1236 028c 00000000 		.word	str_conf7
 1237 0290 00000000 		.word	str_conf8
 1238 0294 00000000 		.word	str_conf9
 1239 0298 00000000 		.word	str_conf10
 1240 029c 00000000 		.word	str_conf11
 1241 02a0 00000000 		.word	str_conf12
 1242 02a4 00000000 		.word	str_save
 1243              		.cfi_endproc
 1244              	.LFE24:
 1245              		.size	GPSConfig, .-GPSConfig
 1246              		.section	.text.GPSResetFactory,"ax",%progbits
 1247              		.align	2
 1248              		.global	GPSResetFactory
 1249              		.code	16
ARM GAS  /tmp/ccOLcpfU.s 			page 28


 1250              		.thumb_func
 1251              		.type	GPSResetFactory, %function
 1252              	GPSResetFactory:
 1253              	.LFB25:
 276:src/gps_vktel.c **** 
 277:src/gps_vktel.c **** //Configuracion de Factoty Default GPS
 278:src/gps_vktel.c **** //contesta RESP_CONTNUE o RESP_OK
 279:src/gps_vktel.c **** unsigned char GPSResetFactory(void)
 280:src/gps_vktel.c **** {
 1254              		.loc 1 280 0
 1255              		.cfi_startproc
 1256 0000 00B5     		push	{lr}	@
 1257              	.LCFI5:
 1258              		.cfi_def_cfa_offset 4
 1259              		.cfi_offset 14, -4
 1260 0002 83B0     		sub	sp, sp, #12	@,,
 1261              	.LCFI6:
 1262              		.cfi_def_cfa_offset 16
 281:src/gps_vktel.c **** 	unsigned char resp = RESP_CONTINUE;
 1263              		.loc 1 281 0
 1264 0004 6B46     		mov	r3, sp	@ tmp140,
 1265 0006 0733     		adds	r3, r3, #7	@ tmp115,
 1266 0008 0022     		movs	r2, #0	@ tmp116,
 1267 000a 1A70     		strb	r2, [r3]	@ tmp117, resp
 282:src/gps_vktel.c **** 
 283:src/gps_vktel.c **** 	switch (gps_state)
 1268              		.loc 1 283 0
 1269 000c 174B     		ldr	r3, .L84	@ tmp118,
 1270 000e 1B78     		ldrb	r3, [r3]	@ D.5029, gps_state
 1271 0010 002B     		cmp	r3, #0	@ D.5030,
 1272 0012 02D0     		beq	.L77	@,
 1273 0014 0C2B     		cmp	r3, #12	@ D.5030,
 1274 0016 0CD0     		beq	.L78	@,
 1275 0018 1DE0     		b	.L82	@
 1276              	.L77:
 284:src/gps_vktel.c **** 	{
 285:src/gps_vktel.c **** 		case GPS_INIT:
 286:src/gps_vktel.c **** 			Usart1SendUnsigned(str_factory, sizeof(str_factory));
 1277              		.loc 1 286 0
 1278 001a 154B     		ldr	r3, .L84+4	@ tmp119,
 1279 001c 1521     		movs	r1, #21	@,
 1280 001e 1800     		movs	r0, r3	@, tmp119
 1281 0020 FFF7FEFF 		bl	Usart1SendUnsigned	@
 287:src/gps_vktel.c **** 			gps_timeout = 100;
 1282              		.loc 1 287 0
 1283 0024 134B     		ldr	r3, .L84+8	@ tmp120,
 1284 0026 6422     		movs	r2, #100	@ tmp121,
 1285 0028 1A80     		strh	r2, [r3]	@ tmp122, gps_timeout
 288:src/gps_vktel.c **** 			gps_state = GPS_SAVE;
 1286              		.loc 1 288 0
 1287 002a 104B     		ldr	r3, .L84	@ tmp123,
 1288 002c 0C22     		movs	r2, #12	@ tmp124,
 1289 002e 1A70     		strb	r2, [r3]	@ tmp125, gps_state
 289:src/gps_vktel.c **** 			break;
 1290              		.loc 1 289 0
 1291 0030 16E0     		b	.L79	@
 1292              	.L78:
ARM GAS  /tmp/ccOLcpfU.s 			page 29


 290:src/gps_vktel.c **** 
 291:src/gps_vktel.c **** 		case GPS_SAVE:
 292:src/gps_vktel.c **** 			if (!gps_timeout)
 1293              		.loc 1 292 0
 1294 0032 104B     		ldr	r3, .L84+8	@ tmp126,
 1295 0034 1B88     		ldrh	r3, [r3]	@ tmp127, gps_timeout
 1296 0036 9BB2     		uxth	r3, r3	@ D.5031, tmp127
 1297 0038 002B     		cmp	r3, #0	@ D.5031,
 1298 003a 10D1     		bne	.L83	@,
 293:src/gps_vktel.c **** 			{
 294:src/gps_vktel.c **** 				Usart1SendUnsigned(str_save, sizeof(str_save));
 1299              		.loc 1 294 0
 1300 003c 0E4B     		ldr	r3, .L84+12	@ tmp128,
 1301 003e 1521     		movs	r1, #21	@,
 1302 0040 1800     		movs	r0, r3	@, tmp128
 1303 0042 FFF7FEFF 		bl	Usart1SendUnsigned	@
 295:src/gps_vktel.c **** //				gps_timeout = 100;
 296:src/gps_vktel.c **** //				gps_state++;
 297:src/gps_vktel.c **** 				resp = RESP_OK;
 1304              		.loc 1 297 0
 1305 0046 6B46     		mov	r3, sp	@ tmp141,
 1306 0048 0733     		adds	r3, r3, #7	@ tmp129,
 1307 004a 1422     		movs	r2, #20	@ tmp130,
 1308 004c 1A70     		strb	r2, [r3]	@ tmp131, resp
 298:src/gps_vktel.c **** 				gps_state = GPS_INIT;
 1309              		.loc 1 298 0
 1310 004e 074B     		ldr	r3, .L84	@ tmp132,
 1311 0050 0022     		movs	r2, #0	@ tmp133,
 1312 0052 1A70     		strb	r2, [r3]	@ tmp134, gps_state
 299:src/gps_vktel.c **** 			}
 300:src/gps_vktel.c **** 			break;
 1313              		.loc 1 300 0
 1314 0054 03E0     		b	.L83	@
 1315              	.L82:
 301:src/gps_vktel.c **** 
 302:src/gps_vktel.c **** 		default:
 303:src/gps_vktel.c **** 			gps_state = GPS_INIT;
 1316              		.loc 1 303 0
 1317 0056 054B     		ldr	r3, .L84	@ tmp135,
 1318 0058 0022     		movs	r2, #0	@ tmp136,
 1319 005a 1A70     		strb	r2, [r3]	@ tmp137, gps_state
 304:src/gps_vktel.c **** 			break;
 1320              		.loc 1 304 0
 1321 005c 00E0     		b	.L79	@
 1322              	.L83:
 300:src/gps_vktel.c **** 
 1323              		.loc 1 300 0
 1324 005e C046     		nop
 1325              	.L79:
 305:src/gps_vktel.c **** 	}
 306:src/gps_vktel.c **** 
 307:src/gps_vktel.c **** 	return resp;
 1326              		.loc 1 307 0
 1327 0060 6B46     		mov	r3, sp	@ tmp142,
 1328 0062 0733     		adds	r3, r3, #7	@ tmp138,
 1329 0064 1B78     		ldrb	r3, [r3]	@ D.5032, resp
 308:src/gps_vktel.c **** }
ARM GAS  /tmp/ccOLcpfU.s 			page 30


 1330              		.loc 1 308 0
 1331 0066 1800     		movs	r0, r3	@, <retval>
 1332 0068 03B0     		add	sp, sp, #12	@,,
 1333              		@ sp needed	@
 1334 006a 00BD     		pop	{pc}
 1335              	.L85:
 1336              		.align	2
 1337              	.L84:
 1338 006c 00000000 		.word	gps_state
 1339 0070 00000000 		.word	str_factory
 1340 0074 00000000 		.word	gps_timeout
 1341 0078 00000000 		.word	str_save
 1342              		.cfi_endproc
 1343              	.LFE25:
 1344              		.size	GPSResetFactory, .-GPSResetFactory
 1345              		.text
 1346              	.Letext0:
 1347              		.file 2 "/usr/local/sbin/gcc-arm-none-eabi-5_2-2015q4/arm-none-eabi/include/machine/_default_types
 1348              		.file 3 "/usr/local/sbin/gcc-arm-none-eabi-5_2-2015q4/arm-none-eabi/include/sys/_stdint.h"
 1349              		.file 4 "./cmsis_boot/stm32f0xx.h"
 1350              		.file 5 "src/gps_vktel.h"