ARM GAS  /tmp/cc4fp2Bh.s 			page 1


   1              		.syntax unified
   2              		.cpu cortex-m0
   3              		.fpu softvfp
   4              		.eabi_attribute 20, 1	@ Tag_ABI_FP_denormal
   5              		.eabi_attribute 21, 1	@ Tag_ABI_FP_exceptions
   6              		.eabi_attribute 23, 3	@ Tag_ABI_FP_number_model
   7              		.eabi_attribute 24, 1	@ Tag_ABI_align8_needed
   8              		.eabi_attribute 25, 1	@ Tag_ABI_align8_preserved
   9              		.eabi_attribute 26, 1	@ Tag_ABI_enum_size
  10              		.eabi_attribute 30, 6	@ Tag_ABI_optimization_goals
  11              		.eabi_attribute 34, 0	@ Tag_CPU_unaligned_access
  12              		.eabi_attribute 18, 4	@ Tag_ABI_PCS_wchar_t
  13              		.file	"sim900_800.c"
  14              	@ GNU C11 (GNU Tools for ARM Embedded Processors) version 5.2.1 20151202 (release) [ARM/embedded-5-
  15              	@	compiled by GNU C version 4.7.4, GMP version 4.3.2, MPFR version 2.4.2, MPC version 0.8.1
  16              	@ GGC heuristics: --param ggc-min-expand=100 --param ggc-min-heapsize=131072
  17              	@ options passed:  -I . -I ./src -I ./cmsis_boot -I ./cmsis_core
  18              	@ -I ../STM32F0xx_StdPeriph_Lib_V1.3.1/Libraries/STM32F0xx_StdPeriph_Driver/inc
  19              	@ -I ./inc -I ./cmsis_boot -imultilib armv6-m
  20              	@ -iprefix /usr/local/sbin/gcc-arm-none-eabi-5_2-2015q4/bin/../lib/gcc/arm-none-eabi/5.2.1/
  21              	@ -isysroot /usr/local/sbin/gcc-arm-none-eabi-5_2-2015q4/bin/../arm-none-eabi
  22              	@ -D__USES_INITFINI__ src/sim900_800.c -mcpu=cortex-m0 -mthumb
  23              	@ -auxbase-strip src/sim900_800.o -g -gdwarf-2 -O0 -Wall
  24              	@ -fomit-frame-pointer -fdata-sections -ffunction-sections -fverbose-asm
  25              	@ options enabled:  -faggressive-loop-optimizations -fauto-inc-dec
  26              	@ -fchkp-check-incomplete-type -fchkp-check-read -fchkp-check-write
  27              	@ -fchkp-instrument-calls -fchkp-narrow-bounds -fchkp-optimize
  28              	@ -fchkp-store-bounds -fchkp-use-static-bounds
  29              	@ -fchkp-use-static-const-bounds -fchkp-use-wrappers -fcommon
  30              	@ -fdata-sections -fdelete-null-pointer-checks -fdwarf2-cfi-asm
  31              	@ -fearly-inlining -feliminate-unused-debug-types -ffunction-cse
  32              	@ -ffunction-sections -fgcse-lm -fgnu-runtime -fgnu-unique -fident
  33              	@ -finline-atomics -fira-hoist-pressure -fira-share-save-slots
  34              	@ -fira-share-spill-slots -fivopts -fkeep-static-consts
  35              	@ -fleading-underscore -flifetime-dse -flto-odr-type-merging -fmath-errno
  36              	@ -fmerge-debug-strings -fomit-frame-pointer -fpeephole
  37              	@ -fprefetch-loop-arrays -freg-struct-return
  38              	@ -fsched-critical-path-heuristic -fsched-dep-count-heuristic
  39              	@ -fsched-group-heuristic -fsched-interblock -fsched-last-insn-heuristic
  40              	@ -fsched-rank-heuristic -fsched-spec -fsched-spec-insn-heuristic
  41              	@ -fsched-stalled-insns-dep -fsemantic-interposition -fshow-column
  42              	@ -fsigned-zeros -fsplit-ivs-in-unroller -fstdarg-opt
  43              	@ -fstrict-volatile-bitfields -fsync-libcalls -ftrapping-math
  44              	@ -ftree-coalesce-vars -ftree-cselim -ftree-forwprop -ftree-loop-if-convert
  45              	@ -ftree-loop-im -ftree-loop-ivcanon -ftree-loop-optimize
  46              	@ -ftree-parallelize-loops= -ftree-phiprop -ftree-reassoc -ftree-scev-cprop
  47              	@ -funit-at-a-time -fverbose-asm -fzero-initialized-in-bss -mlittle-endian
  48              	@ -mpic-data-is-text-relative -msched-prolog -mthumb
  49              	@ -mvectorize-with-neon-quad
  50              	
  51              		.text
  52              	.Ltext0:
  53              		.cfi_sections	.debug_frame
  54              		.comm	buffUARTGSMrx,256,4
  55              		.comm	buffUARTGSMrx2,256,4
  56              		.comm	pBuffUARTGSMrxW,4,4
  57              		.comm	pBuffUARTGSMrxR,4,4
ARM GAS  /tmp/cc4fp2Bh.s 			page 2


  58              		.comm	PacketReadyUARTGSM,1,1
  59              		.comm	buffUARTGSMtx,256,4
  60              		.comm	pBuffUARTGSMtxR,4,4
  61              		.comm	pBuffUARTGSMtxW,4,4
  62              		.global	GSMStartState
  63              		.section	.bss.GSMStartState,"aw",%nobits
  64              		.type	GSMStartState, %object
  65              		.size	GSMStartState, 1
  66              	GSMStartState:
  67 0000 00       		.space	1
  68              		.comm	GSMStartTime,2,2
  69              		.comm	GSMGeneralTimeOut,2,2
  70              		.global	GSMSendCommandState
  71              		.section	.bss.GSMSendCommandState,"aw",%nobits
  72              		.type	GSMSendCommandState, %object
  73              		.size	GSMSendCommandState, 1
  74              	GSMSendCommandState:
  75 0000 00       		.space	1
  76              		.global	GSMSendCommandFlag
  77              		.section	.bss.GSMSendCommandFlag,"aw",%nobits
  78              		.type	GSMSendCommandFlag, %object
  79              		.size	GSMSendCommandFlag, 1
  80              	GSMSendCommandFlag:
  81 0000 00       		.space	1
  82              		.comm	GSMSendCommandTimeOut,2,2
  83              		.global	GSMSendCommandIntento
  84              		.section	.bss.GSMSendCommandIntento,"aw",%nobits
  85              		.type	GSMSendCommandIntento, %object
  86              		.size	GSMSendCommandIntento, 1
  87              	GSMSendCommandIntento:
  88 0000 00       		.space	1
  89              		.global	GSMSendSMSState
  90              		.section	.bss.GSMSendSMSState,"aw",%nobits
  91              		.type	GSMSendSMSState, %object
  92              		.size	GSMSendSMSState, 1
  93              	GSMSendSMSState:
  94 0000 00       		.space	1
  95              		.global	GSMSendSMSFlag
  96              		.section	.bss.GSMSendSMSFlag,"aw",%nobits
  97              		.type	GSMSendSMSFlag, %object
  98              		.size	GSMSendSMSFlag, 1
  99              	GSMSendSMSFlag:
 100 0000 00       		.space	1
 101              		.comm	GSMSendSMSTimeOut,2,2
 102              		.comm	GSMSendSMSbuffAux,32,4
 103              		.global	GSMConfigState
 104              		.section	.bss.GSMConfigState,"aw",%nobits
 105              		.type	GSMConfigState, %object
 106              		.size	GSMConfigState, 1
 107              	GSMConfigState:
 108 0000 00       		.space	1
 109              		.comm	GSMConfigTimeOut,2,2
 110              		.comm	GSMConfigTime,2,2
 111              		.comm	GSMConfigGPRSTimeOut,2,2
 112              		.global	GSMConfigGPRSState
 113              		.section	.bss.GSMConfigGPRSState,"aw",%nobits
 114              		.type	GSMConfigGPRSState, %object
ARM GAS  /tmp/cc4fp2Bh.s 			page 3


 115              		.size	GSMConfigGPRSState, 1
 116              	GSMConfigGPRSState:
 117 0000 00       		.space	1
 118              		.global	GSMConfigGPRSflag
 119              		.section	.bss.GSMConfigGPRSflag,"aw",%nobits
 120              		.type	GSMConfigGPRSflag, %object
 121              		.size	GSMConfigGPRSflag, 1
 122              	GSMConfigGPRSflag:
 123 0000 00       		.space	1
 124              		.comm	GSMbuffStatus,32,4
 125              		.comm	GSMbuffGPRSCommand,64,4
 126              		.comm	GSMIPadd,16,4
 127              		.global	GPRSrssi
 128              		.section	.data.GPRSrssi,"aw",%progbits
 129              		.type	GPRSrssi, %object
 130              		.size	GPRSrssi, 1
 131              	GPRSrssi:
 132 0000 63       		.byte	99
 133              		.global	GSMSendIPState
 134              		.section	.bss.GSMSendIPState,"aw",%nobits
 135              		.type	GSMSendIPState, %object
 136              		.size	GSMSendIPState, 1
 137              	GSMSendIPState:
 138 0000 00       		.space	1
 139              		.global	GSMSendIPFlag
 140              		.section	.bss.GSMSendIPFlag,"aw",%nobits
 141              		.type	GSMSendIPFlag, %object
 142              		.size	GSMSendIPFlag, 1
 143              	GSMSendIPFlag:
 144 0000 00       		.space	1
 145              		.comm	GSMSendIPTimeOut,2,2
 146              		.comm	GSMSendIPbuffAux,32,4
 147              		.comm	GSMbuffRtaCommand,256,4
 148              		.comm	DB300flagConnGPRS,1,1
 149              		.global	GSM_OK
 150              		.section	.rodata.GSM_OK,"a",%progbits
 151              		.align	2
 152              		.type	GSM_OK, %object
 153              		.size	GSM_OK, 3
 154              	GSM_OK:
 155 0000 4F4B00   		.ascii	"OK\000"
 156              		.global	GSM_ERR
 157              		.section	.rodata.GSM_ERR,"a",%progbits
 158              		.align	2
 159              		.type	GSM_ERR, %object
 160              		.size	GSM_ERR, 6
 161              	GSM_ERR:
 162 0000 4552524F 		.ascii	"ERROR\000"
 162      5200
 163              		.global	GSM_RTA
 164              		.section	.rodata.GSM_RTA,"a",%progbits
 165              		.type	GSM_RTA, %object
 166              		.size	GSM_RTA, 1
 167              	GSM_RTA:
 168 0000 2B       		.byte	43
 169              		.global	GSM_CMGF
 170              		.section	.rodata.GSM_CMGF,"a",%progbits
ARM GAS  /tmp/cc4fp2Bh.s 			page 4


 171              		.align	2
 172              		.type	GSM_CMGF, %object
 173              		.size	GSM_CMGF, 7
 174              	GSM_CMGF:
 175 0000 2B434D47 		.ascii	"+CMGF:\000"
 175      463A00
 176              		.global	GSM_IPSTATE
 177              		.section	.rodata.GSM_IPSTATE,"a",%progbits
 178              		.align	2
 179              		.type	GSM_IPSTATE, %object
 180              		.size	GSM_IPSTATE, 7
 181              	GSM_IPSTATE:
 182 0000 53544154 		.ascii	"STATE:\000"
 182      453A00
 183              		.global	GSM_IPINITIAL
 184              		.section	.rodata.GSM_IPINITIAL,"a",%progbits
 185              		.align	2
 186              		.type	GSM_IPINITIAL, %object
 187              		.size	GSM_IPINITIAL, 11
 188              	GSM_IPINITIAL:
 189 0000 49502049 		.ascii	"IP INITIAL\000"
 189      4E495449 
 189      414C00
 190              		.global	GSM_IPSTART
 191              		.section	.rodata.GSM_IPSTART,"a",%progbits
 192              		.align	2
 193              		.type	GSM_IPSTART, %object
 194              		.size	GSM_IPSTART, 9
 195              	GSM_IPSTART:
 196 0000 49502053 		.ascii	"IP START\000"
 196      54415254 
 196      00
 197              		.global	GSM_IPGPRSACT
 198              		.section	.rodata.GSM_IPGPRSACT,"a",%progbits
 199              		.align	2
 200              		.type	GSM_IPGPRSACT, %object
 201              		.size	GSM_IPGPRSACT, 11
 202              	GSM_IPGPRSACT:
 203 0000 49502047 		.ascii	"IP GPRSACT\000"
 203      50525341 
 203      435400
 204              		.global	GSM_IPSTATUS
 205              		.section	.rodata.GSM_IPSTATUS,"a",%progbits
 206              		.align	2
 207              		.type	GSM_IPSTATUS, %object
 208              		.size	GSM_IPSTATUS, 10
 209              	GSM_IPSTATUS:
 210 0000 49502053 		.ascii	"IP STATUS\000"
 210      54415455 
 210      5300
 211              		.global	GSM_IPCONNECTING
 212              		.section	.rodata.GSM_IPCONNECTING,"a",%progbits
 213              		.align	2
 214              		.type	GSM_IPCONNECTING, %object
 215              		.size	GSM_IPCONNECTING, 15
 216              	GSM_IPCONNECTING:
 217 0000 54435020 		.ascii	"TCP CONNECTING\000"
ARM GAS  /tmp/cc4fp2Bh.s 			page 5


 217      434F4E4E 
 217      45435449 
 217      4E4700
 218              		.global	GSM_IPCONNOK
 219              		.section	.rodata.GSM_IPCONNOK,"a",%progbits
 220              		.align	2
 221              		.type	GSM_IPCONNOK, %object
 222              		.size	GSM_IPCONNOK, 11
 223              	GSM_IPCONNOK:
 224 0000 434F4E4E 		.ascii	"CONNECT OK\000"
 224      45435420 
 224      4F4B00
 225              		.global	GSM_IPCONNFAIL
 226              		.section	.rodata.GSM_IPCONNFAIL,"a",%progbits
 227              		.align	2
 228              		.type	GSM_IPCONNFAIL, %object
 229              		.size	GSM_IPCONNFAIL, 13
 230              	GSM_IPCONNFAIL:
 231 0000 434F4E4E 		.ascii	"CONNECT FAIL\000"
 231      45435420 
 231      4641494C 
 231      00
 232              		.global	GSM_IPCONNCLOSE
 233              		.section	.rodata.GSM_IPCONNCLOSE,"a",%progbits
 234              		.align	2
 235              		.type	GSM_IPCONNCLOSE, %object
 236              		.size	GSM_IPCONNCLOSE, 11
 237              	GSM_IPCONNCLOSE:
 238 0000 54435020 		.ascii	"TCP CLOSED\000"
 238      434C4F53 
 238      454400
 239              		.global	GSM_SIM1
 240              		.section	.rodata.GSM_SIM1,"a",%progbits
 241              		.align	2
 242              		.type	GSM_SIM1, %object
 243              		.size	GSM_SIM1, 5
 244              	GSM_SIM1:
 245 0000 53494D31 		.ascii	"SIM1\000"
 245      00
 246              		.global	GSM_SIM2
 247              		.section	.rodata.GSM_SIM2,"a",%progbits
 248              		.align	2
 249              		.type	GSM_SIM2, %object
 250              		.size	GSM_SIM2, 5
 251              	GSM_SIM2:
 252 0000 53494D32 		.ascii	"SIM2\000"
 252      00
 253              		.global	GSM_SENDOK
 254              		.section	.rodata.GSM_SENDOK,"a",%progbits
 255              		.align	2
 256              		.type	GSM_SENDOK, %object
 257              		.size	GSM_SENDOK, 8
 258              	GSM_SENDOK:
 259 0000 53454E44 		.ascii	"SEND OK\000"
 259      204F4B00 
 260              		.global	prestadorSimState
 261              		.section	.bss.prestadorSimState,"aw",%nobits
ARM GAS  /tmp/cc4fp2Bh.s 			page 6


 262              		.type	prestadorSimState, %object
 263              		.size	prestadorSimState, 1
 264              	prestadorSimState:
 265 0000 00       		.space	1
 266              		.global	prestadorSimTime
 267              		.section	.data.prestadorSimTime,"aw",%progbits
 268              		.type	prestadorSimTime, %object
 269              		.size	prestadorSimTime, 1
 270              	prestadorSimTime:
 271 0000 FA       		.byte	-6
 272              		.global	GSMCantSMS
 273              		.section	.bss.GSMCantSMS,"aw",%nobits
 274              		.type	GSMCantSMS, %object
 275              		.size	GSMCantSMS, 1
 276              	GSMCantSMS:
 277 0000 00       		.space	1
 278              		.global	GSMCantSMS2
 279              		.section	.bss.GSMCantSMS2,"aw",%nobits
 280              		.type	GSMCantSMS2, %object
 281              		.size	GSMCantSMS2, 1
 282              	GSMCantSMS2:
 283 0000 00       		.space	1
 284              		.global	GSMnumSMS
 285              		.section	.data.GSMnumSMS,"aw",%progbits
 286              		.type	GSMnumSMS, %object
 287              		.size	GSMnumSMS, 1
 288              	GSMnumSMS:
 289 0000 01       		.byte	1
 290              		.global	GSMReadSMSState
 291              		.section	.bss.GSMReadSMSState,"aw",%nobits
 292              		.type	GSMReadSMSState, %object
 293              		.size	GSMReadSMSState, 1
 294              	GSMReadSMSState:
 295 0000 00       		.space	1
 296              		.comm	GSMReadSMScommand,32,4
 297              		.comm	GSMReadSMSrepIn,32,4
 298              		.global	GSMrxSMSState
 299              		.section	.bss.GSMrxSMSState,"aw",%nobits
 300              		.type	GSMrxSMSState, %object
 301              		.size	GSMrxSMSState, 1
 302              	GSMrxSMSState:
 303 0000 00       		.space	1
 304              		.global	prestadorSimSelect
 305              		.section	.bss.prestadorSimSelect,"aw",%nobits
 306              		.type	prestadorSimSelect, %object
 307              		.size	prestadorSimSelect, 1
 308              	prestadorSimSelect:
 309 0000 00       		.space	1
 310              		.global	flagCloseIP
 311              		.section	.bss.flagCloseIP,"aw",%nobits
 312              		.type	flagCloseIP, %object
 313              		.size	flagCloseIP, 1
 314              	flagCloseIP:
 315 0000 00       		.space	1
 316              		.section	.text.GSMProcess,"ax",%progbits
 317              		.align	2
 318              		.global	GSMProcess
ARM GAS  /tmp/cc4fp2Bh.s 			page 7


 319              		.code	16
 320              		.thumb_func
 321              		.type	GSMProcess, %function
 322              	GSMProcess:
 323              	.LFB20:
 324              		.file 1 "src/sim900_800.c"
   1:src/sim900_800.c **** 
   2:src/sim900_800.c **** #include "sim900_800.h"
   3:src/sim900_800.c **** #include "uart.h"
   4:src/sim900_800.c **** #include "tim.h"
   5:src/sim900_800.c **** 
   6:src/sim900_800.c **** #include <stdlib.h>
   7:src/sim900_800.c **** #include <stdio.h>
   8:src/sim900_800.c **** #include <string.h>
   9:src/sim900_800.c **** 
  10:src/sim900_800.c **** 
  11:src/sim900_800.c **** //UART GSM.
  12:src/sim900_800.c **** //RX.
  13:src/sim900_800.c **** volatile char buffUARTGSMrx[buffUARTGSMrx_dimension];
  14:src/sim900_800.c **** volatile char buffUARTGSMrx2[buffUARTGSMrx_dimension];
  15:src/sim900_800.c **** volatile char *pBuffUARTGSMrxW;
  16:src/sim900_800.c **** volatile char *pBuffUARTGSMrxR;
  17:src/sim900_800.c **** volatile char PacketReadyUARTGSM;
  18:src/sim900_800.c **** //TX.
  19:src/sim900_800.c **** volatile char buffUARTGSMtx[buffUARTGSMrx_dimension];
  20:src/sim900_800.c **** volatile char *pBuffUARTGSMtxR;
  21:src/sim900_800.c **** volatile char *pBuffUARTGSMtxW;
  22:src/sim900_800.c **** 
  23:src/sim900_800.c **** //GSM Start.
  24:src/sim900_800.c **** unsigned char GSMStartState = 0;
  25:src/sim900_800.c **** volatile unsigned short GSMStartTime;
  26:src/sim900_800.c **** volatile unsigned short GSMGeneralTimeOut;
  27:src/sim900_800.c **** 
  28:src/sim900_800.c **** //GSM SendCommand.
  29:src/sim900_800.c **** char GSMSendCommandState = 0;
  30:src/sim900_800.c **** char GSMSendCommandFlag = 0;
  31:src/sim900_800.c **** volatile unsigned short GSMSendCommandTimeOut;
  32:src/sim900_800.c **** char GSMSendCommandIntento = 0;
  33:src/sim900_800.c **** 
  34:src/sim900_800.c **** //GSM SendSMS
  35:src/sim900_800.c **** char GSMSendSMSState = 0;
  36:src/sim900_800.c **** char GSMSendSMSFlag = 0;
  37:src/sim900_800.c **** volatile unsigned short GSMSendSMSTimeOut;
  38:src/sim900_800.c **** char GSMSendSMSbuffAux[32];
  39:src/sim900_800.c **** 
  40:src/sim900_800.c **** //GSM Config.
  41:src/sim900_800.c **** char GSMConfigState = 0;
  42:src/sim900_800.c **** volatile unsigned short GSMConfigTimeOut;
  43:src/sim900_800.c **** volatile unsigned short GSMConfigTime;
  44:src/sim900_800.c **** 
  45:src/sim900_800.c **** //GPRS Config.
  46:src/sim900_800.c **** unsigned short GSMConfigGPRSTimeOut;
  47:src/sim900_800.c **** char GSMConfigGPRSState = 0;
  48:src/sim900_800.c **** char GSMConfigGPRSflag = 0;
  49:src/sim900_800.c **** char GSMbuffStatus[32];
  50:src/sim900_800.c **** char GSMbuffGPRSCommand[64];
  51:src/sim900_800.c **** char GSMIPadd[16];
ARM GAS  /tmp/cc4fp2Bh.s 			page 8


  52:src/sim900_800.c **** unsigned char GPRSrssi = 99;
  53:src/sim900_800.c **** 
  54:src/sim900_800.c **** //GSM SendIP
  55:src/sim900_800.c **** char GSMSendIPState = 0;
  56:src/sim900_800.c **** char GSMSendIPFlag = 0;
  57:src/sim900_800.c **** volatile unsigned short GSMSendIPTimeOut;
  58:src/sim900_800.c **** char GSMSendIPbuffAux[32];
  59:src/sim900_800.c **** 
  60:src/sim900_800.c **** char GSMbuffRtaCommand[buffUARTGSMrx_dimension];
  61:src/sim900_800.c **** 
  62:src/sim900_800.c **** //Conexion cerrada.
  63:src/sim900_800.c **** char DB300flagConnGPRS;
  64:src/sim900_800.c **** 
  65:src/sim900_800.c **** const char GSM_OK[] 	= "OK";
  66:src/sim900_800.c **** const char GSM_ERR[] 	= "ERROR";
  67:src/sim900_800.c **** 
  68:src/sim900_800.c **** const char GSM_RTA		= '+';
  69:src/sim900_800.c **** 
  70:src/sim900_800.c **** const char GSM_CMGF[] = "+CMGF:";
  71:src/sim900_800.c **** const char GSM_IPSTATE[] = "STATE:";
  72:src/sim900_800.c **** 
  73:src/sim900_800.c **** //Estados GPRS.
  74:src/sim900_800.c **** const char GSM_IPINITIAL[] 		= "IP INITIAL";
  75:src/sim900_800.c **** const char GSM_IPSTART[] 		= "IP START";
  76:src/sim900_800.c **** const char GSM_IPGPRSACT[] 		= "IP GPRSACT";
  77:src/sim900_800.c **** const char GSM_IPSTATUS[] 		= "IP STATUS";
  78:src/sim900_800.c **** const char GSM_IPCONNECTING[] 	= "TCP CONNECTING";
  79:src/sim900_800.c **** const char GSM_IPCONNOK[] 		= "CONNECT OK";
  80:src/sim900_800.c **** const char GSM_IPCONNFAIL[] 	= "CONNECT FAIL";
  81:src/sim900_800.c **** const char GSM_IPCONNCLOSE[] 	= "TCP CLOSED";
  82:src/sim900_800.c **** 
  83:src/sim900_800.c **** const char GSM_SIM1[] = "SIM1";
  84:src/sim900_800.c **** const char GSM_SIM2[] = "SIM2";
  85:src/sim900_800.c **** const char GSM_SENDOK[] = "SEND OK";
  86:src/sim900_800.c **** // const char GSM_SENDOK[] = "000: ACK";
  87:src/sim900_800.c **** unsigned char prestadorSimState = 0;
  88:src/sim900_800.c **** unsigned char prestadorSimTime = 250;
  89:src/sim900_800.c **** 
  90:src/sim900_800.c **** 
  91:src/sim900_800.c **** //Recepcion de SMS.
  92:src/sim900_800.c **** unsigned char GSMCantSMS = 0;
  93:src/sim900_800.c **** unsigned char GSMCantSMS2 = 0;
  94:src/sim900_800.c **** unsigned char GSMnumSMS = 1;
  95:src/sim900_800.c **** char GSMReadSMSState = 0;
  96:src/sim900_800.c **** char GSMReadSMScommand[32];
  97:src/sim900_800.c **** char GSMReadSMSrepIn[32];
  98:src/sim900_800.c **** unsigned char GSMrxSMSState = 0;
  99:src/sim900_800.c **** unsigned char prestadorSimSelect = 0;
 100:src/sim900_800.c **** unsigned char flagCloseIP = 0;
 101:src/sim900_800.c **** 
 102:src/sim900_800.c **** //Config SIM900.
 103:src/sim900_800.c **** extern char SIM900APNSIM1[64];
 104:src/sim900_800.c **** extern char SIM900USUARIOSIM1[20];
 105:src/sim900_800.c **** extern char SIM900CLAVESIM1[20];
 106:src/sim900_800.c **** 
 107:src/sim900_800.c **** extern char SIM900APNSIM2[64];
 108:src/sim900_800.c **** extern char SIM900USUARIOSIM2[20];
ARM GAS  /tmp/cc4fp2Bh.s 			page 9


 109:src/sim900_800.c **** extern char SIM900CLAVESIM2[20];
 110:src/sim900_800.c **** extern char SIM900IPREMOTE[20];
 111:src/sim900_800.c **** extern char SIM900PORTREMOTE[20];
 112:src/sim900_800.c **** 
 113:src/sim900_800.c **** 
 114:src/sim900_800.c **** extern volatile unsigned char usart1_mini_timeout;
 115:src/sim900_800.c **** extern volatile unsigned char usart1_pckt_ready;
 116:src/sim900_800.c **** extern volatile unsigned char usart1_have_data;
 117:src/sim900_800.c **** extern unsigned char usart1_pckt_bytes;
 118:src/sim900_800.c **** 
 119:src/sim900_800.c **** #define gsm_mini_timeout	usart1_mini_timeout
 120:src/sim900_800.c **** #define gsm_pckt_ready		usart1_pckt_ready
 121:src/sim900_800.c **** #define gsm_have_data		usart1_have_data
 122:src/sim900_800.c **** #define gsm_pckt_bytes		usart1_pckt_bytes
 123:src/sim900_800.c **** 
 124:src/sim900_800.c **** #ifdef USE_GSM_GATEWAY
 125:src/sim900_800.c **** extern volatile unsigned char usart2_mini_timeout;
 126:src/sim900_800.c **** extern volatile unsigned char usart2_pckt_ready;
 127:src/sim900_800.c **** extern volatile unsigned char usart2_have_data;
 128:src/sim900_800.c **** extern unsigned char usart2_pckt_bytes;
 129:src/sim900_800.c **** #endif
 130:src/sim900_800.c **** //TODO: reimplementar esto
 131:src/sim900_800.c **** //void UARTGSM_Config(void)
 132:src/sim900_800.c **** //{
 133:src/sim900_800.c **** //
 134:src/sim900_800.c **** //	unsigned long temp;
 135:src/sim900_800.c **** //	NVIC_InitTypeDef NVIC_InitStructure;
 136:src/sim900_800.c **** //
 137:src/sim900_800.c **** //	//---- Clk USART2 ----//
 138:src/sim900_800.c **** //	if (!(RCC->APB1ENR & 0x00020000))
 139:src/sim900_800.c **** //		RCC->APB1ENR |= 0x00020000;
 140:src/sim900_800.c **** //
 141:src/sim900_800.c **** //	if (!(RCC->APB2ENR & 0x00000004))
 142:src/sim900_800.c **** //		RCC->APB2ENR |= 0x00000004;
 143:src/sim900_800.c **** //
 144:src/sim900_800.c **** //	//----GPIOA----//
 145:src/sim900_800.c **** //	//----TX:PA2 RX:PA3----//
 146:src/sim900_800.c **** //	temp = GPIOA->CRL;
 147:src/sim900_800.c **** //	temp &= 0xFFFF00FF;
 148:src/sim900_800.c **** //	temp |= 0x00004B00;
 149:src/sim900_800.c **** //	GPIOA->CRL = temp;
 150:src/sim900_800.c **** //
 151:src/sim900_800.c **** //	//---- NVIC ----//
 152:src/sim900_800.c **** //	NVIC_InitStructure.NVIC_IRQChannel = USART2_IRQn;
 153:src/sim900_800.c **** //	NVIC_InitStructure.NVIC_IRQChannelPreemptionPriority = 2;
 154:src/sim900_800.c **** //	NVIC_InitStructure.NVIC_IRQChannelSubPriority = 0;
 155:src/sim900_800.c **** //	NVIC_InitStructure.NVIC_IRQChannelCmd = ENABLE;
 156:src/sim900_800.c **** //	NVIC_Init(&NVIC_InitStructure);
 157:src/sim900_800.c **** //
 158:src/sim900_800.c **** //	//NVIC_SetPriority(USART2_IRQn, 0);
 159:src/sim900_800.c **** //
 160:src/sim900_800.c **** //	//buffer GSM.
 161:src/sim900_800.c **** //	//RX.
 162:src/sim900_800.c **** //	pBuffUARTGSMrxW = &buffUARTGSMrx[0];
 163:src/sim900_800.c **** //	pBuffUARTGSMrxR = &buffUARTGSMrx[0];
 164:src/sim900_800.c **** //	counterUARTGSM = 0;
 165:src/sim900_800.c **** //	PacketReadyUARTGSM = 0;
ARM GAS  /tmp/cc4fp2Bh.s 			page 10


 166:src/sim900_800.c **** //
 167:src/sim900_800.c **** //	//TX.
 168:src/sim900_800.c **** //	pBuffUARTGSMtxR = &buffUARTGSMtx[0];
 169:src/sim900_800.c **** //	pBuffUARTGSMtxW = &buffUARTGSMtx[0];
 170:src/sim900_800.c **** //
 171:src/sim900_800.c **** //	while (pBuffUARTGSMrxW != &buffUARTGSMrx[buffUARTGSMrx_dimension - 2])
 172:src/sim900_800.c **** //	{
 173:src/sim900_800.c **** //		*pBuffUARTGSMrxW = 0;
 174:src/sim900_800.c **** //		pBuffUARTGSMrxW++;
 175:src/sim900_800.c **** //	}
 176:src/sim900_800.c **** //
 177:src/sim900_800.c **** //	pBuffUARTGSMrxW = &buffUARTGSMrx[0];
 178:src/sim900_800.c **** //
 179:src/sim900_800.c **** //	while (pBuffUARTGSMtxW != &buffUARTGSMtx[buffUARTGSMrx_dimension - 2])
 180:src/sim900_800.c **** //	{
 181:src/sim900_800.c **** //		*pBuffUARTGSMtxW = 0;
 182:src/sim900_800.c **** //		pBuffUARTGSMtxW++;
 183:src/sim900_800.c **** //	}
 184:src/sim900_800.c **** //
 185:src/sim900_800.c **** //	pBuffUARTGSMtxW = &buffUARTGSMtx[0];
 186:src/sim900_800.c **** //
 187:src/sim900_800.c **** //	USART2->BRR |= 0x0EA6;
 188:src/sim900_800.c **** //	USART2->CR1 |= 0x202C;
 189:src/sim900_800.c **** //
 190:src/sim900_800.c **** //}
 191:src/sim900_800.c **** //
 192:src/sim900_800.c **** //
 193:src/sim900_800.c **** //void UARTGSMSend(char * ptrSend)
 194:src/sim900_800.c **** //{
 195:src/sim900_800.c **** //
 196:src/sim900_800.c **** //	char datos = strlen ((const char *) &ptrSend[0]);
 197:src/sim900_800.c **** //
 198:src/sim900_800.c **** //	if (datos < (buffUARTGSMrx_dimension - 2))
 199:src/sim900_800.c **** //	{
 200:src/sim900_800.c **** //		if ((pBuffUARTGSMtxW + datos) < &buffUARTGSMtx[buffUARTGSMrx_dimension - 2])
 201:src/sim900_800.c **** //		{
 202:src/sim900_800.c **** //			strncpy((char *)pBuffUARTGSMtxW, (const char *)&ptrSend[0], datos);
 203:src/sim900_800.c **** //			pBuffUARTGSMtxW += datos;
 204:src/sim900_800.c **** //			*pBuffUARTGSMtxW = 0;
 205:src/sim900_800.c **** //		}
 206:src/sim900_800.c **** //		else
 207:src/sim900_800.c **** //			pBuffUARTGSMtxW  = buffUARTGSMtx;
 208:src/sim900_800.c **** //
 209:src/sim900_800.c **** //		USART_ITConfig(USART2, USART_IT_TXE, ENABLE);
 210:src/sim900_800.c **** //	}
 211:src/sim900_800.c **** //}
 212:src/sim900_800.c **** 
 213:src/sim900_800.c **** //Procesa respuestas del modulo GSM esperando el final de linea por timeout
 214:src/sim900_800.c **** //carga el buffer buffUARTGSMrx2 y avisa con el flag PacketReadyUARTGSM
 215:src/sim900_800.c **** void GSMProcess (void)
 216:src/sim900_800.c **** {
 325              		.loc 1 216 0
 326              		.cfi_startproc
 327 0000 10B5     		push	{r4, lr}	@
 328              	.LCFI0:
 329              		.cfi_def_cfa_offset 8
 330              		.cfi_offset 4, -8
ARM GAS  /tmp/cc4fp2Bh.s 			page 11


 331              		.cfi_offset 14, -4
 217:src/sim900_800.c **** 	if ((gsm_have_data) && (!gsm_mini_timeout))
 332              		.loc 1 217 0
 333 0002 104B     		ldr	r3, .L4	@ tmp113,
 334 0004 1B78     		ldrb	r3, [r3]	@ tmp114, usart1_have_data
 335 0006 DBB2     		uxtb	r3, r3	@ D.7815, tmp114
 336 0008 002B     		cmp	r3, #0	@ D.7815,
 337 000a 18D0     		beq	.L3	@,
 338              		.loc 1 217 0 is_stmt 0 discriminator 1
 339 000c 0E4B     		ldr	r3, .L4+4	@ tmp115,
 340 000e 1B78     		ldrb	r3, [r3]	@ tmp116, usart1_mini_timeout
 341 0010 DBB2     		uxtb	r3, r3	@ D.7815, tmp116
 342 0012 002B     		cmp	r3, #0	@ D.7815,
 343 0014 13D1     		bne	.L3	@,
 218:src/sim900_800.c **** 	{
 219:src/sim900_800.c **** 		gsm_have_data = 0;
 344              		.loc 1 219 0 is_stmt 1
 345 0016 0B4B     		ldr	r3, .L4	@ tmp117,
 346 0018 0022     		movs	r2, #0	@ tmp118,
 347 001a 1A70     		strb	r2, [r3]	@ tmp119, usart1_have_data
 220:src/sim900_800.c **** 		gsm_pckt_ready = 1;
 348              		.loc 1 220 0
 349 001c 0B4B     		ldr	r3, .L4+8	@ tmp120,
 350 001e 0122     		movs	r2, #1	@ tmp121,
 351 0020 1A70     		strb	r2, [r3]	@ tmp122, usart1_pckt_ready
 221:src/sim900_800.c **** 		gsm_pckt_bytes = ReadUsart1Buffer((unsigned char *) buffUARTGSMrx2, sizeof(buffUARTGSMrx2));
 352              		.loc 1 221 0
 353 0022 8023     		movs	r3, #128	@ tmp132,
 354 0024 5A00     		lsls	r2, r3, #1	@ tmp123, tmp132,
 355 0026 0A4B     		ldr	r3, .L4+12	@ tmp124,
 356 0028 1100     		movs	r1, r2	@, tmp123
 357 002a 1800     		movs	r0, r3	@, tmp124
 358 002c FFF7FEFF 		bl	ReadUsart1Buffer	@
 359 0030 0300     		movs	r3, r0	@ tmp125,
 360 0032 1A00     		movs	r2, r3	@ D.7815, tmp126
 361 0034 074B     		ldr	r3, .L4+16	@ tmp127,
 362 0036 1A70     		strb	r2, [r3]	@ tmp128, usart1_pckt_bytes
 222:src/sim900_800.c **** 		PacketReadyUARTGSM = 1;
 363              		.loc 1 222 0
 364 0038 074B     		ldr	r3, .L4+20	@ tmp129,
 365 003a 0122     		movs	r2, #1	@ tmp130,
 366 003c 1A70     		strb	r2, [r3]	@ tmp131, PacketReadyUARTGSM
 367              	.L3:
 223:src/sim900_800.c **** //		GSMReceive (unsigned char * pAlertasReportar, char * puserCode, unsigned char * pclaveAct, unsi
 224:src/sim900_800.c **** 	}
 225:src/sim900_800.c **** 
 226:src/sim900_800.c **** #ifdef USE_GSM_GATEWAY
 227:src/sim900_800.c **** 	if ((usart2_have_data) && (!usart2_mini_timeout))
 228:src/sim900_800.c **** 	{
 229:src/sim900_800.c **** 		usart2_have_data = 0;
 230:src/sim900_800.c **** 		usart2_pckt_ready = 1;
 231:src/sim900_800.c **** 		usart2_pckt_bytes = ReadUsart2Buffer((unsigned char *) buffUARTGSMrx2, sizeof(buffUARTGSMrx2));
 232:src/sim900_800.c **** 	}
 233:src/sim900_800.c **** #endif
 234:src/sim900_800.c **** }
 368              		.loc 1 234 0
 369 003e C046     		nop
ARM GAS  /tmp/cc4fp2Bh.s 			page 12


 370              		@ sp needed	@
 371 0040 10BD     		pop	{r4, pc}
 372              	.L5:
 373 0042 C046     		.align	2
 374              	.L4:
 375 0044 00000000 		.word	usart1_have_data
 376 0048 00000000 		.word	usart1_mini_timeout
 377 004c 00000000 		.word	usart1_pckt_ready
 378 0050 00000000 		.word	buffUARTGSMrx2
 379 0054 00000000 		.word	usart1_pckt_bytes
 380 0058 00000000 		.word	PacketReadyUARTGSM
 381              		.cfi_endproc
 382              	.LFE20:
 383              		.size	GSMProcess, .-GSMProcess
 384              		.section	.text.GSM_Start,"ax",%progbits
 385              		.align	2
 386              		.global	GSM_Start
 387              		.code	16
 388              		.thumb_func
 389              		.type	GSM_Start, %function
 390              	GSM_Start:
 391              	.LFB21:
 235:src/sim900_800.c **** 
 236:src/sim900_800.c **** 
 237:src/sim900_800.c **** //------------------------------------//
 238:src/sim900_800.c **** //
 239:src/sim900_800.c **** //Wait: 1
 240:src/sim900_800.c **** //OK: 	2
 241:src/sim900_800.c **** //ERR:	3
 242:src/sim900_800.c **** //TO:	4
 243:src/sim900_800.c **** //------------------------------------//
 244:src/sim900_800.c **** /*
 245:src/sim900_800.c **** unsigned char GSM_Start(void)
 246:src/sim900_800.c **** {
 247:src/sim900_800.c **** 
 248:src/sim900_800.c **** 	if (!GSM_STATUS || (GSMStartState > 1))
 249:src/sim900_800.c **** 	{
 250:src/sim900_800.c **** 		switch(GSMStartState)
 251:src/sim900_800.c **** 		{
 252:src/sim900_800.c **** 			case 0:
 253:src/sim900_800.c **** 				GSMStartTime = 40;
 254:src/sim900_800.c **** 				GSM_PWRKEY_ON;
 255:src/sim900_800.c **** 				LED_NETLIGHT_ON;
 256:src/sim900_800.c **** 				GSMStartState++;
 257:src/sim900_800.c **** 				break;
 258:src/sim900_800.c **** 			case 1:
 259:src/sim900_800.c **** 				if(GSMStartTime == 0) //Espera 4 segugundos.
 260:src/sim900_800.c **** 				{
 261:src/sim900_800.c **** 					LED_NETLIGHT_OFF;
 262:src/sim900_800.c **** 					GSM_PWRKEY_OFF;
 263:src/sim900_800.c **** 					GSMStartTime = 100; //10 segundos.
 264:src/sim900_800.c **** 					GSMStartState++;
 265:src/sim900_800.c **** 				}
 266:src/sim900_800.c **** 				break;
 267:src/sim900_800.c **** 			case 2:
 268:src/sim900_800.c **** 				if(GSM_STATUS)
 269:src/sim900_800.c **** 				{
ARM GAS  /tmp/cc4fp2Bh.s 			page 13


 270:src/sim900_800.c **** 					//Encendio.
 271:src/sim900_800.c **** 					LED_NETLIGHT_ON;
 272:src/sim900_800.c **** 					GSMStartState++;
 273:src/sim900_800.c **** 					GSMStartTime = 30;
 274:src/sim900_800.c **** 				}
 275:src/sim900_800.c **** 				if(GSMStartTime == 0)
 276:src/sim900_800.c **** 				{
 277:src/sim900_800.c **** 					//Se agoto el tiempo de espera.
 278:src/sim900_800.c **** 					GSMStartState = 0;
 279:src/sim900_800.c **** 					return 4;
 280:src/sim900_800.c **** 				}
 281:src/sim900_800.c **** 				break;
 282:src/sim900_800.c **** 			case 3:
 283:src/sim900_800.c **** 				if(GSMStartTime == 0)
 284:src/sim900_800.c **** 				{
 285:src/sim900_800.c **** 					//1 segundo mas.
 286:src/sim900_800.c **** 					LED_NETLIGHT_OFF;
 287:src/sim900_800.c **** 					GSM_PWRKEY_ON;
 288:src/sim900_800.c **** 					GSMStartState = 0;
 289:src/sim900_800.c **** 					return 2;
 290:src/sim900_800.c **** 				}
 291:src/sim900_800.c **** 				break;
 292:src/sim900_800.c **** 		}
 293:src/sim900_800.c **** 	}
 294:src/sim900_800.c **** 	if (GSM_STATUS || (GSMStartState == 0))
 295:src/sim900_800.c **** 	{
 296:src/sim900_800.c **** 		return 2;
 297:src/sim900_800.c **** 	}
 298:src/sim900_800.c **** 	return 1;
 299:src/sim900_800.c **** }
 300:src/sim900_800.c **** */
 301:src/sim900_800.c **** 
 302:src/sim900_800.c **** //GSM_Start() contesta:
 303:src/sim900_800.c **** //0 trabajando
 304:src/sim900_800.c **** //1 terminado OK
 305:src/sim900_800.c **** //2 ERROR
 306:src/sim900_800.c **** //3 Timeout
 307:src/sim900_800.c **** unsigned char GSM_Start (void)
 308:src/sim900_800.c **** {
 392              		.loc 1 308 0
 393              		.cfi_startproc
 309:src/sim900_800.c **** 	switch(GSMStartState)
 394              		.loc 1 309 0
 395 0000 3C4B     		ldr	r3, .L23	@ tmp137,
 396 0002 1B78     		ldrb	r3, [r3]	@ D.7816, GSMStartState
 397 0004 012B     		cmp	r3, #1	@ D.7817,
 398 0006 1BD0     		beq	.L8	@,
 399 0008 02DC     		bgt	.L9	@,
 400 000a 002B     		cmp	r3, #0	@ D.7817,
 401 000c 05D0     		beq	.L10	@,
 402 000e 65E0     		b	.L7	@
 403              	.L9:
 404 0010 022B     		cmp	r3, #2	@ D.7817,
 405 0012 2FD0     		beq	.L11	@,
 406 0014 032B     		cmp	r3, #3	@ D.7817,
 407 0016 50D0     		beq	.L12	@,
 408 0018 60E0     		b	.L7	@
ARM GAS  /tmp/cc4fp2Bh.s 			page 14


 409              	.L10:
 310:src/sim900_800.c **** 	{
 311:src/sim900_800.c **** 		case 0:
 312:src/sim900_800.c **** 			//Levanto PWRKEY
 313:src/sim900_800.c **** 			LED_NETLIGHT_ON;
 410              		.loc 1 313 0
 411 001a 9023     		movs	r3, #144	@ tmp192,
 412 001c DB05     		lsls	r3, r3, #23	@ D.7818, tmp192,
 413 001e 8022     		movs	r2, #128	@ tmp193,
 414 0020 5201     		lsls	r2, r2, #5	@ tmp138, tmp193,
 415 0022 9A61     		str	r2, [r3, #24]	@ tmp138, _31->BSRR
 314:src/sim900_800.c **** 			GSMStartTime = 100;
 416              		.loc 1 314 0
 417 0024 344B     		ldr	r3, .L23+4	@ tmp139,
 418 0026 6422     		movs	r2, #100	@ tmp140,
 419 0028 1A80     		strh	r2, [r3]	@ tmp141, GSMStartTime
 315:src/sim900_800.c **** 			GSM_PWRKEY_ON;
 420              		.loc 1 315 0
 421 002a 9023     		movs	r3, #144	@ tmp194,
 422 002c DB05     		lsls	r3, r3, #23	@ D.7818, tmp194,
 423 002e 8022     		movs	r2, #128	@ tmp142,
 424 0030 9A61     		str	r2, [r3, #24]	@ tmp142, _34->BSRR
 316:src/sim900_800.c **** 			GSMStartState++;
 425              		.loc 1 316 0
 426 0032 304B     		ldr	r3, .L23	@ tmp143,
 427 0034 1B78     		ldrb	r3, [r3]	@ D.7816, GSMStartState
 428 0036 0133     		adds	r3, r3, #1	@ tmp144,
 429 0038 DAB2     		uxtb	r2, r3	@ D.7816, tmp144
 430 003a 2E4B     		ldr	r3, .L23	@ tmp145,
 431 003c 1A70     		strb	r2, [r3]	@ tmp146, GSMStartState
 317:src/sim900_800.c **** 			break;
 432              		.loc 1 317 0
 433 003e 56E0     		b	.L13	@
 434              	.L8:
 318:src/sim900_800.c **** 
 319:src/sim900_800.c **** 		case 1:
 320:src/sim900_800.c **** 			//Bajo PWRKEY
 321:src/sim900_800.c **** 			if(GSMStartTime == 0) //Espera 100 mseg
 435              		.loc 1 321 0
 436 0040 2D4B     		ldr	r3, .L23+4	@ tmp147,
 437 0042 1B88     		ldrh	r3, [r3]	@ tmp148, GSMStartTime
 438 0044 9BB2     		uxth	r3, r3	@ D.7819, tmp148
 439 0046 002B     		cmp	r3, #0	@ D.7819,
 440 0048 4CD1     		bne	.L20	@,
 322:src/sim900_800.c **** 			{
 323:src/sim900_800.c **** 				LED_NETLIGHT_OFF;
 441              		.loc 1 323 0
 442 004a 9023     		movs	r3, #144	@ tmp187,
 443 004c DB05     		lsls	r3, r3, #23	@ D.7818, tmp187,
 444 004e 8022     		movs	r2, #128	@ tmp188,
 445 0050 5205     		lsls	r2, r2, #21	@ tmp149, tmp188,
 446 0052 9A61     		str	r2, [r3, #24]	@ tmp149, _41->BSRR
 324:src/sim900_800.c **** 				GSM_PWRKEY_OFF;
 447              		.loc 1 324 0
 448 0054 9023     		movs	r3, #144	@ tmp189,
 449 0056 DB05     		lsls	r3, r3, #23	@ D.7818, tmp189,
 450 0058 8022     		movs	r2, #128	@ tmp190,
ARM GAS  /tmp/cc4fp2Bh.s 			page 15


 451 005a 1204     		lsls	r2, r2, #16	@ tmp150, tmp190,
 452 005c 9A61     		str	r2, [r3, #24]	@ tmp150, _43->BSRR
 325:src/sim900_800.c **** 				GSMStartTime = 4000; //hasta 4 segundos.
 453              		.loc 1 325 0
 454 005e 264B     		ldr	r3, .L23+4	@ tmp151,
 455 0060 FA22     		movs	r2, #250	@ tmp191,
 456 0062 1201     		lsls	r2, r2, #4	@ tmp152, tmp191,
 457 0064 1A80     		strh	r2, [r3]	@ tmp153, GSMStartTime
 326:src/sim900_800.c **** 				GSMStartState++;
 458              		.loc 1 326 0
 459 0066 234B     		ldr	r3, .L23	@ tmp154,
 460 0068 1B78     		ldrb	r3, [r3]	@ D.7816, GSMStartState
 461 006a 0133     		adds	r3, r3, #1	@ tmp155,
 462 006c DAB2     		uxtb	r2, r3	@ D.7816, tmp155
 463 006e 214B     		ldr	r3, .L23	@ tmp156,
 464 0070 1A70     		strb	r2, [r3]	@ tmp157, GSMStartState
 327:src/sim900_800.c **** 			}
 328:src/sim900_800.c **** 			break;
 465              		.loc 1 328 0
 466 0072 37E0     		b	.L20	@
 467              	.L11:
 329:src/sim900_800.c **** 
 330:src/sim900_800.c **** 		case 2:
 331:src/sim900_800.c **** 			//Levanto PWRKEY
 332:src/sim900_800.c **** 			if (GSM_STATUS)
 468              		.loc 1 332 0
 469 0074 9023     		movs	r3, #144	@ tmp186,
 470 0076 DB05     		lsls	r3, r3, #23	@ D.7818, tmp186,
 471 0078 1B8A     		ldrh	r3, [r3, #16]	@ tmp159,
 472 007a 9BB2     		uxth	r3, r3	@ D.7819, tmp159
 473 007c 1A00     		movs	r2, r3	@ D.7817, D.7819
 474 007e 2023     		movs	r3, #32	@ tmp160,
 475 0080 1340     		ands	r3, r2	@ D.7817, D.7817
 476 0082 13D0     		beq	.L15	@,
 333:src/sim900_800.c **** 			{
 334:src/sim900_800.c **** 				GSMStartTime = 1000;
 477              		.loc 1 334 0
 478 0084 1C4B     		ldr	r3, .L23+4	@ tmp161,
 479 0086 FA22     		movs	r2, #250	@ tmp182,
 480 0088 9200     		lsls	r2, r2, #2	@ tmp162, tmp182,
 481 008a 1A80     		strh	r2, [r3]	@ tmp163, GSMStartTime
 335:src/sim900_800.c **** 				GSMStartState++;
 482              		.loc 1 335 0
 483 008c 194B     		ldr	r3, .L23	@ tmp164,
 484 008e 1B78     		ldrb	r3, [r3]	@ D.7816, GSMStartState
 485 0090 0133     		adds	r3, r3, #1	@ tmp165,
 486 0092 DAB2     		uxtb	r2, r3	@ D.7816, tmp165
 487 0094 174B     		ldr	r3, .L23	@ tmp166,
 488 0096 1A70     		strb	r2, [r3]	@ tmp167, GSMStartState
 336:src/sim900_800.c **** 				LED_NETLIGHT_ON;
 489              		.loc 1 336 0
 490 0098 9023     		movs	r3, #144	@ tmp183,
 491 009a DB05     		lsls	r3, r3, #23	@ D.7818, tmp183,
 492 009c 8022     		movs	r2, #128	@ tmp184,
 493 009e 5201     		lsls	r2, r2, #5	@ tmp168, tmp184,
 494 00a0 9A61     		str	r2, [r3, #24]	@ tmp168, _20->BSRR
 337:src/sim900_800.c **** 				GSM_PWRKEY_ON;
ARM GAS  /tmp/cc4fp2Bh.s 			page 16


 495              		.loc 1 337 0
 496 00a2 9023     		movs	r3, #144	@ tmp185,
 497 00a4 DB05     		lsls	r3, r3, #23	@ D.7818, tmp185,
 498 00a6 8022     		movs	r2, #128	@ tmp169,
 499 00a8 9A61     		str	r2, [r3, #24]	@ tmp169, _22->BSRR
 338:src/sim900_800.c **** 			}
 339:src/sim900_800.c **** 			else if(GSMStartTime == 0) //Espera hasta 4 segs
 340:src/sim900_800.c **** 			{
 341:src/sim900_800.c **** 				return 3;		//TimeOut
 342:src/sim900_800.c **** 			}
 343:src/sim900_800.c **** 			break;
 500              		.loc 1 343 0
 501 00aa 1DE0     		b	.L21	@
 502              	.L15:
 339:src/sim900_800.c **** 			{
 503              		.loc 1 339 0
 504 00ac 124B     		ldr	r3, .L23+4	@ tmp170,
 505 00ae 1B88     		ldrh	r3, [r3]	@ tmp171, GSMStartTime
 506 00b0 9BB2     		uxth	r3, r3	@ D.7819, tmp171
 507 00b2 002B     		cmp	r3, #0	@ D.7819,
 508 00b4 18D1     		bne	.L21	@,
 341:src/sim900_800.c **** 			}
 509              		.loc 1 341 0
 510 00b6 0323     		movs	r3, #3	@ D.7816,
 511 00b8 1AE0     		b	.L17	@
 512              	.L12:
 344:src/sim900_800.c **** 
 345:src/sim900_800.c **** 		case 3:
 346:src/sim900_800.c **** 			if(GSMStartTime == 0)	//Espero 1 segundo mas y reviso GSM_STATUS
 513              		.loc 1 346 0
 514 00ba 0F4B     		ldr	r3, .L23+4	@ tmp172,
 515 00bc 1B88     		ldrh	r3, [r3]	@ tmp173, GSMStartTime
 516 00be 9BB2     		uxth	r3, r3	@ D.7819, tmp173
 517 00c0 002B     		cmp	r3, #0	@ D.7819,
 518 00c2 13D1     		bne	.L22	@,
 347:src/sim900_800.c **** 			{
 348:src/sim900_800.c **** 				if (GSM_STATUS)
 519              		.loc 1 348 0
 520 00c4 9023     		movs	r3, #144	@ tmp181,
 521 00c6 DB05     		lsls	r3, r3, #23	@ D.7818, tmp181,
 522 00c8 1B8A     		ldrh	r3, [r3, #16]	@ tmp175,
 523 00ca 9BB2     		uxth	r3, r3	@ D.7819, tmp175
 524 00cc 1A00     		movs	r2, r3	@ D.7817, D.7819
 525 00ce 2023     		movs	r3, #32	@ tmp176,
 526 00d0 1340     		ands	r3, r2	@ D.7817, D.7817
 527 00d2 01D0     		beq	.L19	@,
 349:src/sim900_800.c **** 					return 1;		//OK
 528              		.loc 1 349 0
 529 00d4 0123     		movs	r3, #1	@ D.7816,
 530 00d6 0BE0     		b	.L17	@
 531              	.L19:
 350:src/sim900_800.c **** 				else
 351:src/sim900_800.c **** 					return 2;		//Error
 532              		.loc 1 351 0
 533 00d8 0223     		movs	r3, #2	@ D.7816,
 534 00da 09E0     		b	.L17	@
 535              	.L7:
ARM GAS  /tmp/cc4fp2Bh.s 			page 17


 352:src/sim900_800.c **** 			}
 353:src/sim900_800.c **** 			break;
 354:src/sim900_800.c **** 
 355:src/sim900_800.c **** 		default:
 356:src/sim900_800.c **** 			GSMStartState = 0;
 536              		.loc 1 356 0
 537 00dc 054B     		ldr	r3, .L23	@ tmp177,
 538 00de 0022     		movs	r2, #0	@ tmp178,
 539 00e0 1A70     		strb	r2, [r3]	@ tmp179, GSMStartState
 357:src/sim900_800.c **** 			break;
 540              		.loc 1 357 0
 541 00e2 04E0     		b	.L13	@
 542              	.L20:
 328:src/sim900_800.c **** 
 543              		.loc 1 328 0
 544 00e4 C046     		nop
 545 00e6 02E0     		b	.L13	@
 546              	.L21:
 343:src/sim900_800.c **** 
 547              		.loc 1 343 0
 548 00e8 C046     		nop
 549 00ea 00E0     		b	.L13	@
 550              	.L22:
 353:src/sim900_800.c **** 
 551              		.loc 1 353 0
 552 00ec C046     		nop
 553              	.L13:
 358:src/sim900_800.c **** 	}
 359:src/sim900_800.c **** 	return 0;						//trabajando
 554              		.loc 1 359 0
 555 00ee 0023     		movs	r3, #0	@ D.7816,
 556              	.L17:
 360:src/sim900_800.c **** }
 557              		.loc 1 360 0
 558 00f0 1800     		movs	r0, r3	@, <retval>
 559              		@ sp needed	@
 560 00f2 7047     		bx	lr
 561              	.L24:
 562              		.align	2
 563              	.L23:
 564 00f4 00000000 		.word	GSMStartState
 565 00f8 00000000 		.word	GSMStartTime
 566              		.cfi_endproc
 567              	.LFE21:
 568              		.size	GSM_Start, .-GSM_Start
 569              		.section	.text.GSM_Start_Stop_ResetSM,"ax",%progbits
 570              		.align	2
 571              		.global	GSM_Start_Stop_ResetSM
 572              		.code	16
 573              		.thumb_func
 574              		.type	GSM_Start_Stop_ResetSM, %function
 575              	GSM_Start_Stop_ResetSM:
 576              	.LFB22:
 361:src/sim900_800.c **** 
 362:src/sim900_800.c **** void GSM_Start_Stop_ResetSM (void)
 363:src/sim900_800.c **** {
 577              		.loc 1 363 0
ARM GAS  /tmp/cc4fp2Bh.s 			page 18


 578              		.cfi_startproc
 364:src/sim900_800.c **** 	GSMStartState = 0;
 579              		.loc 1 364 0
 580 0000 024B     		ldr	r3, .L26	@ tmp110,
 581 0002 0022     		movs	r2, #0	@ tmp111,
 582 0004 1A70     		strb	r2, [r3]	@ tmp112, GSMStartState
 365:src/sim900_800.c **** }
 583              		.loc 1 365 0
 584 0006 C046     		nop
 585              		@ sp needed	@
 586 0008 7047     		bx	lr
 587              	.L27:
 588 000a C046     		.align	2
 589              	.L26:
 590 000c 00000000 		.word	GSMStartState
 591              		.cfi_endproc
 592              	.LFE22:
 593              		.size	GSM_Start_Stop_ResetSM, .-GSM_Start_Stop_ResetSM
 594              		.section	.text.GSM_Stop,"ax",%progbits
 595              		.align	2
 596              		.global	GSM_Stop
 597              		.code	16
 598              		.thumb_func
 599              		.type	GSM_Stop, %function
 600              	GSM_Stop:
 601              	.LFB23:
 366:src/sim900_800.c **** 
 367:src/sim900_800.c **** //GSM_Stop() contesta:
 368:src/sim900_800.c **** //0 trabajando
 369:src/sim900_800.c **** //1 terminado OK
 370:src/sim900_800.c **** //2 ERROR
 371:src/sim900_800.c **** //3 Timeout
 372:src/sim900_800.c **** unsigned char GSM_Stop(void)
 373:src/sim900_800.c **** {
 602              		.loc 1 373 0
 603              		.cfi_startproc
 604 0000 82B0     		sub	sp, sp, #8	@,,
 605              	.LCFI1:
 606              		.cfi_def_cfa_offset 8
 374:src/sim900_800.c **** 	unsigned char resp = 0;
 607              		.loc 1 374 0
 608 0002 6B46     		mov	r3, sp	@ tmp173,
 609 0004 0733     		adds	r3, r3, #7	@ tmp127,
 610 0006 0022     		movs	r2, #0	@ tmp128,
 611 0008 1A70     		strb	r2, [r3]	@ tmp129, resp
 375:src/sim900_800.c **** 
 376:src/sim900_800.c **** 	switch(GSMStartState)
 612              		.loc 1 376 0
 613 000a 294B     		ldr	r3, .L39	@ tmp130,
 614 000c 1B78     		ldrb	r3, [r3]	@ D.7821, GSMStartState
 615 000e 012B     		cmp	r3, #1	@ D.7822,
 616 0010 16D0     		beq	.L30	@,
 617 0012 022B     		cmp	r3, #2	@ D.7822,
 618 0014 2CD0     		beq	.L31	@,
 619 0016 002B     		cmp	r3, #0	@ D.7822,
 620 0018 3BD1     		bne	.L29	@,
 377:src/sim900_800.c **** 	{
ARM GAS  /tmp/cc4fp2Bh.s 			page 19


 378:src/sim900_800.c **** 		case 0:
 379:src/sim900_800.c **** 			//Levanto PWRKEY
 380:src/sim900_800.c **** 			GSM_PWRKEY_OFF;
 621              		.loc 1 380 0
 622 001a 9023     		movs	r3, #144	@ tmp170,
 623 001c DB05     		lsls	r3, r3, #23	@ D.7823, tmp170,
 624 001e 8022     		movs	r2, #128	@ tmp171,
 625 0020 1204     		lsls	r2, r2, #16	@ tmp131, tmp171,
 626 0022 9A61     		str	r2, [r3, #24]	@ tmp131, _11->BSRR
 381:src/sim900_800.c **** 			GSMStartTime = 250;	//espero 250ms
 627              		.loc 1 381 0
 628 0024 234B     		ldr	r3, .L39+4	@ tmp132,
 629 0026 FA22     		movs	r2, #250	@ tmp133,
 630 0028 1A80     		strh	r2, [r3]	@ tmp134, GSMStartTime
 382:src/sim900_800.c **** 			GSMGeneralTimeOut = 4000;	//timeout de 4 segs
 631              		.loc 1 382 0
 632 002a 234B     		ldr	r3, .L39+8	@ tmp135,
 633 002c FA22     		movs	r2, #250	@ tmp172,
 634 002e 1201     		lsls	r2, r2, #4	@ tmp136, tmp172,
 635 0030 1A80     		strh	r2, [r3]	@ tmp137, GSMGeneralTimeOut
 383:src/sim900_800.c **** 			GSMStartState++;
 636              		.loc 1 383 0
 637 0032 1F4B     		ldr	r3, .L39	@ tmp138,
 638 0034 1B78     		ldrb	r3, [r3]	@ D.7821, GSMStartState
 639 0036 0133     		adds	r3, r3, #1	@ tmp139,
 640 0038 DAB2     		uxtb	r2, r3	@ D.7821, tmp139
 641 003a 1D4B     		ldr	r3, .L39	@ tmp140,
 642 003c 1A70     		strb	r2, [r3]	@ tmp141, GSMStartState
 384:src/sim900_800.c **** 			break;
 643              		.loc 1 384 0
 644 003e 28E0     		b	.L29	@
 645              	.L30:
 385:src/sim900_800.c **** 
 386:src/sim900_800.c **** 		case 1:
 387:src/sim900_800.c **** 			if ((!GSMStartTime) && (!GSM_STATUS))
 646              		.loc 1 387 0
 647 0040 1C4B     		ldr	r3, .L39+4	@ tmp142,
 648 0042 1B88     		ldrh	r3, [r3]	@ tmp143, GSMStartTime
 649 0044 9BB2     		uxth	r3, r3	@ D.7824, tmp143
 650 0046 002B     		cmp	r3, #0	@ D.7824,
 651 0048 20D1     		bne	.L37	@,
 652              		.loc 1 387 0 is_stmt 0 discriminator 1
 653 004a 9023     		movs	r3, #144	@ tmp169,
 654 004c DB05     		lsls	r3, r3, #23	@ D.7823, tmp169,
 655 004e 1B8A     		ldrh	r3, [r3, #16]	@ tmp145,
 656 0050 9BB2     		uxth	r3, r3	@ D.7824, tmp145
 657 0052 1A00     		movs	r2, r3	@ D.7822, D.7824
 658 0054 2023     		movs	r3, #32	@ tmp146,
 659 0056 1340     		ands	r3, r2	@ D.7822, D.7822
 660 0058 18D1     		bne	.L37	@,
 388:src/sim900_800.c **** 			{
 389:src/sim900_800.c **** 				GSMStartTime = 1000;	//espero 1seg
 661              		.loc 1 389 0 is_stmt 1
 662 005a 164B     		ldr	r3, .L39+4	@ tmp147,
 663 005c FA22     		movs	r2, #250	@ tmp168,
 664 005e 9200     		lsls	r2, r2, #2	@ tmp148, tmp168,
 665 0060 1A80     		strh	r2, [r3]	@ tmp149, GSMStartTime
ARM GAS  /tmp/cc4fp2Bh.s 			page 20


 390:src/sim900_800.c **** 				GSMStartState++;
 666              		.loc 1 390 0
 667 0062 134B     		ldr	r3, .L39	@ tmp150,
 668 0064 1B78     		ldrb	r3, [r3]	@ D.7821, GSMStartState
 669 0066 0133     		adds	r3, r3, #1	@ tmp151,
 670 0068 DAB2     		uxtb	r2, r3	@ D.7821, tmp151
 671 006a 114B     		ldr	r3, .L39	@ tmp152,
 672 006c 1A70     		strb	r2, [r3]	@ tmp153, GSMStartState
 391:src/sim900_800.c **** 			}
 392:src/sim900_800.c **** 			break;
 673              		.loc 1 392 0
 674 006e 0DE0     		b	.L37	@
 675              	.L31:
 393:src/sim900_800.c **** 
 394:src/sim900_800.c **** 		case 2:
 395:src/sim900_800.c **** 			if (!GSMStartTime)
 676              		.loc 1 395 0
 677 0070 104B     		ldr	r3, .L39+4	@ tmp154,
 678 0072 1B88     		ldrh	r3, [r3]	@ tmp155, GSMStartTime
 679 0074 9BB2     		uxth	r3, r3	@ D.7824, tmp155
 680 0076 002B     		cmp	r3, #0	@ D.7824,
 681 0078 0AD1     		bne	.L38	@,
 396:src/sim900_800.c **** 			{
 397:src/sim900_800.c **** 				GSM_PWRKEY_ON;
 682              		.loc 1 397 0
 683 007a 9023     		movs	r3, #144	@ tmp167,
 684 007c DB05     		lsls	r3, r3, #23	@ D.7823, tmp167,
 685 007e 8022     		movs	r2, #128	@ tmp156,
 686 0080 9A61     		str	r2, [r3, #24]	@ tmp156, _30->BSRR
 398:src/sim900_800.c **** 				resp = 1;
 687              		.loc 1 398 0
 688 0082 6B46     		mov	r3, sp	@ tmp174,
 689 0084 0733     		adds	r3, r3, #7	@ tmp157,
 690 0086 0122     		movs	r2, #1	@ tmp158,
 691 0088 1A70     		strb	r2, [r3]	@ tmp159, resp
 399:src/sim900_800.c **** 			}
 400:src/sim900_800.c **** 			break;
 692              		.loc 1 400 0
 693 008a 01E0     		b	.L38	@
 694              	.L37:
 392:src/sim900_800.c **** 
 695              		.loc 1 392 0
 696 008c C046     		nop
 697 008e 00E0     		b	.L29	@
 698              	.L38:
 699              		.loc 1 400 0
 700 0090 C046     		nop
 701              	.L29:
 401:src/sim900_800.c **** 	}
 402:src/sim900_800.c **** 
 403:src/sim900_800.c **** 	if (!GSMGeneralTimeOut)
 702              		.loc 1 403 0
 703 0092 094B     		ldr	r3, .L39+8	@ tmp160,
 704 0094 1B88     		ldrh	r3, [r3]	@ tmp161, GSMGeneralTimeOut
 705 0096 9BB2     		uxth	r3, r3	@ D.7824, tmp161
 706 0098 002B     		cmp	r3, #0	@ D.7824,
 707 009a 03D1     		bne	.L35	@,
ARM GAS  /tmp/cc4fp2Bh.s 			page 21


 404:src/sim900_800.c **** 		resp = 3;				//timeout
 708              		.loc 1 404 0
 709 009c 6B46     		mov	r3, sp	@ tmp175,
 710 009e 0733     		adds	r3, r3, #7	@ tmp162,
 711 00a0 0322     		movs	r2, #3	@ tmp163,
 712 00a2 1A70     		strb	r2, [r3]	@ tmp164, resp
 713              	.L35:
 405:src/sim900_800.c **** 
 406:src/sim900_800.c **** 	return resp;
 714              		.loc 1 406 0
 715 00a4 6B46     		mov	r3, sp	@ tmp176,
 716 00a6 0733     		adds	r3, r3, #7	@ tmp165,
 717 00a8 1B78     		ldrb	r3, [r3]	@ D.7821, resp
 407:src/sim900_800.c **** }
 718              		.loc 1 407 0
 719 00aa 1800     		movs	r0, r3	@, <retval>
 720 00ac 02B0     		add	sp, sp, #8	@,,
 721              		@ sp needed	@
 722 00ae 7047     		bx	lr
 723              	.L40:
 724              		.align	2
 725              	.L39:
 726 00b0 00000000 		.word	GSMStartState
 727 00b4 00000000 		.word	GSMStartTime
 728 00b8 00000000 		.word	GSMGeneralTimeOut
 729              		.cfi_endproc
 730              	.LFE23:
 731              		.size	GSM_Stop, .-GSM_Stop
 732              		.section	.text.GSM_Delay,"ax",%progbits
 733              		.align	2
 734              		.global	GSM_Delay
 735              		.code	16
 736              		.thumb_func
 737              		.type	GSM_Delay, %function
 738              	GSM_Delay:
 739              	.LFB24:
 408:src/sim900_800.c **** 
 409:src/sim900_800.c **** //TODO: OJO utiliza GSMStartState
 410:src/sim900_800.c **** //in: delay en ms
 411:src/sim900_800.c **** //out: 0 working; 1 finish
 412:src/sim900_800.c **** unsigned char GSM_Delay (unsigned short tim)
 413:src/sim900_800.c **** {
 740              		.loc 1 413 0
 741              		.cfi_startproc
 742 0000 84B0     		sub	sp, sp, #16	@,,
 743              	.LCFI2:
 744              		.cfi_def_cfa_offset 16
 745 0002 0200     		movs	r2, r0	@ tmp117, tim
 746 0004 6B46     		mov	r3, sp	@ tmp144,
 747 0006 0633     		adds	r3, r3, #6	@ tmp118,
 748 0008 1A80     		strh	r2, [r3]	@ tmp119, tim
 414:src/sim900_800.c **** 	unsigned char resp = 0;
 749              		.loc 1 414 0
 750 000a 0F23     		movs	r3, #15	@ tmp120,
 751 000c 6B44     		add	r3, r3, sp	@ tmp120,
 752 000e 0022     		movs	r2, #0	@ tmp121,
 753 0010 1A70     		strb	r2, [r3]	@ tmp122, resp
ARM GAS  /tmp/cc4fp2Bh.s 			page 22


 415:src/sim900_800.c **** 
 416:src/sim900_800.c **** 	switch(GSMStartState)
 754              		.loc 1 416 0
 755 0012 154B     		ldr	r3, .L50	@ tmp123,
 756 0014 1B78     		ldrb	r3, [r3]	@ D.7825, GSMStartState
 757 0016 002B     		cmp	r3, #0	@ D.7826,
 758 0018 02D0     		beq	.L43	@,
 759 001a 012B     		cmp	r3, #1	@ D.7826,
 760 001c 0CD0     		beq	.L44	@,
 761 001e 18E0     		b	.L48	@
 762              	.L43:
 417:src/sim900_800.c **** 	{
 418:src/sim900_800.c **** 		case 0:
 419:src/sim900_800.c **** 			GSMGeneralTimeOut = tim;
 763              		.loc 1 419 0
 764 0020 124B     		ldr	r3, .L50+4	@ tmp124,
 765 0022 6A46     		mov	r2, sp	@ tmp146,
 766 0024 0632     		adds	r2, r2, #6	@ tmp125,
 767 0026 1288     		ldrh	r2, [r2]	@ tmp126, tim
 768 0028 1A80     		strh	r2, [r3]	@ tmp126, GSMGeneralTimeOut
 420:src/sim900_800.c **** 			GSMStartState++;
 769              		.loc 1 420 0
 770 002a 0F4B     		ldr	r3, .L50	@ tmp127,
 771 002c 1B78     		ldrb	r3, [r3]	@ D.7825, GSMStartState
 772 002e 0133     		adds	r3, r3, #1	@ tmp128,
 773 0030 DAB2     		uxtb	r2, r3	@ D.7825, tmp128
 774 0032 0D4B     		ldr	r3, .L50	@ tmp129,
 775 0034 1A70     		strb	r2, [r3]	@ tmp130, GSMStartState
 421:src/sim900_800.c **** 			break;
 776              		.loc 1 421 0
 777 0036 11E0     		b	.L45	@
 778              	.L44:
 422:src/sim900_800.c **** 
 423:src/sim900_800.c **** 		case 1:
 424:src/sim900_800.c **** 			if (!GSMGeneralTimeOut)
 779              		.loc 1 424 0
 780 0038 0C4B     		ldr	r3, .L50+4	@ tmp131,
 781 003a 1B88     		ldrh	r3, [r3]	@ tmp132, GSMGeneralTimeOut
 782 003c 9BB2     		uxth	r3, r3	@ D.7827, tmp132
 783 003e 002B     		cmp	r3, #0	@ D.7827,
 784 0040 0BD1     		bne	.L49	@,
 425:src/sim900_800.c **** 			{
 426:src/sim900_800.c **** 				GSMStartState = 0;
 785              		.loc 1 426 0
 786 0042 094B     		ldr	r3, .L50	@ tmp133,
 787 0044 0022     		movs	r2, #0	@ tmp134,
 788 0046 1A70     		strb	r2, [r3]	@ tmp135, GSMStartState
 427:src/sim900_800.c **** 				resp = 1;
 789              		.loc 1 427 0
 790 0048 0F23     		movs	r3, #15	@ tmp136,
 791 004a 6B44     		add	r3, r3, sp	@ tmp136,
 792 004c 0122     		movs	r2, #1	@ tmp137,
 793 004e 1A70     		strb	r2, [r3]	@ tmp138, resp
 428:src/sim900_800.c **** 			}
 429:src/sim900_800.c **** 			break;
 794              		.loc 1 429 0
 795 0050 03E0     		b	.L49	@
ARM GAS  /tmp/cc4fp2Bh.s 			page 23


 796              	.L48:
 430:src/sim900_800.c **** 
 431:src/sim900_800.c **** 		default:
 432:src/sim900_800.c **** 			GSMStartState = 0;
 797              		.loc 1 432 0
 798 0052 054B     		ldr	r3, .L50	@ tmp139,
 799 0054 0022     		movs	r2, #0	@ tmp140,
 800 0056 1A70     		strb	r2, [r3]	@ tmp141, GSMStartState
 433:src/sim900_800.c **** 			break;
 801              		.loc 1 433 0
 802 0058 00E0     		b	.L45	@
 803              	.L49:
 429:src/sim900_800.c **** 
 804              		.loc 1 429 0
 805 005a C046     		nop
 806              	.L45:
 434:src/sim900_800.c **** 	}
 435:src/sim900_800.c **** 	return resp;
 807              		.loc 1 435 0
 808 005c 0F23     		movs	r3, #15	@ tmp142,
 809 005e 6B44     		add	r3, r3, sp	@ tmp142,
 810 0060 1B78     		ldrb	r3, [r3]	@ D.7825, resp
 436:src/sim900_800.c **** }
 811              		.loc 1 436 0
 812 0062 1800     		movs	r0, r3	@, <retval>
 813 0064 04B0     		add	sp, sp, #16	@,,
 814              		@ sp needed	@
 815 0066 7047     		bx	lr
 816              	.L51:
 817              		.align	2
 818              	.L50:
 819 0068 00000000 		.word	GSMStartState
 820 006c 00000000 		.word	GSMGeneralTimeOut
 821              		.cfi_endproc
 822              	.LFE24:
 823              		.size	GSM_Delay, .-GSM_Delay
 824              		.section	.rodata
 825              		.align	2
 826              	.LC18:
 827 0000 41542B43 		.ascii	"AT+CSPN?\015\012\000"
 827      53504E3F 
 827      0D0A00
 828 000b 00       		.align	2
 829              	.LC20:
 830 000c 2B435350 		.ascii	"+CSPN\000"
 830      4E00
 831              		.section	.text.GSMPrestador,"ax",%progbits
 832              		.align	2
 833              		.global	GSMPrestador
 834              		.code	16
 835              		.thumb_func
 836              		.type	GSMPrestador, %function
 837              	GSMPrestador:
 838              	.LFB25:
 437:src/sim900_800.c **** 
 438:src/sim900_800.c **** //GSMPrestador(&PrestadorSim1, &PrestadorSim2, &CONFIGURACIONgprsAPN1[0], &CONFIGURACIONgprsUsuario
 439:src/sim900_800.c **** void GSMPrestador(unsigned char * pGSMHWstatus, unsigned char * prestadorSim1, unsigned char * pres
ARM GAS  /tmp/cc4fp2Bh.s 			page 24


 440:src/sim900_800.c **** {
 839              		.loc 1 440 0
 840              		.cfi_startproc
 841 0000 10B5     		push	{r4, lr}	@
 842              	.LCFI3:
 843              		.cfi_def_cfa_offset 8
 844              		.cfi_offset 4, -8
 845              		.cfi_offset 14, -4
 846 0002 86B0     		sub	sp, sp, #24	@,,
 847              	.LCFI4:
 848              		.cfi_def_cfa_offset 32
 849 0004 0390     		str	r0, [sp, #12]	@ pGSMHWstatus, pGSMHWstatus
 850 0006 0291     		str	r1, [sp, #8]	@ prestadorSim1, prestadorSim1
 851 0008 0192     		str	r2, [sp, #4]	@ prestadorSim2, prestadorSim2
 852 000a 0093     		str	r3, [sp]	@ pCONFIGURACIONgprsAPN1, pCONFIGURACIONgprsAPN1
 441:src/sim900_800.c **** 	unsigned char i;
 442:src/sim900_800.c **** 
 443:src/sim900_800.c **** 	if (prestadorSimTime == 0)
 853              		.loc 1 443 0
 854 000c DA4B     		ldr	r3, .L94	@ tmp151,
 855 000e 1B78     		ldrb	r3, [r3]	@ D.7828, prestadorSimTime
 856 0010 002B     		cmp	r3, #0	@ D.7828,
 857 0012 00D0     		beq	.LCB487	@
 858 0014 D5E1     		b	.L87	@long jump	@
 859              	.LCB487:
 444:src/sim900_800.c **** 	{
 445:src/sim900_800.c **** 		switch(prestadorSimSelect)
 860              		.loc 1 445 0
 861 0016 D94B     		ldr	r3, .L94+4	@ tmp152,
 862 0018 1B78     		ldrb	r3, [r3]	@ D.7828, prestadorSimSelect
 863 001a 012B     		cmp	r3, #1	@ D.7829,
 864 001c 13D0     		beq	.L55	@,
 865 001e 022B     		cmp	r3, #2	@ D.7829,
 866 0020 00D1     		bne	.LCB493	@
 867 0022 E8E0     		b	.L56	@long jump	@
 868              	.LCB493:
 869 0024 002B     		cmp	r3, #0	@ D.7829,
 870 0026 00D0     		beq	.LCB495	@
 871 0028 C4E1     		b	.L84	@long jump	@
 872              	.LCB495:
 446:src/sim900_800.c **** 		{
 447:src/sim900_800.c **** 			case 0:
 448:src/sim900_800.c **** 				if (*pGSMHWstatus & 0x01)
 873              		.loc 1 448 0
 874 002a 039B     		ldr	r3, [sp, #12]	@ tmp153, pGSMHWstatus
 875 002c 1B78     		ldrb	r3, [r3]	@ D.7828, *pGSMHWstatus_25(D)
 876 002e 1A00     		movs	r2, r3	@ D.7829, D.7828
 877 0030 0123     		movs	r3, #1	@ tmp154,
 878 0032 1340     		ands	r3, r2	@ D.7829, D.7829
 879 0034 00D1     		bne	.LCB502	@
 880 0036 C1E1     		b	.L88	@long jump	@
 881              	.LCB502:
 449:src/sim900_800.c **** 					prestadorSimSelect++;
 882              		.loc 1 449 0
 883 0038 D04B     		ldr	r3, .L94+4	@ tmp155,
 884 003a 1B78     		ldrb	r3, [r3]	@ D.7828, prestadorSimSelect
 885 003c 0133     		adds	r3, r3, #1	@ tmp156,
ARM GAS  /tmp/cc4fp2Bh.s 			page 25


 886 003e DAB2     		uxtb	r2, r3	@ D.7828, tmp156
 887 0040 CE4B     		ldr	r3, .L94+4	@ tmp157,
 888 0042 1A70     		strb	r2, [r3]	@ tmp158, prestadorSimSelect
 450:src/sim900_800.c **** 				break;
 889              		.loc 1 450 0
 890 0044 BAE1     		b	.L88	@
 891              	.L55:
 451:src/sim900_800.c **** 			case 1:
 452:src/sim900_800.c **** 				if (*prestadorSim1 == 0)
 892              		.loc 1 452 0
 893 0046 029B     		ldr	r3, [sp, #8]	@ tmp159, prestadorSim1
 894 0048 1B78     		ldrb	r3, [r3]	@ D.7828, *prestadorSim1_33(D)
 895 004a 002B     		cmp	r3, #0	@ D.7828,
 896 004c 00D0     		beq	.LCB516	@
 897 004e D2E0     		b	.L56	@long jump	@
 898              	.LCB516:
 453:src/sim900_800.c **** 				{
 454:src/sim900_800.c **** 					switch(prestadorSimState)
 899              		.loc 1 454 0
 900 0050 CB4B     		ldr	r3, .L94+8	@ tmp160,
 901 0052 1B78     		ldrb	r3, [r3]	@ D.7828, prestadorSimState
 902 0054 012B     		cmp	r3, #1	@ D.7829,
 903 0056 0BD0     		beq	.L60	@,
 904 0058 022B     		cmp	r3, #2	@ D.7829,
 905 005a 44D0     		beq	.L61	@,
 906 005c 002B     		cmp	r3, #0	@ D.7829,
 907 005e 00D0     		beq	.LCB524	@
 908 0060 C2E0     		b	.L85	@long jump	@
 909              	.LCB524:
 455:src/sim900_800.c **** 					{
 456:src/sim900_800.c **** 					case 0:
 457:src/sim900_800.c **** 						prestadorSimState++;
 910              		.loc 1 457 0
 911 0062 C74B     		ldr	r3, .L94+8	@ tmp161,
 912 0064 1B78     		ldrb	r3, [r3]	@ D.7828, prestadorSimState
 913 0066 0133     		adds	r3, r3, #1	@ tmp162,
 914 0068 DAB2     		uxtb	r2, r3	@ D.7828, tmp162
 915 006a C54B     		ldr	r3, .L94+8	@ tmp163,
 916 006c 1A70     		strb	r2, [r3]	@ tmp164, prestadorSimState
 458:src/sim900_800.c **** 						break;
 917              		.loc 1 458 0
 918 006e C2E0     		b	.L56	@
 919              	.L60:
 459:src/sim900_800.c **** 					case 1:
 460:src/sim900_800.c **** 
 461:src/sim900_800.c **** 						i = GSM_SetSIM (1);
 920              		.loc 1 461 0
 921 0070 1724     		movs	r4, #23	@ tmp165,
 922 0072 6C44     		add	r4, r4, sp	@ tmp165,
 923 0074 0120     		movs	r0, #1	@,
 924 0076 FFF7FEFF 		bl	GSM_SetSIM	@
 925 007a 0300     		movs	r3, r0	@ tmp166,
 926 007c 2370     		strb	r3, [r4]	@ tmp168, i
 462:src/sim900_800.c **** 						if (i == 2)
 927              		.loc 1 462 0
 928 007e 1723     		movs	r3, #23	@ tmp169,
 929 0080 6B44     		add	r3, r3, sp	@ tmp169,
ARM GAS  /tmp/cc4fp2Bh.s 			page 26


 930 0082 1B78     		ldrb	r3, [r3]	@ tmp170, i
 931 0084 022B     		cmp	r3, #2	@ tmp170,
 932 0086 05D1     		bne	.L63	@,
 463:src/sim900_800.c **** 							prestadorSimState++;
 933              		.loc 1 463 0
 934 0088 BD4B     		ldr	r3, .L94+8	@ tmp171,
 935 008a 1B78     		ldrb	r3, [r3]	@ D.7828, prestadorSimState
 936 008c 0133     		adds	r3, r3, #1	@ tmp172,
 937 008e DAB2     		uxtb	r2, r3	@ D.7828, tmp172
 938 0090 BB4B     		ldr	r3, .L94+8	@ tmp173,
 939 0092 1A70     		strb	r2, [r3]	@ tmp174, prestadorSimState
 940              	.L63:
 464:src/sim900_800.c **** 						if (i > 2)
 941              		.loc 1 464 0
 942 0094 1723     		movs	r3, #23	@ tmp175,
 943 0096 6B44     		add	r3, r3, sp	@ tmp175,
 944 0098 1B78     		ldrb	r3, [r3]	@ tmp176, i
 945 009a 022B     		cmp	r3, #2	@ tmp176,
 946 009c 08D9     		bls	.L64	@,
 465:src/sim900_800.c **** 						{
 466:src/sim900_800.c **** 							prestadorSimState = 0;
 947              		.loc 1 466 0
 948 009e B84B     		ldr	r3, .L94+8	@ tmp177,
 949 00a0 0022     		movs	r2, #0	@ tmp178,
 950 00a2 1A70     		strb	r2, [r3]	@ tmp179, prestadorSimState
 467:src/sim900_800.c **** 							//prestadorSimTime = 150;
 468:src/sim900_800.c **** 							prestadorSimSelect++;
 951              		.loc 1 468 0
 952 00a4 B54B     		ldr	r3, .L94+4	@ tmp180,
 953 00a6 1B78     		ldrb	r3, [r3]	@ D.7828, prestadorSimSelect
 954 00a8 0133     		adds	r3, r3, #1	@ tmp181,
 955 00aa DAB2     		uxtb	r2, r3	@ D.7828, tmp181
 956 00ac B34B     		ldr	r3, .L94+4	@ tmp182,
 957 00ae 1A70     		strb	r2, [r3]	@ tmp183, prestadorSimSelect
 958              	.L64:
 469:src/sim900_800.c **** 						}
 470:src/sim900_800.c **** 
 471:src/sim900_800.c **** 						if (i == 2)
 959              		.loc 1 471 0
 960 00b0 1723     		movs	r3, #23	@ tmp184,
 961 00b2 6B44     		add	r3, r3, sp	@ tmp184,
 962 00b4 1B78     		ldrb	r3, [r3]	@ tmp185, i
 963 00b6 022B     		cmp	r3, #2	@ tmp185,
 964 00b8 05D1     		bne	.L65	@,
 472:src/sim900_800.c **** 							prestadorSimState++;
 965              		.loc 1 472 0
 966 00ba B14B     		ldr	r3, .L94+8	@ tmp186,
 967 00bc 1B78     		ldrb	r3, [r3]	@ D.7828, prestadorSimState
 968 00be 0133     		adds	r3, r3, #1	@ tmp187,
 969 00c0 DAB2     		uxtb	r2, r3	@ D.7828, tmp187
 970 00c2 AF4B     		ldr	r3, .L94+8	@ tmp188,
 971 00c4 1A70     		strb	r2, [r3]	@ tmp189, prestadorSimState
 972              	.L65:
 473:src/sim900_800.c **** 						if (i > 2)
 973              		.loc 1 473 0
 974 00c6 1723     		movs	r3, #23	@ tmp190,
 975 00c8 6B44     		add	r3, r3, sp	@ tmp190,
ARM GAS  /tmp/cc4fp2Bh.s 			page 27


 976 00ca 1B78     		ldrb	r3, [r3]	@ tmp191, i
 977 00cc 022B     		cmp	r3, #2	@ tmp191,
 978 00ce 00D8     		bhi	.LCB587	@
 979 00d0 8EE0     		b	.L89	@long jump	@
 980              	.LCB587:
 474:src/sim900_800.c **** 						{
 475:src/sim900_800.c **** 							prestadorSimState = 0;
 981              		.loc 1 475 0
 982 00d2 AB4B     		ldr	r3, .L94+8	@ tmp192,
 983 00d4 0022     		movs	r2, #0	@ tmp193,
 984 00d6 1A70     		strb	r2, [r3]	@ tmp194, prestadorSimState
 476:src/sim900_800.c **** 							//prestadorSimTime = 150;
 477:src/sim900_800.c **** 							prestadorSimSelect++;
 985              		.loc 1 477 0
 986 00d8 A84B     		ldr	r3, .L94+4	@ tmp195,
 987 00da 1B78     		ldrb	r3, [r3]	@ D.7828, prestadorSimSelect
 988 00dc 0133     		adds	r3, r3, #1	@ tmp196,
 989 00de DAB2     		uxtb	r2, r3	@ D.7828, tmp196
 990 00e0 A64B     		ldr	r3, .L94+4	@ tmp197,
 991 00e2 1A70     		strb	r2, [r3]	@ tmp198, prestadorSimSelect
 478:src/sim900_800.c **** 						}
 479:src/sim900_800.c **** 
 480:src/sim900_800.c **** 						break;
 992              		.loc 1 480 0
 993 00e4 84E0     		b	.L89	@
 994              	.L61:
 481:src/sim900_800.c **** 					case 2:
 482:src/sim900_800.c **** 						i = GSMSendCommand ("AT+CSPN?\r\n", 15, 1, &GSMbuffRtaCommand[0]);
 995              		.loc 1 482 0
 996 00e6 1724     		movs	r4, #23	@ tmp199,
 997 00e8 6C44     		add	r4, r4, sp	@ tmp199,
 998 00ea A64B     		ldr	r3, .L94+12	@ tmp200,
 999 00ec A648     		ldr	r0, .L94+16	@ tmp201,
 1000 00ee 0122     		movs	r2, #1	@,
 1001 00f0 0F21     		movs	r1, #15	@,
 1002 00f2 FFF7FEFF 		bl	GSMSendCommand	@
 1003 00f6 0300     		movs	r3, r0	@ tmp202,
 1004 00f8 2370     		strb	r3, [r4]	@ tmp204, i
 483:src/sim900_800.c **** 
 484:src/sim900_800.c **** 						if (i == 2)
 1005              		.loc 1 484 0
 1006 00fa 1723     		movs	r3, #23	@ tmp205,
 1007 00fc 6B44     		add	r3, r3, sp	@ tmp205,
 1008 00fe 1B78     		ldrb	r3, [r3]	@ tmp206, i
 1009 0100 022B     		cmp	r3, #2	@ tmp206,
 1010 0102 62D1     		bne	.L67	@,
 485:src/sim900_800.c **** 						{
 486:src/sim900_800.c **** 							if (!strncmp ((const char *)&GSMbuffRtaCommand[0],(const char *) "+CSPN", sizeof("+CSPN") - 
 1011              		.loc 1 486 0
 1012 0104 A149     		ldr	r1, .L94+20	@ tmp207,
 1013 0106 9F4B     		ldr	r3, .L94+12	@ tmp208,
 1014 0108 0522     		movs	r2, #5	@,
 1015 010a 1800     		movs	r0, r3	@, tmp208
 1016 010c FFF7FEFF 		bl	strncmp	@
 1017 0110 031E     		subs	r3, r0, #0	@ D.7829,,
 1018 0112 54D1     		bne	.L68	@,
 487:src/sim900_800.c **** 							{
ARM GAS  /tmp/cc4fp2Bh.s 			page 28


 488:src/sim900_800.c **** 
 489:src/sim900_800.c **** 								if (!strncmp ((const char *)&GSMbuffRtaCommand[8], (const char *) pCONFIGURACIONgprsProveed
 1019              		.loc 1 489 0
 1020 0114 0A99     		ldr	r1, [sp, #40]	@ tmp209, pCONFIGURACIONgprsProveedor1
 1021 0116 9E4B     		ldr	r3, .L94+24	@ tmp210,
 1022 0118 0322     		movs	r2, #3	@,
 1023 011a 1800     		movs	r0, r3	@, tmp210
 1024 011c FFF7FEFF 		bl	strncmp	@
 1025 0120 031E     		subs	r3, r0, #0	@ D.7829,,
 1026 0122 20D1     		bne	.L69	@,
 490:src/sim900_800.c **** 								{
 491:src/sim900_800.c **** 									*prestadorSim1 = 1;
 1027              		.loc 1 491 0
 1028 0124 029B     		ldr	r3, [sp, #8]	@ tmp211, prestadorSim1
 1029 0126 0122     		movs	r2, #1	@ tmp212,
 1030 0128 1A70     		strb	r2, [r3]	@ tmp213, *prestadorSim1_33(D)
 492:src/sim900_800.c **** 
 493:src/sim900_800.c **** 									strcpy((char *)SIM900APNSIM1, 		(const char *)pCONFIGURACIONgprsAPN1);
 1031              		.loc 1 493 0
 1032 012a 009A     		ldr	r2, [sp]	@ tmp214, pCONFIGURACIONgprsAPN1
 1033 012c 994B     		ldr	r3, .L94+28	@ tmp215,
 1034 012e 1100     		movs	r1, r2	@, tmp214
 1035 0130 1800     		movs	r0, r3	@, tmp215
 1036 0132 FFF7FEFF 		bl	strcpy	@
 494:src/sim900_800.c **** 									strcpy((char *)SIM900USUARIOSIM1, 	(const char *)pCONFIGURACIONgprsUsuario1);
 1037              		.loc 1 494 0
 1038 0136 089A     		ldr	r2, [sp, #32]	@ tmp216, pCONFIGURACIONgprsUsuario1
 1039 0138 974B     		ldr	r3, .L94+32	@ tmp217,
 1040 013a 1100     		movs	r1, r2	@, tmp216
 1041 013c 1800     		movs	r0, r3	@, tmp217
 1042 013e FFF7FEFF 		bl	strcpy	@
 495:src/sim900_800.c **** 									strcpy((char *)SIM900CLAVESIM1, 	(const char *)pCONFIGURACIONgprsClave1);
 1043              		.loc 1 495 0
 1044 0142 099A     		ldr	r2, [sp, #36]	@ tmp218, pCONFIGURACIONgprsClave1
 1045 0144 954B     		ldr	r3, .L94+36	@ tmp219,
 1046 0146 1100     		movs	r1, r2	@, tmp218
 1047 0148 1800     		movs	r0, r3	@, tmp219
 1048 014a FFF7FEFF 		bl	strcpy	@
 496:src/sim900_800.c **** 									strcpy((char *)SIM900IPREMOTE, 		(const char *)pCONFIGURACIONIPREMOTE);
 1049              		.loc 1 496 0
 1050 014e 0F9A     		ldr	r2, [sp, #60]	@ tmp220, pCONFIGURACIONIPREMOTE
 1051 0150 934B     		ldr	r3, .L94+40	@ tmp221,
 1052 0152 1100     		movs	r1, r2	@, tmp220
 1053 0154 1800     		movs	r0, r3	@, tmp221
 1054 0156 FFF7FEFF 		bl	strcpy	@
 497:src/sim900_800.c **** 									strcpy((char *)SIM900PORTREMOTE, 	(const char *)pCONFIGURACIONPORTREMOTE);
 1055              		.loc 1 497 0
 1056 015a 109A     		ldr	r2, [sp, #64]	@ tmp222, pCONFIGURACIONPORTREMOTE
 1057 015c 914B     		ldr	r3, .L94+44	@ tmp223,
 1058 015e 1100     		movs	r1, r2	@, tmp222
 1059 0160 1800     		movs	r0, r3	@, tmp223
 1060 0162 FFF7FEFF 		bl	strcpy	@
 1061              	.L69:
 498:src/sim900_800.c **** 								}
 499:src/sim900_800.c **** 
 500:src/sim900_800.c **** 								if (!strncmp ((const char *)&GSMbuffRtaCommand[8], (const char *) &pCONFIGURACIONgprsProvee
 1062              		.loc 1 500 0
ARM GAS  /tmp/cc4fp2Bh.s 			page 29


 1063 0166 0E99     		ldr	r1, [sp, #56]	@ tmp224, pCONFIGURACIONgprsProveedor2
 1064 0168 894B     		ldr	r3, .L94+24	@ tmp225,
 1065 016a 0322     		movs	r2, #3	@,
 1066 016c 1800     		movs	r0, r3	@, tmp225
 1067 016e FFF7FEFF 		bl	strncmp	@
 1068 0172 031E     		subs	r3, r0, #0	@ D.7829,,
 1069 0174 20D1     		bne	.L70	@,
 501:src/sim900_800.c **** 								{
 502:src/sim900_800.c **** 									*prestadorSim1 = 2;
 1070              		.loc 1 502 0
 1071 0176 029B     		ldr	r3, [sp, #8]	@ tmp226, prestadorSim1
 1072 0178 0222     		movs	r2, #2	@ tmp227,
 1073 017a 1A70     		strb	r2, [r3]	@ tmp228, *prestadorSim1_33(D)
 503:src/sim900_800.c **** 
 504:src/sim900_800.c **** 									strcpy((char *)SIM900APNSIM1, 		(const char *)pCONFIGURACIONgprsAPN2);
 1074              		.loc 1 504 0
 1075 017c 0B9A     		ldr	r2, [sp, #44]	@ tmp229, pCONFIGURACIONgprsAPN2
 1076 017e 854B     		ldr	r3, .L94+28	@ tmp230,
 1077 0180 1100     		movs	r1, r2	@, tmp229
 1078 0182 1800     		movs	r0, r3	@, tmp230
 1079 0184 FFF7FEFF 		bl	strcpy	@
 505:src/sim900_800.c **** 									strcpy((char *)SIM900USUARIOSIM1, 	(const char *)pCONFIGURACIONgprsUsuario2);
 1080              		.loc 1 505 0
 1081 0188 0C9A     		ldr	r2, [sp, #48]	@ tmp231, pCONFIGURACIONgprsUsuario2
 1082 018a 834B     		ldr	r3, .L94+32	@ tmp232,
 1083 018c 1100     		movs	r1, r2	@, tmp231
 1084 018e 1800     		movs	r0, r3	@, tmp232
 1085 0190 FFF7FEFF 		bl	strcpy	@
 506:src/sim900_800.c **** 									strcpy((char *)SIM900CLAVESIM1, 	(const char *)pCONFIGURACIONgprsClave2);
 1086              		.loc 1 506 0
 1087 0194 0D9A     		ldr	r2, [sp, #52]	@ tmp233, pCONFIGURACIONgprsClave2
 1088 0196 814B     		ldr	r3, .L94+36	@ tmp234,
 1089 0198 1100     		movs	r1, r2	@, tmp233
 1090 019a 1800     		movs	r0, r3	@, tmp234
 1091 019c FFF7FEFF 		bl	strcpy	@
 507:src/sim900_800.c **** 									strcpy((char *)SIM900IPREMOTE, 		(const char *)pCONFIGURACIONIPREMOTE);
 1092              		.loc 1 507 0
 1093 01a0 0F9A     		ldr	r2, [sp, #60]	@ tmp235, pCONFIGURACIONIPREMOTE
 1094 01a2 7F4B     		ldr	r3, .L94+40	@ tmp236,
 1095 01a4 1100     		movs	r1, r2	@, tmp235
 1096 01a6 1800     		movs	r0, r3	@, tmp236
 1097 01a8 FFF7FEFF 		bl	strcpy	@
 508:src/sim900_800.c **** 									strcpy((char *)SIM900PORTREMOTE, 	(const char *)pCONFIGURACIONPORTREMOTE);
 1098              		.loc 1 508 0
 1099 01ac 109A     		ldr	r2, [sp, #64]	@ tmp237, pCONFIGURACIONPORTREMOTE
 1100 01ae 7D4B     		ldr	r3, .L94+44	@ tmp238,
 1101 01b0 1100     		movs	r1, r2	@, tmp237
 1102 01b2 1800     		movs	r0, r3	@, tmp238
 1103 01b4 FFF7FEFF 		bl	strcpy	@
 1104              	.L70:
 509:src/sim900_800.c **** 								}
 510:src/sim900_800.c **** 
 511:src/sim900_800.c **** /*								if (!strncmp ((const char *)&GSMbuffRtaCommand[8], (const char *) "Personal", sizeof("Per
 512:src/sim900_800.c **** 								{
 513:src/sim900_800.c **** 									*prestadorSim1 = 1;
 514:src/sim900_800.c **** 									LCDTransmitSMStr("\r      SIM 1     \n    Personal    ");
 515:src/sim900_800.c **** 								}
ARM GAS  /tmp/cc4fp2Bh.s 			page 30


 516:src/sim900_800.c **** 								if (!strncmp ((const char *)&GSMbuffRtaCommand[8], (const char *) "Movistar", sizeof("Movis
 517:src/sim900_800.c **** 								{
 518:src/sim900_800.c **** 									*prestadorSim1 = 2;
 519:src/sim900_800.c **** 									LCDTransmitSMStr("\r      SIM 1     \n    Movistar    ");
 520:src/sim900_800.c **** 								}
 521:src/sim900_800.c **** 								if (!strncmp ((const char *)&GSMbuffRtaCommand[8], (const char *) "Claro", sizeof("Claro") 
 522:src/sim900_800.c **** 								{
 523:src/sim900_800.c **** 									*prestadorSim1 = 3;
 524:src/sim900_800.c **** 									LCDTransmitSMStr("\r      SIM 1     \n      Claro     ");
 525:src/sim900_800.c **** 								}
 526:src/sim900_800.c **** */
 527:src/sim900_800.c **** 								prestadorSimState = 0;
 1105              		.loc 1 527 0
 1106 01b8 714B     		ldr	r3, .L94+8	@ tmp239,
 1107 01ba 0022     		movs	r2, #0	@ tmp240,
 1108 01bc 1A70     		strb	r2, [r3]	@ tmp241, prestadorSimState
 1109              	.L68:
 528:src/sim900_800.c **** 							}
 529:src/sim900_800.c **** 							//prestadorSimTime = 150;
 530:src/sim900_800.c **** 							prestadorSimSelect++;
 1110              		.loc 1 530 0
 1111 01be 6F4B     		ldr	r3, .L94+4	@ tmp242,
 1112 01c0 1B78     		ldrb	r3, [r3]	@ D.7828, prestadorSimSelect
 1113 01c2 0133     		adds	r3, r3, #1	@ tmp243,
 1114 01c4 DAB2     		uxtb	r2, r3	@ D.7828, tmp243
 1115 01c6 6D4B     		ldr	r3, .L94+4	@ tmp244,
 1116 01c8 1A70     		strb	r2, [r3]	@ tmp245, prestadorSimSelect
 1117              	.L67:
 531:src/sim900_800.c **** 						}
 532:src/sim900_800.c **** 						if (i > 2)
 1118              		.loc 1 532 0
 1119 01ca 1723     		movs	r3, #23	@ tmp246,
 1120 01cc 6B44     		add	r3, r3, sp	@ tmp246,
 1121 01ce 1B78     		ldrb	r3, [r3]	@ tmp247, i
 1122 01d0 022B     		cmp	r3, #2	@ tmp247,
 1123 01d2 0FD9     		bls	.L90	@,
 533:src/sim900_800.c **** 						{
 534:src/sim900_800.c **** 							prestadorSimState = 0;
 1124              		.loc 1 534 0
 1125 01d4 6A4B     		ldr	r3, .L94+8	@ tmp248,
 1126 01d6 0022     		movs	r2, #0	@ tmp249,
 1127 01d8 1A70     		strb	r2, [r3]	@ tmp250, prestadorSimState
 535:src/sim900_800.c **** 							//prestadorSimTime = 150;
 536:src/sim900_800.c **** 							prestadorSimSelect++;
 1128              		.loc 1 536 0
 1129 01da 684B     		ldr	r3, .L94+4	@ tmp251,
 1130 01dc 1B78     		ldrb	r3, [r3]	@ D.7828, prestadorSimSelect
 1131 01de 0133     		adds	r3, r3, #1	@ tmp252,
 1132 01e0 DAB2     		uxtb	r2, r3	@ D.7828, tmp252
 1133 01e2 664B     		ldr	r3, .L94+4	@ tmp253,
 1134 01e4 1A70     		strb	r2, [r3]	@ tmp254, prestadorSimSelect
 537:src/sim900_800.c **** 
 538:src/sim900_800.c **** 						}
 539:src/sim900_800.c **** 						break;
 1135              		.loc 1 539 0
 1136 01e6 05E0     		b	.L90	@
 1137              	.L85:
ARM GAS  /tmp/cc4fp2Bh.s 			page 31


 540:src/sim900_800.c **** 
 541:src/sim900_800.c **** 					default:
 542:src/sim900_800.c **** 						prestadorSimState = 0;
 1138              		.loc 1 542 0
 1139 01e8 654B     		ldr	r3, .L94+8	@ tmp255,
 1140 01ea 0022     		movs	r2, #0	@ tmp256,
 1141 01ec 1A70     		strb	r2, [r3]	@ tmp257, prestadorSimState
 543:src/sim900_800.c **** 						break;
 1142              		.loc 1 543 0
 1143 01ee 02E0     		b	.L56	@
 1144              	.L89:
 480:src/sim900_800.c **** 					case 2:
 1145              		.loc 1 480 0
 1146 01f0 C046     		nop
 1147 01f2 00E0     		b	.L56	@
 1148              	.L90:
 539:src/sim900_800.c **** 
 1149              		.loc 1 539 0
 1150 01f4 C046     		nop
 1151              	.L56:
 544:src/sim900_800.c **** 					}
 545:src/sim900_800.c **** 				}
 546:src/sim900_800.c **** 			case 2:
 547:src/sim900_800.c **** 				if (*prestadorSim2 == 0)
 1152              		.loc 1 547 0
 1153 01f6 019B     		ldr	r3, [sp, #4]	@ tmp258, prestadorSim2
 1154 01f8 1B78     		ldrb	r3, [r3]	@ D.7828, *prestadorSim2_99(D)
 1155 01fa 002B     		cmp	r3, #0	@ D.7828,
 1156 01fc 00D0     		beq	.LCB748	@
 1157 01fe DFE0     		b	.L91	@long jump	@
 1158              	.LCB748:
 548:src/sim900_800.c **** 				{
 549:src/sim900_800.c **** 					switch(prestadorSimState)
 1159              		.loc 1 549 0
 1160 0200 5F4B     		ldr	r3, .L94+8	@ tmp259,
 1161 0202 1B78     		ldrb	r3, [r3]	@ D.7828, prestadorSimState
 1162 0204 012B     		cmp	r3, #1	@ D.7829,
 1163 0206 0BD0     		beq	.L74	@,
 1164 0208 022B     		cmp	r3, #2	@ D.7829,
 1165 020a 2BD0     		beq	.L75	@,
 1166 020c 002B     		cmp	r3, #0	@ D.7829,
 1167 020e 00D0     		beq	.LCB756	@
 1168 0210 A9E0     		b	.L86	@long jump	@
 1169              	.LCB756:
 550:src/sim900_800.c **** 					{
 551:src/sim900_800.c **** 						case 0:
 552:src/sim900_800.c **** 							if (*pGSMHWstatus & 0x02);
 553:src/sim900_800.c **** 								prestadorSimState++;
 1170              		.loc 1 553 0
 1171 0212 5B4B     		ldr	r3, .L94+8	@ tmp262,
 1172 0214 1B78     		ldrb	r3, [r3]	@ D.7828, prestadorSimState
 1173 0216 0133     		adds	r3, r3, #1	@ tmp263,
 1174 0218 DAB2     		uxtb	r2, r3	@ D.7828, tmp263
 1175 021a 594B     		ldr	r3, .L94+8	@ tmp264,
 1176 021c 1A70     		strb	r2, [r3]	@ tmp265, prestadorSimState
 554:src/sim900_800.c **** 							break;
 1177              		.loc 1 554 0
ARM GAS  /tmp/cc4fp2Bh.s 			page 32


 1178 021e A9E0     		b	.L72	@
 1179              	.L74:
 555:src/sim900_800.c **** 						case 1:
 556:src/sim900_800.c **** 							i = GSM_SetSIM (2);
 1180              		.loc 1 556 0
 1181 0220 1724     		movs	r4, #23	@ tmp266,
 1182 0222 6C44     		add	r4, r4, sp	@ tmp266,
 1183 0224 0220     		movs	r0, #2	@,
 1184 0226 FFF7FEFF 		bl	GSM_SetSIM	@
 1185 022a 0300     		movs	r3, r0	@ tmp267,
 1186 022c 2370     		strb	r3, [r4]	@ tmp269, i
 557:src/sim900_800.c **** 
 558:src/sim900_800.c **** 							if (i == 2)
 1187              		.loc 1 558 0
 1188 022e 1723     		movs	r3, #23	@ tmp270,
 1189 0230 6B44     		add	r3, r3, sp	@ tmp270,
 1190 0232 1B78     		ldrb	r3, [r3]	@ tmp271, i
 1191 0234 022B     		cmp	r3, #2	@ tmp271,
 1192 0236 05D1     		bne	.L77	@,
 559:src/sim900_800.c **** 								prestadorSimState++;
 1193              		.loc 1 559 0
 1194 0238 514B     		ldr	r3, .L94+8	@ tmp272,
 1195 023a 1B78     		ldrb	r3, [r3]	@ D.7828, prestadorSimState
 1196 023c 0133     		adds	r3, r3, #1	@ tmp273,
 1197 023e DAB2     		uxtb	r2, r3	@ D.7828, tmp273
 1198 0240 4F4B     		ldr	r3, .L94+8	@ tmp274,
 1199 0242 1A70     		strb	r2, [r3]	@ tmp275, prestadorSimState
 1200              	.L77:
 560:src/sim900_800.c **** 							if (i > 2)
 1201              		.loc 1 560 0
 1202 0244 1723     		movs	r3, #23	@ tmp276,
 1203 0246 6B44     		add	r3, r3, sp	@ tmp276,
 1204 0248 1B78     		ldrb	r3, [r3]	@ tmp277, i
 1205 024a 022B     		cmp	r3, #2	@ tmp277,
 1206 024c 00D8     		bhi	.LCB790	@
 1207 024e 8EE0     		b	.L92	@long jump	@
 1208              	.LCB790:
 561:src/sim900_800.c **** 							{
 562:src/sim900_800.c **** 								prestadorSimState = 0;
 1209              		.loc 1 562 0
 1210 0250 4B4B     		ldr	r3, .L94+8	@ tmp278,
 1211 0252 0022     		movs	r2, #0	@ tmp279,
 1212 0254 1A70     		strb	r2, [r3]	@ tmp280, prestadorSimState
 563:src/sim900_800.c **** 								prestadorSimSelect = 0;
 1213              		.loc 1 563 0
 1214 0256 494B     		ldr	r3, .L94+4	@ tmp281,
 1215 0258 0022     		movs	r2, #0	@ tmp282,
 1216 025a 1A70     		strb	r2, [r3]	@ tmp283, prestadorSimSelect
 564:src/sim900_800.c **** 								prestadorSimTime = 150;
 1217              		.loc 1 564 0
 1218 025c 464B     		ldr	r3, .L94	@ tmp284,
 1219 025e 9622     		movs	r2, #150	@ tmp285,
 1220 0260 1A70     		strb	r2, [r3]	@ tmp286, prestadorSimTime
 565:src/sim900_800.c **** 							}
 566:src/sim900_800.c **** 
 567:src/sim900_800.c **** 							break;
 1221              		.loc 1 567 0
ARM GAS  /tmp/cc4fp2Bh.s 			page 33


 1222 0262 84E0     		b	.L92	@
 1223              	.L75:
 568:src/sim900_800.c **** 						case 2:
 569:src/sim900_800.c **** 							i = GSMSendCommand ("AT+CSPN?\r\n", 15, 1, &GSMbuffRtaCommand[0]);
 1224              		.loc 1 569 0
 1225 0264 1724     		movs	r4, #23	@ tmp287,
 1226 0266 6C44     		add	r4, r4, sp	@ tmp287,
 1227 0268 464B     		ldr	r3, .L94+12	@ tmp288,
 1228 026a 4748     		ldr	r0, .L94+16	@ tmp289,
 1229 026c 0122     		movs	r2, #1	@,
 1230 026e 0F21     		movs	r1, #15	@,
 1231 0270 FFF7FEFF 		bl	GSMSendCommand	@
 1232 0274 0300     		movs	r3, r0	@ tmp290,
 1233 0276 2370     		strb	r3, [r4]	@ tmp292, i
 570:src/sim900_800.c **** 
 571:src/sim900_800.c **** 							if (i == 2)
 1234              		.loc 1 571 0
 1235 0278 1723     		movs	r3, #23	@ tmp293,
 1236 027a 6B44     		add	r3, r3, sp	@ tmp293,
 1237 027c 1B78     		ldrb	r3, [r3]	@ tmp294, i
 1238 027e 022B     		cmp	r3, #2	@ tmp294,
 1239 0280 62D1     		bne	.L79	@,
 572:src/sim900_800.c **** 							{
 573:src/sim900_800.c **** 								if (!strncmp ((const char *)&GSMbuffRtaCommand[0],(const char *) "+CSPN", sizeof("+CSPN") -
 1240              		.loc 1 573 0
 1241 0282 4249     		ldr	r1, .L94+20	@ tmp295,
 1242 0284 3F4B     		ldr	r3, .L94+12	@ tmp296,
 1243 0286 0522     		movs	r2, #5	@,
 1244 0288 1800     		movs	r0, r3	@, tmp296
 1245 028a FFF7FEFF 		bl	strncmp	@
 1246 028e 031E     		subs	r3, r0, #0	@ D.7829,,
 1247 0290 54D1     		bne	.L80	@,
 574:src/sim900_800.c **** 								{
 575:src/sim900_800.c **** 
 576:src/sim900_800.c **** 									if (!strncmp ((const char *)&GSMbuffRtaCommand[8], (const char *) pCONFIGURACIONgprsProvee
 1248              		.loc 1 576 0
 1249 0292 0A99     		ldr	r1, [sp, #40]	@ tmp297, pCONFIGURACIONgprsProveedor1
 1250 0294 3E4B     		ldr	r3, .L94+24	@ tmp298,
 1251 0296 0322     		movs	r2, #3	@,
 1252 0298 1800     		movs	r0, r3	@, tmp298
 1253 029a FFF7FEFF 		bl	strncmp	@
 1254 029e 031E     		subs	r3, r0, #0	@ D.7829,,
 1255 02a0 20D1     		bne	.L81	@,
 577:src/sim900_800.c **** 									{
 578:src/sim900_800.c **** 										*prestadorSim2 = 1;
 1256              		.loc 1 578 0
 1257 02a2 019B     		ldr	r3, [sp, #4]	@ tmp299, prestadorSim2
 1258 02a4 0122     		movs	r2, #1	@ tmp300,
 1259 02a6 1A70     		strb	r2, [r3]	@ tmp301, *prestadorSim2_99(D)
 579:src/sim900_800.c **** 
 580:src/sim900_800.c **** 										strcpy((char *)SIM900APNSIM2, 		(const char *)pCONFIGURACIONgprsAPN1);
 1260              		.loc 1 580 0
 1261 02a8 009A     		ldr	r2, [sp]	@ tmp302, pCONFIGURACIONgprsAPN1
 1262 02aa 3F4B     		ldr	r3, .L94+48	@ tmp303,
 1263 02ac 1100     		movs	r1, r2	@, tmp302
 1264 02ae 1800     		movs	r0, r3	@, tmp303
 1265 02b0 FFF7FEFF 		bl	strcpy	@
ARM GAS  /tmp/cc4fp2Bh.s 			page 34


 581:src/sim900_800.c **** 										strcpy((char *)SIM900USUARIOSIM2, 	(const char *)pCONFIGURACIONgprsUsuario1);
 1266              		.loc 1 581 0
 1267 02b4 089A     		ldr	r2, [sp, #32]	@ tmp304, pCONFIGURACIONgprsUsuario1
 1268 02b6 3D4B     		ldr	r3, .L94+52	@ tmp305,
 1269 02b8 1100     		movs	r1, r2	@, tmp304
 1270 02ba 1800     		movs	r0, r3	@, tmp305
 1271 02bc FFF7FEFF 		bl	strcpy	@
 582:src/sim900_800.c **** 										strcpy((char *)SIM900CLAVESIM2, 	(const char *)pCONFIGURACIONgprsClave1);
 1272              		.loc 1 582 0
 1273 02c0 099A     		ldr	r2, [sp, #36]	@ tmp306, pCONFIGURACIONgprsClave1
 1274 02c2 3B4B     		ldr	r3, .L94+56	@ tmp307,
 1275 02c4 1100     		movs	r1, r2	@, tmp306
 1276 02c6 1800     		movs	r0, r3	@, tmp307
 1277 02c8 FFF7FEFF 		bl	strcpy	@
 583:src/sim900_800.c **** 										strcpy((char *)SIM900IPREMOTE, 		(const char *)pCONFIGURACIONIPREMOTE);
 1278              		.loc 1 583 0
 1279 02cc 0F9A     		ldr	r2, [sp, #60]	@ tmp308, pCONFIGURACIONIPREMOTE
 1280 02ce 344B     		ldr	r3, .L94+40	@ tmp309,
 1281 02d0 1100     		movs	r1, r2	@, tmp308
 1282 02d2 1800     		movs	r0, r3	@, tmp309
 1283 02d4 FFF7FEFF 		bl	strcpy	@
 584:src/sim900_800.c **** 										strcpy((char *)SIM900PORTREMOTE, 	(const char *)pCONFIGURACIONPORTREMOTE);
 1284              		.loc 1 584 0
 1285 02d8 109A     		ldr	r2, [sp, #64]	@ tmp310, pCONFIGURACIONPORTREMOTE
 1286 02da 324B     		ldr	r3, .L94+44	@ tmp311,
 1287 02dc 1100     		movs	r1, r2	@, tmp310
 1288 02de 1800     		movs	r0, r3	@, tmp311
 1289 02e0 FFF7FEFF 		bl	strcpy	@
 1290              	.L81:
 585:src/sim900_800.c **** 									}
 586:src/sim900_800.c **** 
 587:src/sim900_800.c **** 									if (!strncmp ((const char *)&GSMbuffRtaCommand[8], (const char *) pCONFIGURACIONgprsProvee
 1291              		.loc 1 587 0
 1292 02e4 0E99     		ldr	r1, [sp, #56]	@ tmp312, pCONFIGURACIONgprsProveedor2
 1293 02e6 2A4B     		ldr	r3, .L94+24	@ tmp313,
 1294 02e8 0322     		movs	r2, #3	@,
 1295 02ea 1800     		movs	r0, r3	@, tmp313
 1296 02ec FFF7FEFF 		bl	strncmp	@
 1297 02f0 031E     		subs	r3, r0, #0	@ D.7829,,
 1298 02f2 20D1     		bne	.L82	@,
 588:src/sim900_800.c **** 									{
 589:src/sim900_800.c **** 										*prestadorSim2 = 2;
 1299              		.loc 1 589 0
 1300 02f4 019B     		ldr	r3, [sp, #4]	@ tmp314, prestadorSim2
 1301 02f6 0222     		movs	r2, #2	@ tmp315,
 1302 02f8 1A70     		strb	r2, [r3]	@ tmp316, *prestadorSim2_99(D)
 590:src/sim900_800.c **** 
 591:src/sim900_800.c **** 										strcpy((char *)SIM900APNSIM2, 		(const char *)pCONFIGURACIONgprsAPN2);
 1303              		.loc 1 591 0
 1304 02fa 0B9A     		ldr	r2, [sp, #44]	@ tmp317, pCONFIGURACIONgprsAPN2
 1305 02fc 2A4B     		ldr	r3, .L94+48	@ tmp318,
 1306 02fe 1100     		movs	r1, r2	@, tmp317
 1307 0300 1800     		movs	r0, r3	@, tmp318
 1308 0302 FFF7FEFF 		bl	strcpy	@
 592:src/sim900_800.c **** 										strcpy((char *)SIM900USUARIOSIM2, 	(const char *)pCONFIGURACIONgprsUsuario2);
 1309              		.loc 1 592 0
 1310 0306 0C9A     		ldr	r2, [sp, #48]	@ tmp319, pCONFIGURACIONgprsUsuario2
ARM GAS  /tmp/cc4fp2Bh.s 			page 35


 1311 0308 284B     		ldr	r3, .L94+52	@ tmp320,
 1312 030a 1100     		movs	r1, r2	@, tmp319
 1313 030c 1800     		movs	r0, r3	@, tmp320
 1314 030e FFF7FEFF 		bl	strcpy	@
 593:src/sim900_800.c **** 										strcpy((char *)SIM900CLAVESIM2, 	(const char *)pCONFIGURACIONgprsClave2);
 1315              		.loc 1 593 0
 1316 0312 0D9A     		ldr	r2, [sp, #52]	@ tmp321, pCONFIGURACIONgprsClave2
 1317 0314 264B     		ldr	r3, .L94+56	@ tmp322,
 1318 0316 1100     		movs	r1, r2	@, tmp321
 1319 0318 1800     		movs	r0, r3	@, tmp322
 1320 031a FFF7FEFF 		bl	strcpy	@
 594:src/sim900_800.c **** 										strcpy((char *)SIM900IPREMOTE, 		(const char *)pCONFIGURACIONIPREMOTE);
 1321              		.loc 1 594 0
 1322 031e 0F9A     		ldr	r2, [sp, #60]	@ tmp323, pCONFIGURACIONIPREMOTE
 1323 0320 1F4B     		ldr	r3, .L94+40	@ tmp324,
 1324 0322 1100     		movs	r1, r2	@, tmp323
 1325 0324 1800     		movs	r0, r3	@, tmp324
 1326 0326 FFF7FEFF 		bl	strcpy	@
 595:src/sim900_800.c **** 										strcpy((char *)SIM900PORTREMOTE, 	(const char *)pCONFIGURACIONPORTREMOTE);
 1327              		.loc 1 595 0
 1328 032a 109A     		ldr	r2, [sp, #64]	@ tmp325, pCONFIGURACIONPORTREMOTE
 1329 032c 1D4B     		ldr	r3, .L94+44	@ tmp326,
 1330 032e 1100     		movs	r1, r2	@, tmp325
 1331 0330 1800     		movs	r0, r3	@, tmp326
 1332 0332 FFF7FEFF 		bl	strcpy	@
 1333              	.L82:
 596:src/sim900_800.c **** 									}
 597:src/sim900_800.c **** 
 598:src/sim900_800.c **** /*									if (!strncmp ((const char *)&GSMbuffRtaCommand[8], (const char *) "Personal", sizeof("Pe
 599:src/sim900_800.c **** 									{
 600:src/sim900_800.c **** 										*prestadorSim2 = 1;
 601:src/sim900_800.c **** 										LCDTransmitSMStr("\r      SIM 2     \n    Personal    ");
 602:src/sim900_800.c **** 									}
 603:src/sim900_800.c **** 									if (!strncmp ((const char *)&GSMbuffRtaCommand[8], (const char *) "Movistar", sizeof("Movi
 604:src/sim900_800.c **** 									{
 605:src/sim900_800.c **** 										*prestadorSim2 = 2;
 606:src/sim900_800.c **** 										LCDTransmitSMStr("\r      SIM 2     \n    Movistar    ");
 607:src/sim900_800.c **** 									}
 608:src/sim900_800.c **** 									if (!strncmp ((const char *)&GSMbuffRtaCommand[8], (const char *) "Claro", sizeof("Claro")
 609:src/sim900_800.c **** 									{
 610:src/sim900_800.c **** 										*prestadorSim2 = 3;
 611:src/sim900_800.c **** 										LCDTransmitSMStr("\r      SIM 2     \n      Claro     ");
 612:src/sim900_800.c **** 									}
 613:src/sim900_800.c **** */
 614:src/sim900_800.c **** 									prestadorSimState = 0;
 1334              		.loc 1 614 0
 1335 0336 124B     		ldr	r3, .L94+8	@ tmp327,
 1336 0338 0022     		movs	r2, #0	@ tmp328,
 1337 033a 1A70     		strb	r2, [r3]	@ tmp329, prestadorSimState
 1338              	.L80:
 615:src/sim900_800.c **** 
 616:src/sim900_800.c **** 								}
 617:src/sim900_800.c **** 								prestadorSimSelect = 0;
 1339              		.loc 1 617 0
 1340 033c 0F4B     		ldr	r3, .L94+4	@ tmp330,
 1341 033e 0022     		movs	r2, #0	@ tmp331,
 1342 0340 1A70     		strb	r2, [r3]	@ tmp332, prestadorSimSelect
ARM GAS  /tmp/cc4fp2Bh.s 			page 36


 618:src/sim900_800.c **** 								prestadorSimTime = 150;
 1343              		.loc 1 618 0
 1344 0342 0D4B     		ldr	r3, .L94	@ tmp333,
 1345 0344 9622     		movs	r2, #150	@ tmp334,
 1346 0346 1A70     		strb	r2, [r3]	@ tmp335, prestadorSimTime
 1347              	.L79:
 619:src/sim900_800.c **** 							}
 620:src/sim900_800.c **** 							if (i > 2)
 1348              		.loc 1 620 0
 1349 0348 1723     		movs	r3, #23	@ tmp336,
 1350 034a 6B44     		add	r3, r3, sp	@ tmp336,
 1351 034c 1B78     		ldrb	r3, [r3]	@ tmp337, i
 1352 034e 022B     		cmp	r3, #2	@ tmp337,
 1353 0350 0FD9     		bls	.L93	@,
 621:src/sim900_800.c **** 							{
 622:src/sim900_800.c **** 								prestadorSimState = 0;
 1354              		.loc 1 622 0
 1355 0352 0B4B     		ldr	r3, .L94+8	@ tmp338,
 1356 0354 0022     		movs	r2, #0	@ tmp339,
 1357 0356 1A70     		strb	r2, [r3]	@ tmp340, prestadorSimState
 623:src/sim900_800.c **** 								prestadorSimSelect = 0;
 1358              		.loc 1 623 0
 1359 0358 084B     		ldr	r3, .L94+4	@ tmp341,
 1360 035a 0022     		movs	r2, #0	@ tmp342,
 1361 035c 1A70     		strb	r2, [r3]	@ tmp343, prestadorSimSelect
 624:src/sim900_800.c **** 								prestadorSimTime = 150;
 1362              		.loc 1 624 0
 1363 035e 064B     		ldr	r3, .L94	@ tmp344,
 1364 0360 9622     		movs	r2, #150	@ tmp345,
 1365 0362 1A70     		strb	r2, [r3]	@ tmp346, prestadorSimTime
 625:src/sim900_800.c **** 							}
 626:src/sim900_800.c **** 							break;
 1366              		.loc 1 626 0
 1367 0364 05E0     		b	.L93	@
 1368              	.L86:
 627:src/sim900_800.c **** 
 628:src/sim900_800.c **** 						default:
 629:src/sim900_800.c **** 							prestadorSimState = 0;
 1369              		.loc 1 629 0
 1370 0366 064B     		ldr	r3, .L94+8	@ tmp347,
 1371 0368 0022     		movs	r2, #0	@ tmp348,
 1372 036a 1A70     		strb	r2, [r3]	@ tmp349, prestadorSimState
 630:src/sim900_800.c **** 							break;
 1373              		.loc 1 630 0
 1374 036c 02E0     		b	.L72	@
 1375              	.L92:
 567:src/sim900_800.c **** 						case 2:
 1376              		.loc 1 567 0
 1377 036e C046     		nop
 1378 0370 26E0     		b	.L91	@
 1379              	.L93:
 626:src/sim900_800.c **** 
 1380              		.loc 1 626 0
 1381 0372 C046     		nop
 1382              	.L72:
 631:src/sim900_800.c **** 					}
 632:src/sim900_800.c **** 				}
ARM GAS  /tmp/cc4fp2Bh.s 			page 37


 633:src/sim900_800.c **** 				break;
 1383              		.loc 1 633 0 discriminator 1
 1384 0374 24E0     		b	.L91	@
 1385              	.L95:
 1386 0376 C046     		.align	2
 1387              	.L94:
 1388 0378 00000000 		.word	prestadorSimTime
 1389 037c 00000000 		.word	prestadorSimSelect
 1390 0380 00000000 		.word	prestadorSimState
 1391 0384 00000000 		.word	GSMbuffRtaCommand
 1392 0388 00000000 		.word	.LC18
 1393 038c 0C000000 		.word	.LC20
 1394 0390 08000000 		.word	GSMbuffRtaCommand+8
 1395 0394 00000000 		.word	SIM900APNSIM1
 1396 0398 00000000 		.word	SIM900USUARIOSIM1
 1397 039c 00000000 		.word	SIM900CLAVESIM1
 1398 03a0 00000000 		.word	SIM900IPREMOTE
 1399 03a4 00000000 		.word	SIM900PORTREMOTE
 1400 03a8 00000000 		.word	SIM900APNSIM2
 1401 03ac 00000000 		.word	SIM900USUARIOSIM2
 1402 03b0 00000000 		.word	SIM900CLAVESIM2
 1403              	.L84:
 634:src/sim900_800.c **** 
 635:src/sim900_800.c **** 			default:
 636:src/sim900_800.c **** 				prestadorSimSelect = 0;
 1404              		.loc 1 636 0
 1405 03b4 044B     		ldr	r3, .L96	@ tmp350,
 1406 03b6 0022     		movs	r2, #0	@ tmp351,
 1407 03b8 1A70     		strb	r2, [r3]	@ tmp352, prestadorSimSelect
 637:src/sim900_800.c **** 				break;
 1408              		.loc 1 637 0
 1409 03ba 02E0     		b	.L53	@
 1410              	.L88:
 450:src/sim900_800.c **** 			case 1:
 1411              		.loc 1 450 0
 1412 03bc C046     		nop
 1413 03be 00E0     		b	.L87	@
 1414              	.L91:
 633:src/sim900_800.c **** 
 1415              		.loc 1 633 0
 1416 03c0 C046     		nop
 1417              	.L53:
 1418              	.L87:
 638:src/sim900_800.c **** 
 639:src/sim900_800.c **** 
 640:src/sim900_800.c **** 		}
 641:src/sim900_800.c **** 
 642:src/sim900_800.c **** 	}
 643:src/sim900_800.c **** }
 1419              		.loc 1 643 0
 1420 03c2 C046     		nop
 1421 03c4 06B0     		add	sp, sp, #24	@,,
 1422              		@ sp needed	@
 1423 03c6 10BD     		pop	{r4, pc}
 1424              	.L97:
 1425              		.align	2
 1426              	.L96:
ARM GAS  /tmp/cc4fp2Bh.s 			page 38


 1427 03c8 00000000 		.word	prestadorSimSelect
 1428              		.cfi_endproc
 1429              	.LFE25:
 1430              		.size	GSMPrestador, .-GSMPrestador
 1431              		.section	.rodata
 1432 0012 0000     		.align	2
 1433              	.LC33:
 1434 0014 41542B43 		.ascii	"AT+CIPSHUT\015\012\000"
 1434      49505348 
 1434      55540D0A 
 1434      00
 1435              		.section	.text.GSMCloseIP,"ax",%progbits
 1436              		.align	2
 1437              		.global	GSMCloseIP
 1438              		.code	16
 1439              		.thumb_func
 1440              		.type	GSMCloseIP, %function
 1441              	GSMCloseIP:
 1442              	.LFB26:
 644:src/sim900_800.c **** 
 645:src/sim900_800.c **** char GSMCloseIP(void)
 646:src/sim900_800.c **** {
 1443              		.loc 1 646 0
 1444              		.cfi_startproc
 1445 0000 10B5     		push	{r4, lr}	@
 1446              	.LCFI5:
 1447              		.cfi_def_cfa_offset 8
 1448              		.cfi_offset 4, -8
 1449              		.cfi_offset 14, -4
 1450 0002 82B0     		sub	sp, sp, #8	@,,
 1451              	.LCFI6:
 1452              		.cfi_def_cfa_offset 16
 647:src/sim900_800.c **** 	unsigned char i = 0;
 1453              		.loc 1 647 0
 1454 0004 6B46     		mov	r3, sp	@ tmp136,
 1455 0006 0733     		adds	r3, r3, #7	@ tmp113,
 1456 0008 0022     		movs	r2, #0	@ tmp114,
 1457 000a 1A70     		strb	r2, [r3]	@ tmp115, i
 648:src/sim900_800.c **** 
 649:src/sim900_800.c **** 	if (flagCloseIP == 1)
 1458              		.loc 1 649 0
 1459 000c 154B     		ldr	r3, .L103	@ tmp116,
 1460 000e 1B78     		ldrb	r3, [r3]	@ D.7833, flagCloseIP
 1461 0010 012B     		cmp	r3, #1	@ D.7833,
 1462 0012 23D1     		bne	.L99	@,
 650:src/sim900_800.c **** 	{
 651:src/sim900_800.c **** 		i = GSMSendCommand ("AT+CIPSHUT\r\n", 15, 0, &GSMbuffRtaCommand[0]);
 1463              		.loc 1 651 0
 1464 0014 6B46     		mov	r3, sp	@ tmp137,
 1465 0016 DC1D     		adds	r4, r3, #7	@ tmp117, tmp137,
 1466 0018 134B     		ldr	r3, .L103+4	@ tmp118,
 1467 001a 1448     		ldr	r0, .L103+8	@ tmp119,
 1468 001c 0022     		movs	r2, #0	@,
 1469 001e 0F21     		movs	r1, #15	@,
 1470 0020 FFF7FEFF 		bl	GSMSendCommand	@
 1471 0024 0300     		movs	r3, r0	@ tmp120,
 1472 0026 2370     		strb	r3, [r4]	@ tmp122, i
ARM GAS  /tmp/cc4fp2Bh.s 			page 39


 652:src/sim900_800.c **** 
 653:src/sim900_800.c **** 		if (i == 2)
 1473              		.loc 1 653 0
 1474 0028 6B46     		mov	r3, sp	@ tmp138,
 1475 002a 0733     		adds	r3, r3, #7	@ tmp123,
 1476 002c 1B78     		ldrb	r3, [r3]	@ tmp124, i
 1477 002e 022B     		cmp	r3, #2	@ tmp124,
 1478 0030 06D1     		bne	.L100	@,
 654:src/sim900_800.c **** 		{
 655:src/sim900_800.c **** 			flagCloseIP = 0;
 1479              		.loc 1 655 0
 1480 0032 0C4B     		ldr	r3, .L103	@ tmp125,
 1481 0034 0022     		movs	r2, #0	@ tmp126,
 1482 0036 1A70     		strb	r2, [r3]	@ tmp127, flagCloseIP
 656:src/sim900_800.c **** 			return i;
 1483              		.loc 1 656 0
 1484 0038 6B46     		mov	r3, sp	@ tmp139,
 1485 003a 0733     		adds	r3, r3, #7	@ tmp128,
 1486 003c 1B78     		ldrb	r3, [r3]	@ D.7832, i
 1487 003e 0EE0     		b	.L101	@
 1488              	.L100:
 657:src/sim900_800.c **** 		}
 658:src/sim900_800.c **** 		if (i > 2)
 1489              		.loc 1 658 0
 1490 0040 6B46     		mov	r3, sp	@ tmp140,
 1491 0042 0733     		adds	r3, r3, #7	@ tmp129,
 1492 0044 1B78     		ldrb	r3, [r3]	@ tmp130, i
 1493 0046 022B     		cmp	r3, #2	@ tmp130,
 1494 0048 06D9     		bls	.L102	@,
 659:src/sim900_800.c **** 		{
 660:src/sim900_800.c **** 			flagCloseIP = 0;
 1495              		.loc 1 660 0
 1496 004a 064B     		ldr	r3, .L103	@ tmp131,
 1497 004c 0022     		movs	r2, #0	@ tmp132,
 1498 004e 1A70     		strb	r2, [r3]	@ tmp133, flagCloseIP
 661:src/sim900_800.c **** 			return i;
 1499              		.loc 1 661 0
 1500 0050 6B46     		mov	r3, sp	@ tmp141,
 1501 0052 0733     		adds	r3, r3, #7	@ tmp134,
 1502 0054 1B78     		ldrb	r3, [r3]	@ D.7832, i
 1503 0056 02E0     		b	.L101	@
 1504              	.L102:
 662:src/sim900_800.c **** 		}
 663:src/sim900_800.c **** 
 664:src/sim900_800.c **** 		return 1;
 1505              		.loc 1 664 0
 1506 0058 0123     		movs	r3, #1	@ D.7832,
 1507 005a 00E0     		b	.L101	@
 1508              	.L99:
 665:src/sim900_800.c **** 	}
 666:src/sim900_800.c **** 
 667:src/sim900_800.c **** 	return 0;
 1509              		.loc 1 667 0
 1510 005c 0023     		movs	r3, #0	@ D.7832,
 1511              	.L101:
 668:src/sim900_800.c **** }
 1512              		.loc 1 668 0
ARM GAS  /tmp/cc4fp2Bh.s 			page 40


 1513 005e 1800     		movs	r0, r3	@, <retval>
 1514 0060 02B0     		add	sp, sp, #8	@,,
 1515              		@ sp needed	@
 1516 0062 10BD     		pop	{r4, pc}
 1517              	.L104:
 1518              		.align	2
 1519              	.L103:
 1520 0064 00000000 		.word	flagCloseIP
 1521 0068 00000000 		.word	GSMbuffRtaCommand
 1522 006c 14000000 		.word	.LC33
 1523              		.cfi_endproc
 1524              	.LFE26:
 1525              		.size	GSMCloseIP, .-GSMCloseIP
 1526              		.section	.rodata
 1527 0021 000000   		.align	2
 1528              	.LC39:
 1529 0024 53485554 		.ascii	"SHUT OK\000"
 1529      204F4B00 
 1530              		.align	2
 1531              	.LC41:
 1532 002c 0D0A3E20 		.ascii	"\015\012> \000"
 1532      00
 1533 0031 000000   		.align	2
 1534              	.LC43:
 1535 0034 41540D0D 		.ascii	"AT\015\015\012OK\015\012\000"
 1535      0A4F4B0D 
 1535      0A00
 1536 003e 0000     		.align	2
 1537              	.LC45:
 1538 0040 0D0A4F4B 		.ascii	"\015\012OK\015\012\000"
 1538      0D0A00
 1539 0047 00       		.align	2
 1540              	.LC47:
 1541 0048 0D0A4552 		.ascii	"\015\012ERROR\015\012\000"
 1541      524F520D 
 1541      0A00
 1542 0052 0000     		.align	2
 1543              	.LC54:
 1544 0054 3030303A 		.ascii	"000:\000"
 1544      00
 1545 0059 000000   		.align	2
 1546              	.LC57:
 1547 005c 2B434D54 		.ascii	"+CMTIDS: \"SM\",\000"
 1547      4944533A 
 1547      2022534D 
 1547      222C00
 1548 006b 00       		.align	2
 1549              	.LC60:
 1550 006c 2B434D54 		.ascii	"+CMTI: \"SM\",\000"
 1550      493A2022 
 1550      534D222C 
 1550      00
 1551 0079 000000   		.align	2
 1552              	.LC63:
 1553 007c 434C4F53 		.ascii	"CLOSED\000"
 1553      454400
 1554              		.section	.text.GSMReceive,"ax",%progbits
ARM GAS  /tmp/cc4fp2Bh.s 			page 41


 1555              		.align	2
 1556              		.global	GSMReceive
 1557              		.code	16
 1558              		.thumb_func
 1559              		.type	GSMReceive, %function
 1560              	GSMReceive:
 1561              	.LFB27:
 669:src/sim900_800.c **** 
 670:src/sim900_800.c **** //Procesa respuestas del modulo GSM ubicadas en el buffer buffUARTGSMrx2 con flag PacketReadyUARTGS
 671:src/sim900_800.c **** //revisa los flag de estados GSMConfigGPRSflag GSMSendCommandFlag y revisa respuestas no esperadas
 672:src/sim900_800.c **** //para respuestas no esperadas revisa SMS y avisa la cantidad con GSMCantSMS
 673:src/sim900_800.c **** //void GSMReceive (unsigned char * pAlertasReportar, char * puserCode, unsigned char * pclaveAct, u
 674:src/sim900_800.c **** void GSMReceive (void)
 675:src/sim900_800.c **** {
 1562              		.loc 1 675 0
 1563              		.cfi_startproc
 1564 0000 10B5     		push	{r4, lr}	@
 1565              	.LCFI7:
 1566              		.cfi_def_cfa_offset 8
 1567              		.cfi_offset 4, -8
 1568              		.cfi_offset 14, -4
 676:src/sim900_800.c **** 
 677:src/sim900_800.c **** 	//---- Comunicacion con modulo GSM ----//
 678:src/sim900_800.c **** 	if (PacketReadyUARTGSM)
 1569              		.loc 1 678 0
 1570 0002 8F4B     		ldr	r3, .L123	@ tmp148,
 1571 0004 1B78     		ldrb	r3, [r3]	@ tmp149, PacketReadyUARTGSM
 1572 0006 DBB2     		uxtb	r3, r3	@ D.7835, tmp149
 1573 0008 002B     		cmp	r3, #0	@ D.7835,
 1574 000a 00D1     		bne	.LCB1102	@
 1575 000c 15E1     		b	.L122	@long jump	@
 1576              	.LCB1102:
 679:src/sim900_800.c **** 	{
 680:src/sim900_800.c **** 		//TODO: para debug envio lo que llega
 681:src/sim900_800.c **** 		Usart2Send(buffUARTGSMrx2);
 1577              		.loc 1 681 0
 1578 000e 8D4B     		ldr	r3, .L123+4	@ tmp150,
 1579 0010 1800     		movs	r0, r3	@, tmp150
 1580 0012 FFF7FEFF 		bl	Usart2Send	@
 682:src/sim900_800.c **** 
 683:src/sim900_800.c **** 		if (GSMSendCommandFlag)
 1581              		.loc 1 683 0
 1582 0016 8C4B     		ldr	r3, .L123+8	@ tmp151,
 1583 0018 1B78     		ldrb	r3, [r3]	@ D.7835, GSMSendCommandFlag
 1584 001a 002B     		cmp	r3, #0	@ D.7835,
 1585 001c 52D0     		beq	.L107	@,
 684:src/sim900_800.c **** 		{
 685:src/sim900_800.c **** 			// if(!strncmp((const char *)&buffUARTGSMrx2[0], (const char *)"CLOSED", strlen((const char *)"C
 686:src/sim900_800.c **** 			// 	DB300flagConnGPRS = 1;
 687:src/sim900_800.c **** 
 688:src/sim900_800.c **** 			if (GSMSendCommandFlag == 3)
 1586              		.loc 1 688 0
 1587 001e 8A4B     		ldr	r3, .L123+8	@ tmp152,
 1588 0020 1B78     		ldrb	r3, [r3]	@ D.7835, GSMSendCommandFlag
 1589 0022 032B     		cmp	r3, #3	@ D.7835,
 1590 0024 36D1     		bne	.L108	@,
 689:src/sim900_800.c **** 			{
ARM GAS  /tmp/cc4fp2Bh.s 			page 42


 690:src/sim900_800.c **** 				if(!strncmp((const char *)&buffUARTGSMrx2[0], (const char *)&GSM_SENDOK[0], strlen((const char 
 1591              		.loc 1 690 0
 1592 0026 8949     		ldr	r1, .L123+12	@ tmp153,
 1593 0028 864B     		ldr	r3, .L123+4	@ tmp154,
 1594 002a 0722     		movs	r2, #7	@,
 1595 002c 1800     		movs	r0, r3	@, tmp154
 1596 002e FFF7FEFF 		bl	strncmp	@
 1597 0032 031E     		subs	r3, r0, #0	@ D.7836,,
 1598 0034 02D1     		bne	.L109	@,
 691:src/sim900_800.c **** 					GSMSendCommandFlag = 4;
 1599              		.loc 1 691 0
 1600 0036 844B     		ldr	r3, .L123+8	@ tmp155,
 1601 0038 0422     		movs	r2, #4	@ tmp156,
 1602 003a 1A70     		strb	r2, [r3]	@ tmp157, GSMSendCommandFlag
 1603              	.L109:
 692:src/sim900_800.c **** //				if(!strncmp((const char *)&buffUARTGSMrx2[0], (const char *)&GSM_OK[0], strlen((const char *)
 693:src/sim900_800.c **** //					GSMSendCommandFlag = 4;
 694:src/sim900_800.c **** 				if(!strncmp((const char *)&buffUARTGSMrx2[0], (const char *)"SHUT OK", strlen((const char *)"SH
 1604              		.loc 1 694 0
 1605 003c 8449     		ldr	r1, .L123+16	@ tmp158,
 1606 003e 814B     		ldr	r3, .L123+4	@ tmp159,
 1607 0040 0722     		movs	r2, #7	@,
 1608 0042 1800     		movs	r0, r3	@, tmp159
 1609 0044 FFF7FEFF 		bl	strncmp	@
 1610 0048 031E     		subs	r3, r0, #0	@ D.7836,,
 1611 004a 02D1     		bne	.L110	@,
 695:src/sim900_800.c **** 					GSMSendCommandFlag = 4;
 1612              		.loc 1 695 0
 1613 004c 7E4B     		ldr	r3, .L123+8	@ tmp160,
 1614 004e 0422     		movs	r2, #4	@ tmp161,
 1615 0050 1A70     		strb	r2, [r3]	@ tmp162, GSMSendCommandFlag
 1616              	.L110:
 696:src/sim900_800.c **** 				// if(!strncmp((const char *)&buffUARTGSMrx2[0], (const char *)"AT\r\n", sizeof "AT\r\n"))
 697:src/sim900_800.c **** 				// 	GSMSendCommandFlag = 4;
 698:src/sim900_800.c **** 				// if (GSMSendSMSState == 1)
 699:src/sim900_800.c **** 				// {
 700:src/sim900_800.c **** 					if(!strncmp((const char *)&buffUARTGSMrx2[0], (const char *)"\r\n> ", (sizeof("\r\n> ") - 1)))
 1617              		.loc 1 700 0
 1618 0052 8049     		ldr	r1, .L123+20	@ tmp163,
 1619 0054 7B4B     		ldr	r3, .L123+4	@ tmp164,
 1620 0056 0422     		movs	r2, #4	@,
 1621 0058 1800     		movs	r0, r3	@, tmp164
 1622 005a FFF7FEFF 		bl	strncmp	@
 1623 005e 031E     		subs	r3, r0, #0	@ D.7836,,
 1624 0060 02D1     		bne	.L111	@,
 701:src/sim900_800.c **** 					// if(!strncmp((const char *)&buffUARTGSMrx2[0], (const char *)"\r\n> ", sizeof("\r\n> ")))
 702:src/sim900_800.c **** 					// if(buffUARTGSMrx2[0] == '>')
 703:src/sim900_800.c **** 						GSMSendCommandFlag = 4;
 1625              		.loc 1 703 0
 1626 0062 794B     		ldr	r3, .L123+8	@ tmp165,
 1627 0064 0422     		movs	r2, #4	@ tmp166,
 1628 0066 1A70     		strb	r2, [r3]	@ tmp167, GSMSendCommandFlag
 1629              	.L111:
 704:src/sim900_800.c **** 				// }
 705:src/sim900_800.c **** 				if(!strncmp((const char *)&buffUARTGSMrx2[0], (const char *)"AT\r\r\nOK\r\n", sizeof "AT\r\r\nO
 1630              		.loc 1 705 0
 1631 0068 7B49     		ldr	r1, .L123+24	@ tmp168,
ARM GAS  /tmp/cc4fp2Bh.s 			page 43


 1632 006a 764B     		ldr	r3, .L123+4	@ tmp169,
 1633 006c 0A22     		movs	r2, #10	@,
 1634 006e 1800     		movs	r0, r3	@, tmp169
 1635 0070 FFF7FEFF 		bl	strncmp	@
 1636 0074 031E     		subs	r3, r0, #0	@ D.7836,,
 1637 0076 02D1     		bne	.L112	@,
 706:src/sim900_800.c **** 					GSMSendCommandFlag = 4;
 1638              		.loc 1 706 0
 1639 0078 734B     		ldr	r3, .L123+8	@ tmp170,
 1640 007a 0422     		movs	r2, #4	@ tmp171,
 1641 007c 1A70     		strb	r2, [r3]	@ tmp172, GSMSendCommandFlag
 1642              	.L112:
 707:src/sim900_800.c **** 				if(!strncmp((const char *)&buffUARTGSMrx2[0], (const char *)"\r\nOK\r\n", sizeof "\r\nOK\r\n"))
 1643              		.loc 1 707 0
 1644 007e 7749     		ldr	r1, .L123+28	@ tmp173,
 1645 0080 704B     		ldr	r3, .L123+4	@ tmp174,
 1646 0082 0722     		movs	r2, #7	@,
 1647 0084 1800     		movs	r0, r3	@, tmp174
 1648 0086 FFF7FEFF 		bl	strncmp	@
 1649 008a 031E     		subs	r3, r0, #0	@ D.7836,,
 1650 008c 02D1     		bne	.L108	@,
 708:src/sim900_800.c **** 					GSMSendCommandFlag = 4;
 1651              		.loc 1 708 0
 1652 008e 6E4B     		ldr	r3, .L123+8	@ tmp175,
 1653 0090 0422     		movs	r2, #4	@ tmp176,
 1654 0092 1A70     		strb	r2, [r3]	@ tmp177, GSMSendCommandFlag
 1655              	.L108:
 709:src/sim900_800.c **** 			}
 710:src/sim900_800.c **** 
 711:src/sim900_800.c **** 			// if(!strncmp((const char *)&buffUARTGSMrx2[0], (const char *)"000: NAK", sizeof("000: NAK") - 
 712:src/sim900_800.c **** 			// 	GSMSendCommandFlag = 5;
 713:src/sim900_800.c **** 
 714:src/sim900_800.c **** 
 715:src/sim900_800.c **** 
 716:src/sim900_800.c **** //			if(!strncmp((const char *)&buffUARTGSMrx2[0], (const char *)&GSM_ERR[0], strlen((const char *)
 717:src/sim900_800.c **** 			if(!strncmp((const char *)&buffUARTGSMrx2[0], (const char *) "\r\nERROR\r\n", sizeof("\r\nERROR\
 1656              		.loc 1 717 0
 1657 0094 7249     		ldr	r1, .L123+32	@ tmp178,
 1658 0096 6B4B     		ldr	r3, .L123+4	@ tmp179,
 1659 0098 0A22     		movs	r2, #10	@,
 1660 009a 1800     		movs	r0, r3	@, tmp179
 1661 009c FFF7FEFF 		bl	strncmp	@
 1662 00a0 031E     		subs	r3, r0, #0	@ D.7836,,
 1663 00a2 02D1     		bne	.L113	@,
 718:src/sim900_800.c **** 			{
 719:src/sim900_800.c **** 				GSMSendCommandFlag = 5;
 1664              		.loc 1 719 0
 1665 00a4 684B     		ldr	r3, .L123+8	@ tmp180,
 1666 00a6 0522     		movs	r2, #5	@ tmp181,
 1667 00a8 1A70     		strb	r2, [r3]	@ tmp182, GSMSendCommandFlag
 1668              	.L113:
 720:src/sim900_800.c **** 			}
 721:src/sim900_800.c **** 
 722:src/sim900_800.c **** 			if (GSMSendCommandFlag == 1)
 1669              		.loc 1 722 0
 1670 00aa 674B     		ldr	r3, .L123+8	@ tmp183,
 1671 00ac 1B78     		ldrb	r3, [r3]	@ D.7835, GSMSendCommandFlag
ARM GAS  /tmp/cc4fp2Bh.s 			page 44


 1672 00ae 012B     		cmp	r3, #1	@ D.7835,
 1673 00b0 08D1     		bne	.L107	@,
 723:src/sim900_800.c **** 			{
 724:src/sim900_800.c **** 				if(buffUARTGSMrx2[0] == GSM_RTA)
 1674              		.loc 1 724 0
 1675 00b2 644B     		ldr	r3, .L123+4	@ tmp184,
 1676 00b4 1B78     		ldrb	r3, [r3]	@ tmp185, buffUARTGSMrx2
 1677 00b6 DBB2     		uxtb	r3, r3	@ D.7835, tmp185
 1678 00b8 2B22     		movs	r2, #43	@ D.7835,
 1679 00ba 9342     		cmp	r3, r2	@ D.7835, D.7835
 1680 00bc 02D1     		bne	.L107	@,
 725:src/sim900_800.c **** 					GSMSendCommandFlag = 2;
 1681              		.loc 1 725 0
 1682 00be 624B     		ldr	r3, .L123+8	@ tmp186,
 1683 00c0 0222     		movs	r2, #2	@ tmp187,
 1684 00c2 1A70     		strb	r2, [r3]	@ tmp188, GSMSendCommandFlag
 1685              	.L107:
 726:src/sim900_800.c **** 			}
 727:src/sim900_800.c **** 
 728:src/sim900_800.c **** 		}
 729:src/sim900_800.c **** 
 730:src/sim900_800.c **** 		if(GSMConfigGPRSflag == 1)
 1686              		.loc 1 730 0
 1687 00c4 674B     		ldr	r3, .L123+36	@ tmp189,
 1688 00c6 1B78     		ldrb	r3, [r3]	@ D.7835, GSMConfigGPRSflag
 1689 00c8 012B     		cmp	r3, #1	@ D.7835,
 1690 00ca 10D1     		bne	.L114	@,
 731:src/sim900_800.c **** 		{
 732:src/sim900_800.c **** 			if(!strncmp((const char *)&buffUARTGSMrx2[0], (const char *)&GSM_IPSTATE[0], strlen((const char 
 1691              		.loc 1 732 0
 1692 00cc 6649     		ldr	r1, .L123+40	@ tmp190,
 1693 00ce 5D4B     		ldr	r3, .L123+4	@ tmp191,
 1694 00d0 0622     		movs	r2, #6	@,
 1695 00d2 1800     		movs	r0, r3	@, tmp191
 1696 00d4 FFF7FEFF 		bl	strncmp	@
 1697 00d8 031E     		subs	r3, r0, #0	@ D.7836,,
 1698 00da 08D1     		bne	.L114	@,
 733:src/sim900_800.c **** 			{
 734:src/sim900_800.c **** 				strcpy((char *)&GSMbuffStatus[0],(const char *)&buffUARTGSMrx2[sizeof(GSM_IPSTATE)]);
 1699              		.loc 1 734 0
 1700 00dc 634A     		ldr	r2, .L123+44	@ tmp192,
 1701 00de 644B     		ldr	r3, .L123+48	@ tmp193,
 1702 00e0 1100     		movs	r1, r2	@, tmp192
 1703 00e2 1800     		movs	r0, r3	@, tmp193
 1704 00e4 FFF7FEFF 		bl	strcpy	@
 735:src/sim900_800.c **** 				GSMConfigGPRSflag = 2;
 1705              		.loc 1 735 0
 1706 00e8 5E4B     		ldr	r3, .L123+36	@ tmp194,
 1707 00ea 0222     		movs	r2, #2	@ tmp195,
 1708 00ec 1A70     		strb	r2, [r3]	@ tmp196, GSMConfigGPRSflag
 1709              	.L114:
 736:src/sim900_800.c **** 			}
 737:src/sim900_800.c **** 		}
 738:src/sim900_800.c **** 
 739:src/sim900_800.c **** 		if(GSMConfigGPRSflag == 3)
 1710              		.loc 1 739 0
 1711 00ee 5D4B     		ldr	r3, .L123+36	@ tmp197,
ARM GAS  /tmp/cc4fp2Bh.s 			page 45


 1712 00f0 1B78     		ldrb	r3, [r3]	@ D.7835, GSMConfigGPRSflag
 1713 00f2 032B     		cmp	r3, #3	@ D.7835,
 1714 00f4 00D0     		beq	.LCB1232	@
 1715 00f6 65E0     		b	.L115	@long jump	@
 1716              	.LCB1232:
 740:src/sim900_800.c **** 		{
 741:src/sim900_800.c **** 			if ((buffUARTGSMrx2[0] > 47) && (buffUARTGSMrx2[0] < 59) && (buffUARTGSMrx2[1] > 47) && (buffUAR
 1717              		.loc 1 741 0
 1718 00f8 524B     		ldr	r3, .L123+4	@ tmp198,
 1719 00fa 1B78     		ldrb	r3, [r3]	@ tmp199, buffUARTGSMrx2
 1720 00fc DBB2     		uxtb	r3, r3	@ D.7835, tmp199
 1721 00fe 2F2B     		cmp	r3, #47	@ D.7835,
 1722 0100 26D9     		bls	.L116	@,
 1723              		.loc 1 741 0 is_stmt 0 discriminator 1
 1724 0102 504B     		ldr	r3, .L123+4	@ tmp200,
 1725 0104 1B78     		ldrb	r3, [r3]	@ tmp201, buffUARTGSMrx2
 1726 0106 DBB2     		uxtb	r3, r3	@ D.7835, tmp201
 1727 0108 3A2B     		cmp	r3, #58	@ D.7835,
 1728 010a 21D8     		bhi	.L116	@,
 1729              		.loc 1 741 0 discriminator 2
 1730 010c 4D4B     		ldr	r3, .L123+4	@ tmp202,
 1731 010e 5B78     		ldrb	r3, [r3, #1]	@ tmp204,
 1732 0110 DBB2     		uxtb	r3, r3	@ D.7835, tmp204
 1733 0112 2F2B     		cmp	r3, #47	@ D.7835,
 1734 0114 1CD9     		bls	.L116	@,
 1735              		.loc 1 741 0 discriminator 3
 1736 0116 4B4B     		ldr	r3, .L123+4	@ tmp205,
 1737 0118 5B78     		ldrb	r3, [r3, #1]	@ tmp207,
 1738 011a DBB2     		uxtb	r3, r3	@ D.7835, tmp207
 1739 011c 3A2B     		cmp	r3, #58	@ D.7835,
 1740 011e 17D8     		bhi	.L116	@,
 1741              		.loc 1 741 0 discriminator 4
 1742 0120 484B     		ldr	r3, .L123+4	@ tmp208,
 1743 0122 9B78     		ldrb	r3, [r3, #2]	@ tmp210,
 1744 0124 DBB2     		uxtb	r3, r3	@ D.7835, tmp210
 1745 0126 2F2B     		cmp	r3, #47	@ D.7835,
 1746 0128 12D9     		bls	.L116	@,
 1747              		.loc 1 741 0 discriminator 5
 1748 012a 464B     		ldr	r3, .L123+4	@ tmp211,
 1749 012c 9B78     		ldrb	r3, [r3, #2]	@ tmp213,
 1750 012e DBB2     		uxtb	r3, r3	@ D.7835, tmp213
 1751 0130 3A2B     		cmp	r3, #58	@ D.7835,
 1752 0132 0DD8     		bhi	.L116	@,
 1753              		.loc 1 741 0 discriminator 6
 1754 0134 434B     		ldr	r3, .L123+4	@ tmp214,
 1755 0136 DB78     		ldrb	r3, [r3, #3]	@ tmp216,
 1756 0138 DBB2     		uxtb	r3, r3	@ D.7835, tmp216
 1757 013a 2E2B     		cmp	r3, #46	@ D.7835,
 1758 013c 08D1     		bne	.L116	@,
 742:src/sim900_800.c **** 			{
 743:src/sim900_800.c **** 				strncpy((char *)&GSMIPadd[0],(const char *)&buffUARTGSMrx2[0], 16);
 1759              		.loc 1 743 0 is_stmt 1
 1760 013e 4149     		ldr	r1, .L123+4	@ tmp217,
 1761 0140 4C4B     		ldr	r3, .L123+52	@ tmp218,
 1762 0142 1022     		movs	r2, #16	@,
 1763 0144 1800     		movs	r0, r3	@, tmp218
 1764 0146 FFF7FEFF 		bl	strncpy	@
ARM GAS  /tmp/cc4fp2Bh.s 			page 46


 744:src/sim900_800.c **** 				GSMSendCommandFlag = 4;
 1765              		.loc 1 744 0
 1766 014a 3F4B     		ldr	r3, .L123+8	@ tmp219,
 1767 014c 0422     		movs	r2, #4	@ tmp220,
 1768 014e 1A70     		strb	r2, [r3]	@ tmp221, GSMSendCommandFlag
 1769              	.L116:
 745:src/sim900_800.c **** 			}
 746:src/sim900_800.c **** 			if ((buffUARTGSMrx2[0] > 47) && (buffUARTGSMrx2[0] < 59) && (buffUARTGSMrx2[1] > 47) && (buffUAR
 1770              		.loc 1 746 0
 1771 0150 3C4B     		ldr	r3, .L123+4	@ tmp222,
 1772 0152 1B78     		ldrb	r3, [r3]	@ tmp223, buffUARTGSMrx2
 1773 0154 DBB2     		uxtb	r3, r3	@ D.7835, tmp223
 1774 0156 2F2B     		cmp	r3, #47	@ D.7835,
 1775 0158 1CD9     		bls	.L117	@,
 1776              		.loc 1 746 0 is_stmt 0 discriminator 1
 1777 015a 3A4B     		ldr	r3, .L123+4	@ tmp224,
 1778 015c 1B78     		ldrb	r3, [r3]	@ tmp225, buffUARTGSMrx2
 1779 015e DBB2     		uxtb	r3, r3	@ D.7835, tmp225
 1780 0160 3A2B     		cmp	r3, #58	@ D.7835,
 1781 0162 17D8     		bhi	.L117	@,
 1782              		.loc 1 746 0 discriminator 2
 1783 0164 374B     		ldr	r3, .L123+4	@ tmp226,
 1784 0166 5B78     		ldrb	r3, [r3, #1]	@ tmp228,
 1785 0168 DBB2     		uxtb	r3, r3	@ D.7835, tmp228
 1786 016a 2F2B     		cmp	r3, #47	@ D.7835,
 1787 016c 12D9     		bls	.L117	@,
 1788              		.loc 1 746 0 discriminator 3
 1789 016e 354B     		ldr	r3, .L123+4	@ tmp229,
 1790 0170 5B78     		ldrb	r3, [r3, #1]	@ tmp231,
 1791 0172 DBB2     		uxtb	r3, r3	@ D.7835, tmp231
 1792 0174 3A2B     		cmp	r3, #58	@ D.7835,
 1793 0176 0DD8     		bhi	.L117	@,
 1794              		.loc 1 746 0 discriminator 4
 1795 0178 324B     		ldr	r3, .L123+4	@ tmp232,
 1796 017a 9B78     		ldrb	r3, [r3, #2]	@ tmp234,
 1797 017c DBB2     		uxtb	r3, r3	@ D.7835, tmp234
 1798 017e 2E2B     		cmp	r3, #46	@ D.7835,
 1799 0180 08D1     		bne	.L117	@,
 747:src/sim900_800.c **** 			{
 748:src/sim900_800.c **** 				strncpy((char *)&GSMIPadd[0],(const char *)&buffUARTGSMrx2[0], 16);
 1800              		.loc 1 748 0 is_stmt 1
 1801 0182 3049     		ldr	r1, .L123+4	@ tmp235,
 1802 0184 3B4B     		ldr	r3, .L123+52	@ tmp236,
 1803 0186 1022     		movs	r2, #16	@,
 1804 0188 1800     		movs	r0, r3	@, tmp236
 1805 018a FFF7FEFF 		bl	strncpy	@
 749:src/sim900_800.c **** 				GSMSendCommandFlag = 4;
 1806              		.loc 1 749 0
 1807 018e 2E4B     		ldr	r3, .L123+8	@ tmp237,
 1808 0190 0422     		movs	r2, #4	@ tmp238,
 1809 0192 1A70     		strb	r2, [r3]	@ tmp239, GSMSendCommandFlag
 1810              	.L117:
 750:src/sim900_800.c **** 			}
 751:src/sim900_800.c **** 			if ((buffUARTGSMrx2[0] > 47) && (buffUARTGSMrx2[0] < 59) && buffUARTGSMrx2[1] == '.')
 1811              		.loc 1 751 0
 1812 0194 2B4B     		ldr	r3, .L123+4	@ tmp240,
 1813 0196 1B78     		ldrb	r3, [r3]	@ tmp241, buffUARTGSMrx2
ARM GAS  /tmp/cc4fp2Bh.s 			page 47


 1814 0198 DBB2     		uxtb	r3, r3	@ D.7835, tmp241
 1815 019a 2F2B     		cmp	r3, #47	@ D.7835,
 1816 019c 12D9     		bls	.L115	@,
 1817              		.loc 1 751 0 is_stmt 0 discriminator 1
 1818 019e 294B     		ldr	r3, .L123+4	@ tmp242,
 1819 01a0 1B78     		ldrb	r3, [r3]	@ tmp243, buffUARTGSMrx2
 1820 01a2 DBB2     		uxtb	r3, r3	@ D.7835, tmp243
 1821 01a4 3A2B     		cmp	r3, #58	@ D.7835,
 1822 01a6 0DD8     		bhi	.L115	@,
 1823              		.loc 1 751 0 discriminator 2
 1824 01a8 264B     		ldr	r3, .L123+4	@ tmp244,
 1825 01aa 5B78     		ldrb	r3, [r3, #1]	@ tmp246,
 1826 01ac DBB2     		uxtb	r3, r3	@ D.7835, tmp246
 1827 01ae 2E2B     		cmp	r3, #46	@ D.7835,
 1828 01b0 08D1     		bne	.L115	@,
 752:src/sim900_800.c **** 			{
 753:src/sim900_800.c **** 				strncpy((char *)&GSMIPadd[0],(const char *)&buffUARTGSMrx2[0], 16);
 1829              		.loc 1 753 0 is_stmt 1
 1830 01b2 2449     		ldr	r1, .L123+4	@ tmp247,
 1831 01b4 2F4B     		ldr	r3, .L123+52	@ tmp248,
 1832 01b6 1022     		movs	r2, #16	@,
 1833 01b8 1800     		movs	r0, r3	@, tmp248
 1834 01ba FFF7FEFF 		bl	strncpy	@
 754:src/sim900_800.c **** 				GSMSendCommandFlag = 4;
 1835              		.loc 1 754 0
 1836 01be 224B     		ldr	r3, .L123+8	@ tmp249,
 1837 01c0 0422     		movs	r2, #4	@ tmp250,
 1838 01c2 1A70     		strb	r2, [r3]	@ tmp251, GSMSendCommandFlag
 1839              	.L115:
 755:src/sim900_800.c **** 			}
 756:src/sim900_800.c **** 		}
 757:src/sim900_800.c **** 
 758:src/sim900_800.c **** 		//respuestas no esperadas
 759:src/sim900_800.c **** 		//respuestas no esperadas
 760:src/sim900_800.c **** 
 761:src/sim900_800.c **** 		if (!strncmp((char *)&buffUARTGSMrx2[0], (const char *)"000:", sizeof ("000:") -1))
 1840              		.loc 1 761 0
 1841 01c4 2C49     		ldr	r1, .L123+56	@ tmp252,
 1842 01c6 1F4B     		ldr	r3, .L123+4	@ tmp253,
 1843 01c8 0422     		movs	r2, #4	@,
 1844 01ca 1800     		movs	r0, r3	@, tmp253
 1845 01cc FFF7FEFF 		bl	strncmp	@
 1846 01d0 031E     		subs	r3, r0, #0	@ D.7836,,
 1847 01d2 05D1     		bne	.L118	@,
 762:src/sim900_800.c **** 		{
 763:src/sim900_800.c **** 			strcpy(&GSMReadSMSrepIn[0], (const char *)&buffUARTGSMrx2[0]);
 1848              		.loc 1 763 0
 1849 01d4 1B4A     		ldr	r2, .L123+4	@ tmp254,
 1850 01d6 294B     		ldr	r3, .L123+60	@ tmp255,
 1851 01d8 1100     		movs	r1, r2	@, tmp254
 1852 01da 1800     		movs	r0, r3	@, tmp255
 1853 01dc FFF7FEFF 		bl	strcpy	@
 1854              	.L118:
 764:src/sim900_800.c **** 		}
 765:src/sim900_800.c **** 		if (!strncmp((char *)&buffUARTGSMrx2[0], (const char *)"+CMTIDS: \"SM\",", sizeof ("+CMTIDS: \"SM
 1855              		.loc 1 765 0
 1856 01e0 2749     		ldr	r1, .L123+64	@ tmp256,
ARM GAS  /tmp/cc4fp2Bh.s 			page 48


 1857 01e2 184B     		ldr	r3, .L123+4	@ tmp257,
 1858 01e4 0E22     		movs	r2, #14	@,
 1859 01e6 1800     		movs	r0, r3	@, tmp257
 1860 01e8 FFF7FEFF 		bl	strncmp	@
 1861 01ec 031E     		subs	r3, r0, #0	@ D.7836,,
 1862 01ee 07D1     		bne	.L119	@,
 766:src/sim900_800.c **** 		{
 767:src/sim900_800.c **** 			GSMCantSMS2 = buffUARTGSMrx2[14] - 48;
 1863              		.loc 1 767 0
 1864 01f0 144B     		ldr	r3, .L123+4	@ tmp258,
 1865 01f2 9B7B     		ldrb	r3, [r3, #14]	@ tmp260,
 1866 01f4 DBB2     		uxtb	r3, r3	@ D.7835, tmp260
 1867 01f6 303B     		subs	r3, r3, #48	@ tmp261,
 1868 01f8 DAB2     		uxtb	r2, r3	@ D.7837, tmp261
 1869 01fa 224B     		ldr	r3, .L123+68	@ tmp262,
 1870 01fc 1A70     		strb	r2, [r3]	@ tmp263, GSMCantSMS2
 1871 01fe 0EE0     		b	.L120	@
 1872              	.L119:
 768:src/sim900_800.c **** 		}
 769:src/sim900_800.c **** 		else if (!strncmp((char *)&buffUARTGSMrx2[0], (const char *)"+CMTI: \"SM\",", sizeof ("+CMTI: \"S
 1873              		.loc 1 769 0
 1874 0200 2149     		ldr	r1, .L123+72	@ tmp264,
 1875 0202 104B     		ldr	r3, .L123+4	@ tmp265,
 1876 0204 0C22     		movs	r2, #12	@,
 1877 0206 1800     		movs	r0, r3	@, tmp265
 1878 0208 FFF7FEFF 		bl	strncmp	@
 1879 020c 031E     		subs	r3, r0, #0	@ D.7836,,
 1880 020e 06D1     		bne	.L120	@,
 770:src/sim900_800.c **** 		{
 771:src/sim900_800.c **** 			GSMCantSMS = buffUARTGSMrx2[12] - 48;
 1881              		.loc 1 771 0
 1882 0210 0C4B     		ldr	r3, .L123+4	@ tmp266,
 1883 0212 1B7B     		ldrb	r3, [r3, #12]	@ tmp268,
 1884 0214 DBB2     		uxtb	r3, r3	@ D.7835, tmp268
 1885 0216 303B     		subs	r3, r3, #48	@ tmp269,
 1886 0218 DAB2     		uxtb	r2, r3	@ D.7837, tmp269
 1887 021a 1C4B     		ldr	r3, .L123+76	@ tmp270,
 1888 021c 1A70     		strb	r2, [r3]	@ tmp271, GSMCantSMS
 1889              	.L120:
 772:src/sim900_800.c **** 		}
 773:src/sim900_800.c **** 
 774:src/sim900_800.c **** //		if(!strncmp((const char *)&buffUARTGSMrx2[0], (const char *)"000: EST,", strlen((const char *)"
 775:src/sim900_800.c **** //			*pAlertasReportar |= 0x80;
 776:src/sim900_800.c **** //
 777:src/sim900_800.c **** //		if(!strncmp((const char *)&buffUARTGSMrx2[0], (const char *)"000: ARM,", strlen((const char *)"
 778:src/sim900_800.c **** //		{
 779:src/sim900_800.c **** //			if (!strncmp((const char *)&buffUARTGSMrx2[9], (const char *)puserCode, strlen((const char *)p
 780:src/sim900_800.c **** //			{
 781:src/sim900_800.c **** //				strncpy((char *) pclaveAct, (const char *)&buffUARTGSMrx2[16], 4);
 782:src/sim900_800.c **** //
 783:src/sim900_800.c **** //				*pActDact |= 0x40; //Armar
 784:src/sim900_800.c **** //			}
 785:src/sim900_800.c **** //		}
 786:src/sim900_800.c **** 
 787:src/sim900_800.c **** 		if(!strncmp((const char *)&buffUARTGSMrx2[0], (const char *)"CLOSED", strlen((const char *)"CLOSE
 1890              		.loc 1 787 0
 1891 021e 1C49     		ldr	r1, .L123+80	@ tmp272,
ARM GAS  /tmp/cc4fp2Bh.s 			page 49


 1892 0220 084B     		ldr	r3, .L123+4	@ tmp273,
 1893 0222 0622     		movs	r2, #6	@,
 1894 0224 1800     		movs	r0, r3	@, tmp273
 1895 0226 FFF7FEFF 		bl	strncmp	@
 1896 022a 031E     		subs	r3, r0, #0	@ D.7836,,
 1897 022c 02D1     		bne	.L121	@,
 788:src/sim900_800.c **** 		{
 789:src/sim900_800.c **** 			flagCloseIP = 1;
 1898              		.loc 1 789 0
 1899 022e 194B     		ldr	r3, .L123+84	@ tmp274,
 1900 0230 0122     		movs	r2, #1	@ tmp275,
 1901 0232 1A70     		strb	r2, [r3]	@ tmp276, flagCloseIP
 1902              	.L121:
 790:src/sim900_800.c **** 		}
 791:src/sim900_800.c **** 
 792:src/sim900_800.c **** //		if(!strncmp((const char *)&buffUARTGSMrx2[0], (const char *)"000: DRM,", strlen((const char *)"
 793:src/sim900_800.c **** //		{
 794:src/sim900_800.c **** //			if (!strncmp((const char *)&buffUARTGSMrx2[9], (const char *)puserCode, strlen((const char *)p
 795:src/sim900_800.c **** //			{
 796:src/sim900_800.c **** //				strncpy((char *) pclaveAct, (const char *)&buffUARTGSMrx2[16], 4);
 797:src/sim900_800.c **** //
 798:src/sim900_800.c **** //				*pActDact |= 0x80; //Desarmar
 799:src/sim900_800.c **** //			}
 800:src/sim900_800.c **** //		}
 801:src/sim900_800.c **** /*		if(!strncmp((const char *)&buffUARTGSMrx2[0], (const char *)"000: ARM", sizeof("000: ARM") - 1)
 802:src/sim900_800.c **** 		{
 803:src/sim900_800.c **** 			if (!strncmp((const char *)&buffUARTGSMrx2[9], (const char *)puserCode, strlen((const char *)pus
 804:src/sim900_800.c **** 			{
 805:src/sim900_800.c **** 				strncpy((char *) pclaveAct, (const char *)&buffUARTGSMrx2[16], 4);
 806:src/sim900_800.c **** 
 807:src/sim900_800.c **** 				*pActDact |= 0x40; //Armar
 808:src/sim900_800.c **** 				*pActDact |= 0x01; //SendOK.
 809:src/sim900_800.c **** 			}
 810:src/sim900_800.c **** 		}
 811:src/sim900_800.c **** 
 812:src/sim900_800.c **** 		if(!strncmp((const char *)&buffUARTGSMrx2[0], (const char *)"000: DRM", sizeof("000: DRM") - 1))
 813:src/sim900_800.c **** 		{
 814:src/sim900_800.c **** 			if (!strncmp((const char *)&buffUARTGSMrx2[9], (const char *)puserCode, strlen((const char *)pus
 815:src/sim900_800.c **** 			{
 816:src/sim900_800.c **** 				strncpy((char *) pclaveAct, (const char *)&buffUARTGSMrx2[16], 4);
 817:src/sim900_800.c **** 
 818:src/sim900_800.c **** 				*pActDact |= 0x80; //Desrmar
 819:src/sim900_800.c **** 				*pActDact |= 0x01; //SendOK.
 820:src/sim900_800.c **** 			}
 821:src/sim900_800.c **** 		}
 822:src/sim900_800.c **** */
 823:src/sim900_800.c **** 		PacketReadyUARTGSM = 0;
 1903              		.loc 1 823 0
 1904 0234 024B     		ldr	r3, .L123	@ tmp277,
 1905 0236 0022     		movs	r2, #0	@ tmp278,
 1906 0238 1A70     		strb	r2, [r3]	@ tmp279, PacketReadyUARTGSM
 1907              	.L122:
 824:src/sim900_800.c **** 	}
 825:src/sim900_800.c **** }
 1908              		.loc 1 825 0
 1909 023a C046     		nop
 1910              		@ sp needed	@
ARM GAS  /tmp/cc4fp2Bh.s 			page 50


 1911 023c 10BD     		pop	{r4, pc}
 1912              	.L124:
 1913 023e C046     		.align	2
 1914              	.L123:
 1915 0240 00000000 		.word	PacketReadyUARTGSM
 1916 0244 00000000 		.word	buffUARTGSMrx2
 1917 0248 00000000 		.word	GSMSendCommandFlag
 1918 024c 00000000 		.word	GSM_SENDOK
 1919 0250 24000000 		.word	.LC39
 1920 0254 2C000000 		.word	.LC41
 1921 0258 34000000 		.word	.LC43
 1922 025c 40000000 		.word	.LC45
 1923 0260 48000000 		.word	.LC47
 1924 0264 00000000 		.word	GSMConfigGPRSflag
 1925 0268 00000000 		.word	GSM_IPSTATE
 1926 026c 07000000 		.word	buffUARTGSMrx2+7
 1927 0270 00000000 		.word	GSMbuffStatus
 1928 0274 00000000 		.word	GSMIPadd
 1929 0278 54000000 		.word	.LC54
 1930 027c 00000000 		.word	GSMReadSMSrepIn
 1931 0280 5C000000 		.word	.LC57
 1932 0284 00000000 		.word	GSMCantSMS2
 1933 0288 6C000000 		.word	.LC60
 1934 028c 00000000 		.word	GSMCantSMS
 1935 0290 7C000000 		.word	.LC63
 1936 0294 00000000 		.word	flagCloseIP
 1937              		.cfi_endproc
 1938              	.LFE27:
 1939              		.size	GSMReceive, .-GSMReceive
 1940              		.section	.text.GSMSendCommand,"ax",%progbits
 1941              		.align	2
 1942              		.global	GSMSendCommand
 1943              		.code	16
 1944              		.thumb_func
 1945              		.type	GSMSendCommand, %function
 1946              	GSMSendCommand:
 1947              	.LFB28:
 826:src/sim900_800.c **** 
 827:src/sim900_800.c **** //-----------------------------------------------------//
 828:src/sim900_800.c **** //char GSMSendCommand (char *ptrCommand, unsigned char timeOut, unsigned char rta, char *ptrRta)
 829:src/sim900_800.c **** //----------------------------------------------------//
 830:src/sim900_800.c **** //ptrCommand: Comando a enviar.
 831:src/sim900_800.c **** //ptrRta: Respuesta al comando desde sim900.
 832:src/sim900_800.c **** //rta: 0: No espera rta. 1: Espera respuesta antes de OK.
 833:src/sim900_800.c **** //TO: time out. en ms
 834:src/sim900_800.c **** //----------------------------------------------------//
 835:src/sim900_800.c **** //Wait: 	1
 836:src/sim900_800.c **** //OK: 		2
 837:src/sim900_800.c **** //ERR:		3
 838:src/sim900_800.c **** //TO:
 839:src/sim900_800.c **** //NO OK:	4
 840:src/sim900_800.c **** //NO RTA: 	5
 841:src/sim900_800.c **** //----------------------------------------------------//
 842:src/sim900_800.c **** char GSMSendCommand (char *ptrCommand, unsigned short timeOut, unsigned char rta, char *ptrRta)
 843:src/sim900_800.c **** {
 1948              		.loc 1 843 0
 1949              		.cfi_startproc
ARM GAS  /tmp/cc4fp2Bh.s 			page 51


 1950 0000 00B5     		push	{lr}	@
 1951              	.LCFI8:
 1952              		.cfi_def_cfa_offset 4
 1953              		.cfi_offset 14, -4
 1954 0002 85B0     		sub	sp, sp, #20	@,,
 1955              	.LCFI9:
 1956              		.cfi_def_cfa_offset 24
 1957 0004 0390     		str	r0, [sp, #12]	@ ptrCommand, ptrCommand
 1958 0006 0800     		movs	r0, r1	@ tmp127, timeOut
 1959 0008 1100     		movs	r1, r2	@ tmp130, rta
 1960 000a 0193     		str	r3, [sp, #4]	@ ptrRta, ptrRta
 1961 000c 0A23     		movs	r3, #10	@ tmp128,
 1962 000e 6B44     		add	r3, r3, sp	@ tmp128,
 1963 0010 021C     		adds	r2, r0, #0	@ tmp129, tmp127
 1964 0012 1A80     		strh	r2, [r3]	@ tmp129, timeOut
 1965 0014 0923     		movs	r3, #9	@ tmp131,
 1966 0016 6B44     		add	r3, r3, sp	@ tmp131,
 1967 0018 0A1C     		adds	r2, r1, #0	@ tmp132, tmp130
 1968 001a 1A70     		strb	r2, [r3]	@ tmp132, rta
 844:src/sim900_800.c **** 	switch(GSMSendCommandState)
 1969              		.loc 1 844 0
 1970 001c 474B     		ldr	r3, .L143	@ tmp133,
 1971 001e 1B78     		ldrb	r3, [r3]	@ D.7847, GSMSendCommandState
 1972 0020 012B     		cmp	r3, #1	@ D.7848,
 1973 0022 1AD0     		beq	.L127	@,
 1974 0024 02DC     		bgt	.L128	@,
 1975 0026 002B     		cmp	r3, #0	@ D.7848,
 1976 0028 05D0     		beq	.L129	@,
 1977 002a 56E0     		b	.L126	@
 1978              	.L128:
 1979 002c 022B     		cmp	r3, #2	@ D.7848,
 1980 002e 34D0     		beq	.L130	@,
 1981 0030 032B     		cmp	r3, #3	@ D.7848,
 1982 0032 46D0     		beq	.L131	@,
 1983 0034 51E0     		b	.L126	@
 1984              	.L129:
 845:src/sim900_800.c **** 	{
 846:src/sim900_800.c **** 		case 0:
 847:src/sim900_800.c **** 			GSMSendCommandFlag = 0;
 1985              		.loc 1 847 0
 1986 0036 424B     		ldr	r3, .L143+4	@ tmp134,
 1987 0038 0022     		movs	r2, #0	@ tmp135,
 1988 003a 1A70     		strb	r2, [r3]	@ tmp136, GSMSendCommandFlag
 848:src/sim900_800.c **** 			GSMSendCommandTimeOut = timeOut;
 1989              		.loc 1 848 0
 1990 003c 414B     		ldr	r3, .L143+8	@ tmp137,
 1991 003e 0A22     		movs	r2, #10	@ tmp138,
 1992 0040 6A44     		add	r2, r2, sp	@ tmp138,
 1993 0042 1288     		ldrh	r2, [r2]	@ tmp139, timeOut
 1994 0044 1A80     		strh	r2, [r3]	@ tmp139, GSMSendCommandTimeOut
 849:src/sim900_800.c **** 			GSMSendCommandState++;
 1995              		.loc 1 849 0
 1996 0046 3D4B     		ldr	r3, .L143	@ tmp140,
 1997 0048 1B78     		ldrb	r3, [r3]	@ D.7847, GSMSendCommandState
 1998 004a 0133     		adds	r3, r3, #1	@ tmp141,
 1999 004c DAB2     		uxtb	r2, r3	@ D.7847, tmp141
 2000 004e 3B4B     		ldr	r3, .L143	@ tmp142,
ARM GAS  /tmp/cc4fp2Bh.s 			page 52


 2001 0050 1A70     		strb	r2, [r3]	@ tmp143, GSMSendCommandState
 850:src/sim900_800.c **** 			GSMSendCommandIntento = 0;
 2002              		.loc 1 850 0
 2003 0052 3D4B     		ldr	r3, .L143+12	@ tmp144,
 2004 0054 0022     		movs	r2, #0	@ tmp145,
 2005 0056 1A70     		strb	r2, [r3]	@ tmp146, GSMSendCommandIntento
 851:src/sim900_800.c **** 			break;
 2006              		.loc 1 851 0
 2007 0058 46E0     		b	.L132	@
 2008              	.L127:
 852:src/sim900_800.c **** 
 853:src/sim900_800.c **** 		case 1:
 854:src/sim900_800.c **** 			if (rta)
 2009              		.loc 1 854 0
 2010 005a 0923     		movs	r3, #9	@ tmp147,
 2011 005c 6B44     		add	r3, r3, sp	@ tmp147,
 2012 005e 1B78     		ldrb	r3, [r3]	@ tmp148, rta
 2013 0060 002B     		cmp	r3, #0	@ tmp148,
 2014 0062 06D0     		beq	.L133	@,
 855:src/sim900_800.c **** 			{
 856:src/sim900_800.c **** 				GSMSendCommandState = 2;
 2015              		.loc 1 856 0
 2016 0064 354B     		ldr	r3, .L143	@ tmp149,
 2017 0066 0222     		movs	r2, #2	@ tmp150,
 2018 0068 1A70     		strb	r2, [r3]	@ tmp151, GSMSendCommandState
 857:src/sim900_800.c **** 				GSMSendCommandFlag = 1;
 2019              		.loc 1 857 0
 2020 006a 354B     		ldr	r3, .L143+4	@ tmp152,
 2021 006c 0122     		movs	r2, #1	@ tmp153,
 2022 006e 1A70     		strb	r2, [r3]	@ tmp154, GSMSendCommandFlag
 2023 0070 05E0     		b	.L134	@
 2024              	.L133:
 858:src/sim900_800.c **** 			}
 859:src/sim900_800.c **** 			else
 860:src/sim900_800.c **** 			{
 861:src/sim900_800.c **** 				GSMSendCommandState = 3;
 2025              		.loc 1 861 0
 2026 0072 324B     		ldr	r3, .L143	@ tmp155,
 2027 0074 0322     		movs	r2, #3	@ tmp156,
 2028 0076 1A70     		strb	r2, [r3]	@ tmp157, GSMSendCommandState
 862:src/sim900_800.c **** 				GSMSendCommandFlag = 3;
 2029              		.loc 1 862 0
 2030 0078 314B     		ldr	r3, .L143+4	@ tmp158,
 2031 007a 0322     		movs	r2, #3	@ tmp159,
 2032 007c 1A70     		strb	r2, [r3]	@ tmp160, GSMSendCommandFlag
 2033              	.L134:
 863:src/sim900_800.c **** 			}
 864:src/sim900_800.c **** 
 865:src/sim900_800.c **** 			if (GSMSendCommandIntento == 1)
 2034              		.loc 1 865 0
 2035 007e 324B     		ldr	r3, .L143+12	@ tmp161,
 2036 0080 1B78     		ldrb	r3, [r3]	@ D.7847, GSMSendCommandIntento
 2037 0082 012B     		cmp	r3, #1	@ D.7847,
 2038 0084 04D1     		bne	.L135	@,
 866:src/sim900_800.c **** 			{
 867:src/sim900_800.c **** 				GSMSendCommandState = 0;
 2039              		.loc 1 867 0
ARM GAS  /tmp/cc4fp2Bh.s 			page 53


 2040 0086 2D4B     		ldr	r3, .L143	@ tmp162,
 2041 0088 0022     		movs	r2, #0	@ tmp163,
 2042 008a 1A70     		strb	r2, [r3]	@ tmp164, GSMSendCommandState
 868:src/sim900_800.c **** 				return 4;
 2043              		.loc 1 868 0
 2044 008c 0423     		movs	r3, #4	@ D.7847,
 2045 008e 51E0     		b	.L136	@
 2046              	.L135:
 869:src/sim900_800.c **** 			}
 870:src/sim900_800.c **** 			else
 871:src/sim900_800.c **** 			{
 872:src/sim900_800.c **** 				UARTGSMSend(&ptrCommand[0]);
 2047              		.loc 1 872 0
 2048 0090 039B     		ldr	r3, [sp, #12]	@ tmp165, ptrCommand
 2049 0092 1800     		movs	r0, r3	@, tmp165
 2050 0094 FFF7FEFF 		bl	Usart1Send	@
 873:src/sim900_800.c **** 			}
 874:src/sim900_800.c **** 			break;
 2051              		.loc 1 874 0
 2052 0098 26E0     		b	.L132	@
 2053              	.L130:
 875:src/sim900_800.c **** 
 876:src/sim900_800.c **** 		case 2:
 877:src/sim900_800.c **** 			//Espera rta.
 878:src/sim900_800.c **** 			if (GSMSendCommandFlag == 2)
 2054              		.loc 1 878 0
 2055 009a 294B     		ldr	r3, .L143+4	@ tmp166,
 2056 009c 1B78     		ldrb	r3, [r3]	@ D.7847, GSMSendCommandFlag
 2057 009e 022B     		cmp	r3, #2	@ D.7847,
 2058 00a0 1FD1     		bne	.L141	@,
 879:src/sim900_800.c **** 			{
 880:src/sim900_800.c **** 				GSMSendCommandFlag = 3;
 2059              		.loc 1 880 0
 2060 00a2 274B     		ldr	r3, .L143+4	@ tmp167,
 2061 00a4 0322     		movs	r2, #3	@ tmp168,
 2062 00a6 1A70     		strb	r2, [r3]	@ tmp169, GSMSendCommandFlag
 881:src/sim900_800.c **** 				GSMSendCommandState++;
 2063              		.loc 1 881 0
 2064 00a8 244B     		ldr	r3, .L143	@ tmp170,
 2065 00aa 1B78     		ldrb	r3, [r3]	@ D.7847, GSMSendCommandState
 2066 00ac 0133     		adds	r3, r3, #1	@ tmp171,
 2067 00ae DAB2     		uxtb	r2, r3	@ D.7847, tmp171
 2068 00b0 224B     		ldr	r3, .L143	@ tmp172,
 2069 00b2 1A70     		strb	r2, [r3]	@ tmp173, GSMSendCommandState
 882:src/sim900_800.c **** 				//Rta obtenida.
 883:src/sim900_800.c **** 				strcpy((char *)ptrRta, (const char *)&buffUARTGSMrx2[0]);
 2070              		.loc 1 883 0
 2071 00b4 254A     		ldr	r2, .L143+16	@ tmp174,
 2072 00b6 019B     		ldr	r3, [sp, #4]	@ tmp175, ptrRta
 2073 00b8 1100     		movs	r1, r2	@, tmp174
 2074 00ba 1800     		movs	r0, r3	@, tmp175
 2075 00bc FFF7FEFF 		bl	strcpy	@
 884:src/sim900_800.c **** 			}
 885:src/sim900_800.c **** 			break;
 2076              		.loc 1 885 0
 2077 00c0 0FE0     		b	.L141	@
 2078              	.L131:
ARM GAS  /tmp/cc4fp2Bh.s 			page 54


 886:src/sim900_800.c **** 
 887:src/sim900_800.c **** 		case 3:
 888:src/sim900_800.c **** 			//Espera OK.
 889:src/sim900_800.c **** 			if (GSMSendCommandFlag == 4)
 2079              		.loc 1 889 0
 2080 00c2 1F4B     		ldr	r3, .L143+4	@ tmp176,
 2081 00c4 1B78     		ldrb	r3, [r3]	@ D.7847, GSMSendCommandFlag
 2082 00c6 042B     		cmp	r3, #4	@ D.7847,
 2083 00c8 0DD1     		bne	.L142	@,
 890:src/sim900_800.c **** 			{
 891:src/sim900_800.c **** 				//OK recibido.
 892:src/sim900_800.c **** 				GSMSendCommandFlag = 0;
 2084              		.loc 1 892 0
 2085 00ca 1D4B     		ldr	r3, .L143+4	@ tmp177,
 2086 00cc 0022     		movs	r2, #0	@ tmp178,
 2087 00ce 1A70     		strb	r2, [r3]	@ tmp179, GSMSendCommandFlag
 893:src/sim900_800.c **** 				GSMSendCommandState = 0;
 2088              		.loc 1 893 0
 2089 00d0 1A4B     		ldr	r3, .L143	@ tmp180,
 2090 00d2 0022     		movs	r2, #0	@ tmp181,
 2091 00d4 1A70     		strb	r2, [r3]	@ tmp182, GSMSendCommandState
 894:src/sim900_800.c **** 				return 2;
 2092              		.loc 1 894 0
 2093 00d6 0223     		movs	r3, #2	@ D.7847,
 2094 00d8 2CE0     		b	.L136	@
 2095              	.L126:
 895:src/sim900_800.c **** 			}
 896:src/sim900_800.c **** 			break;
 897:src/sim900_800.c **** 
 898:src/sim900_800.c **** 		default:
 899:src/sim900_800.c **** 			GSMSendCommandState = 0;
 2096              		.loc 1 899 0
 2097 00da 184B     		ldr	r3, .L143	@ tmp183,
 2098 00dc 0022     		movs	r2, #0	@ tmp184,
 2099 00de 1A70     		strb	r2, [r3]	@ tmp185, GSMSendCommandState
 900:src/sim900_800.c **** 			break;
 2100              		.loc 1 900 0
 2101 00e0 02E0     		b	.L132	@
 2102              	.L141:
 885:src/sim900_800.c **** 
 2103              		.loc 1 885 0
 2104 00e2 C046     		nop
 2105 00e4 00E0     		b	.L132	@
 2106              	.L142:
 896:src/sim900_800.c **** 
 2107              		.loc 1 896 0
 2108 00e6 C046     		nop
 2109              	.L132:
 901:src/sim900_800.c **** 	}
 902:src/sim900_800.c **** 
 903:src/sim900_800.c **** 	if (GSMSendCommandFlag == 5)
 2110              		.loc 1 903 0
 2111 00e8 154B     		ldr	r3, .L143+4	@ tmp186,
 2112 00ea 1B78     		ldrb	r3, [r3]	@ D.7847, GSMSendCommandFlag
 2113 00ec 052B     		cmp	r3, #5	@ D.7847,
 2114 00ee 0DD1     		bne	.L139	@,
 904:src/sim900_800.c **** 	{
ARM GAS  /tmp/cc4fp2Bh.s 			page 55


 905:src/sim900_800.c **** 		GSMSendCommandIntento++;
 2115              		.loc 1 905 0
 2116 00f0 154B     		ldr	r3, .L143+12	@ tmp187,
 2117 00f2 1B78     		ldrb	r3, [r3]	@ D.7847, GSMSendCommandIntento
 2118 00f4 0133     		adds	r3, r3, #1	@ tmp188,
 2119 00f6 DAB2     		uxtb	r2, r3	@ D.7847, tmp188
 2120 00f8 134B     		ldr	r3, .L143+12	@ tmp189,
 2121 00fa 1A70     		strb	r2, [r3]	@ tmp190, GSMSendCommandIntento
 906:src/sim900_800.c **** 		GSMSendCommandTimeOut = timeOut;
 2122              		.loc 1 906 0
 2123 00fc 114B     		ldr	r3, .L143+8	@ tmp191,
 2124 00fe 0A22     		movs	r2, #10	@ tmp192,
 2125 0100 6A44     		add	r2, r2, sp	@ tmp192,
 2126 0102 1288     		ldrh	r2, [r2]	@ tmp193, timeOut
 2127 0104 1A80     		strh	r2, [r3]	@ tmp193, GSMSendCommandTimeOut
 907:src/sim900_800.c **** 		GSMSendCommandState = 1;
 2128              		.loc 1 907 0
 2129 0106 0D4B     		ldr	r3, .L143	@ tmp194,
 2130 0108 0122     		movs	r2, #1	@ tmp195,
 2131 010a 1A70     		strb	r2, [r3]	@ tmp196, GSMSendCommandState
 2132              	.L139:
 908:src/sim900_800.c **** 	}
 909:src/sim900_800.c **** 
 910:src/sim900_800.c **** 	if (!GSMSendCommandTimeOut)
 2133              		.loc 1 910 0
 2134 010c 0D4B     		ldr	r3, .L143+8	@ tmp197,
 2135 010e 1B88     		ldrh	r3, [r3]	@ tmp198, GSMSendCommandTimeOut
 2136 0110 9BB2     		uxth	r3, r3	@ D.7849, tmp198
 2137 0112 002B     		cmp	r3, #0	@ D.7849,
 2138 0114 0DD1     		bne	.L140	@,
 911:src/sim900_800.c **** 	{
 912:src/sim900_800.c **** 		GSMSendCommandIntento++;
 2139              		.loc 1 912 0
 2140 0116 0C4B     		ldr	r3, .L143+12	@ tmp199,
 2141 0118 1B78     		ldrb	r3, [r3]	@ D.7847, GSMSendCommandIntento
 2142 011a 0133     		adds	r3, r3, #1	@ tmp200,
 2143 011c DAB2     		uxtb	r2, r3	@ D.7847, tmp200
 2144 011e 0A4B     		ldr	r3, .L143+12	@ tmp201,
 2145 0120 1A70     		strb	r2, [r3]	@ tmp202, GSMSendCommandIntento
 913:src/sim900_800.c **** 		GSMSendCommandTimeOut = timeOut;
 2146              		.loc 1 913 0
 2147 0122 084B     		ldr	r3, .L143+8	@ tmp203,
 2148 0124 0A22     		movs	r2, #10	@ tmp204,
 2149 0126 6A44     		add	r2, r2, sp	@ tmp204,
 2150 0128 1288     		ldrh	r2, [r2]	@ tmp205, timeOut
 2151 012a 1A80     		strh	r2, [r3]	@ tmp205, GSMSendCommandTimeOut
 914:src/sim900_800.c **** 		GSMSendCommandState = 1;
 2152              		.loc 1 914 0
 2153 012c 034B     		ldr	r3, .L143	@ tmp206,
 2154 012e 0122     		movs	r2, #1	@ tmp207,
 2155 0130 1A70     		strb	r2, [r3]	@ tmp208, GSMSendCommandState
 2156              	.L140:
 915:src/sim900_800.c **** 	}
 916:src/sim900_800.c **** 
 917:src/sim900_800.c **** 	return 1;
 2157              		.loc 1 917 0
 2158 0132 0123     		movs	r3, #1	@ D.7847,
ARM GAS  /tmp/cc4fp2Bh.s 			page 56


 2159              	.L136:
 918:src/sim900_800.c **** }
 2160              		.loc 1 918 0
 2161 0134 1800     		movs	r0, r3	@, <retval>
 2162 0136 05B0     		add	sp, sp, #20	@,,
 2163              		@ sp needed	@
 2164 0138 00BD     		pop	{pc}
 2165              	.L144:
 2166 013a C046     		.align	2
 2167              	.L143:
 2168 013c 00000000 		.word	GSMSendCommandState
 2169 0140 00000000 		.word	GSMSendCommandFlag
 2170 0144 00000000 		.word	GSMSendCommandTimeOut
 2171 0148 00000000 		.word	GSMSendCommandIntento
 2172 014c 00000000 		.word	buffUARTGSMrx2
 2173              		.cfi_endproc
 2174              	.LFE28:
 2175              		.size	GSMSendCommand, .-GSMSendCommand
 2176              		.section	.rodata
 2177 0083 00       		.align	2
 2178              	.LC76:
 2179 0084 41540D0A 		.ascii	"AT\015\012\000"
 2179      00
 2180 0089 000000   		.align	2
 2181              	.LC78:
 2182 008c 41544530 		.ascii	"ATE0\015\012\000"
 2182      0D0A00
 2183 0093 00       		.align	2
 2184              	.LC80:
 2185 0094 41542B43 		.ascii	"AT+CMGF=1\015\012\000"
 2185      4D47463D 
 2185      310D0A00 
 2186              		.align	2
 2187              	.LC82:
 2188 00a0 41542B43 		.ascii	"AT+CSCS=\"GSM\"\015\012\000"
 2188      5343533D 
 2188      2247534D 
 2188      220D0A00 
 2189              		.align	2
 2190              	.LC84:
 2191 00b0 41542B43 		.ascii	"AT+CSMP=49,255,0,241\015\012\000"
 2191      534D503D 
 2191      34392C32 
 2191      35352C30 
 2191      2C323431 
 2192 00c7 00       		.align	2
 2193              	.LC86:
 2194 00c8 41542657 		.ascii	"AT&W\015\012\000"
 2194      0D0A00
 2195              		.section	.text.GSM_Config,"ax",%progbits
 2196              		.align	2
 2197              		.global	GSM_Config
 2198              		.code	16
 2199              		.thumb_func
 2200              		.type	GSM_Config, %function
 2201              	GSM_Config:
 2202              	.LFB29:
ARM GAS  /tmp/cc4fp2Bh.s 			page 57


 919:src/sim900_800.c **** 
 920:src/sim900_800.c **** //---------------------------------------------------------------//
 921:src/sim900_800.c **** //Configuracion del modulo GSM.
 922:src/sim900_800.c **** //---------------------------------------------------------------//
 923:src/sim900_800.c **** //
 924:src/sim900_800.c **** //Wait: 	0
 925:src/sim900_800.c **** //OK:		1
 926:src/sim900_800.c **** //ERR:	2
 927:src/sim900_800.c **** //TO:		3
 928:src/sim900_800.c **** //---------------------------------------------------------------//
 929:src/sim900_800.c **** char GSM_Config(unsigned short timeOut)
 930:src/sim900_800.c **** {
 2203              		.loc 1 930 0
 2204              		.cfi_startproc
 2205 0000 10B5     		push	{r4, lr}	@
 2206              	.LCFI10:
 2207              		.cfi_def_cfa_offset 8
 2208              		.cfi_offset 4, -8
 2209              		.cfi_offset 14, -4
 2210 0002 84B0     		sub	sp, sp, #16	@,,
 2211              	.LCFI11:
 2212              		.cfi_def_cfa_offset 24
 2213 0004 0200     		movs	r2, r0	@ tmp151, timeOut
 2214 0006 6B46     		mov	r3, sp	@ tmp335,
 2215 0008 0633     		adds	r3, r3, #6	@ tmp152,
 2216 000a 1A80     		strh	r2, [r3]	@ tmp153, timeOut
 931:src/sim900_800.c **** 	unsigned char i;
 932:src/sim900_800.c **** 
 933:src/sim900_800.c **** 	switch(GSMConfigState)
 2217              		.loc 1 933 0
 2218 000c AE4B     		ldr	r3, .L189	@ tmp154,
 2219 000e 1B78     		ldrb	r3, [r3]	@ D.7851, GSMConfigState
 2220 0010 092B     		cmp	r3, #9	@ D.7852,
 2221 0012 00D9     		bls	.LCB1680	@
 2222 0014 34E1     		b	.L146	@long jump	@
 2223              	.LCB1680:
 2224 0016 9A00     		lsls	r2, r3, #2	@ tmp155, D.7852,
 2225 0018 AC4B     		ldr	r3, .L189+4	@ tmp157,
 2226 001a D318     		adds	r3, r2, r3	@ tmp156, tmp155, tmp157
 2227 001c 1B68     		ldr	r3, [r3]	@ tmp158,
 2228 001e 9F46     		mov	pc, r3	@ tmp158
 2229              		.section	.rodata.GSM_Config,"a",%progbits
 2230              		.align	2
 2231              	.L148:
 2232 0000 20000000 		.word	.L147
 2233 0004 48000000 		.word	.L149
 2234 0008 BE000000 		.word	.L150
 2235 000c E2000000 		.word	.L151
 2236 0010 20010000 		.word	.L152
 2237 0014 34010000 		.word	.L153
 2238 0018 78010000 		.word	.L154
 2239 001c BC010000 		.word	.L155
 2240 0020 FE010000 		.word	.L156
 2241 0024 40020000 		.word	.L157
 2242              		.section	.text.GSM_Config
 2243              	.L147:
 934:src/sim900_800.c **** 	{
ARM GAS  /tmp/cc4fp2Bh.s 			page 58


 935:src/sim900_800.c **** 		case 0:
 936:src/sim900_800.c **** 			GSM_NRESET_ON;
 2244              		.loc 1 936 0
 2245              		.syntax divided
 2246              	@ 936 "src/sim900_800.c" 1
 2247 0020 C046     		nop 
 2248              		
 2249              	@ 0 "" 2
 937:src/sim900_800.c **** 			GSM_PWRKEY_ON;
 2250              		.loc 1 937 0
 2251              		.thumb
 2252              		.syntax unified
 2253 0022 9023     		movs	r3, #144	@ tmp334,
 2254 0024 DB05     		lsls	r3, r3, #23	@ D.7854, tmp334,
 2255 0026 8022     		movs	r2, #128	@ tmp159,
 2256 0028 9A61     		str	r2, [r3, #24]	@ tmp159, _69->BSRR
 938:src/sim900_800.c **** 			GSMConfigTime = 0;
 2257              		.loc 1 938 0
 2258 002a A94B     		ldr	r3, .L189+8	@ tmp160,
 2259 002c 0022     		movs	r2, #0	@ tmp161,
 2260 002e 1A80     		strh	r2, [r3]	@ tmp162, GSMConfigTime
 939:src/sim900_800.c **** 			GSMConfigTimeOut = timeOut;
 2261              		.loc 1 939 0
 2262 0030 A84B     		ldr	r3, .L189+12	@ tmp163,
 2263 0032 6A46     		mov	r2, sp	@ tmp336,
 2264 0034 0632     		adds	r2, r2, #6	@ tmp164,
 2265 0036 1288     		ldrh	r2, [r2]	@ tmp165, timeOut
 2266 0038 1A80     		strh	r2, [r3]	@ tmp165, GSMConfigTimeOut
 940:src/sim900_800.c **** 			GSMConfigState++;
 2267              		.loc 1 940 0
 2268 003a A34B     		ldr	r3, .L189	@ tmp166,
 2269 003c 1B78     		ldrb	r3, [r3]	@ D.7851, GSMConfigState
 2270 003e 0133     		adds	r3, r3, #1	@ tmp167,
 2271 0040 DAB2     		uxtb	r2, r3	@ D.7851, tmp167
 2272 0042 A14B     		ldr	r3, .L189	@ tmp168,
 2273 0044 1A70     		strb	r2, [r3]	@ tmp169, GSMConfigState
 941:src/sim900_800.c **** 			break;
 2274              		.loc 1 941 0
 2275 0046 30E1     		b	.L158	@
 2276              	.L149:
 942:src/sim900_800.c **** 
 943:src/sim900_800.c **** 		case 1:
 944:src/sim900_800.c **** 
 945:src/sim900_800.c **** 			if (GSM_STATUS)
 2277              		.loc 1 945 0
 2278 0048 9023     		movs	r3, #144	@ tmp333,
 2279 004a DB05     		lsls	r3, r3, #23	@ D.7854, tmp333,
 2280 004c 1B8A     		ldrh	r3, [r3, #16]	@ tmp171,
 2281 004e 9BB2     		uxth	r3, r3	@ D.7853, tmp171
 2282 0050 1A00     		movs	r2, r3	@ D.7852, D.7853
 2283 0052 2023     		movs	r3, #32	@ tmp172,
 2284 0054 1340     		ands	r3, r2	@ D.7852, D.7852
 2285 0056 2AD0     		beq	.L159	@,
 946:src/sim900_800.c **** 			{
 947:src/sim900_800.c **** 				//i = GSMSendCommand ("AT\r\n", 15, 0, &GSMbuffRtaCommand[0]);
 948:src/sim900_800.c **** 				i = GSMSendCommand ("AT\r\n", GSMConfigTimeOut, 0, &GSMbuffRtaCommand[0]);
 2286              		.loc 1 948 0
ARM GAS  /tmp/cc4fp2Bh.s 			page 59


 2287 0058 9E4B     		ldr	r3, .L189+12	@ tmp173,
 2288 005a 1B88     		ldrh	r3, [r3]	@ tmp174, GSMConfigTimeOut
 2289 005c 99B2     		uxth	r1, r3	@ D.7853, tmp174
 2290 005e 0F24     		movs	r4, #15	@ tmp175,
 2291 0060 6C44     		add	r4, r4, sp	@ tmp175,
 2292 0062 9D4B     		ldr	r3, .L189+16	@ tmp176,
 2293 0064 9D48     		ldr	r0, .L189+20	@ tmp177,
 2294 0066 0022     		movs	r2, #0	@,
 2295 0068 FFF7FEFF 		bl	GSMSendCommand	@
 2296 006c 0300     		movs	r3, r0	@ tmp178,
 2297 006e 2370     		strb	r3, [r4]	@ tmp180, i
 949:src/sim900_800.c **** 
 950:src/sim900_800.c **** 				if ((i == 2) || (i == 3))
 2298              		.loc 1 950 0
 2299 0070 0F23     		movs	r3, #15	@ tmp181,
 2300 0072 6B44     		add	r3, r3, sp	@ tmp181,
 2301 0074 1B78     		ldrb	r3, [r3]	@ tmp182, i
 2302 0076 022B     		cmp	r3, #2	@ tmp182,
 2303 0078 04D0     		beq	.L160	@,
 2304              		.loc 1 950 0 is_stmt 0 discriminator 1
 2305 007a 0F23     		movs	r3, #15	@ tmp183,
 2306 007c 6B44     		add	r3, r3, sp	@ tmp183,
 2307 007e 1B78     		ldrb	r3, [r3]	@ tmp184, i
 2308 0080 032B     		cmp	r3, #3	@ tmp184,
 2309 0082 06D1     		bne	.L161	@,
 2310              	.L160:
 951:src/sim900_800.c **** 				{
 952:src/sim900_800.c **** 					GSMConfigState += 4;
 2311              		.loc 1 952 0 is_stmt 1
 2312 0084 904B     		ldr	r3, .L189	@ tmp185,
 2313 0086 1B78     		ldrb	r3, [r3]	@ D.7851, GSMConfigState
 2314 0088 0433     		adds	r3, r3, #4	@ tmp186,
 2315 008a DAB2     		uxtb	r2, r3	@ D.7851, tmp186
 2316 008c 8E4B     		ldr	r3, .L189	@ tmp187,
 2317 008e 1A70     		strb	r2, [r3]	@ tmp188, GSMConfigState
 953:src/sim900_800.c **** 					GSM_NRESET_ON;
 2318              		.loc 1 953 0
 2319              		.syntax divided
 2320              	@ 953 "src/sim900_800.c" 1
 2321 0090 C046     		nop 
 2322              		
 2323              	@ 0 "" 2
 2324              		.thumb
 2325              		.syntax unified
 2326              	.L161:
 954:src/sim900_800.c **** 				}
 955:src/sim900_800.c **** 
 956:src/sim900_800.c **** 				if (i == 4)
 2327              		.loc 1 956 0
 2328 0092 0F23     		movs	r3, #15	@ tmp189,
 2329 0094 6B44     		add	r3, r3, sp	@ tmp189,
 2330 0096 1B78     		ldrb	r3, [r3]	@ tmp190, i
 2331 0098 042B     		cmp	r3, #4	@ tmp190,
 2332 009a 00D0     		beq	.LCB1759	@
 2333 009c F4E0     		b	.L180	@long jump	@
 2334              	.LCB1759:
 957:src/sim900_800.c **** 				{
ARM GAS  /tmp/cc4fp2Bh.s 			page 60


 958:src/sim900_800.c **** 					GSMConfigState += 1;
 2335              		.loc 1 958 0
 2336 009e 8A4B     		ldr	r3, .L189	@ tmp191,
 2337 00a0 1B78     		ldrb	r3, [r3]	@ D.7851, GSMConfigState
 2338 00a2 0133     		adds	r3, r3, #1	@ tmp192,
 2339 00a4 DAB2     		uxtb	r2, r3	@ D.7851, tmp192
 2340 00a6 884B     		ldr	r3, .L189	@ tmp193,
 2341 00a8 1A70     		strb	r2, [r3]	@ tmp194, GSMConfigState
 959:src/sim900_800.c **** 					GSM_NRESET_ON;
 2342              		.loc 1 959 0
 2343              		.syntax divided
 2344              	@ 959 "src/sim900_800.c" 1
 2345 00aa C046     		nop 
 2346              		
 2347              	@ 0 "" 2
 960:src/sim900_800.c **** 				}
 961:src/sim900_800.c **** 
 962:src/sim900_800.c **** 			}
 963:src/sim900_800.c **** 			else
 964:src/sim900_800.c **** 			{
 965:src/sim900_800.c **** 				GSMConfigState += 2;
 966:src/sim900_800.c **** 				GSM_NRESET_ON;
 967:src/sim900_800.c **** 			}
 968:src/sim900_800.c **** 			break;
 2348              		.loc 1 968 0
 2349              		.thumb
 2350              		.syntax unified
 2351 00ac ECE0     		b	.L180	@
 2352              	.L159:
 965:src/sim900_800.c **** 				GSM_NRESET_ON;
 2353              		.loc 1 965 0
 2354 00ae 864B     		ldr	r3, .L189	@ tmp195,
 2355 00b0 1B78     		ldrb	r3, [r3]	@ D.7851, GSMConfigState
 2356 00b2 0233     		adds	r3, r3, #2	@ tmp196,
 2357 00b4 DAB2     		uxtb	r2, r3	@ D.7851, tmp196
 2358 00b6 844B     		ldr	r3, .L189	@ tmp197,
 2359 00b8 1A70     		strb	r2, [r3]	@ tmp198, GSMConfigState
 966:src/sim900_800.c **** 			}
 2360              		.loc 1 966 0
 2361              		.syntax divided
 2362              	@ 966 "src/sim900_800.c" 1
 2363 00ba C046     		nop 
 2364              		
 2365              	@ 0 "" 2
 2366              		.loc 1 968 0
 2367              		.thumb
 2368              		.syntax unified
 2369 00bc E4E0     		b	.L180	@
 2370              	.L150:
 969:src/sim900_800.c **** 
 970:src/sim900_800.c **** 		case 2:
 971:src/sim900_800.c **** 			//Reinicio del modulo.
 972:src/sim900_800.c **** 			GSM_NRESET_OFF;
 2371              		.loc 1 972 0
 2372              		.syntax divided
 2373              	@ 972 "src/sim900_800.c" 1
 2374 00be C046     		nop 
ARM GAS  /tmp/cc4fp2Bh.s 			page 61


 2375              		
 2376              	@ 0 "" 2
 973:src/sim900_800.c **** 			if(!GSM_STATUS)
 2377              		.loc 1 973 0
 2378              		.thumb
 2379              		.syntax unified
 2380 00c0 9023     		movs	r3, #144	@ tmp332,
 2381 00c2 DB05     		lsls	r3, r3, #23	@ D.7854, tmp332,
 2382 00c4 1B8A     		ldrh	r3, [r3, #16]	@ tmp200,
 2383 00c6 9BB2     		uxth	r3, r3	@ D.7853, tmp200
 2384 00c8 1A00     		movs	r2, r3	@ D.7852, D.7853
 2385 00ca 2023     		movs	r3, #32	@ tmp201,
 2386 00cc 1340     		ands	r3, r2	@ D.7852, D.7852
 2387 00ce 00D0     		beq	.LCB1791	@
 2388 00d0 DCE0     		b	.L181	@long jump	@
 2389              	.LCB1791:
 974:src/sim900_800.c **** 			{
 975:src/sim900_800.c **** 				GSMConfigState++;
 2390              		.loc 1 975 0
 2391 00d2 7D4B     		ldr	r3, .L189	@ tmp202,
 2392 00d4 1B78     		ldrb	r3, [r3]	@ D.7851, GSMConfigState
 2393 00d6 0133     		adds	r3, r3, #1	@ tmp203,
 2394 00d8 DAB2     		uxtb	r2, r3	@ D.7851, tmp203
 2395 00da 7B4B     		ldr	r3, .L189	@ tmp204,
 2396 00dc 1A70     		strb	r2, [r3]	@ tmp205, GSMConfigState
 976:src/sim900_800.c **** 				GSM_NRESET_ON;
 2397              		.loc 1 976 0
 2398              		.syntax divided
 2399              	@ 976 "src/sim900_800.c" 1
 2400 00de C046     		nop 
 2401              		
 2402              	@ 0 "" 2
 977:src/sim900_800.c **** 			}
 978:src/sim900_800.c **** 			break;
 2403              		.loc 1 978 0
 2404              		.thumb
 2405              		.syntax unified
 2406 00e0 D4E0     		b	.L181	@
 2407              	.L151:
 979:src/sim900_800.c **** 
 980:src/sim900_800.c **** 		case 3:
 981:src/sim900_800.c **** 
 982:src/sim900_800.c **** 			//Encendido del modulo.
 983:src/sim900_800.c **** 			i = GSM_Start();
 2408              		.loc 1 983 0
 2409 00e2 0F24     		movs	r4, #15	@ tmp206,
 2410 00e4 6C44     		add	r4, r4, sp	@ tmp206,
 2411 00e6 FFF7FEFF 		bl	GSM_Start	@
 2412 00ea 0300     		movs	r3, r0	@ tmp207,
 2413 00ec 2370     		strb	r3, [r4]	@ tmp209, i
 984:src/sim900_800.c **** 
 985:src/sim900_800.c **** 			if (i == 2)
 2414              		.loc 1 985 0
 2415 00ee 0F23     		movs	r3, #15	@ tmp210,
 2416 00f0 6B44     		add	r3, r3, sp	@ tmp210,
 2417 00f2 1B78     		ldrb	r3, [r3]	@ tmp211, i
 2418 00f4 022B     		cmp	r3, #2	@ tmp211,
ARM GAS  /tmp/cc4fp2Bh.s 			page 62


 2419 00f6 08D1     		bne	.L165	@,
 986:src/sim900_800.c **** 			{
 987:src/sim900_800.c **** 				GSMConfigState++;
 2420              		.loc 1 987 0
 2421 00f8 734B     		ldr	r3, .L189	@ tmp212,
 2422 00fa 1B78     		ldrb	r3, [r3]	@ D.7851, GSMConfigState
 2423 00fc 0133     		adds	r3, r3, #1	@ tmp213,
 2424 00fe DAB2     		uxtb	r2, r3	@ D.7851, tmp213
 2425 0100 714B     		ldr	r3, .L189	@ tmp214,
 2426 0102 1A70     		strb	r2, [r3]	@ tmp215, GSMConfigState
 988:src/sim900_800.c **** 				GSMConfigTime = 20;
 2427              		.loc 1 988 0
 2428 0104 724B     		ldr	r3, .L189+8	@ tmp216,
 2429 0106 1422     		movs	r2, #20	@ tmp217,
 2430 0108 1A80     		strh	r2, [r3]	@ tmp218, GSMConfigTime
 2431              	.L165:
 989:src/sim900_800.c **** 			}
 990:src/sim900_800.c **** 
 991:src/sim900_800.c **** 			if (i == 4)
 2432              		.loc 1 991 0
 2433 010a 0F23     		movs	r3, #15	@ tmp219,
 2434 010c 6B44     		add	r3, r3, sp	@ tmp219,
 2435 010e 1B78     		ldrb	r3, [r3]	@ tmp220, i
 2436 0110 042B     		cmp	r3, #4	@ tmp220,
 2437 0112 00D0     		beq	.LCB1828	@
 2438 0114 BCE0     		b	.L182	@long jump	@
 2439              	.LCB1828:
 992:src/sim900_800.c **** 			{
 993:src/sim900_800.c **** 				GSMConfigState = 1;
 2440              		.loc 1 993 0
 2441 0116 6C4B     		ldr	r3, .L189	@ tmp221,
 2442 0118 0122     		movs	r2, #1	@ tmp222,
 2443 011a 1A70     		strb	r2, [r3]	@ tmp223, GSMConfigState
 994:src/sim900_800.c **** 				return 2;
 2444              		.loc 1 994 0
 2445 011c 0223     		movs	r3, #2	@ D.7851,
 2446 011e CFE0     		b	.L167	@
 2447              	.L152:
 995:src/sim900_800.c **** 			}
 996:src/sim900_800.c **** 			break;
 997:src/sim900_800.c **** 
 998:src/sim900_800.c **** 		case 4:
 999:src/sim900_800.c **** 
1000:src/sim900_800.c **** 			if (GSMConfigTime == 0)
 2448              		.loc 1 1000 0
 2449 0120 6B4B     		ldr	r3, .L189+8	@ tmp224,
 2450 0122 1B88     		ldrh	r3, [r3]	@ tmp225, GSMConfigTime
 2451 0124 9BB2     		uxth	r3, r3	@ D.7853, tmp225
 2452 0126 002B     		cmp	r3, #0	@ D.7853,
 2453 0128 00D0     		beq	.LCB1841	@
 2454 012a B3E0     		b	.L183	@long jump	@
 2455              	.LCB1841:
1001:src/sim900_800.c **** 				GSMConfigState = 1;
 2456              		.loc 1 1001 0
 2457 012c 664B     		ldr	r3, .L189	@ tmp226,
 2458 012e 0122     		movs	r2, #1	@ tmp227,
 2459 0130 1A70     		strb	r2, [r3]	@ tmp228, GSMConfigState
ARM GAS  /tmp/cc4fp2Bh.s 			page 63


1002:src/sim900_800.c **** 			break;
 2460              		.loc 1 1002 0
 2461 0132 AFE0     		b	.L183	@
 2462              	.L153:
1003:src/sim900_800.c **** 
1004:src/sim900_800.c **** 		case 5:
1005:src/sim900_800.c **** 
1006:src/sim900_800.c **** 			//Comandos para configurar.
1007:src/sim900_800.c **** 			//ATE0.
1008:src/sim900_800.c **** 			//i = GSMSendCommand ("ATE0\r\n", 15, 0, &GSMbuffRtaCommand[0]);
1009:src/sim900_800.c **** 			i = GSMSendCommand ("ATE0\r\n", GSMConfigTimeOut, 0, &GSMbuffRtaCommand[0]);
 2463              		.loc 1 1009 0
 2464 0134 674B     		ldr	r3, .L189+12	@ tmp229,
 2465 0136 1B88     		ldrh	r3, [r3]	@ tmp230, GSMConfigTimeOut
 2466 0138 99B2     		uxth	r1, r3	@ D.7853, tmp230
 2467 013a 0F24     		movs	r4, #15	@ tmp231,
 2468 013c 6C44     		add	r4, r4, sp	@ tmp231,
 2469 013e 664B     		ldr	r3, .L189+16	@ tmp232,
 2470 0140 6748     		ldr	r0, .L189+24	@ tmp233,
 2471 0142 0022     		movs	r2, #0	@,
 2472 0144 FFF7FEFF 		bl	GSMSendCommand	@
 2473 0148 0300     		movs	r3, r0	@ tmp234,
 2474 014a 2370     		strb	r3, [r4]	@ tmp236, i
1010:src/sim900_800.c **** 
1011:src/sim900_800.c **** 			if (i == 2)
 2475              		.loc 1 1011 0
 2476 014c 0F23     		movs	r3, #15	@ tmp237,
 2477 014e 6B44     		add	r3, r3, sp	@ tmp237,
 2478 0150 1B78     		ldrb	r3, [r3]	@ tmp238, i
 2479 0152 022B     		cmp	r3, #2	@ tmp238,
 2480 0154 05D1     		bne	.L169	@,
1012:src/sim900_800.c **** 			{
1013:src/sim900_800.c **** 				GSMConfigState++;
 2481              		.loc 1 1013 0
 2482 0156 5C4B     		ldr	r3, .L189	@ tmp239,
 2483 0158 1B78     		ldrb	r3, [r3]	@ D.7851, GSMConfigState
 2484 015a 0133     		adds	r3, r3, #1	@ tmp240,
 2485 015c DAB2     		uxtb	r2, r3	@ D.7851, tmp240
 2486 015e 5A4B     		ldr	r3, .L189	@ tmp241,
 2487 0160 1A70     		strb	r2, [r3]	@ tmp242, GSMConfigState
 2488              	.L169:
1014:src/sim900_800.c **** 			}
1015:src/sim900_800.c **** 			if (i > 2)
 2489              		.loc 1 1015 0
 2490 0162 0F23     		movs	r3, #15	@ tmp243,
 2491 0164 6B44     		add	r3, r3, sp	@ tmp243,
 2492 0166 1B78     		ldrb	r3, [r3]	@ tmp244, i
 2493 0168 022B     		cmp	r3, #2	@ tmp244,
 2494 016a 00D8     		bhi	.LCB1877	@
 2495 016c 94E0     		b	.L184	@long jump	@
 2496              	.LCB1877:
1016:src/sim900_800.c **** 			{
1017:src/sim900_800.c **** 				GSMConfigState = 1;
 2497              		.loc 1 1017 0
 2498 016e 564B     		ldr	r3, .L189	@ tmp245,
 2499 0170 0122     		movs	r2, #1	@ tmp246,
 2500 0172 1A70     		strb	r2, [r3]	@ tmp247, GSMConfigState
ARM GAS  /tmp/cc4fp2Bh.s 			page 64


1018:src/sim900_800.c **** 				return 2;
 2501              		.loc 1 1018 0
 2502 0174 0223     		movs	r3, #2	@ D.7851,
 2503 0176 A3E0     		b	.L167	@
 2504              	.L154:
1019:src/sim900_800.c **** 			}
1020:src/sim900_800.c **** 
1021:src/sim900_800.c **** 			break;
1022:src/sim900_800.c **** 
1023:src/sim900_800.c **** 		case 6:
1024:src/sim900_800.c **** 			//AT+CMGF=1
1025:src/sim900_800.c **** 			//i = GSMSendCommand ("AT+CMGF=1\r\n", 15, 0, &GSMbuffRtaCommand[0]);
1026:src/sim900_800.c **** 			i = GSMSendCommand ("AT+CMGF=1\r\n", GSMConfigTimeOut, 0, &GSMbuffRtaCommand[0]);
 2505              		.loc 1 1026 0
 2506 0178 564B     		ldr	r3, .L189+12	@ tmp248,
 2507 017a 1B88     		ldrh	r3, [r3]	@ tmp249, GSMConfigTimeOut
 2508 017c 99B2     		uxth	r1, r3	@ D.7853, tmp249
 2509 017e 0F24     		movs	r4, #15	@ tmp250,
 2510 0180 6C44     		add	r4, r4, sp	@ tmp250,
 2511 0182 554B     		ldr	r3, .L189+16	@ tmp251,
 2512 0184 5748     		ldr	r0, .L189+28	@ tmp252,
 2513 0186 0022     		movs	r2, #0	@,
 2514 0188 FFF7FEFF 		bl	GSMSendCommand	@
 2515 018c 0300     		movs	r3, r0	@ tmp253,
 2516 018e 2370     		strb	r3, [r4]	@ tmp255, i
1027:src/sim900_800.c **** 
1028:src/sim900_800.c **** 			if (i == 2)
 2517              		.loc 1 1028 0
 2518 0190 0F23     		movs	r3, #15	@ tmp256,
 2519 0192 6B44     		add	r3, r3, sp	@ tmp256,
 2520 0194 1B78     		ldrb	r3, [r3]	@ tmp257, i
 2521 0196 022B     		cmp	r3, #2	@ tmp257,
 2522 0198 05D1     		bne	.L171	@,
1029:src/sim900_800.c **** 			{
1030:src/sim900_800.c **** 				GSMConfigState++;
 2523              		.loc 1 1030 0
 2524 019a 4B4B     		ldr	r3, .L189	@ tmp258,
 2525 019c 1B78     		ldrb	r3, [r3]	@ D.7851, GSMConfigState
 2526 019e 0133     		adds	r3, r3, #1	@ tmp259,
 2527 01a0 DAB2     		uxtb	r2, r3	@ D.7851, tmp259
 2528 01a2 494B     		ldr	r3, .L189	@ tmp260,
 2529 01a4 1A70     		strb	r2, [r3]	@ tmp261, GSMConfigState
 2530              	.L171:
1031:src/sim900_800.c **** 			}
1032:src/sim900_800.c **** 			if (i > 2)
 2531              		.loc 1 1032 0
 2532 01a6 0F23     		movs	r3, #15	@ tmp262,
 2533 01a8 6B44     		add	r3, r3, sp	@ tmp262,
 2534 01aa 1B78     		ldrb	r3, [r3]	@ tmp263, i
 2535 01ac 022B     		cmp	r3, #2	@ tmp263,
 2536 01ae 00D8     		bhi	.LCB1914	@
 2537 01b0 74E0     		b	.L185	@long jump	@
 2538              	.LCB1914:
1033:src/sim900_800.c **** 			{
1034:src/sim900_800.c **** 				GSMConfigState = 1;
 2539              		.loc 1 1034 0
 2540 01b2 454B     		ldr	r3, .L189	@ tmp264,
ARM GAS  /tmp/cc4fp2Bh.s 			page 65


 2541 01b4 0122     		movs	r2, #1	@ tmp265,
 2542 01b6 1A70     		strb	r2, [r3]	@ tmp266, GSMConfigState
1035:src/sim900_800.c **** 				return 2;
 2543              		.loc 1 1035 0
 2544 01b8 0223     		movs	r3, #2	@ D.7851,
 2545 01ba 81E0     		b	.L167	@
 2546              	.L155:
1036:src/sim900_800.c **** 			}
1037:src/sim900_800.c **** 			break;
1038:src/sim900_800.c **** 		case 7:
1039:src/sim900_800.c **** 			//AT+CSCS="GSM"
1040:src/sim900_800.c **** 			//i = GSMSendCommand ("AT+CSCS=\"GSM\"\r\n", 15, 0, &GSMbuffRtaCommand[0]);
1041:src/sim900_800.c **** 			i = GSMSendCommand ("AT+CSCS=\"GSM\"\r\n", GSMConfigTimeOut, 0, &GSMbuffRtaCommand[0]);
 2547              		.loc 1 1041 0
 2548 01bc 454B     		ldr	r3, .L189+12	@ tmp267,
 2549 01be 1B88     		ldrh	r3, [r3]	@ tmp268, GSMConfigTimeOut
 2550 01c0 99B2     		uxth	r1, r3	@ D.7853, tmp268
 2551 01c2 0F24     		movs	r4, #15	@ tmp269,
 2552 01c4 6C44     		add	r4, r4, sp	@ tmp269,
 2553 01c6 444B     		ldr	r3, .L189+16	@ tmp270,
 2554 01c8 4748     		ldr	r0, .L189+32	@ tmp271,
 2555 01ca 0022     		movs	r2, #0	@,
 2556 01cc FFF7FEFF 		bl	GSMSendCommand	@
 2557 01d0 0300     		movs	r3, r0	@ tmp272,
 2558 01d2 2370     		strb	r3, [r4]	@ tmp274, i
1042:src/sim900_800.c **** 
1043:src/sim900_800.c **** 			if (i == 2)
 2559              		.loc 1 1043 0
 2560 01d4 0F23     		movs	r3, #15	@ tmp275,
 2561 01d6 6B44     		add	r3, r3, sp	@ tmp275,
 2562 01d8 1B78     		ldrb	r3, [r3]	@ tmp276, i
 2563 01da 022B     		cmp	r3, #2	@ tmp276,
 2564 01dc 05D1     		bne	.L173	@,
1044:src/sim900_800.c **** 			{
1045:src/sim900_800.c **** 				GSMConfigState++;
 2565              		.loc 1 1045 0
 2566 01de 3A4B     		ldr	r3, .L189	@ tmp277,
 2567 01e0 1B78     		ldrb	r3, [r3]	@ D.7851, GSMConfigState
 2568 01e2 0133     		adds	r3, r3, #1	@ tmp278,
 2569 01e4 DAB2     		uxtb	r2, r3	@ D.7851, tmp278
 2570 01e6 384B     		ldr	r3, .L189	@ tmp279,
 2571 01e8 1A70     		strb	r2, [r3]	@ tmp280, GSMConfigState
 2572              	.L173:
1046:src/sim900_800.c **** 			}
1047:src/sim900_800.c **** 			if (i > 2)
 2573              		.loc 1 1047 0
 2574 01ea 0F23     		movs	r3, #15	@ tmp281,
 2575 01ec 6B44     		add	r3, r3, sp	@ tmp281,
 2576 01ee 1B78     		ldrb	r3, [r3]	@ tmp282, i
 2577 01f0 022B     		cmp	r3, #2	@ tmp282,
 2578 01f2 55D9     		bls	.L186	@,
1048:src/sim900_800.c **** 			{
1049:src/sim900_800.c **** 				GSMConfigState = 1;
 2579              		.loc 1 1049 0
 2580 01f4 344B     		ldr	r3, .L189	@ tmp283,
 2581 01f6 0122     		movs	r2, #1	@ tmp284,
 2582 01f8 1A70     		strb	r2, [r3]	@ tmp285, GSMConfigState
ARM GAS  /tmp/cc4fp2Bh.s 			page 66


1050:src/sim900_800.c **** 				return 2;
 2583              		.loc 1 1050 0
 2584 01fa 0223     		movs	r3, #2	@ D.7851,
 2585 01fc 60E0     		b	.L167	@
 2586              	.L156:
1051:src/sim900_800.c **** 			}
1052:src/sim900_800.c **** 			break;
1053:src/sim900_800.c **** 		case 8:
1054:src/sim900_800.c **** 			//AT+CSMP=49,255,0,241
1055:src/sim900_800.c **** 			//i = GSMSendCommand ("AT+CSMP=49,255,0,241\r\n", 15, 0, &GSMbuffRtaCommand[0]);
1056:src/sim900_800.c **** 			i = GSMSendCommand ("AT+CSMP=49,255,0,241\r\n", GSMConfigTimeOut, 0, &GSMbuffRtaCommand[0]);
 2587              		.loc 1 1056 0
 2588 01fe 354B     		ldr	r3, .L189+12	@ tmp286,
 2589 0200 1B88     		ldrh	r3, [r3]	@ tmp287, GSMConfigTimeOut
 2590 0202 99B2     		uxth	r1, r3	@ D.7853, tmp287
 2591 0204 0F24     		movs	r4, #15	@ tmp288,
 2592 0206 6C44     		add	r4, r4, sp	@ tmp288,
 2593 0208 334B     		ldr	r3, .L189+16	@ tmp289,
 2594 020a 3848     		ldr	r0, .L189+36	@ tmp290,
 2595 020c 0022     		movs	r2, #0	@,
 2596 020e FFF7FEFF 		bl	GSMSendCommand	@
 2597 0212 0300     		movs	r3, r0	@ tmp291,
 2598 0214 2370     		strb	r3, [r4]	@ tmp293, i
1057:src/sim900_800.c **** 
1058:src/sim900_800.c **** 			if (i == 2)
 2599              		.loc 1 1058 0
 2600 0216 0F23     		movs	r3, #15	@ tmp294,
 2601 0218 6B44     		add	r3, r3, sp	@ tmp294,
 2602 021a 1B78     		ldrb	r3, [r3]	@ tmp295, i
 2603 021c 022B     		cmp	r3, #2	@ tmp295,
 2604 021e 05D1     		bne	.L175	@,
1059:src/sim900_800.c **** 			{
1060:src/sim900_800.c **** 				GSMConfigState++;
 2605              		.loc 1 1060 0
 2606 0220 294B     		ldr	r3, .L189	@ tmp296,
 2607 0222 1B78     		ldrb	r3, [r3]	@ D.7851, GSMConfigState
 2608 0224 0133     		adds	r3, r3, #1	@ tmp297,
 2609 0226 DAB2     		uxtb	r2, r3	@ D.7851, tmp297
 2610 0228 274B     		ldr	r3, .L189	@ tmp298,
 2611 022a 1A70     		strb	r2, [r3]	@ tmp299, GSMConfigState
 2612              	.L175:
1061:src/sim900_800.c **** 			}
1062:src/sim900_800.c **** 			if (i > 2)
 2613              		.loc 1 1062 0
 2614 022c 0F23     		movs	r3, #15	@ tmp300,
 2615 022e 6B44     		add	r3, r3, sp	@ tmp300,
 2616 0230 1B78     		ldrb	r3, [r3]	@ tmp301, i
 2617 0232 022B     		cmp	r3, #2	@ tmp301,
 2618 0234 36D9     		bls	.L187	@,
1063:src/sim900_800.c **** 			{
1064:src/sim900_800.c **** 				GSMConfigState = 1;
 2619              		.loc 1 1064 0
 2620 0236 244B     		ldr	r3, .L189	@ tmp302,
 2621 0238 0122     		movs	r2, #1	@ tmp303,
 2622 023a 1A70     		strb	r2, [r3]	@ tmp304, GSMConfigState
1065:src/sim900_800.c **** 				return 2;
 2623              		.loc 1 1065 0
ARM GAS  /tmp/cc4fp2Bh.s 			page 67


 2624 023c 0223     		movs	r3, #2	@ D.7851,
 2625 023e 3FE0     		b	.L167	@
 2626              	.L157:
1066:src/sim900_800.c **** 			}
1067:src/sim900_800.c **** 			break;
1068:src/sim900_800.c **** 		case 9:
1069:src/sim900_800.c **** 			//AT&W
1070:src/sim900_800.c **** 			//i = GSMSendCommand ("AT&W\r\n", 15, 0, &GSMbuffRtaCommand[0]);
1071:src/sim900_800.c **** 			i = GSMSendCommand ("AT&W\r\n", GSMConfigTimeOut, 0, &GSMbuffRtaCommand[0]);
 2627              		.loc 1 1071 0
 2628 0240 244B     		ldr	r3, .L189+12	@ tmp305,
 2629 0242 1B88     		ldrh	r3, [r3]	@ tmp306, GSMConfigTimeOut
 2630 0244 99B2     		uxth	r1, r3	@ D.7853, tmp306
 2631 0246 0F24     		movs	r4, #15	@ tmp307,
 2632 0248 6C44     		add	r4, r4, sp	@ tmp307,
 2633 024a 234B     		ldr	r3, .L189+16	@ tmp308,
 2634 024c 2848     		ldr	r0, .L189+40	@ tmp309,
 2635 024e 0022     		movs	r2, #0	@,
 2636 0250 FFF7FEFF 		bl	GSMSendCommand	@
 2637 0254 0300     		movs	r3, r0	@ tmp310,
 2638 0256 2370     		strb	r3, [r4]	@ tmp312, i
1072:src/sim900_800.c **** 
1073:src/sim900_800.c **** 			if (i == 2)
 2639              		.loc 1 1073 0
 2640 0258 0F23     		movs	r3, #15	@ tmp313,
 2641 025a 6B44     		add	r3, r3, sp	@ tmp313,
 2642 025c 1B78     		ldrb	r3, [r3]	@ tmp314, i
 2643 025e 022B     		cmp	r3, #2	@ tmp314,
 2644 0260 04D1     		bne	.L177	@,
1074:src/sim900_800.c **** 			{
1075:src/sim900_800.c **** 				GSMConfigState = 1;
 2645              		.loc 1 1075 0
 2646 0262 194B     		ldr	r3, .L189	@ tmp315,
 2647 0264 0122     		movs	r2, #1	@ tmp316,
 2648 0266 1A70     		strb	r2, [r3]	@ tmp317, GSMConfigState
1076:src/sim900_800.c **** 				return 1;
 2649              		.loc 1 1076 0
 2650 0268 0123     		movs	r3, #1	@ D.7851,
 2651 026a 29E0     		b	.L167	@
 2652              	.L177:
1077:src/sim900_800.c **** 			}
1078:src/sim900_800.c **** 			if (i > 2)
 2653              		.loc 1 1078 0
 2654 026c 0F23     		movs	r3, #15	@ tmp318,
 2655 026e 6B44     		add	r3, r3, sp	@ tmp318,
 2656 0270 1B78     		ldrb	r3, [r3]	@ tmp319, i
 2657 0272 022B     		cmp	r3, #2	@ tmp319,
 2658 0274 18D9     		bls	.L188	@,
1079:src/sim900_800.c **** 			{
1080:src/sim900_800.c **** 				GSMConfigState = 1;
 2659              		.loc 1 1080 0
 2660 0276 144B     		ldr	r3, .L189	@ tmp320,
 2661 0278 0122     		movs	r2, #1	@ tmp321,
 2662 027a 1A70     		strb	r2, [r3]	@ tmp322, GSMConfigState
1081:src/sim900_800.c **** 				return 2;
 2663              		.loc 1 1081 0
 2664 027c 0223     		movs	r3, #2	@ D.7851,
ARM GAS  /tmp/cc4fp2Bh.s 			page 68


 2665 027e 1FE0     		b	.L167	@
 2666              	.L146:
1082:src/sim900_800.c **** 			}
1083:src/sim900_800.c **** 			break;
1084:src/sim900_800.c **** 		default:
1085:src/sim900_800.c **** 			GSMConfigState = 0;
 2667              		.loc 1 1085 0
 2668 0280 114B     		ldr	r3, .L189	@ tmp323,
 2669 0282 0022     		movs	r2, #0	@ tmp324,
 2670 0284 1A70     		strb	r2, [r3]	@ tmp325, GSMConfigState
1086:src/sim900_800.c **** 			break;
 2671              		.loc 1 1086 0
 2672 0286 10E0     		b	.L158	@
 2673              	.L180:
 968:src/sim900_800.c **** 
 2674              		.loc 1 968 0
 2675 0288 C046     		nop
 2676 028a 0EE0     		b	.L158	@
 2677              	.L181:
 978:src/sim900_800.c **** 
 2678              		.loc 1 978 0
 2679 028c C046     		nop
 2680 028e 0CE0     		b	.L158	@
 2681              	.L182:
 996:src/sim900_800.c **** 
 2682              		.loc 1 996 0
 2683 0290 C046     		nop
 2684 0292 0AE0     		b	.L158	@
 2685              	.L183:
1002:src/sim900_800.c **** 
 2686              		.loc 1 1002 0
 2687 0294 C046     		nop
 2688 0296 08E0     		b	.L158	@
 2689              	.L184:
1021:src/sim900_800.c **** 
 2690              		.loc 1 1021 0
 2691 0298 C046     		nop
 2692 029a 06E0     		b	.L158	@
 2693              	.L185:
1037:src/sim900_800.c **** 		case 7:
 2694              		.loc 1 1037 0
 2695 029c C046     		nop
 2696 029e 04E0     		b	.L158	@
 2697              	.L186:
1052:src/sim900_800.c **** 		case 8:
 2698              		.loc 1 1052 0
 2699 02a0 C046     		nop
 2700 02a2 02E0     		b	.L158	@
 2701              	.L187:
1067:src/sim900_800.c **** 		case 9:
 2702              		.loc 1 1067 0
 2703 02a4 C046     		nop
 2704 02a6 00E0     		b	.L158	@
 2705              	.L188:
1083:src/sim900_800.c **** 		default:
 2706              		.loc 1 1083 0
 2707 02a8 C046     		nop
ARM GAS  /tmp/cc4fp2Bh.s 			page 69


 2708              	.L158:
1087:src/sim900_800.c **** 
1088:src/sim900_800.c **** 	}
1089:src/sim900_800.c **** 
1090:src/sim900_800.c **** 	if (GSMConfigTimeOut == 0)
 2709              		.loc 1 1090 0
 2710 02aa 0A4B     		ldr	r3, .L189+12	@ tmp326,
 2711 02ac 1B88     		ldrh	r3, [r3]	@ tmp327, GSMConfigTimeOut
 2712 02ae 9BB2     		uxth	r3, r3	@ D.7853, tmp327
 2713 02b0 002B     		cmp	r3, #0	@ D.7853,
 2714 02b2 04D1     		bne	.L179	@,
1091:src/sim900_800.c **** 	{
1092:src/sim900_800.c **** 		GSMConfigState = 0;
 2715              		.loc 1 1092 0
 2716 02b4 044B     		ldr	r3, .L189	@ tmp328,
 2717 02b6 0022     		movs	r2, #0	@ tmp329,
 2718 02b8 1A70     		strb	r2, [r3]	@ tmp330, GSMConfigState
1093:src/sim900_800.c **** 		return 3;
 2719              		.loc 1 1093 0
 2720 02ba 0323     		movs	r3, #3	@ D.7851,
 2721 02bc 00E0     		b	.L167	@
 2722              	.L179:
1094:src/sim900_800.c **** 	}
1095:src/sim900_800.c **** 
1096:src/sim900_800.c **** 	return 0;
 2723              		.loc 1 1096 0
 2724 02be 0023     		movs	r3, #0	@ D.7851,
 2725              	.L167:
1097:src/sim900_800.c **** }
 2726              		.loc 1 1097 0
 2727 02c0 1800     		movs	r0, r3	@, <retval>
 2728 02c2 04B0     		add	sp, sp, #16	@,,
 2729              		@ sp needed	@
 2730 02c4 10BD     		pop	{r4, pc}
 2731              	.L190:
 2732 02c6 C046     		.align	2
 2733              	.L189:
 2734 02c8 00000000 		.word	GSMConfigState
 2735 02cc 00000000 		.word	.L148
 2736 02d0 00000000 		.word	GSMConfigTime
 2737 02d4 00000000 		.word	GSMConfigTimeOut
 2738 02d8 00000000 		.word	GSMbuffRtaCommand
 2739 02dc 84000000 		.word	.LC76
 2740 02e0 8C000000 		.word	.LC78
 2741 02e4 94000000 		.word	.LC80
 2742 02e8 A0000000 		.word	.LC82
 2743 02ec B0000000 		.word	.LC84
 2744 02f0 C8000000 		.word	.LC86
 2745              		.cfi_endproc
 2746              	.LFE29:
 2747              		.size	GSM_Config, .-GSM_Config
 2748              		.section	.rodata
 2749 00cf 00       		.align	2
 2750              	.LC92:
 2751 00d0 41542B43 		.ascii	"AT+CMGS=\"\000"
 2751      4D47533D 
 2751      2200
ARM GAS  /tmp/cc4fp2Bh.s 			page 70


 2752 00da 0000     		.align	2
 2753              	.LC94:
 2754 00dc 220D0A00 		.ascii	"\"\015\012\000"
 2755              		.align	2
 2756              	.LC97:
 2757 00e0 1A00     		.ascii	"\032\000"
 2758              		.section	.text.GSMSendSMS,"ax",%progbits
 2759              		.align	2
 2760              		.global	GSMSendSMS
 2761              		.code	16
 2762              		.thumb_func
 2763              		.type	GSMSendSMS, %function
 2764              	GSMSendSMS:
 2765              	.LFB30:
1098:src/sim900_800.c **** 
1099:src/sim900_800.c **** //-----------------------------------------------------------------------//
1100:src/sim900_800.c **** //char GSMSendSMS (char *ptrMSG, char *ptrNUM, unsigned char timeOut)
1101:src/sim900_800.c **** //-----------------------------------------------------------------------//
1102:src/sim900_800.c **** //String de mensaje: 	"..."
1103:src/sim900_800.c **** //timeOut en mS
1104:src/sim900_800.c **** //String Numero: 		"----------"
1105:src/sim900_800.c **** //Wait: 	0
1106:src/sim900_800.c **** //OK:		1
1107:src/sim900_800.c **** //ERR:	2
1108:src/sim900_800.c **** //TO:		3
1109:src/sim900_800.c **** //-----------------------------------------------------------------------//
1110:src/sim900_800.c **** char GSMSendSMS (char *ptrMSG, char *ptrNUM, unsigned short timeOut)
1111:src/sim900_800.c **** {
 2766              		.loc 1 1111 0
 2767              		.cfi_startproc
 2768 0000 10B5     		push	{r4, lr}	@
 2769              	.LCFI12:
 2770              		.cfi_def_cfa_offset 8
 2771              		.cfi_offset 4, -8
 2772              		.cfi_offset 14, -4
 2773 0002 86B0     		sub	sp, sp, #24	@,,
 2774              	.LCFI13:
 2775              		.cfi_def_cfa_offset 32
 2776 0004 0390     		str	r0, [sp, #12]	@ ptrMSG, ptrMSG
 2777 0006 0291     		str	r1, [sp, #8]	@ ptrNUM, ptrNUM
 2778 0008 6B46     		mov	r3, sp	@ tmp214,
 2779 000a 0633     		adds	r3, r3, #6	@ tmp122,
 2780 000c 1A80     		strh	r2, [r3]	@ tmp123, timeOut
1112:src/sim900_800.c **** 	unsigned char i;
1113:src/sim900_800.c **** 
1114:src/sim900_800.c **** 	switch(GSMSendSMSState)
 2781              		.loc 1 1114 0
 2782 000e 504B     		ldr	r3, .L206	@ tmp124,
 2783 0010 1B78     		ldrb	r3, [r3]	@ D.7862, GSMSendSMSState
 2784 0012 012B     		cmp	r3, #1	@ D.7863,
 2785 0014 2DD0     		beq	.L193	@,
 2786 0016 022B     		cmp	r3, #2	@ D.7863,
 2787 0018 64D0     		beq	.L194	@,
 2788 001a 002B     		cmp	r3, #0	@ D.7863,
 2789 001c 00D0     		beq	.LCB2150	@
 2790 001e 81E0     		b	.L203	@long jump	@
 2791              	.LCB2150:
ARM GAS  /tmp/cc4fp2Bh.s 			page 71


1115:src/sim900_800.c **** 	{
1116:src/sim900_800.c **** 		case 0:
1117:src/sim900_800.c **** 			GSMSendSMSFlag = 0;
 2792              		.loc 1 1117 0
 2793 0020 4C4B     		ldr	r3, .L206+4	@ tmp125,
 2794 0022 0022     		movs	r2, #0	@ tmp126,
 2795 0024 1A70     		strb	r2, [r3]	@ tmp127, GSMSendSMSFlag
1118:src/sim900_800.c **** 			GSMSendSMSTimeOut = timeOut;
 2796              		.loc 1 1118 0
 2797 0026 4C4B     		ldr	r3, .L206+8	@ tmp128,
 2798 0028 6A46     		mov	r2, sp	@ tmp215,
 2799 002a 0632     		adds	r2, r2, #6	@ tmp129,
 2800 002c 1288     		ldrh	r2, [r2]	@ tmp130, timeOut
 2801 002e 1A80     		strh	r2, [r3]	@ tmp130, GSMSendSMSTimeOut
1119:src/sim900_800.c **** 			sprintf(&GSMSendSMSbuffAux[0], "AT+CMGS=\"");
 2802              		.loc 1 1119 0
 2803 0030 4A4A     		ldr	r2, .L206+12	@ tmp131,
 2804 0032 4B4B     		ldr	r3, .L206+16	@ tmp132,
 2805 0034 1000     		movs	r0, r2	@ tmp133, tmp131
 2806 0036 1900     		movs	r1, r3	@ tmp134, tmp132
 2807 0038 0A23     		movs	r3, #10	@ tmp135,
 2808 003a 1A00     		movs	r2, r3	@, tmp135
 2809 003c FFF7FEFF 		bl	memcpy	@
1120:src/sim900_800.c **** 			strcat(&GSMSendSMSbuffAux[0], ptrNUM);
 2810              		.loc 1 1120 0
 2811 0040 029A     		ldr	r2, [sp, #8]	@ tmp138, ptrNUM
 2812 0042 464B     		ldr	r3, .L206+12	@ tmp139,
 2813 0044 1100     		movs	r1, r2	@, tmp138
 2814 0046 1800     		movs	r0, r3	@, tmp139
 2815 0048 FFF7FEFF 		bl	strcat	@
1121:src/sim900_800.c **** 			strcat(&GSMSendSMSbuffAux[0], "\"\r\n");
 2816              		.loc 1 1121 0
 2817 004c 434B     		ldr	r3, .L206+12	@ tmp140,
 2818 004e 1800     		movs	r0, r3	@, tmp140
 2819 0050 FFF7FEFF 		bl	strlen	@
 2820 0054 0300     		movs	r3, r0	@ tmp141,
 2821 0056 1A00     		movs	r2, r3	@ D.7864, tmp142
 2822 0058 404B     		ldr	r3, .L206+12	@ tmp143,
 2823 005a D218     		adds	r2, r2, r3	@ D.7865, D.7864, tmp143
 2824 005c 414B     		ldr	r3, .L206+20	@ tmp144,
 2825 005e 1000     		movs	r0, r2	@ tmp145, D.7865
 2826 0060 1900     		movs	r1, r3	@ tmp146, tmp144
 2827 0062 0423     		movs	r3, #4	@ tmp147,
 2828 0064 1A00     		movs	r2, r3	@, tmp147
 2829 0066 FFF7FEFF 		bl	memcpy	@
1122:src/sim900_800.c **** 			GSMSendSMSState = 1;
 2830              		.loc 1 1122 0
 2831 006a 394B     		ldr	r3, .L206	@ tmp150,
 2832 006c 0122     		movs	r2, #1	@ tmp151,
 2833 006e 1A70     		strb	r2, [r3]	@ tmp152, GSMSendSMSState
1123:src/sim900_800.c **** 			break;
 2834              		.loc 1 1123 0
 2835 0070 5FE0     		b	.L196	@
 2836              	.L193:
1124:src/sim900_800.c **** 
1125:src/sim900_800.c **** 		case 1:
1126:src/sim900_800.c **** 			i = GSMSendCommand(&GSMSendSMSbuffAux[0], 1000, 0, &GSMbuffRtaCommand[0]);
ARM GAS  /tmp/cc4fp2Bh.s 			page 72


 2837              		.loc 1 1126 0
 2838 0072 1724     		movs	r4, #23	@ tmp153,
 2839 0074 6C44     		add	r4, r4, sp	@ tmp153,
 2840 0076 3C4A     		ldr	r2, .L206+24	@ tmp154,
 2841 0078 FA23     		movs	r3, #250	@ tmp213,
 2842 007a 9900     		lsls	r1, r3, #2	@ tmp155, tmp213,
 2843 007c 3748     		ldr	r0, .L206+12	@ tmp156,
 2844 007e 1300     		movs	r3, r2	@, tmp154
 2845 0080 0022     		movs	r2, #0	@,
 2846 0082 FFF7FEFF 		bl	GSMSendCommand	@
 2847 0086 0300     		movs	r3, r0	@ tmp157,
 2848 0088 2370     		strb	r3, [r4]	@ tmp159, i
1127:src/sim900_800.c **** 
1128:src/sim900_800.c **** 			if (i == 2)
 2849              		.loc 1 1128 0
 2850 008a 1723     		movs	r3, #23	@ tmp160,
 2851 008c 6B44     		add	r3, r3, sp	@ tmp160,
 2852 008e 1B78     		ldrb	r3, [r3]	@ tmp161, i
 2853 0090 022B     		cmp	r3, #2	@ tmp161,
 2854 0092 1DD1     		bne	.L197	@,
1129:src/sim900_800.c **** 			{
1130:src/sim900_800.c **** 				GSMSendSMSbuffAux[0] = 0;
 2855              		.loc 1 1130 0
 2856 0094 314B     		ldr	r3, .L206+12	@ tmp162,
 2857 0096 0022     		movs	r2, #0	@ tmp163,
 2858 0098 1A70     		strb	r2, [r3]	@ tmp164, GSMSendSMSbuffAux
1131:src/sim900_800.c **** 				strcat(&GSMSendSMSbuffAux[0], ptrMSG);
 2859              		.loc 1 1131 0
 2860 009a 039A     		ldr	r2, [sp, #12]	@ tmp165, ptrMSG
 2861 009c 2F4B     		ldr	r3, .L206+12	@ tmp166,
 2862 009e 1100     		movs	r1, r2	@, tmp165
 2863 00a0 1800     		movs	r0, r3	@, tmp166
 2864 00a2 FFF7FEFF 		bl	strcat	@
1132:src/sim900_800.c **** 				strcat(&GSMSendSMSbuffAux[0], "\032");
 2865              		.loc 1 1132 0
 2866 00a6 2D4B     		ldr	r3, .L206+12	@ tmp167,
 2867 00a8 1800     		movs	r0, r3	@, tmp167
 2868 00aa FFF7FEFF 		bl	strlen	@
 2869 00ae 0300     		movs	r3, r0	@ tmp168,
 2870 00b0 1A00     		movs	r2, r3	@ D.7864, tmp169
 2871 00b2 2A4B     		ldr	r3, .L206+12	@ tmp170,
 2872 00b4 D218     		adds	r2, r2, r3	@ D.7865, D.7864, tmp170
 2873 00b6 2D4B     		ldr	r3, .L206+28	@ tmp171,
 2874 00b8 1000     		movs	r0, r2	@ tmp172, D.7865
 2875 00ba 1900     		movs	r1, r3	@ tmp173, tmp171
 2876 00bc 0223     		movs	r3, #2	@ tmp174,
 2877 00be 1A00     		movs	r2, r3	@, tmp174
 2878 00c0 FFF7FEFF 		bl	memcpy	@
1133:src/sim900_800.c **** 				GSMSendSMSState++;
 2879              		.loc 1 1133 0
 2880 00c4 224B     		ldr	r3, .L206	@ tmp177,
 2881 00c6 1B78     		ldrb	r3, [r3]	@ D.7862, GSMSendSMSState
 2882 00c8 0133     		adds	r3, r3, #1	@ tmp178,
 2883 00ca DAB2     		uxtb	r2, r3	@ D.7862, tmp178
 2884 00cc 204B     		ldr	r3, .L206	@ tmp179,
 2885 00ce 1A70     		strb	r2, [r3]	@ tmp180, GSMSendSMSState
 2886              	.L197:
ARM GAS  /tmp/cc4fp2Bh.s 			page 73


1134:src/sim900_800.c **** 			}
1135:src/sim900_800.c **** 
1136:src/sim900_800.c **** 			if (i > 2)
 2887              		.loc 1 1136 0
 2888 00d0 1723     		movs	r3, #23	@ tmp181,
 2889 00d2 6B44     		add	r3, r3, sp	@ tmp181,
 2890 00d4 1B78     		ldrb	r3, [r3]	@ tmp182, i
 2891 00d6 022B     		cmp	r3, #2	@ tmp182,
 2892 00d8 28D9     		bls	.L204	@,
1137:src/sim900_800.c **** 			{
1138:src/sim900_800.c **** 				GSMSendSMSState = 0;
 2893              		.loc 1 1138 0
 2894 00da 1D4B     		ldr	r3, .L206	@ tmp183,
 2895 00dc 0022     		movs	r2, #0	@ tmp184,
 2896 00de 1A70     		strb	r2, [r3]	@ tmp185, GSMSendSMSState
1139:src/sim900_800.c **** 				return 2;
 2897              		.loc 1 1139 0
 2898 00e0 0223     		movs	r3, #2	@ D.7862,
 2899 00e2 31E0     		b	.L199	@
 2900              	.L194:
1140:src/sim900_800.c **** 			}
1141:src/sim900_800.c **** 			break;
1142:src/sim900_800.c **** 
1143:src/sim900_800.c **** 		case 2:
1144:src/sim900_800.c **** 			// i = GSMSendCommand(&GSMSendSMSbuffAux[0], 1000, 1, &GSMbuffRtaCommand[0]);
1145:src/sim900_800.c **** 			i = GSMSendCommand(&GSMSendSMSbuffAux[0], 1000, 0, &GSMbuffRtaCommand[0]);
 2901              		.loc 1 1145 0
 2902 00e4 1724     		movs	r4, #23	@ tmp186,
 2903 00e6 6C44     		add	r4, r4, sp	@ tmp186,
 2904 00e8 1F4A     		ldr	r2, .L206+24	@ tmp187,
 2905 00ea FA23     		movs	r3, #250	@ tmp212,
 2906 00ec 9900     		lsls	r1, r3, #2	@ tmp188, tmp212,
 2907 00ee 1B48     		ldr	r0, .L206+12	@ tmp189,
 2908 00f0 1300     		movs	r3, r2	@, tmp187
 2909 00f2 0022     		movs	r2, #0	@,
 2910 00f4 FFF7FEFF 		bl	GSMSendCommand	@
 2911 00f8 0300     		movs	r3, r0	@ tmp190,
 2912 00fa 2370     		strb	r3, [r4]	@ tmp192, i
1146:src/sim900_800.c **** 
1147:src/sim900_800.c **** 			if (i == 2)
 2913              		.loc 1 1147 0
 2914 00fc 1723     		movs	r3, #23	@ tmp193,
 2915 00fe 6B44     		add	r3, r3, sp	@ tmp193,
 2916 0100 1B78     		ldrb	r3, [r3]	@ tmp194, i
 2917 0102 022B     		cmp	r3, #2	@ tmp194,
 2918 0104 04D1     		bne	.L200	@,
1148:src/sim900_800.c **** 			{
1149:src/sim900_800.c **** 				GSMSendSMSState = 0;
 2919              		.loc 1 1149 0
 2920 0106 124B     		ldr	r3, .L206	@ tmp195,
 2921 0108 0022     		movs	r2, #0	@ tmp196,
 2922 010a 1A70     		strb	r2, [r3]	@ tmp197, GSMSendSMSState
1150:src/sim900_800.c **** 				return 1;
 2923              		.loc 1 1150 0
 2924 010c 0123     		movs	r3, #1	@ D.7862,
 2925 010e 1BE0     		b	.L199	@
 2926              	.L200:
ARM GAS  /tmp/cc4fp2Bh.s 			page 74


1151:src/sim900_800.c **** 			}
1152:src/sim900_800.c **** 
1153:src/sim900_800.c **** 			if (i > 2)
 2927              		.loc 1 1153 0
 2928 0110 1723     		movs	r3, #23	@ tmp198,
 2929 0112 6B44     		add	r3, r3, sp	@ tmp198,
 2930 0114 1B78     		ldrb	r3, [r3]	@ tmp199, i
 2931 0116 022B     		cmp	r3, #2	@ tmp199,
 2932 0118 0AD9     		bls	.L205	@,
1154:src/sim900_800.c **** 			{
1155:src/sim900_800.c **** 				GSMSendSMSState = 0;
 2933              		.loc 1 1155 0
 2934 011a 0D4B     		ldr	r3, .L206	@ tmp200,
 2935 011c 0022     		movs	r2, #0	@ tmp201,
 2936 011e 1A70     		strb	r2, [r3]	@ tmp202, GSMSendSMSState
1156:src/sim900_800.c **** 				return 2;
 2937              		.loc 1 1156 0
 2938 0120 0223     		movs	r3, #2	@ D.7862,
 2939 0122 11E0     		b	.L199	@
 2940              	.L203:
1157:src/sim900_800.c **** 			}
1158:src/sim900_800.c **** 			break;
1159:src/sim900_800.c **** 
1160:src/sim900_800.c **** 		default:
1161:src/sim900_800.c **** 			GSMSendSMSState = 0;
 2941              		.loc 1 1161 0
 2942 0124 0A4B     		ldr	r3, .L206	@ tmp203,
 2943 0126 0022     		movs	r2, #0	@ tmp204,
 2944 0128 1A70     		strb	r2, [r3]	@ tmp205, GSMSendSMSState
1162:src/sim900_800.c **** 			break;
 2945              		.loc 1 1162 0
 2946 012a 02E0     		b	.L196	@
 2947              	.L204:
1141:src/sim900_800.c **** 
 2948              		.loc 1 1141 0
 2949 012c C046     		nop
 2950 012e 00E0     		b	.L196	@
 2951              	.L205:
1158:src/sim900_800.c **** 
 2952              		.loc 1 1158 0
 2953 0130 C046     		nop
 2954              	.L196:
1163:src/sim900_800.c **** 	}
1164:src/sim900_800.c **** 
1165:src/sim900_800.c **** 	if (GSMSendSMSTimeOut == 0)
 2955              		.loc 1 1165 0
 2956 0132 094B     		ldr	r3, .L206+8	@ tmp206,
 2957 0134 1B88     		ldrh	r3, [r3]	@ tmp207, GSMSendSMSTimeOut
 2958 0136 9BB2     		uxth	r3, r3	@ D.7866, tmp207
 2959 0138 002B     		cmp	r3, #0	@ D.7866,
 2960 013a 04D1     		bne	.L202	@,
1166:src/sim900_800.c **** 	{
1167:src/sim900_800.c **** 		GSMSendSMSState = 0;
 2961              		.loc 1 1167 0
 2962 013c 044B     		ldr	r3, .L206	@ tmp208,
 2963 013e 0022     		movs	r2, #0	@ tmp209,
 2964 0140 1A70     		strb	r2, [r3]	@ tmp210, GSMSendSMSState
ARM GAS  /tmp/cc4fp2Bh.s 			page 75


1168:src/sim900_800.c **** 		return 3;
 2965              		.loc 1 1168 0
 2966 0142 0323     		movs	r3, #3	@ D.7862,
 2967 0144 00E0     		b	.L199	@
 2968              	.L202:
1169:src/sim900_800.c **** 	}
1170:src/sim900_800.c **** 
1171:src/sim900_800.c **** 	return 0;
 2969              		.loc 1 1171 0
 2970 0146 0023     		movs	r3, #0	@ D.7862,
 2971              	.L199:
1172:src/sim900_800.c **** }
 2972              		.loc 1 1172 0
 2973 0148 1800     		movs	r0, r3	@, <retval>
 2974 014a 06B0     		add	sp, sp, #24	@,,
 2975              		@ sp needed	@
 2976 014c 10BD     		pop	{r4, pc}
 2977              	.L207:
 2978 014e C046     		.align	2
 2979              	.L206:
 2980 0150 00000000 		.word	GSMSendSMSState
 2981 0154 00000000 		.word	GSMSendSMSFlag
 2982 0158 00000000 		.word	GSMSendSMSTimeOut
 2983 015c 00000000 		.word	GSMSendSMSbuffAux
 2984 0160 D0000000 		.word	.LC92
 2985 0164 DC000000 		.word	.LC94
 2986 0168 00000000 		.word	GSMbuffRtaCommand
 2987 016c E0000000 		.word	.LC97
 2988              		.cfi_endproc
 2989              	.LFE30:
 2990              		.size	GSMSendSMS, .-GSMSendSMS
 2991              		.section	.rodata
 2992 00e2 0000     		.align	2
 2993              	.LC104:
 2994 00e4 3030303A 		.ascii	"000: KAL,123456,100\015\012\000"
 2994      204B414C 
 2994      2C313233 
 2994      3435362C 
 2994      3130300D 
 2995 00fa 0000     		.align	2
 2996              	.LC106:
 2997 00fc 41542B43 		.ascii	"AT+CIPSTATUS\015\012\000"
 2997      49505354 
 2997      41545553 
 2997      0D0A00
 2998 010b 00       		.align	2
 2999              	.LC114:
 3000 010c 41542B43 		.ascii	"AT+CIPSTART=\"TCP\",\"\000"
 3000      49505354 
 3000      4152543D 
 3000      22544350 
 3000      222C2200 
 3001              		.align	2
 3002              	.LC116:
 3003 0120 222C2200 		.ascii	"\",\"\000"
 3004              		.align	2
 3005              	.LC122:
ARM GAS  /tmp/cc4fp2Bh.s 			page 76


 3006 0124 434F4E4E 		.ascii	"CONNECTED\000"
 3006      45435445 
 3006      4400
 3007 012e 0000     		.align	2
 3008              	.LC124:
 3009 0130 50445020 		.ascii	"PDP DEACT\000"
 3009      44454143 
 3009      5400
 3010 013a 0000     		.align	2
 3011              	.LC126:
 3012 013c 41542B43 		.ascii	"AT+CPIN?\015\012\000"
 3012      50494E3F 
 3012      0D0A00
 3013 0147 00       		.align	2
 3014              	.LC128:
 3015 0148 2B435049 		.ascii	"+CPIN: READY\000"
 3015      4E3A2052 
 3015      45414459 
 3015      00
 3016 0155 000000   		.align	2
 3017              	.LC130:
 3018 0158 2B435049 		.ascii	"+CPINDS: READY\000"
 3018      4E44533A 
 3018      20524541 
 3018      445900
 3019 0167 00       		.align	2
 3020              	.LC132:
 3021 0168 41542B43 		.ascii	"AT+CREG?\015\012\000"
 3021      5245473F 
 3021      0D0A00
 3022 0173 00       		.align	2
 3023              	.LC134:
 3024 0174 2B435245 		.ascii	"+CREG: 0,1\000"
 3024      473A2030 
 3024      2C3100
 3025 017f 00       		.align	2
 3026              	.LC136:
 3027 0180 41542B43 		.ascii	"AT+CSQ\015\012\000"
 3027      53510D0A 
 3027      00
 3028 0189 000000   		.align	2
 3029              	.LC138:
 3030 018c 2B435351 		.ascii	"+CSQ:\000"
 3030      3A00
 3031 0192 0000     		.align	2
 3032              	.LC141:
 3033 0194 41542B43 		.ascii	"AT+CIPMODE=1\015\012\000"
 3033      49504D4F 
 3033      44453D31 
 3033      0D0A00
 3034 01a3 00       		.align	2
 3035              	.LC143:
 3036 01a4 41542B43 		.ascii	"AT+CGATT?\015\012\000"
 3036      47415454 
 3036      3F0D0A00 
 3037              		.align	2
 3038              	.LC145:
ARM GAS  /tmp/cc4fp2Bh.s 			page 77


 3039 01b0 2B434741 		.ascii	"+CGATT:\000"
 3039      54543A00 
 3040              		.align	2
 3041              	.LC147:
 3042 01b8 41542B43 		.ascii	"AT+CGDCONT=1,\"IP\",\"\000"
 3042      4744434F 
 3042      4E543D31 
 3042      2C224950 
 3042      222C2200 
 3043              		.align	2
 3044              	.LC149:
 3045 01cc 41542B43 		.ascii	"AT+CSTT=\"\000"
 3045      5354543D 
 3045      2200
 3046 01d6 0000     		.align	2
 3047              	.LC151:
 3048 01d8 41542B43 		.ascii	"AT+CIICR\015\012\000"
 3048      49494352 
 3048      0D0A00
 3049 01e3 00       		.align	2
 3050              	.LC153:
 3051 01e4 41542B43 		.ascii	"AT+CIFSR\015\012\000"
 3051      49465352 
 3051      0D0A00
 3052              		.section	.text.GSMConfigGPRS,"ax",%progbits
 3053              		.align	2
 3054              		.global	GSMConfigGPRS
 3055              		.code	16
 3056              		.thumb_func
 3057              		.type	GSMConfigGPRS, %function
 3058              	GSMConfigGPRS:
 3059              	.LFB31:
1173:src/sim900_800.c **** 
1174:src/sim900_800.c **** //-----------------------------------------------------------------------//
1175:src/sim900_800.c **** //char GSMConfigGPRS (char *ptrAPN, char *ptrUSER, char *ptrKEY , unsigned char timeOut)
1176:src/sim900_800.c **** //-----------------------------------------------------------------------//
1177:src/sim900_800.c **** //char *ptrAPN "gprs.personal.com"
1178:src/sim900_800.c **** //char *ptrUSER ""
1179:src/sim900_800.c **** //char *ptrKEY  ""
1180:src/sim900_800.c **** //char *ptrIPAdd Para devolver la ip asignada.
1181:src/sim900_800.c **** //unsigned char timeOut x100mS
1182:src/sim900_800.c **** //char sim
1183:src/sim900_800.c **** //-----------------------------------------------------------------------//
1184:src/sim900_800.c **** //Wait:			1
1185:src/sim900_800.c **** //OK:			2
1186:src/sim900_800.c **** //ERR:			3
1187:src/sim900_800.c **** //TO:			4
1188:src/sim900_800.c **** //NO SIGNAL:	20
1189:src/sim900_800.c **** //-----------------------------------------------------------------------//
1190:src/sim900_800.c **** char GSMConfigGPRS (char sim, char *ptrAPN, char *ptrUSER, char *ptrKEY , char *ptrIPAdd, char *ptr
1191:src/sim900_800.c **** {
 3060              		.loc 1 1191 0
 3061              		.cfi_startproc
 3062 0000 10B5     		push	{r4, lr}	@
 3063              	.LCFI14:
 3064              		.cfi_def_cfa_offset 8
 3065              		.cfi_offset 4, -8
ARM GAS  /tmp/cc4fp2Bh.s 			page 78


 3066              		.cfi_offset 14, -4
 3067 0002 86B0     		sub	sp, sp, #24	@,,
 3068              	.LCFI15:
 3069              		.cfi_def_cfa_offset 32
 3070 0004 0291     		str	r1, [sp, #8]	@ ptrAPN, ptrAPN
 3071 0006 0192     		str	r2, [sp, #4]	@ ptrUSER, ptrUSER
 3072 0008 0093     		str	r3, [sp]	@ ptrKEY, ptrKEY
 3073 000a 0F23     		movs	r3, #15	@ tmp190,
 3074 000c 6B44     		add	r3, r3, sp	@ tmp190,
 3075 000e 021C     		adds	r2, r0, #0	@ tmp191, tmp189
 3076 0010 1A70     		strb	r2, [r3]	@ tmp191, sim
1192:src/sim900_800.c **** 	unsigned char i;
1193:src/sim900_800.c **** 
1194:src/sim900_800.c **** 	switch(GSMConfigGPRSState)
 3077              		.loc 1 1194 0
 3078 0012 E14B     		ldr	r3, .L291	@ tmp192,
 3079 0014 1B78     		ldrb	r3, [r3]	@ D.7880, GSMConfigGPRSState
 3080 0016 102B     		cmp	r3, #16	@ D.7881,
 3081 0018 01D9     		bls	.LCB2362	@
 3082 001a 00F0FDFB 		bl	.L209	@far jump	@
 3083              	.LCB2362:
 3084 001e 9A00     		lsls	r2, r3, #2	@ tmp193, D.7881,
 3085 0020 DE4B     		ldr	r3, .L291+4	@ tmp195,
 3086 0022 D318     		adds	r3, r2, r3	@ tmp194, tmp193, tmp195
 3087 0024 1B68     		ldr	r3, [r3]	@ tmp196,
 3088 0026 9F46     		mov	pc, r3	@ tmp196
 3089              		.section	.rodata.GSMConfigGPRS,"a",%progbits
 3090              		.align	2
 3091              	.L211:
 3092 0000 28000000 		.word	.L210
 3093 0004 46000000 		.word	.L212
 3094 0008 88000000 		.word	.L213
 3095 000c CC000000 		.word	.L214
 3096 0010 CE020000 		.word	.L215
 3097 0014 3A030000 		.word	.L216
 3098 0018 00040000 		.word	.L217
 3099 001c 90040000 		.word	.L218
 3100 0020 D0040000 		.word	.L219
 3101 0024 76050000 		.word	.L220
 3102 0028 44060000 		.word	.L221
 3103 002c 7E060000 		.word	.L222
 3104 0030 B8060000 		.word	.L223
 3105 0034 FE060000 		.word	.L224
 3106 0038 38070000 		.word	.L225
 3107 003c 84070000 		.word	.L226
 3108 0040 DC070000 		.word	.L227
 3109              		.section	.text.GSMConfigGPRS
 3110              	.L210:
1195:src/sim900_800.c **** 	{
1196:src/sim900_800.c **** 
1197:src/sim900_800.c **** 		case 0:
1198:src/sim900_800.c **** 			GSMConfigGPRSTimeOut = timeOut;
 3111              		.loc 1 1198 0
 3112 0028 DD4B     		ldr	r3, .L291+8	@ tmp197,
 3113 002a 0BAA     		add	r2, sp, #44	@ tmp198,,
 3114 002c 1288     		ldrh	r2, [r2]	@ tmp199, timeOut
 3115 002e 1A80     		strh	r2, [r3]	@ tmp199, GSMConfigGPRSTimeOut
ARM GAS  /tmp/cc4fp2Bh.s 			page 79


1199:src/sim900_800.c **** 			GSMConfigGPRSState++;
 3116              		.loc 1 1199 0
 3117 0030 D94B     		ldr	r3, .L291	@ tmp200,
 3118 0032 1B78     		ldrb	r3, [r3]	@ D.7880, GSMConfigGPRSState
 3119 0034 0133     		adds	r3, r3, #1	@ tmp201,
 3120 0036 DAB2     		uxtb	r2, r3	@ D.7880, tmp201
 3121 0038 D74B     		ldr	r3, .L291	@ tmp202,
 3122 003a 1A70     		strb	r2, [r3]	@ tmp203, GSMConfigGPRSState
1200:src/sim900_800.c **** 			GSMConfigGPRSflag = 1;
 3123              		.loc 1 1200 0
 3124 003c D94B     		ldr	r3, .L291+12	@ tmp204,
 3125 003e 0122     		movs	r2, #1	@ tmp205,
 3126 0040 1A70     		strb	r2, [r3]	@ tmp206, GSMConfigGPRSflag
1201:src/sim900_800.c **** 			break;
 3127              		.loc 1 1201 0
 3128 0042 00F008FC 		bl	.L228	@ far jump	@
 3129              	.L212:
1202:src/sim900_800.c **** 
1203:src/sim900_800.c **** 		case 1:
1204:src/sim900_800.c **** 			i = GSMSendCommand("000: KAL,123456,100\r\n", 20, 0, &GSMbuffRtaCommand[0]);
 3130              		.loc 1 1204 0
 3131 0046 1724     		movs	r4, #23	@ tmp207,
 3132 0048 6C44     		add	r4, r4, sp	@ tmp207,
 3133 004a D74B     		ldr	r3, .L291+16	@ tmp208,
 3134 004c D748     		ldr	r0, .L291+20	@ tmp209,
 3135 004e 0022     		movs	r2, #0	@,
 3136 0050 1421     		movs	r1, #20	@,
 3137 0052 FFF7FEFF 		bl	GSMSendCommand	@
 3138 0056 0300     		movs	r3, r0	@ tmp210,
 3139 0058 2370     		strb	r3, [r4]	@ tmp212, i
1205:src/sim900_800.c **** 
1206:src/sim900_800.c **** 			if (i == 2)
 3140              		.loc 1 1206 0
 3141 005a 1723     		movs	r3, #23	@ tmp213,
 3142 005c 6B44     		add	r3, r3, sp	@ tmp213,
 3143 005e 1B78     		ldrb	r3, [r3]	@ tmp214, i
 3144 0060 022B     		cmp	r3, #2	@ tmp214,
 3145 0062 05D1     		bne	.L229	@,
1207:src/sim900_800.c **** 			{
1208:src/sim900_800.c **** 				//Respondio ACK.
1209:src/sim900_800.c **** 				//Conectado.
1210:src/sim900_800.c **** 				GSMConfigGPRSState = 0;
 3146              		.loc 1 1210 0
 3147 0064 CC4B     		ldr	r3, .L291	@ tmp215,
 3148 0066 0022     		movs	r2, #0	@ tmp216,
 3149 0068 1A70     		strb	r2, [r3]	@ tmp217, GSMConfigGPRSState
1211:src/sim900_800.c **** 				return 2;
 3150              		.loc 1 1211 0
 3151 006a 0223     		movs	r3, #2	@ D.7880,
 3152 006c 00F0FDFB 		bl	.L230	@ far jump	@
 3153              	.L229:
1212:src/sim900_800.c **** 			}
1213:src/sim900_800.c **** 
1214:src/sim900_800.c **** 			if (i > 2)
 3154              		.loc 1 1214 0
 3155 0070 1723     		movs	r3, #23	@ tmp218,
 3156 0072 6B44     		add	r3, r3, sp	@ tmp218,
ARM GAS  /tmp/cc4fp2Bh.s 			page 80


 3157 0074 1B78     		ldrb	r3, [r3]	@ tmp219, i
 3158 0076 022B     		cmp	r3, #2	@ tmp219,
 3159 0078 01D8     		bhi	.LCB2417	@
 3160 007a 00F0D1FB 		bl	.L277	@far jump	@
 3161              	.LCB2417:
1215:src/sim900_800.c **** 			{
1216:src/sim900_800.c **** 				//No conectado.
1217:src/sim900_800.c **** 				//Seleccionar Sim.
1218:src/sim900_800.c **** 				GSMConfigGPRSState = 15;
 3162              		.loc 1 1218 0
 3163 007e C64B     		ldr	r3, .L291	@ tmp220,
 3164 0080 0F22     		movs	r2, #15	@ tmp221,
 3165 0082 1A70     		strb	r2, [r3]	@ tmp222, GSMConfigGPRSState
1219:src/sim900_800.c **** 			}
1220:src/sim900_800.c **** 
1221:src/sim900_800.c **** 			break;
 3166              		.loc 1 1221 0
 3167 0084 00F0CCFB 		bl	.L277	@ far jump	@
 3168              	.L213:
1222:src/sim900_800.c **** 		case 2:
1223:src/sim900_800.c **** 
1224:src/sim900_800.c **** 			i = GSMSendCommand("AT+CIPSTATUS\r\n", 50, 0, &GSMbuffRtaCommand[0]);
 3169              		.loc 1 1224 0
 3170 0088 1724     		movs	r4, #23	@ tmp223,
 3171 008a 6C44     		add	r4, r4, sp	@ tmp223,
 3172 008c C64B     		ldr	r3, .L291+16	@ tmp224,
 3173 008e C848     		ldr	r0, .L291+24	@ tmp225,
 3174 0090 0022     		movs	r2, #0	@,
 3175 0092 3221     		movs	r1, #50	@,
 3176 0094 FFF7FEFF 		bl	GSMSendCommand	@
 3177 0098 0300     		movs	r3, r0	@ tmp226,
 3178 009a 2370     		strb	r3, [r4]	@ tmp228, i
1225:src/sim900_800.c **** 
1226:src/sim900_800.c **** 			if (i == 2)
 3179              		.loc 1 1226 0
 3180 009c 1723     		movs	r3, #23	@ tmp229,
 3181 009e 6B44     		add	r3, r3, sp	@ tmp229,
 3182 00a0 1B78     		ldrb	r3, [r3]	@ tmp230, i
 3183 00a2 022B     		cmp	r3, #2	@ tmp230,
 3184 00a4 05D1     		bne	.L232	@,
1227:src/sim900_800.c **** 			{
1228:src/sim900_800.c **** 				GSMConfigGPRSState++;
 3185              		.loc 1 1228 0
 3186 00a6 BC4B     		ldr	r3, .L291	@ tmp231,
 3187 00a8 1B78     		ldrb	r3, [r3]	@ D.7880, GSMConfigGPRSState
 3188 00aa 0133     		adds	r3, r3, #1	@ tmp232,
 3189 00ac DAB2     		uxtb	r2, r3	@ D.7880, tmp232
 3190 00ae BA4B     		ldr	r3, .L291	@ tmp233,
 3191 00b0 1A70     		strb	r2, [r3]	@ tmp234, GSMConfigGPRSState
 3192              	.L232:
1229:src/sim900_800.c **** 			}
1230:src/sim900_800.c **** 
1231:src/sim900_800.c **** 			if (i > 2)
 3193              		.loc 1 1231 0
 3194 00b2 1723     		movs	r3, #23	@ tmp235,
 3195 00b4 6B44     		add	r3, r3, sp	@ tmp235,
 3196 00b6 1B78     		ldrb	r3, [r3]	@ tmp236, i
ARM GAS  /tmp/cc4fp2Bh.s 			page 81


 3197 00b8 022B     		cmp	r3, #2	@ tmp236,
 3198 00ba 01D8     		bhi	.LCB2451	@
 3199 00bc 00F0B2FB 		bl	.L278	@far jump	@
 3200              	.LCB2451:
1232:src/sim900_800.c **** 			{
1233:src/sim900_800.c **** 				GSMConfigGPRSState = 0;
 3201              		.loc 1 1233 0
 3202 00c0 B54B     		ldr	r3, .L291	@ tmp237,
 3203 00c2 0022     		movs	r2, #0	@ tmp238,
 3204 00c4 1A70     		strb	r2, [r3]	@ tmp239, GSMConfigGPRSState
1234:src/sim900_800.c **** 				return 3;
 3205              		.loc 1 1234 0
 3206 00c6 0323     		movs	r3, #3	@ D.7880,
 3207 00c8 00F0CFFB 		bl	.L230	@ far jump	@
 3208              	.L214:
1235:src/sim900_800.c **** 			}
1236:src/sim900_800.c **** 			break;
1237:src/sim900_800.c **** 		case 3:
1238:src/sim900_800.c **** 			if(GSMConfigGPRSflag == 2)
 3209              		.loc 1 1238 0
 3210 00cc B54B     		ldr	r3, .L291+12	@ tmp240,
 3211 00ce 1B78     		ldrb	r3, [r3]	@ D.7880, GSMConfigGPRSflag
 3212 00d0 022B     		cmp	r3, #2	@ D.7880,
 3213 00d2 01D0     		beq	.LCB2463	@
 3214 00d4 00F0A8FB 		bl	.L279	@far jump	@
 3215              	.LCB2463:
1239:src/sim900_800.c **** 			{
1240:src/sim900_800.c **** 				//const char GSM_IPINITIAL[] 		= "IP INITIAL";
1241:src/sim900_800.c **** 				if(!strncmp((const char *)&GSMbuffStatus[0], (const char *)&GSM_IPINITIAL[0], strlen((const cha
 3216              		.loc 1 1241 0
 3217 00d8 B649     		ldr	r1, .L291+28	@ tmp241,
 3218 00da B74B     		ldr	r3, .L291+32	@ tmp242,
 3219 00dc 0A22     		movs	r2, #10	@,
 3220 00de 1800     		movs	r0, r3	@, tmp242
 3221 00e0 FFF7FEFF 		bl	strncmp	@
 3222 00e4 031E     		subs	r3, r0, #0	@ D.7881,,
 3223 00e6 08D1     		bne	.L235	@,
1242:src/sim900_800.c **** 				{
1243:src/sim900_800.c **** 					GSMConfigGPRSState += 1;
 3224              		.loc 1 1243 0
 3225 00e8 AB4B     		ldr	r3, .L291	@ tmp243,
 3226 00ea 1B78     		ldrb	r3, [r3]	@ D.7880, GSMConfigGPRSState
 3227 00ec 0133     		adds	r3, r3, #1	@ tmp244,
 3228 00ee DAB2     		uxtb	r2, r3	@ D.7880, tmp244
 3229 00f0 A94B     		ldr	r3, .L291	@ tmp245,
 3230 00f2 1A70     		strb	r2, [r3]	@ tmp246, GSMConfigGPRSState
1244:src/sim900_800.c **** 					GSMConfigGPRSflag = 1;
 3231              		.loc 1 1244 0
 3232 00f4 AB4B     		ldr	r3, .L291+12	@ tmp247,
 3233 00f6 0122     		movs	r2, #1	@ tmp248,
 3234 00f8 1A70     		strb	r2, [r3]	@ tmp249, GSMConfigGPRSflag
 3235              	.L235:
1245:src/sim900_800.c **** 				}
1246:src/sim900_800.c **** 				//const char GSM_IPSTART[] 		= "IP START";
1247:src/sim900_800.c **** 				if(!strncmp((const char *)&GSMbuffStatus[0], (const char *)&GSM_IPSTART[0], strlen((const char 
 3236              		.loc 1 1247 0
 3237 00fa B049     		ldr	r1, .L291+36	@ tmp250,
ARM GAS  /tmp/cc4fp2Bh.s 			page 82


 3238 00fc AE4B     		ldr	r3, .L291+32	@ tmp251,
 3239 00fe 0822     		movs	r2, #8	@,
 3240 0100 1800     		movs	r0, r3	@, tmp251
 3241 0102 FFF7FEFF 		bl	strncmp	@
 3242 0106 031E     		subs	r3, r0, #0	@ D.7881,,
 3243 0108 08D1     		bne	.L236	@,
1248:src/sim900_800.c **** 				{
1249:src/sim900_800.c **** 					GSMConfigGPRSState += 8;
 3244              		.loc 1 1249 0
 3245 010a A34B     		ldr	r3, .L291	@ tmp252,
 3246 010c 1B78     		ldrb	r3, [r3]	@ D.7880, GSMConfigGPRSState
 3247 010e 0833     		adds	r3, r3, #8	@ tmp253,
 3248 0110 DAB2     		uxtb	r2, r3	@ D.7880, tmp253
 3249 0112 A14B     		ldr	r3, .L291	@ tmp254,
 3250 0114 1A70     		strb	r2, [r3]	@ tmp255, GSMConfigGPRSState
1250:src/sim900_800.c **** 					GSMConfigGPRSflag = 1;
 3251              		.loc 1 1250 0
 3252 0116 A34B     		ldr	r3, .L291+12	@ tmp256,
 3253 0118 0122     		movs	r2, #1	@ tmp257,
 3254 011a 1A70     		strb	r2, [r3]	@ tmp258, GSMConfigGPRSflag
 3255              	.L236:
1251:src/sim900_800.c **** 				}
1252:src/sim900_800.c **** 				//const char GSM_IPGPRSACT[] 		= "IP GPRSACT";
1253:src/sim900_800.c **** 				if(!strncmp((const char *)&GSMbuffStatus[0], (const char *)&GSM_IPGPRSACT[0], strlen((const cha
 3256              		.loc 1 1253 0
 3257 011c A849     		ldr	r1, .L291+40	@ tmp259,
 3258 011e A64B     		ldr	r3, .L291+32	@ tmp260,
 3259 0120 0A22     		movs	r2, #10	@,
 3260 0122 1800     		movs	r0, r3	@, tmp260
 3261 0124 FFF7FEFF 		bl	strncmp	@
 3262 0128 031E     		subs	r3, r0, #0	@ D.7881,,
 3263 012a 08D1     		bne	.L237	@,
1254:src/sim900_800.c **** 				{
1255:src/sim900_800.c **** 					GSMConfigGPRSState += 9;
 3264              		.loc 1 1255 0
 3265 012c 9A4B     		ldr	r3, .L291	@ tmp261,
 3266 012e 1B78     		ldrb	r3, [r3]	@ D.7880, GSMConfigGPRSState
 3267 0130 0933     		adds	r3, r3, #9	@ tmp262,
 3268 0132 DAB2     		uxtb	r2, r3	@ D.7880, tmp262
 3269 0134 984B     		ldr	r3, .L291	@ tmp263,
 3270 0136 1A70     		strb	r2, [r3]	@ tmp264, GSMConfigGPRSState
1256:src/sim900_800.c **** 					GSMConfigGPRSflag = 1;
 3271              		.loc 1 1256 0
 3272 0138 9A4B     		ldr	r3, .L291+12	@ tmp265,
 3273 013a 0122     		movs	r2, #1	@ tmp266,
 3274 013c 1A70     		strb	r2, [r3]	@ tmp267, GSMConfigGPRSflag
 3275              	.L237:
1257:src/sim900_800.c **** 				}
1258:src/sim900_800.c **** 
1259:src/sim900_800.c **** 				//const char GSM_IPSTATUS[] 	= "IP STATUS";
1260:src/sim900_800.c **** 				if(!strncmp((const char *)&GSMbuffStatus[0], (const char *)&GSM_IPSTATUS[0], strlen((const char
 3276              		.loc 1 1260 0
 3277 013e A149     		ldr	r1, .L291+44	@ tmp268,
 3278 0140 9D4B     		ldr	r3, .L291+32	@ tmp269,
 3279 0142 0922     		movs	r2, #9	@,
 3280 0144 1800     		movs	r0, r3	@, tmp269
 3281 0146 FFF7FEFF 		bl	strncmp	@
ARM GAS  /tmp/cc4fp2Bh.s 			page 83


 3282 014a 031E     		subs	r3, r0, #0	@ D.7881,,
 3283 014c 3AD1     		bne	.L238	@,
1261:src/sim900_800.c **** 				{
1262:src/sim900_800.c **** 					GSMConfigGPRSState += 10;
 3284              		.loc 1 1262 0
 3285 014e 924B     		ldr	r3, .L291	@ tmp270,
 3286 0150 1B78     		ldrb	r3, [r3]	@ D.7880, GSMConfigGPRSState
 3287 0152 0A33     		adds	r3, r3, #10	@ tmp271,
 3288 0154 DAB2     		uxtb	r2, r3	@ D.7880, tmp271
 3289 0156 904B     		ldr	r3, .L291	@ tmp272,
 3290 0158 1A70     		strb	r2, [r3]	@ tmp273, GSMConfigGPRSState
1263:src/sim900_800.c **** 					sprintf(&GSMbuffGPRSCommand[0], (const char*)"AT+CIPSTART=\"TCP\",\"");
 3291              		.loc 1 1263 0
 3292 015a 9B4A     		ldr	r2, .L291+48	@ tmp274,
 3293 015c 9B4B     		ldr	r3, .L291+52	@ tmp275,
 3294 015e 1000     		movs	r0, r2	@ tmp276, tmp274
 3295 0160 1900     		movs	r1, r3	@ tmp277, tmp275
 3296 0162 1423     		movs	r3, #20	@ tmp278,
 3297 0164 1A00     		movs	r2, r3	@, tmp278
 3298 0166 FFF7FEFF 		bl	memcpy	@
1264:src/sim900_800.c **** 					strcat(&GSMbuffGPRSCommand[0], ptrIPremote);
 3299              		.loc 1 1264 0
 3300 016a 099A     		ldr	r2, [sp, #36]	@ tmp281, ptrIPremote
 3301 016c 964B     		ldr	r3, .L291+48	@ tmp282,
 3302 016e 1100     		movs	r1, r2	@, tmp281
 3303 0170 1800     		movs	r0, r3	@, tmp282
 3304 0172 FFF7FEFF 		bl	strcat	@
1265:src/sim900_800.c **** 					strcat(&GSMbuffGPRSCommand[0], "\",\"");
 3305              		.loc 1 1265 0
 3306 0176 944B     		ldr	r3, .L291+48	@ tmp283,
 3307 0178 1800     		movs	r0, r3	@, tmp283
 3308 017a FFF7FEFF 		bl	strlen	@
 3309 017e 0300     		movs	r3, r0	@ tmp284,
 3310 0180 1A00     		movs	r2, r3	@ D.7882, tmp285
 3311 0182 914B     		ldr	r3, .L291+48	@ tmp286,
 3312 0184 D218     		adds	r2, r2, r3	@ D.7883, D.7882, tmp286
 3313 0186 924B     		ldr	r3, .L291+56	@ tmp287,
 3314 0188 1000     		movs	r0, r2	@ tmp288, D.7883
 3315 018a 1900     		movs	r1, r3	@ tmp289, tmp287
 3316 018c 0423     		movs	r3, #4	@ tmp290,
 3317 018e 1A00     		movs	r2, r3	@, tmp290
 3318 0190 FFF7FEFF 		bl	memcpy	@
1266:src/sim900_800.c **** 					strcat(&GSMbuffGPRSCommand[0], ptrPORTremote);
 3319              		.loc 1 1266 0
 3320 0194 0A9A     		ldr	r2, [sp, #40]	@ tmp293, ptrPORTremote
 3321 0196 8C4B     		ldr	r3, .L291+48	@ tmp294,
 3322 0198 1100     		movs	r1, r2	@, tmp293
 3323 019a 1800     		movs	r0, r3	@, tmp294
 3324 019c FFF7FEFF 		bl	strcat	@
1267:src/sim900_800.c **** 					strcat(&GSMbuffGPRSCommand[0], "\"\r\n");
 3325              		.loc 1 1267 0
 3326 01a0 894B     		ldr	r3, .L291+48	@ tmp295,
 3327 01a2 1800     		movs	r0, r3	@, tmp295
 3328 01a4 FFF7FEFF 		bl	strlen	@
 3329 01a8 0300     		movs	r3, r0	@ tmp296,
 3330 01aa 1A00     		movs	r2, r3	@ D.7882, tmp297
 3331 01ac 864B     		ldr	r3, .L291+48	@ tmp298,
ARM GAS  /tmp/cc4fp2Bh.s 			page 84


 3332 01ae D218     		adds	r2, r2, r3	@ D.7883, D.7882, tmp298
 3333 01b0 884B     		ldr	r3, .L291+60	@ tmp299,
 3334 01b2 1000     		movs	r0, r2	@ tmp300, D.7883
 3335 01b4 1900     		movs	r1, r3	@ tmp301, tmp299
 3336 01b6 0423     		movs	r3, #4	@ tmp302,
 3337 01b8 1A00     		movs	r2, r3	@, tmp302
 3338 01ba FFF7FEFF 		bl	memcpy	@
1268:src/sim900_800.c **** 					GSMConfigGPRSflag = 1;
 3339              		.loc 1 1268 0
 3340 01be 794B     		ldr	r3, .L291+12	@ tmp305,
 3341 01c0 0122     		movs	r2, #1	@ tmp306,
 3342 01c2 1A70     		strb	r2, [r3]	@ tmp307, GSMConfigGPRSflag
 3343              	.L238:
1269:src/sim900_800.c **** 				}
1270:src/sim900_800.c **** 				//const char GSM_IPCONNECTING[] 	= "TCP CONNECTING";
1271:src/sim900_800.c **** 				if(!strncmp((const char *)&GSMbuffStatus[0], (const char *)&GSM_IPCONNECTING[0], strlen((const 
 3344              		.loc 1 1271 0
 3345 01c4 8449     		ldr	r1, .L291+64	@ tmp308,
 3346 01c6 7C4B     		ldr	r3, .L291+32	@ tmp309,
 3347 01c8 0E22     		movs	r2, #14	@,
 3348 01ca 1800     		movs	r0, r3	@, tmp309
 3349 01cc FFF7FEFF 		bl	strncmp	@
 3350 01d0 031E     		subs	r3, r0, #0	@ D.7881,,
 3351 01d2 08D1     		bne	.L239	@,
1272:src/sim900_800.c **** 				{
1273:src/sim900_800.c **** 					GSMConfigGPRSState -= 1;
 3352              		.loc 1 1273 0
 3353 01d4 704B     		ldr	r3, .L291	@ tmp310,
 3354 01d6 1B78     		ldrb	r3, [r3]	@ D.7880, GSMConfigGPRSState
 3355 01d8 013B     		subs	r3, r3, #1	@ tmp311,
 3356 01da DAB2     		uxtb	r2, r3	@ D.7880, tmp311
 3357 01dc 6E4B     		ldr	r3, .L291	@ tmp312,
 3358 01de 1A70     		strb	r2, [r3]	@ tmp313, GSMConfigGPRSState
1274:src/sim900_800.c **** 					GSMConfigGPRSflag = 1;
 3359              		.loc 1 1274 0
 3360 01e0 704B     		ldr	r3, .L291+12	@ tmp314,
 3361 01e2 0122     		movs	r2, #1	@ tmp315,
 3362 01e4 1A70     		strb	r2, [r3]	@ tmp316, GSMConfigGPRSflag
 3363              	.L239:
1275:src/sim900_800.c **** 				}
1276:src/sim900_800.c **** 				//const char GSM_IPCONNOK[] 		= "CONNECT OK";
1277:src/sim900_800.c **** 				if(!strncmp((const char *)&GSMbuffStatus[0], (const char *)&GSM_IPCONNOK[0], strlen((const char
 3364              		.loc 1 1277 0
 3365 01e6 7D49     		ldr	r1, .L291+68	@ tmp317,
 3366 01e8 734B     		ldr	r3, .L291+32	@ tmp318,
 3367 01ea 0A22     		movs	r2, #10	@,
 3368 01ec 1800     		movs	r0, r3	@, tmp318
 3369 01ee FFF7FEFF 		bl	strncmp	@
 3370 01f2 031E     		subs	r3, r0, #0	@ D.7881,,
 3371 01f4 04D1     		bne	.L240	@,
1278:src/sim900_800.c **** 				{
1279:src/sim900_800.c **** 					GSMConfigGPRSState = 0;
 3372              		.loc 1 1279 0
 3373 01f6 684B     		ldr	r3, .L291	@ tmp319,
 3374 01f8 0022     		movs	r2, #0	@ tmp320,
 3375 01fa 1A70     		strb	r2, [r3]	@ tmp321, GSMConfigGPRSState
1280:src/sim900_800.c **** 					return 2;
ARM GAS  /tmp/cc4fp2Bh.s 			page 85


 3376              		.loc 1 1280 0
 3377 01fc 0223     		movs	r3, #2	@ D.7880,
 3378 01fe 34E3     		b	.L230	@
 3379              	.L240:
1281:src/sim900_800.c **** 				}
1282:src/sim900_800.c **** /*				//const char GSM_IPCONNFAIL[] 	= "CONNECT FAIL";
1283:src/sim900_800.c **** 				if(!strncmp((const char *)&GSMbuffStatus[0], (const char *)&GSM_IPCONNFAIL[0], strlen((const ch
1284:src/sim900_800.c **** 				{
1285:src/sim900_800.c **** 					GSMConfigGPRSState += 11;
1286:src/sim900_800.c **** 					GSMConfigGPRSflag = 1;
1287:src/sim900_800.c **** 				}
1288:src/sim900_800.c **** */
1289:src/sim900_800.c **** 				//const char GSM_IPCONNCLOSE[] 	= "TCP CLOSED";
1290:src/sim900_800.c **** 				if(!strncmp((const char *)&GSMbuffStatus[0], (const char *)&GSM_IPCONNCLOSE[0], strlen((const c
 3380              		.loc 1 1290 0
 3381 0200 7749     		ldr	r1, .L291+72	@ tmp322,
 3382 0202 6D4B     		ldr	r3, .L291+32	@ tmp323,
 3383 0204 0A22     		movs	r2, #10	@,
 3384 0206 1800     		movs	r0, r3	@, tmp323
 3385 0208 FFF7FEFF 		bl	strncmp	@
 3386 020c 031E     		subs	r3, r0, #0	@ D.7881,,
 3387 020e 3AD1     		bne	.L241	@,
1291:src/sim900_800.c **** 				{
1292:src/sim900_800.c **** 					GSMConfigGPRSState += 10;
 3388              		.loc 1 1292 0
 3389 0210 614B     		ldr	r3, .L291	@ tmp324,
 3390 0212 1B78     		ldrb	r3, [r3]	@ D.7880, GSMConfigGPRSState
 3391 0214 0A33     		adds	r3, r3, #10	@ tmp325,
 3392 0216 DAB2     		uxtb	r2, r3	@ D.7880, tmp325
 3393 0218 5F4B     		ldr	r3, .L291	@ tmp326,
 3394 021a 1A70     		strb	r2, [r3]	@ tmp327, GSMConfigGPRSState
1293:src/sim900_800.c **** 					sprintf(&GSMbuffGPRSCommand[0], (const char*)"AT+CIPSTART=\"TCP\",\"");
 3395              		.loc 1 1293 0
 3396 021c 6A4A     		ldr	r2, .L291+48	@ tmp328,
 3397 021e 6B4B     		ldr	r3, .L291+52	@ tmp329,
 3398 0220 1000     		movs	r0, r2	@ tmp330, tmp328
 3399 0222 1900     		movs	r1, r3	@ tmp331, tmp329
 3400 0224 1423     		movs	r3, #20	@ tmp332,
 3401 0226 1A00     		movs	r2, r3	@, tmp332
 3402 0228 FFF7FEFF 		bl	memcpy	@
1294:src/sim900_800.c **** 					strcat(&GSMbuffGPRSCommand[0], ptrIPremote);
 3403              		.loc 1 1294 0
 3404 022c 099A     		ldr	r2, [sp, #36]	@ tmp335, ptrIPremote
 3405 022e 664B     		ldr	r3, .L291+48	@ tmp336,
 3406 0230 1100     		movs	r1, r2	@, tmp335
 3407 0232 1800     		movs	r0, r3	@, tmp336
 3408 0234 FFF7FEFF 		bl	strcat	@
1295:src/sim900_800.c **** 					strcat(&GSMbuffGPRSCommand[0], "\",\"");
 3409              		.loc 1 1295 0
 3410 0238 634B     		ldr	r3, .L291+48	@ tmp337,
 3411 023a 1800     		movs	r0, r3	@, tmp337
 3412 023c FFF7FEFF 		bl	strlen	@
 3413 0240 0300     		movs	r3, r0	@ tmp338,
 3414 0242 1A00     		movs	r2, r3	@ D.7882, tmp339
 3415 0244 604B     		ldr	r3, .L291+48	@ tmp340,
 3416 0246 D218     		adds	r2, r2, r3	@ D.7883, D.7882, tmp340
 3417 0248 614B     		ldr	r3, .L291+56	@ tmp341,
ARM GAS  /tmp/cc4fp2Bh.s 			page 86


 3418 024a 1000     		movs	r0, r2	@ tmp342, D.7883
 3419 024c 1900     		movs	r1, r3	@ tmp343, tmp341
 3420 024e 0423     		movs	r3, #4	@ tmp344,
 3421 0250 1A00     		movs	r2, r3	@, tmp344
 3422 0252 FFF7FEFF 		bl	memcpy	@
1296:src/sim900_800.c **** 					strcat(&GSMbuffGPRSCommand[0], ptrPORTremote);
 3423              		.loc 1 1296 0
 3424 0256 0A9A     		ldr	r2, [sp, #40]	@ tmp347, ptrPORTremote
 3425 0258 5B4B     		ldr	r3, .L291+48	@ tmp348,
 3426 025a 1100     		movs	r1, r2	@, tmp347
 3427 025c 1800     		movs	r0, r3	@, tmp348
 3428 025e FFF7FEFF 		bl	strcat	@
1297:src/sim900_800.c **** 					strcat(&GSMbuffGPRSCommand[0], "\"\r\n");
 3429              		.loc 1 1297 0
 3430 0262 594B     		ldr	r3, .L291+48	@ tmp349,
 3431 0264 1800     		movs	r0, r3	@, tmp349
 3432 0266 FFF7FEFF 		bl	strlen	@
 3433 026a 0300     		movs	r3, r0	@ tmp350,
 3434 026c 1A00     		movs	r2, r3	@ D.7882, tmp351
 3435 026e 564B     		ldr	r3, .L291+48	@ tmp352,
 3436 0270 D218     		adds	r2, r2, r3	@ D.7883, D.7882, tmp352
 3437 0272 584B     		ldr	r3, .L291+60	@ tmp353,
 3438 0274 1000     		movs	r0, r2	@ tmp354, D.7883
 3439 0276 1900     		movs	r1, r3	@ tmp355, tmp353
 3440 0278 0423     		movs	r3, #4	@ tmp356,
 3441 027a 1A00     		movs	r2, r3	@, tmp356
 3442 027c FFF7FEFF 		bl	memcpy	@
1298:src/sim900_800.c **** 					GSMConfigGPRSflag = 1;
 3443              		.loc 1 1298 0
 3444 0280 484B     		ldr	r3, .L291+12	@ tmp359,
 3445 0282 0122     		movs	r2, #1	@ tmp360,
 3446 0284 1A70     		strb	r2, [r3]	@ tmp361, GSMConfigGPRSflag
 3447              	.L241:
1299:src/sim900_800.c **** 				}
1300:src/sim900_800.c **** 
1301:src/sim900_800.c **** 				if(!strncmp((const char *)&GSMbuffStatus[0], (const char *)"CONNECTED", sizeof("CONNECTED") - 1
 3448              		.loc 1 1301 0
 3449 0286 5749     		ldr	r1, .L291+76	@ tmp362,
 3450 0288 4B4B     		ldr	r3, .L291+32	@ tmp363,
 3451 028a 0922     		movs	r2, #9	@,
 3452 028c 1800     		movs	r0, r3	@, tmp363
 3453 028e FFF7FEFF 		bl	strncmp	@
 3454 0292 031E     		subs	r3, r0, #0	@ D.7881,,
 3455 0294 08D1     		bne	.L242	@,
1302:src/sim900_800.c **** 				{
1303:src/sim900_800.c **** 					GSMConfigGPRSState += 11;
 3456              		.loc 1 1303 0
 3457 0296 404B     		ldr	r3, .L291	@ tmp364,
 3458 0298 1B78     		ldrb	r3, [r3]	@ D.7880, GSMConfigGPRSState
 3459 029a 0B33     		adds	r3, r3, #11	@ tmp365,
 3460 029c DAB2     		uxtb	r2, r3	@ D.7880, tmp365
 3461 029e 3E4B     		ldr	r3, .L291	@ tmp366,
 3462 02a0 1A70     		strb	r2, [r3]	@ tmp367, GSMConfigGPRSState
1304:src/sim900_800.c **** 					GSMConfigGPRSflag = 1;
 3463              		.loc 1 1304 0
 3464 02a2 404B     		ldr	r3, .L291+12	@ tmp368,
 3465 02a4 0122     		movs	r2, #1	@ tmp369,
ARM GAS  /tmp/cc4fp2Bh.s 			page 87


 3466 02a6 1A70     		strb	r2, [r3]	@ tmp370, GSMConfigGPRSflag
 3467              	.L242:
1305:src/sim900_800.c **** 				}
1306:src/sim900_800.c **** 
1307:src/sim900_800.c **** 				if(!strncmp((const char *)&GSMbuffStatus[0], (const char *)"PDP DEACT", sizeof("PDP DEACT") - 1
 3468              		.loc 1 1307 0
 3469 02a8 4F49     		ldr	r1, .L291+80	@ tmp371,
 3470 02aa 434B     		ldr	r3, .L291+32	@ tmp372,
 3471 02ac 0922     		movs	r2, #9	@,
 3472 02ae 1800     		movs	r0, r3	@, tmp372
 3473 02b0 FFF7FEFF 		bl	strncmp	@
 3474 02b4 031E     		subs	r3, r0, #0	@ D.7881,,
 3475 02b6 00D0     		beq	.LCB2706	@
 3476 02b8 B6E2     		b	.L279	@long jump	@
 3477              	.LCB2706:
1308:src/sim900_800.c **** 				{
1309:src/sim900_800.c **** 					GSMConfigGPRSState += 13;
 3478              		.loc 1 1309 0
 3479 02ba 374B     		ldr	r3, .L291	@ tmp373,
 3480 02bc 1B78     		ldrb	r3, [r3]	@ D.7880, GSMConfigGPRSState
 3481 02be 0D33     		adds	r3, r3, #13	@ tmp374,
 3482 02c0 DAB2     		uxtb	r2, r3	@ D.7880, tmp374
 3483 02c2 354B     		ldr	r3, .L291	@ tmp375,
 3484 02c4 1A70     		strb	r2, [r3]	@ tmp376, GSMConfigGPRSState
1310:src/sim900_800.c **** 					GSMConfigGPRSflag = 1;
 3485              		.loc 1 1310 0
 3486 02c6 374B     		ldr	r3, .L291+12	@ tmp377,
 3487 02c8 0122     		movs	r2, #1	@ tmp378,
 3488 02ca 1A70     		strb	r2, [r3]	@ tmp379, GSMConfigGPRSflag
1311:src/sim900_800.c **** 				}
1312:src/sim900_800.c **** 			}
1313:src/sim900_800.c **** 			break;
 3489              		.loc 1 1313 0
 3490 02cc ACE2     		b	.L279	@
 3491              	.L215:
1314:src/sim900_800.c **** 
1315:src/sim900_800.c **** 		case 4:
1316:src/sim900_800.c **** 			i = GSMSendCommand("AT+CPIN?\r\n", 50, 1, &GSMbuffRtaCommand[0]);
 3492              		.loc 1 1316 0
 3493 02ce 1724     		movs	r4, #23	@ tmp380,
 3494 02d0 6C44     		add	r4, r4, sp	@ tmp380,
 3495 02d2 354B     		ldr	r3, .L291+16	@ tmp381,
 3496 02d4 4548     		ldr	r0, .L291+84	@ tmp382,
 3497 02d6 0122     		movs	r2, #1	@,
 3498 02d8 3221     		movs	r1, #50	@,
 3499 02da FFF7FEFF 		bl	GSMSendCommand	@
 3500 02de 0300     		movs	r3, r0	@ tmp383,
 3501 02e0 2370     		strb	r3, [r4]	@ tmp385, i
1317:src/sim900_800.c **** 
1318:src/sim900_800.c **** 			if (i == 2)
 3502              		.loc 1 1318 0
 3503 02e2 1723     		movs	r3, #23	@ tmp386,
 3504 02e4 6B44     		add	r3, r3, sp	@ tmp386,
 3505 02e6 1B78     		ldrb	r3, [r3]	@ tmp387, i
 3506 02e8 022B     		cmp	r3, #2	@ tmp387,
 3507 02ea 1BD1     		bne	.L243	@,
1319:src/sim900_800.c **** 			{
ARM GAS  /tmp/cc4fp2Bh.s 			page 88


1320:src/sim900_800.c **** 				if ((!strncmp((const char *)&GSMbuffRtaCommand[0], (const char *)"+CPIN: READY", sizeof("+CPIN:
 3508              		.loc 1 1320 0
 3509 02ec 4049     		ldr	r1, .L291+88	@ tmp388,
 3510 02ee 2E4B     		ldr	r3, .L291+16	@ tmp389,
 3511 02f0 0C22     		movs	r2, #12	@,
 3512 02f2 1800     		movs	r0, r3	@, tmp389
 3513 02f4 FFF7FEFF 		bl	strncmp	@
 3514 02f8 031E     		subs	r3, r0, #0	@ D.7881,,
 3515 02fa 07D0     		beq	.L244	@,
 3516              		.loc 1 1320 0 is_stmt 0 discriminator 1
 3517 02fc 3D49     		ldr	r1, .L291+92	@ tmp390,
 3518 02fe 2A4B     		ldr	r3, .L291+16	@ tmp391,
 3519 0300 0E22     		movs	r2, #14	@,
 3520 0302 1800     		movs	r0, r3	@, tmp391
 3521 0304 FFF7FEFF 		bl	strncmp	@
 3522 0308 031E     		subs	r3, r0, #0	@ D.7881,,
 3523 030a 06D1     		bne	.L245	@,
 3524              	.L244:
1321:src/sim900_800.c **** 				{
1322:src/sim900_800.c **** 					GSMConfigGPRSState++;
 3525              		.loc 1 1322 0 is_stmt 1
 3526 030c 224B     		ldr	r3, .L291	@ tmp392,
 3527 030e 1B78     		ldrb	r3, [r3]	@ D.7880, GSMConfigGPRSState
 3528 0310 0133     		adds	r3, r3, #1	@ tmp393,
 3529 0312 DAB2     		uxtb	r2, r3	@ D.7880, tmp393
 3530 0314 204B     		ldr	r3, .L291	@ tmp394,
 3531 0316 1A70     		strb	r2, [r3]	@ tmp395, GSMConfigGPRSState
 3532 0318 04E0     		b	.L243	@
 3533              	.L245:
1323:src/sim900_800.c **** 				}
1324:src/sim900_800.c **** 				else
1325:src/sim900_800.c **** 				{
1326:src/sim900_800.c **** 					GSMConfigGPRSState = 0;
 3534              		.loc 1 1326 0
 3535 031a 1F4B     		ldr	r3, .L291	@ tmp396,
 3536 031c 0022     		movs	r2, #0	@ tmp397,
 3537 031e 1A70     		strb	r2, [r3]	@ tmp398, GSMConfigGPRSState
1327:src/sim900_800.c **** 					return 3;
 3538              		.loc 1 1327 0
 3539 0320 0323     		movs	r3, #3	@ D.7880,
 3540 0322 A2E2     		b	.L230	@
 3541              	.L243:
1328:src/sim900_800.c **** 				}
1329:src/sim900_800.c **** 			}
1330:src/sim900_800.c **** 
1331:src/sim900_800.c **** 			if (i > 2)
 3542              		.loc 1 1331 0
 3543 0324 1723     		movs	r3, #23	@ tmp399,
 3544 0326 6B44     		add	r3, r3, sp	@ tmp399,
 3545 0328 1B78     		ldrb	r3, [r3]	@ tmp400, i
 3546 032a 022B     		cmp	r3, #2	@ tmp400,
 3547 032c 00D8     		bhi	.LCB2773	@
 3548 032e 7DE2     		b	.L280	@long jump	@
 3549              	.LCB2773:
1332:src/sim900_800.c **** 			{
1333:src/sim900_800.c **** 				GSMConfigGPRSState = 0;
 3550              		.loc 1 1333 0
ARM GAS  /tmp/cc4fp2Bh.s 			page 89


 3551 0330 194B     		ldr	r3, .L291	@ tmp401,
 3552 0332 0022     		movs	r2, #0	@ tmp402,
 3553 0334 1A70     		strb	r2, [r3]	@ tmp403, GSMConfigGPRSState
1334:src/sim900_800.c **** 				return 3;
 3554              		.loc 1 1334 0
 3555 0336 0323     		movs	r3, #3	@ D.7880,
 3556 0338 97E2     		b	.L230	@
 3557              	.L216:
1335:src/sim900_800.c **** 			}
1336:src/sim900_800.c **** 			break;
1337:src/sim900_800.c **** 
1338:src/sim900_800.c **** 		case 5:
1339:src/sim900_800.c **** 			i = GSMSendCommand("AT+CREG?\r\n", 50, 1, &GSMbuffRtaCommand[0]);
 3558              		.loc 1 1339 0
 3559 033a 1724     		movs	r4, #23	@ tmp404,
 3560 033c 6C44     		add	r4, r4, sp	@ tmp404,
 3561 033e 1A4B     		ldr	r3, .L291+16	@ tmp405,
 3562 0340 2D48     		ldr	r0, .L291+96	@ tmp406,
 3563 0342 0122     		movs	r2, #1	@,
 3564 0344 3221     		movs	r1, #50	@,
 3565 0346 FFF7FEFF 		bl	GSMSendCommand	@
 3566 034a 0300     		movs	r3, r0	@ tmp407,
 3567 034c 2370     		strb	r3, [r4]	@ tmp409, i
1340:src/sim900_800.c **** 
1341:src/sim900_800.c **** 			if (i == 2)
 3568              		.loc 1 1341 0
 3569 034e 1723     		movs	r3, #23	@ tmp410,
 3570 0350 6B44     		add	r3, r3, sp	@ tmp410,
 3571 0352 1B78     		ldrb	r3, [r3]	@ tmp411, i
 3572 0354 022B     		cmp	r3, #2	@ tmp411,
 3573 0356 13D1     		bne	.L247	@,
1342:src/sim900_800.c **** 			{
1343:src/sim900_800.c **** 				if (!strncmp((const char *)&GSMbuffRtaCommand[0], (const char *)"+CREG: 0,1", sizeof("+CREG: 0,
 3574              		.loc 1 1343 0
 3575 0358 2849     		ldr	r1, .L291+100	@ tmp412,
 3576 035a 134B     		ldr	r3, .L291+16	@ tmp413,
 3577 035c 0A22     		movs	r2, #10	@,
 3578 035e 1800     		movs	r0, r3	@, tmp413
 3579 0360 FFF7FEFF 		bl	strncmp	@
 3580 0364 031E     		subs	r3, r0, #0	@ D.7881,,
 3581 0366 06D1     		bne	.L248	@,
1344:src/sim900_800.c **** 				{
1345:src/sim900_800.c **** 					GSMConfigGPRSState++;
 3582              		.loc 1 1345 0
 3583 0368 0B4B     		ldr	r3, .L291	@ tmp414,
 3584 036a 1B78     		ldrb	r3, [r3]	@ D.7880, GSMConfigGPRSState
 3585 036c 0133     		adds	r3, r3, #1	@ tmp415,
 3586 036e DAB2     		uxtb	r2, r3	@ D.7880, tmp415
 3587 0370 094B     		ldr	r3, .L291	@ tmp416,
 3588 0372 1A70     		strb	r2, [r3]	@ tmp417, GSMConfigGPRSState
 3589 0374 04E0     		b	.L247	@
 3590              	.L248:
1346:src/sim900_800.c **** 				}
1347:src/sim900_800.c **** 				else
1348:src/sim900_800.c **** 				{
1349:src/sim900_800.c **** 					GSMConfigGPRSState = 0;
 3591              		.loc 1 1349 0
ARM GAS  /tmp/cc4fp2Bh.s 			page 90


 3592 0376 084B     		ldr	r3, .L291	@ tmp418,
 3593 0378 0022     		movs	r2, #0	@ tmp419,
 3594 037a 1A70     		strb	r2, [r3]	@ tmp420, GSMConfigGPRSState
1350:src/sim900_800.c **** 					return 3;
 3595              		.loc 1 1350 0
 3596 037c 0323     		movs	r3, #3	@ D.7880,
 3597 037e 74E2     		b	.L230	@
 3598              	.L247:
1351:src/sim900_800.c **** 				}
1352:src/sim900_800.c **** 			}
1353:src/sim900_800.c **** 
1354:src/sim900_800.c **** 			if (i > 2)
 3599              		.loc 1 1354 0
 3600 0380 1723     		movs	r3, #23	@ tmp421,
 3601 0382 6B44     		add	r3, r3, sp	@ tmp421,
 3602 0384 1B78     		ldrb	r3, [r3]	@ tmp422, i
 3603 0386 022B     		cmp	r3, #2	@ tmp422,
 3604 0388 00D8     		bhi	.LCB2826	@
 3605 038a 51E2     		b	.L281	@long jump	@
 3606              	.LCB2826:
1355:src/sim900_800.c **** 			{
1356:src/sim900_800.c **** 				GSMConfigGPRSState = 0;
 3607              		.loc 1 1356 0
 3608 038c 024B     		ldr	r3, .L291	@ tmp423,
 3609 038e 0022     		movs	r2, #0	@ tmp424,
 3610 0390 1A70     		strb	r2, [r3]	@ tmp425, GSMConfigGPRSState
1357:src/sim900_800.c **** 				return 3;
 3611              		.loc 1 1357 0
 3612 0392 0323     		movs	r3, #3	@ D.7880,
 3613 0394 69E2     		b	.L230	@
 3614              	.L292:
 3615 0396 C046     		.align	2
 3616              	.L291:
 3617 0398 00000000 		.word	GSMConfigGPRSState
 3618 039c 00000000 		.word	.L211
 3619 03a0 00000000 		.word	GSMConfigGPRSTimeOut
 3620 03a4 00000000 		.word	GSMConfigGPRSflag
 3621 03a8 00000000 		.word	GSMbuffRtaCommand
 3622 03ac E4000000 		.word	.LC104
 3623 03b0 FC000000 		.word	.LC106
 3624 03b4 00000000 		.word	GSM_IPINITIAL
 3625 03b8 00000000 		.word	GSMbuffStatus
 3626 03bc 00000000 		.word	GSM_IPSTART
 3627 03c0 00000000 		.word	GSM_IPGPRSACT
 3628 03c4 00000000 		.word	GSM_IPSTATUS
 3629 03c8 00000000 		.word	GSMbuffGPRSCommand
 3630 03cc 0C010000 		.word	.LC114
 3631 03d0 20010000 		.word	.LC116
 3632 03d4 DC000000 		.word	.LC94
 3633 03d8 00000000 		.word	GSM_IPCONNECTING
 3634 03dc 00000000 		.word	GSM_IPCONNOK
 3635 03e0 00000000 		.word	GSM_IPCONNCLOSE
 3636 03e4 24010000 		.word	.LC122
 3637 03e8 30010000 		.word	.LC124
 3638 03ec 3C010000 		.word	.LC126
 3639 03f0 48010000 		.word	.LC128
 3640 03f4 58010000 		.word	.LC130
ARM GAS  /tmp/cc4fp2Bh.s 			page 91


 3641 03f8 68010000 		.word	.LC132
 3642 03fc 74010000 		.word	.LC134
 3643              	.L217:
1358:src/sim900_800.c **** 			}
1359:src/sim900_800.c **** 			break;
1360:src/sim900_800.c **** 		case 6:
1361:src/sim900_800.c **** 			i = GSMSendCommand("AT+CSQ\r\n", 50, 1, &GSMbuffRtaCommand[0]);
 3644              		.loc 1 1361 0
 3645 0400 1724     		movs	r4, #23	@ tmp426,
 3646 0402 6C44     		add	r4, r4, sp	@ tmp426,
 3647 0404 CF4B     		ldr	r3, .L293	@ tmp427,
 3648 0406 D048     		ldr	r0, .L293+4	@ tmp428,
 3649 0408 0122     		movs	r2, #1	@,
 3650 040a 3221     		movs	r1, #50	@,
 3651 040c FFF7FEFF 		bl	GSMSendCommand	@
 3652 0410 0300     		movs	r3, r0	@ tmp429,
 3653 0412 2370     		strb	r3, [r4]	@ tmp431, i
1362:src/sim900_800.c **** 
1363:src/sim900_800.c **** 			if (i == 2)
 3654              		.loc 1 1363 0
 3655 0414 1723     		movs	r3, #23	@ tmp432,
 3656 0416 6B44     		add	r3, r3, sp	@ tmp432,
 3657 0418 1B78     		ldrb	r3, [r3]	@ tmp433, i
 3658 041a 022B     		cmp	r3, #2	@ tmp433,
 3659 041c 2DD1     		bne	.L250	@,
1364:src/sim900_800.c **** 			{
1365:src/sim900_800.c **** 				if (!strncmp((const char *)&GSMbuffRtaCommand[0], (const char *)"+CSQ:", sizeof("+CSQ:") - 1))
 3660              		.loc 1 1365 0
 3661 041e CB49     		ldr	r1, .L293+8	@ tmp434,
 3662 0420 C84B     		ldr	r3, .L293	@ tmp435,
 3663 0422 0522     		movs	r2, #5	@,
 3664 0424 1800     		movs	r0, r3	@, tmp435
 3665 0426 FFF7FEFF 		bl	strncmp	@
 3666 042a 031E     		subs	r3, r0, #0	@ D.7881,,
 3667 042c 20D1     		bne	.L251	@,
1366:src/sim900_800.c **** 				{
1367:src/sim900_800.c **** 						GPRSrssi = ((GSMbuffRtaCommand[6] - 48) * 10 + ((GSMbuffRtaCommand[7] - 48)));
 3668              		.loc 1 1367 0
 3669 042e C54B     		ldr	r3, .L293	@ tmp436,
 3670 0430 9B79     		ldrb	r3, [r3, #6]	@ D.7880,
 3671 0432 303B     		subs	r3, r3, #48	@ D.7881,
 3672 0434 DBB2     		uxtb	r3, r3	@ D.7884, D.7881
 3673 0436 1A1C     		adds	r2, r3, #0	@ tmp438, tmp437
 3674 0438 9200     		lsls	r2, r2, #2	@ tmp439, tmp438,
 3675 043a D318     		adds	r3, r2, r3	@ tmp441, tmp440, tmp437
 3676 043c DB18     		adds	r3, r3, r3	@ tmp443, tmp442, tmp442
 3677 043e DAB2     		uxtb	r2, r3	@ D.7884, tmp441
 3678 0440 C04B     		ldr	r3, .L293	@ tmp444,
 3679 0442 DB79     		ldrb	r3, [r3, #7]	@ D.7880,
 3680 0444 D318     		adds	r3, r2, r3	@ tmp445, D.7884, D.7880
 3681 0446 DBB2     		uxtb	r3, r3	@ D.7884, tmp445
 3682 0448 303B     		subs	r3, r3, #48	@ tmp446,
 3683 044a DAB2     		uxtb	r2, r3	@ D.7884, tmp446
 3684 044c C04B     		ldr	r3, .L293+12	@ tmp447,
 3685 044e 1A70     		strb	r2, [r3]	@ tmp448, GPRSrssi
1368:src/sim900_800.c **** 
1369:src/sim900_800.c **** 						if (GPRSrssi != 99)
ARM GAS  /tmp/cc4fp2Bh.s 			page 92


 3686              		.loc 1 1369 0
 3687 0450 BF4B     		ldr	r3, .L293+12	@ tmp449,
 3688 0452 1B78     		ldrb	r3, [r3]	@ D.7884, GPRSrssi
 3689 0454 632B     		cmp	r3, #99	@ D.7884,
 3690 0456 06D0     		beq	.L252	@,
1370:src/sim900_800.c **** 							GSMConfigGPRSState++;
 3691              		.loc 1 1370 0
 3692 0458 BE4B     		ldr	r3, .L293+16	@ tmp450,
 3693 045a 1B78     		ldrb	r3, [r3]	@ D.7880, GSMConfigGPRSState
 3694 045c 0133     		adds	r3, r3, #1	@ tmp451,
 3695 045e DAB2     		uxtb	r2, r3	@ D.7880, tmp451
 3696 0460 BC4B     		ldr	r3, .L293+16	@ tmp452,
 3697 0462 1A70     		strb	r2, [r3]	@ tmp453, GSMConfigGPRSState
 3698 0464 09E0     		b	.L250	@
 3699              	.L252:
1371:src/sim900_800.c **** 						else
1372:src/sim900_800.c **** 						{
1373:src/sim900_800.c **** 							GSMConfigGPRSState = 0;
 3700              		.loc 1 1373 0
 3701 0466 BB4B     		ldr	r3, .L293+16	@ tmp454,
 3702 0468 0022     		movs	r2, #0	@ tmp455,
 3703 046a 1A70     		strb	r2, [r3]	@ tmp456, GSMConfigGPRSState
1374:src/sim900_800.c **** 							return 20;
 3704              		.loc 1 1374 0
 3705 046c 1423     		movs	r3, #20	@ D.7880,
 3706 046e FCE1     		b	.L230	@
 3707              	.L251:
1375:src/sim900_800.c **** 						}
1376:src/sim900_800.c **** 				}
1377:src/sim900_800.c **** 				else
1378:src/sim900_800.c **** 				{
1379:src/sim900_800.c **** 					GSMConfigGPRSState = 0;
 3708              		.loc 1 1379 0
 3709 0470 B84B     		ldr	r3, .L293+16	@ tmp457,
 3710 0472 0022     		movs	r2, #0	@ tmp458,
 3711 0474 1A70     		strb	r2, [r3]	@ tmp459, GSMConfigGPRSState
1380:src/sim900_800.c **** 					return 3;
 3712              		.loc 1 1380 0
 3713 0476 0323     		movs	r3, #3	@ D.7880,
 3714 0478 F7E1     		b	.L230	@
 3715              	.L250:
1381:src/sim900_800.c **** 				}
1382:src/sim900_800.c **** 			}
1383:src/sim900_800.c **** 
1384:src/sim900_800.c **** 			if (i > 2)
 3716              		.loc 1 1384 0
 3717 047a 1723     		movs	r3, #23	@ tmp460,
 3718 047c 6B44     		add	r3, r3, sp	@ tmp460,
 3719 047e 1B78     		ldrb	r3, [r3]	@ tmp461, i
 3720 0480 022B     		cmp	r3, #2	@ tmp461,
 3721 0482 00D8     		bhi	.LCB2939	@
 3722 0484 D6E1     		b	.L282	@long jump	@
 3723              	.LCB2939:
1385:src/sim900_800.c **** 			{
1386:src/sim900_800.c **** 				GSMConfigGPRSState = 0;
 3724              		.loc 1 1386 0
 3725 0486 B34B     		ldr	r3, .L293+16	@ tmp462,
ARM GAS  /tmp/cc4fp2Bh.s 			page 93


 3726 0488 0022     		movs	r2, #0	@ tmp463,
 3727 048a 1A70     		strb	r2, [r3]	@ tmp464, GSMConfigGPRSState
1387:src/sim900_800.c **** 				return 3;
 3728              		.loc 1 1387 0
 3729 048c 0323     		movs	r3, #3	@ D.7880,
 3730 048e ECE1     		b	.L230	@
 3731              	.L218:
1388:src/sim900_800.c **** 			}
1389:src/sim900_800.c **** 			break;
1390:src/sim900_800.c **** 		case 7:
1391:src/sim900_800.c **** 
1392:src/sim900_800.c **** 			i = GSMSendCommand("AT+CIPMODE=1\r\n", 50, 0, &GSMbuffRtaCommand[0]);
 3732              		.loc 1 1392 0
 3733 0490 1724     		movs	r4, #23	@ tmp465,
 3734 0492 6C44     		add	r4, r4, sp	@ tmp465,
 3735 0494 AB4B     		ldr	r3, .L293	@ tmp466,
 3736 0496 B048     		ldr	r0, .L293+20	@ tmp467,
 3737 0498 0022     		movs	r2, #0	@,
 3738 049a 3221     		movs	r1, #50	@,
 3739 049c FFF7FEFF 		bl	GSMSendCommand	@
 3740 04a0 0300     		movs	r3, r0	@ tmp468,
 3741 04a2 2370     		strb	r3, [r4]	@ tmp470, i
1393:src/sim900_800.c **** 
1394:src/sim900_800.c **** 			if (i == 2)
 3742              		.loc 1 1394 0
 3743 04a4 1723     		movs	r3, #23	@ tmp471,
 3744 04a6 6B44     		add	r3, r3, sp	@ tmp471,
 3745 04a8 1B78     		ldrb	r3, [r3]	@ tmp472, i
 3746 04aa 022B     		cmp	r3, #2	@ tmp472,
 3747 04ac 05D1     		bne	.L254	@,
1395:src/sim900_800.c **** 			{
1396:src/sim900_800.c **** 				GSMConfigGPRSState++;
 3748              		.loc 1 1396 0
 3749 04ae A94B     		ldr	r3, .L293+16	@ tmp473,
 3750 04b0 1B78     		ldrb	r3, [r3]	@ D.7880, GSMConfigGPRSState
 3751 04b2 0133     		adds	r3, r3, #1	@ tmp474,
 3752 04b4 DAB2     		uxtb	r2, r3	@ D.7880, tmp474
 3753 04b6 A74B     		ldr	r3, .L293+16	@ tmp475,
 3754 04b8 1A70     		strb	r2, [r3]	@ tmp476, GSMConfigGPRSState
 3755              	.L254:
1397:src/sim900_800.c **** 			}
1398:src/sim900_800.c **** 
1399:src/sim900_800.c **** 			if (i > 2)
 3756              		.loc 1 1399 0
 3757 04ba 1723     		movs	r3, #23	@ tmp477,
 3758 04bc 6B44     		add	r3, r3, sp	@ tmp477,
 3759 04be 1B78     		ldrb	r3, [r3]	@ tmp478, i
 3760 04c0 022B     		cmp	r3, #2	@ tmp478,
 3761 04c2 00D8     		bhi	.LCB2974	@
 3762 04c4 B8E1     		b	.L283	@long jump	@
 3763              	.LCB2974:
1400:src/sim900_800.c **** 			{
1401:src/sim900_800.c **** 				GSMConfigGPRSState = 0;
 3764              		.loc 1 1401 0
 3765 04c6 A34B     		ldr	r3, .L293+16	@ tmp479,
 3766 04c8 0022     		movs	r2, #0	@ tmp480,
 3767 04ca 1A70     		strb	r2, [r3]	@ tmp481, GSMConfigGPRSState
ARM GAS  /tmp/cc4fp2Bh.s 			page 94


1402:src/sim900_800.c **** 				return 3;
 3768              		.loc 1 1402 0
 3769 04cc 0323     		movs	r3, #3	@ D.7880,
 3770 04ce CCE1     		b	.L230	@
 3771              	.L219:
1403:src/sim900_800.c **** 			}
1404:src/sim900_800.c **** 			break;
1405:src/sim900_800.c **** 
1406:src/sim900_800.c **** 		case 8:
1407:src/sim900_800.c **** 
1408:src/sim900_800.c **** 			i = GSMSendCommand("AT+CGATT?\r\n", 50, 1, &GSMbuffRtaCommand[0]);
 3772              		.loc 1 1408 0
 3773 04d0 1724     		movs	r4, #23	@ tmp482,
 3774 04d2 6C44     		add	r4, r4, sp	@ tmp482,
 3775 04d4 9B4B     		ldr	r3, .L293	@ tmp483,
 3776 04d6 A148     		ldr	r0, .L293+24	@ tmp484,
 3777 04d8 0122     		movs	r2, #1	@,
 3778 04da 3221     		movs	r1, #50	@,
 3779 04dc FFF7FEFF 		bl	GSMSendCommand	@
 3780 04e0 0300     		movs	r3, r0	@ tmp485,
 3781 04e2 2370     		strb	r3, [r4]	@ tmp487, i
1409:src/sim900_800.c **** 
1410:src/sim900_800.c **** 			if (i == 2)
 3782              		.loc 1 1410 0
 3783 04e4 1723     		movs	r3, #23	@ tmp488,
 3784 04e6 6B44     		add	r3, r3, sp	@ tmp488,
 3785 04e8 1B78     		ldrb	r3, [r3]	@ tmp489, i
 3786 04ea 022B     		cmp	r3, #2	@ tmp489,
 3787 04ec 38D1     		bne	.L256	@,
1411:src/sim900_800.c **** 			{
1412:src/sim900_800.c **** 				if(!strncmp((const char *)&GSMbuffRtaCommand[0], (const char *)"+CGATT:", sizeof("+CGATT:") - 1
 3788              		.loc 1 1412 0
 3789 04ee 9C49     		ldr	r1, .L293+28	@ tmp490,
 3790 04f0 944B     		ldr	r3, .L293	@ tmp491,
 3791 04f2 0722     		movs	r2, #7	@,
 3792 04f4 1800     		movs	r0, r3	@, tmp491
 3793 04f6 FFF7FEFF 		bl	strncmp	@
 3794 04fa 031E     		subs	r3, r0, #0	@ D.7881,,
 3795 04fc 30D1     		bne	.L256	@,
1413:src/sim900_800.c **** 				{
1414:src/sim900_800.c **** 					if (GSMbuffRtaCommand[8] == 49)
 3796              		.loc 1 1414 0
 3797 04fe 914B     		ldr	r3, .L293	@ tmp492,
 3798 0500 1B7A     		ldrb	r3, [r3, #8]	@ D.7880,
 3799 0502 312B     		cmp	r3, #49	@ D.7880,
 3800 0504 23D1     		bne	.L257	@,
1415:src/sim900_800.c **** 					{
1416:src/sim900_800.c **** 						GSMConfigGPRSState += 1;
 3801              		.loc 1 1416 0
 3802 0506 934B     		ldr	r3, .L293+16	@ tmp493,
 3803 0508 1B78     		ldrb	r3, [r3]	@ D.7880, GSMConfigGPRSState
 3804 050a 0133     		adds	r3, r3, #1	@ tmp494,
 3805 050c DAB2     		uxtb	r2, r3	@ D.7880, tmp494
 3806 050e 914B     		ldr	r3, .L293+16	@ tmp495,
 3807 0510 1A70     		strb	r2, [r3]	@ tmp496, GSMConfigGPRSState
1417:src/sim900_800.c **** 						sprintf(&GSMbuffGPRSCommand[0], (const char*)"AT+CGDCONT=1,\"IP\",\"");
 3808              		.loc 1 1417 0
ARM GAS  /tmp/cc4fp2Bh.s 			page 95


 3809 0512 944A     		ldr	r2, .L293+32	@ tmp497,
 3810 0514 944B     		ldr	r3, .L293+36	@ tmp498,
 3811 0516 1000     		movs	r0, r2	@ tmp499, tmp497
 3812 0518 1900     		movs	r1, r3	@ tmp500, tmp498
 3813 051a 1423     		movs	r3, #20	@ tmp501,
 3814 051c 1A00     		movs	r2, r3	@, tmp501
 3815 051e FFF7FEFF 		bl	memcpy	@
1418:src/sim900_800.c **** 						strcat(&GSMbuffGPRSCommand[0], ptrAPN);
 3816              		.loc 1 1418 0
 3817 0522 029A     		ldr	r2, [sp, #8]	@ tmp504, ptrAPN
 3818 0524 8F4B     		ldr	r3, .L293+32	@ tmp505,
 3819 0526 1100     		movs	r1, r2	@, tmp504
 3820 0528 1800     		movs	r0, r3	@, tmp505
 3821 052a FFF7FEFF 		bl	strcat	@
1419:src/sim900_800.c **** 						strcat(&GSMbuffGPRSCommand[0], "\"\r\n");
 3822              		.loc 1 1419 0
 3823 052e 8D4B     		ldr	r3, .L293+32	@ tmp506,
 3824 0530 1800     		movs	r0, r3	@, tmp506
 3825 0532 FFF7FEFF 		bl	strlen	@
 3826 0536 0300     		movs	r3, r0	@ tmp507,
 3827 0538 1A00     		movs	r2, r3	@ D.7882, tmp508
 3828 053a 8A4B     		ldr	r3, .L293+32	@ tmp509,
 3829 053c D218     		adds	r2, r2, r3	@ D.7883, D.7882, tmp509
 3830 053e 8B4B     		ldr	r3, .L293+40	@ tmp510,
 3831 0540 1000     		movs	r0, r2	@ tmp511, D.7883
 3832 0542 1900     		movs	r1, r3	@ tmp512, tmp510
 3833 0544 0423     		movs	r3, #4	@ tmp513,
 3834 0546 1A00     		movs	r2, r3	@, tmp513
 3835 0548 FFF7FEFF 		bl	memcpy	@
 3836 054c 08E0     		b	.L256	@
 3837              	.L257:
1420:src/sim900_800.c **** 					}
1421:src/sim900_800.c **** 					else if (GSMbuffRtaCommand[8] == 48)
 3838              		.loc 1 1421 0
 3839 054e 7D4B     		ldr	r3, .L293	@ tmp516,
 3840 0550 1B7A     		ldrb	r3, [r3, #8]	@ D.7880,
 3841 0552 302B     		cmp	r3, #48	@ D.7880,
 3842 0554 04D1     		bne	.L256	@,
1422:src/sim900_800.c **** 					{
1423:src/sim900_800.c **** 						GSMConfigGPRSState = 0;
 3843              		.loc 1 1423 0
 3844 0556 7F4B     		ldr	r3, .L293+16	@ tmp517,
 3845 0558 0022     		movs	r2, #0	@ tmp518,
 3846 055a 1A70     		strb	r2, [r3]	@ tmp519, GSMConfigGPRSState
1424:src/sim900_800.c **** 						return 3;
 3847              		.loc 1 1424 0
 3848 055c 0323     		movs	r3, #3	@ D.7880,
 3849 055e 84E1     		b	.L230	@
 3850              	.L256:
1425:src/sim900_800.c **** 						//El modulo no se encuentra listo para conectar GPRS.
1426:src/sim900_800.c **** 					}
1427:src/sim900_800.c **** 				}
1428:src/sim900_800.c **** 			}
1429:src/sim900_800.c **** 
1430:src/sim900_800.c **** 			if (i > 2)
 3851              		.loc 1 1430 0
 3852 0560 1723     		movs	r3, #23	@ tmp520,
ARM GAS  /tmp/cc4fp2Bh.s 			page 96


 3853 0562 6B44     		add	r3, r3, sp	@ tmp520,
 3854 0564 1B78     		ldrb	r3, [r3]	@ tmp521, i
 3855 0566 022B     		cmp	r3, #2	@ tmp521,
 3856 0568 00D8     		bhi	.LCB3060	@
 3857 056a 67E1     		b	.L284	@long jump	@
 3858              	.LCB3060:
1431:src/sim900_800.c **** 			{
1432:src/sim900_800.c **** 				GSMConfigGPRSState = 0;
 3859              		.loc 1 1432 0
 3860 056c 794B     		ldr	r3, .L293+16	@ tmp522,
 3861 056e 0022     		movs	r2, #0	@ tmp523,
 3862 0570 1A70     		strb	r2, [r3]	@ tmp524, GSMConfigGPRSState
1433:src/sim900_800.c **** 				return 3;
 3863              		.loc 1 1433 0
 3864 0572 0323     		movs	r3, #3	@ D.7880,
 3865 0574 79E1     		b	.L230	@
 3866              	.L220:
1434:src/sim900_800.c **** 			}
1435:src/sim900_800.c **** 
1436:src/sim900_800.c **** 			break;
1437:src/sim900_800.c **** 
1438:src/sim900_800.c **** 		case 9:
1439:src/sim900_800.c **** 
1440:src/sim900_800.c **** 			i = GSMSendCommand(&GSMbuffGPRSCommand[0], 50, 0, &GSMbuffRtaCommand[0]);
 3867              		.loc 1 1440 0
 3868 0576 1724     		movs	r4, #23	@ tmp525,
 3869 0578 6C44     		add	r4, r4, sp	@ tmp525,
 3870 057a 724B     		ldr	r3, .L293	@ tmp526,
 3871 057c 7948     		ldr	r0, .L293+32	@ tmp527,
 3872 057e 0022     		movs	r2, #0	@,
 3873 0580 3221     		movs	r1, #50	@,
 3874 0582 FFF7FEFF 		bl	GSMSendCommand	@
 3875 0586 0300     		movs	r3, r0	@ tmp528,
 3876 0588 2370     		strb	r3, [r4]	@ tmp530, i
1441:src/sim900_800.c **** 
1442:src/sim900_800.c **** 			if (i == 2)
 3877              		.loc 1 1442 0
 3878 058a 1723     		movs	r3, #23	@ tmp531,
 3879 058c 6B44     		add	r3, r3, sp	@ tmp531,
 3880 058e 1B78     		ldrb	r3, [r3]	@ tmp532, i
 3881 0590 022B     		cmp	r3, #2	@ tmp532,
 3882 0592 4CD1     		bne	.L259	@,
1443:src/sim900_800.c **** 			{
1444:src/sim900_800.c **** 				GSMConfigGPRSState++;
 3883              		.loc 1 1444 0
 3884 0594 6F4B     		ldr	r3, .L293+16	@ tmp533,
 3885 0596 1B78     		ldrb	r3, [r3]	@ D.7880, GSMConfigGPRSState
 3886 0598 0133     		adds	r3, r3, #1	@ tmp534,
 3887 059a DAB2     		uxtb	r2, r3	@ D.7880, tmp534
 3888 059c 6D4B     		ldr	r3, .L293+16	@ tmp535,
 3889 059e 1A70     		strb	r2, [r3]	@ tmp536, GSMConfigGPRSState
1445:src/sim900_800.c **** 				sprintf(&GSMbuffGPRSCommand[0], (const char*)"AT+CSTT=\"");
 3890              		.loc 1 1445 0
 3891 05a0 704A     		ldr	r2, .L293+32	@ tmp537,
 3892 05a2 734B     		ldr	r3, .L293+44	@ tmp538,
 3893 05a4 1000     		movs	r0, r2	@ tmp539, tmp537
 3894 05a6 1900     		movs	r1, r3	@ tmp540, tmp538
ARM GAS  /tmp/cc4fp2Bh.s 			page 97


 3895 05a8 0A23     		movs	r3, #10	@ tmp541,
 3896 05aa 1A00     		movs	r2, r3	@, tmp541
 3897 05ac FFF7FEFF 		bl	memcpy	@
1446:src/sim900_800.c **** 				strcat(&GSMbuffGPRSCommand[0], ptrAPN);
 3898              		.loc 1 1446 0
 3899 05b0 029A     		ldr	r2, [sp, #8]	@ tmp544, ptrAPN
 3900 05b2 6C4B     		ldr	r3, .L293+32	@ tmp545,
 3901 05b4 1100     		movs	r1, r2	@, tmp544
 3902 05b6 1800     		movs	r0, r3	@, tmp545
 3903 05b8 FFF7FEFF 		bl	strcat	@
1447:src/sim900_800.c **** 				strcat(&GSMbuffGPRSCommand[0], "\",\"");
 3904              		.loc 1 1447 0
 3905 05bc 694B     		ldr	r3, .L293+32	@ tmp546,
 3906 05be 1800     		movs	r0, r3	@, tmp546
 3907 05c0 FFF7FEFF 		bl	strlen	@
 3908 05c4 0300     		movs	r3, r0	@ tmp547,
 3909 05c6 1A00     		movs	r2, r3	@ D.7882, tmp548
 3910 05c8 664B     		ldr	r3, .L293+32	@ tmp549,
 3911 05ca D218     		adds	r2, r2, r3	@ D.7883, D.7882, tmp549
 3912 05cc 694B     		ldr	r3, .L293+48	@ tmp550,
 3913 05ce 1000     		movs	r0, r2	@ tmp551, D.7883
 3914 05d0 1900     		movs	r1, r3	@ tmp552, tmp550
 3915 05d2 0423     		movs	r3, #4	@ tmp553,
 3916 05d4 1A00     		movs	r2, r3	@, tmp553
 3917 05d6 FFF7FEFF 		bl	memcpy	@
1448:src/sim900_800.c **** 				strcat(&GSMbuffGPRSCommand[0], ptrUSER);
 3918              		.loc 1 1448 0
 3919 05da 019A     		ldr	r2, [sp, #4]	@ tmp556, ptrUSER
 3920 05dc 614B     		ldr	r3, .L293+32	@ tmp557,
 3921 05de 1100     		movs	r1, r2	@, tmp556
 3922 05e0 1800     		movs	r0, r3	@, tmp557
 3923 05e2 FFF7FEFF 		bl	strcat	@
1449:src/sim900_800.c **** 				strcat(&GSMbuffGPRSCommand[0], "\",\"");
 3924              		.loc 1 1449 0
 3925 05e6 5F4B     		ldr	r3, .L293+32	@ tmp558,
 3926 05e8 1800     		movs	r0, r3	@, tmp558
 3927 05ea FFF7FEFF 		bl	strlen	@
 3928 05ee 0300     		movs	r3, r0	@ tmp559,
 3929 05f0 1A00     		movs	r2, r3	@ D.7882, tmp560
 3930 05f2 5C4B     		ldr	r3, .L293+32	@ tmp561,
 3931 05f4 D218     		adds	r2, r2, r3	@ D.7883, D.7882, tmp561
 3932 05f6 5F4B     		ldr	r3, .L293+48	@ tmp562,
 3933 05f8 1000     		movs	r0, r2	@ tmp563, D.7883
 3934 05fa 1900     		movs	r1, r3	@ tmp564, tmp562
 3935 05fc 0423     		movs	r3, #4	@ tmp565,
 3936 05fe 1A00     		movs	r2, r3	@, tmp565
 3937 0600 FFF7FEFF 		bl	memcpy	@
1450:src/sim900_800.c **** 				strcat(&GSMbuffGPRSCommand[0], ptrKEY);
 3938              		.loc 1 1450 0
 3939 0604 009A     		ldr	r2, [sp]	@ tmp568, ptrKEY
 3940 0606 574B     		ldr	r3, .L293+32	@ tmp569,
 3941 0608 1100     		movs	r1, r2	@, tmp568
 3942 060a 1800     		movs	r0, r3	@, tmp569
 3943 060c FFF7FEFF 		bl	strcat	@
1451:src/sim900_800.c **** 				strcat(&GSMbuffGPRSCommand[0], "\"\r\n");
 3944              		.loc 1 1451 0
 3945 0610 544B     		ldr	r3, .L293+32	@ tmp570,
ARM GAS  /tmp/cc4fp2Bh.s 			page 98


 3946 0612 1800     		movs	r0, r3	@, tmp570
 3947 0614 FFF7FEFF 		bl	strlen	@
 3948 0618 0300     		movs	r3, r0	@ tmp571,
 3949 061a 1A00     		movs	r2, r3	@ D.7882, tmp572
 3950 061c 514B     		ldr	r3, .L293+32	@ tmp573,
 3951 061e D218     		adds	r2, r2, r3	@ D.7883, D.7882, tmp573
 3952 0620 524B     		ldr	r3, .L293+40	@ tmp574,
 3953 0622 1000     		movs	r0, r2	@ tmp575, D.7883
 3954 0624 1900     		movs	r1, r3	@ tmp576, tmp574
 3955 0626 0423     		movs	r3, #4	@ tmp577,
 3956 0628 1A00     		movs	r2, r3	@, tmp577
 3957 062a FFF7FEFF 		bl	memcpy	@
 3958              	.L259:
1452:src/sim900_800.c **** 			}
1453:src/sim900_800.c **** 
1454:src/sim900_800.c **** 			if (i > 2)
 3959              		.loc 1 1454 0
 3960 062e 1723     		movs	r3, #23	@ tmp580,
 3961 0630 6B44     		add	r3, r3, sp	@ tmp580,
 3962 0632 1B78     		ldrb	r3, [r3]	@ tmp581, i
 3963 0634 022B     		cmp	r3, #2	@ tmp581,
 3964 0636 00D8     		bhi	.LCB3156	@
 3965 0638 02E1     		b	.L285	@long jump	@
