ARM GAS  /tmp/ccKua49E.s 			page 1


   1              		.syntax unified
   2              		.cpu cortex-m0
   3              		.fpu softvfp
   4              		.eabi_attribute 20, 1	@ Tag_ABI_FP_denormal
   5              		.eabi_attribute 21, 1	@ Tag_ABI_FP_exceptions
   6              		.eabi_attribute 23, 3	@ Tag_ABI_FP_number_model
   7              		.eabi_attribute 24, 1	@ Tag_ABI_align8_needed
   8              		.eabi_attribute 25, 1	@ Tag_ABI_align8_preserved
   9              		.eabi_attribute 26, 1	@ Tag_ABI_enum_size
  10              		.eabi_attribute 30, 6	@ Tag_ABI_optimization_goals
  11              		.eabi_attribute 34, 0	@ Tag_CPU_unaligned_access
  12              		.eabi_attribute 18, 4	@ Tag_ABI_PCS_wchar_t
  13              		.file	"sim900_800.c"
  14              	@ GNU C11 (GNU Tools for ARM Embedded Processors) version 5.2.1 20151202 (release) [ARM/embedded-5-
  15              	@	compiled by GNU C version 4.7.4, GMP version 4.3.2, MPFR version 2.4.2, MPC version 0.8.1
  16              	@ GGC heuristics: --param ggc-min-expand=100 --param ggc-min-heapsize=131072
  17              	@ options passed:  -I . -I ./src -I ./cmsis_boot -I ./cmsis_core
  18              	@ -I ../STM32F0xx_StdPeriph_Lib_V1.3.1/Libraries/STM32F0xx_StdPeriph_Driver/inc
  19              	@ -I ./inc -I ./cmsis_boot -imultilib armv6-m
  20              	@ -iprefix /usr/local/sbin/gcc-arm-none-eabi-5_2-2015q4/bin/../lib/gcc/arm-none-eabi/5.2.1/
  21              	@ -isysroot /usr/local/sbin/gcc-arm-none-eabi-5_2-2015q4/bin/../arm-none-eabi
  22              	@ -D__USES_INITFINI__ src/sim900_800.c -mcpu=cortex-m0 -mthumb
  23              	@ -auxbase-strip src/sim900_800.o -g -gdwarf-2 -O0 -Wall
  24              	@ -fomit-frame-pointer -fdata-sections -ffunction-sections -fverbose-asm
  25              	@ options enabled:  -faggressive-loop-optimizations -fauto-inc-dec
  26              	@ -fchkp-check-incomplete-type -fchkp-check-read -fchkp-check-write
  27              	@ -fchkp-instrument-calls -fchkp-narrow-bounds -fchkp-optimize
  28              	@ -fchkp-store-bounds -fchkp-use-static-bounds
  29              	@ -fchkp-use-static-const-bounds -fchkp-use-wrappers -fcommon
  30              	@ -fdata-sections -fdelete-null-pointer-checks -fdwarf2-cfi-asm
  31              	@ -fearly-inlining -feliminate-unused-debug-types -ffunction-cse
  32              	@ -ffunction-sections -fgcse-lm -fgnu-runtime -fgnu-unique -fident
  33              	@ -finline-atomics -fira-hoist-pressure -fira-share-save-slots
  34              	@ -fira-share-spill-slots -fivopts -fkeep-static-consts
  35              	@ -fleading-underscore -flifetime-dse -flto-odr-type-merging -fmath-errno
  36              	@ -fmerge-debug-strings -fomit-frame-pointer -fpeephole
  37              	@ -fprefetch-loop-arrays -freg-struct-return
  38              	@ -fsched-critical-path-heuristic -fsched-dep-count-heuristic
  39              	@ -fsched-group-heuristic -fsched-interblock -fsched-last-insn-heuristic
  40              	@ -fsched-rank-heuristic -fsched-spec -fsched-spec-insn-heuristic
  41              	@ -fsched-stalled-insns-dep -fsemantic-interposition -fshow-column
  42              	@ -fsigned-zeros -fsplit-ivs-in-unroller -fstdarg-opt
  43              	@ -fstrict-volatile-bitfields -fsync-libcalls -ftrapping-math
  44              	@ -ftree-coalesce-vars -ftree-cselim -ftree-forwprop -ftree-loop-if-convert
  45              	@ -ftree-loop-im -ftree-loop-ivcanon -ftree-loop-optimize
  46              	@ -ftree-parallelize-loops= -ftree-phiprop -ftree-reassoc -ftree-scev-cprop
  47              	@ -funit-at-a-time -fverbose-asm -fzero-initialized-in-bss -mlittle-endian
  48              	@ -mpic-data-is-text-relative -msched-prolog -mthumb
  49              	@ -mvectorize-with-neon-quad
  50              	
  51              		.text
  52              	.Ltext0:
  53              		.cfi_sections	.debug_frame
  54              		.comm	buffUARTGSMrx2,256,4
  55              		.comm	PacketReadyUARTGSM,1,1
  56              		.global	GSMStartState
  57              		.section	.bss.GSMStartState,"aw",%nobits
ARM GAS  /tmp/ccKua49E.s 			page 2


  58              		.type	GSMStartState, %object
  59              		.size	GSMStartState, 1
  60              	GSMStartState:
  61 0000 00       		.space	1
  62              		.comm	GSMStartTime,2,2
  63              		.comm	GSMGeneralTimeOut,2,2
  64              		.global	GSMSendCommandState
  65              		.section	.bss.GSMSendCommandState,"aw",%nobits
  66              		.type	GSMSendCommandState, %object
  67              		.size	GSMSendCommandState, 1
  68              	GSMSendCommandState:
  69 0000 00       		.space	1
  70              		.global	GSMSendCommandFlag
  71              		.section	.bss.GSMSendCommandFlag,"aw",%nobits
  72              		.type	GSMSendCommandFlag, %object
  73              		.size	GSMSendCommandFlag, 1
  74              	GSMSendCommandFlag:
  75 0000 00       		.space	1
  76              		.comm	GSMSendCommandTimeOut,2,2
  77              		.global	GSMSendCommandIntento
  78              		.section	.bss.GSMSendCommandIntento,"aw",%nobits
  79              		.type	GSMSendCommandIntento, %object
  80              		.size	GSMSendCommandIntento, 1
  81              	GSMSendCommandIntento:
  82 0000 00       		.space	1
  83              		.global	GSMSendSMSState
  84              		.section	.bss.GSMSendSMSState,"aw",%nobits
  85              		.type	GSMSendSMSState, %object
  86              		.size	GSMSendSMSState, 1
  87              	GSMSendSMSState:
  88 0000 00       		.space	1
  89              		.global	GSMSendSMSFlag
  90              		.section	.bss.GSMSendSMSFlag,"aw",%nobits
  91              		.type	GSMSendSMSFlag, %object
  92              		.size	GSMSendSMSFlag, 1
  93              	GSMSendSMSFlag:
  94 0000 00       		.space	1
  95              		.comm	GSMSendSMSTimeOut,2,2
  96              		.comm	GSMSendSMSbuffAux,32,4
  97              		.global	GSMConfigState
  98              		.section	.bss.GSMConfigState,"aw",%nobits
  99              		.type	GSMConfigState, %object
 100              		.size	GSMConfigState, 1
 101              	GSMConfigState:
 102 0000 00       		.space	1
 103              		.comm	GSMConfigTimeOut,2,2
 104              		.comm	GSMConfigTime,2,2
 105              		.comm	GSMConfigGPRSTimeOut,2,2
 106              		.global	GSMConfigGPRSState
 107              		.section	.bss.GSMConfigGPRSState,"aw",%nobits
 108              		.type	GSMConfigGPRSState, %object
 109              		.size	GSMConfigGPRSState, 1
 110              	GSMConfigGPRSState:
 111 0000 00       		.space	1
 112              		.global	GSMConfigGPRSflag
 113              		.section	.bss.GSMConfigGPRSflag,"aw",%nobits
 114              		.type	GSMConfigGPRSflag, %object
ARM GAS  /tmp/ccKua49E.s 			page 3


 115              		.size	GSMConfigGPRSflag, 1
 116              	GSMConfigGPRSflag:
 117 0000 00       		.space	1
 118              		.comm	GSMbuffStatus,32,4
 119              		.comm	GSMbuffGPRSCommand,64,4
 120              		.comm	GSMIPadd,16,4
 121              		.global	GPRSrssi
 122              		.section	.data.GPRSrssi,"aw",%progbits
 123              		.type	GPRSrssi, %object
 124              		.size	GPRSrssi, 1
 125              	GPRSrssi:
 126 0000 63       		.byte	99
 127              		.global	GSMSendIPState
 128              		.section	.bss.GSMSendIPState,"aw",%nobits
 129              		.type	GSMSendIPState, %object
 130              		.size	GSMSendIPState, 1
 131              	GSMSendIPState:
 132 0000 00       		.space	1
 133              		.global	GSMSendIPFlag
 134              		.section	.bss.GSMSendIPFlag,"aw",%nobits
 135              		.type	GSMSendIPFlag, %object
 136              		.size	GSMSendIPFlag, 1
 137              	GSMSendIPFlag:
 138 0000 00       		.space	1
 139              		.comm	GSMSendIPTimeOut,2,2
 140              		.comm	GSMSendIPbuffAux,32,4
 141              		.comm	GSMbuffRtaCommand,256,4
 142              		.global	GSM_OK
 143              		.section	.rodata.GSM_OK,"a",%progbits
 144              		.align	2
 145              		.type	GSM_OK, %object
 146              		.size	GSM_OK, 3
 147              	GSM_OK:
 148 0000 4F4B00   		.ascii	"OK\000"
 149              		.global	GSM_ERR
 150              		.section	.rodata.GSM_ERR,"a",%progbits
 151              		.align	2
 152              		.type	GSM_ERR, %object
 153              		.size	GSM_ERR, 6
 154              	GSM_ERR:
 155 0000 4552524F 		.ascii	"ERROR\000"
 155      5200
 156              		.global	GSM_RTA
 157              		.section	.rodata.GSM_RTA,"a",%progbits
 158              		.type	GSM_RTA, %object
 159              		.size	GSM_RTA, 1
 160              	GSM_RTA:
 161 0000 2B       		.byte	43
 162              		.global	GSM_CMGF
 163              		.section	.rodata.GSM_CMGF,"a",%progbits
 164              		.align	2
 165              		.type	GSM_CMGF, %object
 166              		.size	GSM_CMGF, 7
 167              	GSM_CMGF:
 168 0000 2B434D47 		.ascii	"+CMGF:\000"
 168      463A00
 169              		.global	GSM_IPSTATE
ARM GAS  /tmp/ccKua49E.s 			page 4


 170              		.section	.rodata.GSM_IPSTATE,"a",%progbits
 171              		.align	2
 172              		.type	GSM_IPSTATE, %object
 173              		.size	GSM_IPSTATE, 7
 174              	GSM_IPSTATE:
 175 0000 53544154 		.ascii	"STATE:\000"
 175      453A00
 176              		.global	GSM_IPINITIAL
 177              		.section	.rodata.GSM_IPINITIAL,"a",%progbits
 178              		.align	2
 179              		.type	GSM_IPINITIAL, %object
 180              		.size	GSM_IPINITIAL, 11
 181              	GSM_IPINITIAL:
 182 0000 49502049 		.ascii	"IP INITIAL\000"
 182      4E495449 
 182      414C00
 183              		.global	GSM_IPSTART
 184              		.section	.rodata.GSM_IPSTART,"a",%progbits
 185              		.align	2
 186              		.type	GSM_IPSTART, %object
 187              		.size	GSM_IPSTART, 9
 188              	GSM_IPSTART:
 189 0000 49502053 		.ascii	"IP START\000"
 189      54415254 
 189      00
 190              		.global	GSM_IPGPRSACT
 191              		.section	.rodata.GSM_IPGPRSACT,"a",%progbits
 192              		.align	2
 193              		.type	GSM_IPGPRSACT, %object
 194              		.size	GSM_IPGPRSACT, 11
 195              	GSM_IPGPRSACT:
 196 0000 49502047 		.ascii	"IP GPRSACT\000"
 196      50525341 
 196      435400
 197              		.global	GSM_IPSTATUS
 198              		.section	.rodata.GSM_IPSTATUS,"a",%progbits
 199              		.align	2
 200              		.type	GSM_IPSTATUS, %object
 201              		.size	GSM_IPSTATUS, 10
 202              	GSM_IPSTATUS:
 203 0000 49502053 		.ascii	"IP STATUS\000"
 203      54415455 
 203      5300
 204              		.global	GSM_IPCONNECTING
 205              		.section	.rodata.GSM_IPCONNECTING,"a",%progbits
 206              		.align	2
 207              		.type	GSM_IPCONNECTING, %object
 208              		.size	GSM_IPCONNECTING, 15
 209              	GSM_IPCONNECTING:
 210 0000 54435020 		.ascii	"TCP CONNECTING\000"
 210      434F4E4E 
 210      45435449 
 210      4E4700
 211              		.global	GSM_IPCONNOK
 212              		.section	.rodata.GSM_IPCONNOK,"a",%progbits
 213              		.align	2
 214              		.type	GSM_IPCONNOK, %object
ARM GAS  /tmp/ccKua49E.s 			page 5


 215              		.size	GSM_IPCONNOK, 11
 216              	GSM_IPCONNOK:
 217 0000 434F4E4E 		.ascii	"CONNECT OK\000"
 217      45435420 
 217      4F4B00
 218              		.global	GSM_IPCONNFAIL
 219              		.section	.rodata.GSM_IPCONNFAIL,"a",%progbits
 220              		.align	2
 221              		.type	GSM_IPCONNFAIL, %object
 222              		.size	GSM_IPCONNFAIL, 13
 223              	GSM_IPCONNFAIL:
 224 0000 434F4E4E 		.ascii	"CONNECT FAIL\000"
 224      45435420 
 224      4641494C 
 224      00
 225              		.global	GSM_IPCONNCLOSE
 226              		.section	.rodata.GSM_IPCONNCLOSE,"a",%progbits
 227              		.align	2
 228              		.type	GSM_IPCONNCLOSE, %object
 229              		.size	GSM_IPCONNCLOSE, 11
 230              	GSM_IPCONNCLOSE:
 231 0000 54435020 		.ascii	"TCP CLOSED\000"
 231      434C4F53 
 231      454400
 232              		.global	GSM_SIM1
 233              		.section	.rodata.GSM_SIM1,"a",%progbits
 234              		.align	2
 235              		.type	GSM_SIM1, %object
 236              		.size	GSM_SIM1, 5
 237              	GSM_SIM1:
 238 0000 53494D31 		.ascii	"SIM1\000"
 238      00
 239              		.global	GSM_SIM2
 240              		.section	.rodata.GSM_SIM2,"a",%progbits
 241              		.align	2
 242              		.type	GSM_SIM2, %object
 243              		.size	GSM_SIM2, 5
 244              	GSM_SIM2:
 245 0000 53494D32 		.ascii	"SIM2\000"
 245      00
 246              		.global	GSM_SENDOK
 247              		.section	.rodata.GSM_SENDOK,"a",%progbits
 248              		.align	2
 249              		.type	GSM_SENDOK, %object
 250              		.size	GSM_SENDOK, 8
 251              	GSM_SENDOK:
 252 0000 53454E44 		.ascii	"SEND OK\000"
 252      204F4B00 
 253              		.global	prestadorSimState
 254              		.section	.bss.prestadorSimState,"aw",%nobits
 255              		.type	prestadorSimState, %object
 256              		.size	prestadorSimState, 1
 257              	prestadorSimState:
 258 0000 00       		.space	1
 259              		.global	prestadorSimTime
 260              		.section	.data.prestadorSimTime,"aw",%progbits
 261              		.type	prestadorSimTime, %object
ARM GAS  /tmp/ccKua49E.s 			page 6


 262              		.size	prestadorSimTime, 1
 263              	prestadorSimTime:
 264 0000 FA       		.byte	-6
 265              		.global	GSMCantSMS
 266              		.section	.bss.GSMCantSMS,"aw",%nobits
 267              		.type	GSMCantSMS, %object
 268              		.size	GSMCantSMS, 1
 269              	GSMCantSMS:
 270 0000 00       		.space	1
 271              		.global	GSMCantSMS2
 272              		.section	.bss.GSMCantSMS2,"aw",%nobits
 273              		.type	GSMCantSMS2, %object
 274              		.size	GSMCantSMS2, 1
 275              	GSMCantSMS2:
 276 0000 00       		.space	1
 277              		.global	GSMnumSMS
 278              		.section	.data.GSMnumSMS,"aw",%progbits
 279              		.type	GSMnumSMS, %object
 280              		.size	GSMnumSMS, 1
 281              	GSMnumSMS:
 282 0000 01       		.byte	1
 283              		.global	GSMReadSMSState
 284              		.section	.bss.GSMReadSMSState,"aw",%nobits
 285              		.type	GSMReadSMSState, %object
 286              		.size	GSMReadSMSState, 1
 287              	GSMReadSMSState:
 288 0000 00       		.space	1
 289              		.comm	GSMReadSMScommand,32,4
 290              		.comm	GSMReadSMSrepIn,32,4
 291              		.global	GSMrxSMSState
 292              		.section	.bss.GSMrxSMSState,"aw",%nobits
 293              		.type	GSMrxSMSState, %object
 294              		.size	GSMrxSMSState, 1
 295              	GSMrxSMSState:
 296 0000 00       		.space	1
 297              		.global	prestadorSimSelect
 298              		.section	.bss.prestadorSimSelect,"aw",%nobits
 299              		.type	prestadorSimSelect, %object
 300              		.size	prestadorSimSelect, 1
 301              	prestadorSimSelect:
 302 0000 00       		.space	1
 303              		.global	flagCloseIP
 304              		.section	.bss.flagCloseIP,"aw",%nobits
 305              		.type	flagCloseIP, %object
 306              		.size	flagCloseIP, 1
 307              	flagCloseIP:
 308 0000 00       		.space	1
 309              		.section	.text.GSMProcess,"ax",%progbits
 310              		.align	2
 311              		.global	GSMProcess
 312              		.code	16
 313              		.thumb_func
 314              		.type	GSMProcess, %function
 315              	GSMProcess:
 316              	.LFB20:
 317              		.file 1 "src/sim900_800.c"
   1:src/sim900_800.c **** 
ARM GAS  /tmp/ccKua49E.s 			page 7


   2:src/sim900_800.c **** #include "sim900_800.h"
   3:src/sim900_800.c **** #include "uart.h"
   4:src/sim900_800.c **** #include "tim.h"
   5:src/sim900_800.c **** #include "ESP8266.h"
   6:src/sim900_800.c **** #include "funcs_gsm.h"		//para string flags
   7:src/sim900_800.c **** 
   8:src/sim900_800.c **** #include <stdlib.h>
   9:src/sim900_800.c **** #include <stdio.h>
  10:src/sim900_800.c **** #include <string.h>
  11:src/sim900_800.c **** 
  12:src/sim900_800.c **** 
  13:src/sim900_800.c **** //UART GSM.
  14:src/sim900_800.c **** //RX.
  15:src/sim900_800.c **** volatile char buffUARTGSMrx2[buffUARTGSMrx_dimension];
  16:src/sim900_800.c **** volatile char PacketReadyUARTGSM;
  17:src/sim900_800.c **** //TX.
  18:src/sim900_800.c **** 
  19:src/sim900_800.c **** //GSM Start.
  20:src/sim900_800.c **** unsigned char GSMStartState = 0;
  21:src/sim900_800.c **** volatile unsigned short GSMStartTime;
  22:src/sim900_800.c **** volatile unsigned short GSMGeneralTimeOut;
  23:src/sim900_800.c **** 
  24:src/sim900_800.c **** //GSM SendCommand.
  25:src/sim900_800.c **** char GSMSendCommandState = 0;
  26:src/sim900_800.c **** char GSMSendCommandFlag = 0;
  27:src/sim900_800.c **** volatile unsigned short GSMSendCommandTimeOut;
  28:src/sim900_800.c **** char GSMSendCommandIntento = 0;
  29:src/sim900_800.c **** 
  30:src/sim900_800.c **** //GSM SendSMS
  31:src/sim900_800.c **** char GSMSendSMSState = 0;
  32:src/sim900_800.c **** char GSMSendSMSFlag = 0;
  33:src/sim900_800.c **** volatile unsigned short GSMSendSMSTimeOut;
  34:src/sim900_800.c **** char GSMSendSMSbuffAux[32];
  35:src/sim900_800.c **** 
  36:src/sim900_800.c **** //GSM Config.
  37:src/sim900_800.c **** char GSMConfigState = 0;
  38:src/sim900_800.c **** volatile unsigned short GSMConfigTimeOut;
  39:src/sim900_800.c **** volatile unsigned short GSMConfigTime;
  40:src/sim900_800.c **** 
  41:src/sim900_800.c **** //GPRS Config.
  42:src/sim900_800.c **** unsigned short GSMConfigGPRSTimeOut;
  43:src/sim900_800.c **** char GSMConfigGPRSState = 0;
  44:src/sim900_800.c **** char GSMConfigGPRSflag = 0;
  45:src/sim900_800.c **** char GSMbuffStatus[32];
  46:src/sim900_800.c **** char GSMbuffGPRSCommand[64];
  47:src/sim900_800.c **** char GSMIPadd[16];
  48:src/sim900_800.c **** unsigned char GPRSrssi = 99;
  49:src/sim900_800.c **** 
  50:src/sim900_800.c **** //GSM SendIP
  51:src/sim900_800.c **** char GSMSendIPState = 0;
  52:src/sim900_800.c **** char GSMSendIPFlag = 0;
  53:src/sim900_800.c **** volatile unsigned short GSMSendIPTimeOut;
  54:src/sim900_800.c **** char GSMSendIPbuffAux[32];
  55:src/sim900_800.c **** 
  56:src/sim900_800.c **** char GSMbuffRtaCommand[buffUARTGSMrx_dimension];
  57:src/sim900_800.c **** 
  58:src/sim900_800.c **** 
ARM GAS  /tmp/ccKua49E.s 			page 8


  59:src/sim900_800.c **** const char GSM_OK[] 	= "OK";
  60:src/sim900_800.c **** const char GSM_ERR[] 	= "ERROR";
  61:src/sim900_800.c **** 
  62:src/sim900_800.c **** const char GSM_RTA		= '+';
  63:src/sim900_800.c **** 
  64:src/sim900_800.c **** const char GSM_CMGF[] = "+CMGF:";
  65:src/sim900_800.c **** const char GSM_IPSTATE[] = "STATE:";
  66:src/sim900_800.c **** 
  67:src/sim900_800.c **** //Estados GPRS.
  68:src/sim900_800.c **** const char GSM_IPINITIAL[] 		= "IP INITIAL";
  69:src/sim900_800.c **** const char GSM_IPSTART[] 		= "IP START";
  70:src/sim900_800.c **** const char GSM_IPGPRSACT[] 		= "IP GPRSACT";
  71:src/sim900_800.c **** const char GSM_IPSTATUS[] 		= "IP STATUS";
  72:src/sim900_800.c **** const char GSM_IPCONNECTING[] 	= "TCP CONNECTING";
  73:src/sim900_800.c **** const char GSM_IPCONNOK[] 		= "CONNECT OK";
  74:src/sim900_800.c **** const char GSM_IPCONNFAIL[] 	= "CONNECT FAIL";
  75:src/sim900_800.c **** const char GSM_IPCONNCLOSE[] 	= "TCP CLOSED";
  76:src/sim900_800.c **** 
  77:src/sim900_800.c **** const char GSM_SIM1[] = "SIM1";
  78:src/sim900_800.c **** const char GSM_SIM2[] = "SIM2";
  79:src/sim900_800.c **** const char GSM_SENDOK[] = "SEND OK";
  80:src/sim900_800.c **** // const char GSM_SENDOK[] = "000: ACK";
  81:src/sim900_800.c **** unsigned char prestadorSimState = 0;
  82:src/sim900_800.c **** unsigned char prestadorSimTime = 250;
  83:src/sim900_800.c **** 
  84:src/sim900_800.c **** 
  85:src/sim900_800.c **** //Recepcion de SMS.
  86:src/sim900_800.c **** unsigned char GSMCantSMS = 0;
  87:src/sim900_800.c **** unsigned char GSMCantSMS2 = 0;
  88:src/sim900_800.c **** unsigned char GSMnumSMS = 1;
  89:src/sim900_800.c **** char GSMReadSMSState = 0;
  90:src/sim900_800.c **** char GSMReadSMScommand[32];
  91:src/sim900_800.c **** char GSMReadSMSrepIn[32];
  92:src/sim900_800.c **** unsigned char GSMrxSMSState = 0;
  93:src/sim900_800.c **** unsigned char prestadorSimSelect = 0;
  94:src/sim900_800.c **** unsigned char flagCloseIP = 0;
  95:src/sim900_800.c **** 
  96:src/sim900_800.c **** //Config SIM900.
  97:src/sim900_800.c **** extern char SIM900APNSIM1[64];
  98:src/sim900_800.c **** extern char SIM900USUARIOSIM1[20];
  99:src/sim900_800.c **** extern char SIM900CLAVESIM1[20];
 100:src/sim900_800.c **** 
 101:src/sim900_800.c **** extern char SIM900APNSIM2[64];
 102:src/sim900_800.c **** extern char SIM900USUARIOSIM2[20];
 103:src/sim900_800.c **** extern char SIM900CLAVESIM2[20];
 104:src/sim900_800.c **** extern char SIM900IPREMOTE[20];
 105:src/sim900_800.c **** extern char SIM900PORTREMOTE[20];
 106:src/sim900_800.c **** 
 107:src/sim900_800.c **** 
 108:src/sim900_800.c **** extern volatile unsigned char usart1_mini_timeout;
 109:src/sim900_800.c **** extern volatile unsigned char usart1_pckt_ready;
 110:src/sim900_800.c **** extern volatile unsigned char usart1_have_data;
 111:src/sim900_800.c **** extern unsigned char usart1_pckt_bytes;
 112:src/sim900_800.c **** 
 113:src/sim900_800.c **** #define gsm_mini_timeout	usart1_mini_timeout
 114:src/sim900_800.c **** #define gsm_pckt_ready		usart1_pckt_ready
 115:src/sim900_800.c **** #define gsm_have_data		usart1_have_data
ARM GAS  /tmp/ccKua49E.s 			page 9


 116:src/sim900_800.c **** #define gsm_pckt_bytes		usart1_pckt_bytes
 117:src/sim900_800.c **** 
 118:src/sim900_800.c **** #ifdef USE_GSM_GATEWAY
 119:src/sim900_800.c **** extern volatile unsigned char usart2_mini_timeout;
 120:src/sim900_800.c **** extern volatile unsigned char usart2_pckt_ready;
 121:src/sim900_800.c **** extern volatile unsigned char usart2_have_data;
 122:src/sim900_800.c **** extern unsigned char usart2_pckt_bytes;
 123:src/sim900_800.c **** #endif
 124:src/sim900_800.c **** 
 125:src/sim900_800.c **** //Procesa respuestas del modulo GSM esperando el final de linea por timeout
 126:src/sim900_800.c **** //carga el buffer buffUARTGSMrx2 y avisa con el flag PacketReadyUARTGSM
 127:src/sim900_800.c **** void GSMProcess (void)
 128:src/sim900_800.c **** {
 318              		.loc 1 128 0
 319              		.cfi_startproc
 320 0000 10B5     		push	{r4, lr}	@
 321              	.LCFI0:
 322              		.cfi_def_cfa_offset 8
 323              		.cfi_offset 4, -8
 324              		.cfi_offset 14, -4
 129:src/sim900_800.c **** 	if ((gsm_have_data) && (!gsm_mini_timeout))
 325              		.loc 1 129 0
 326 0002 104B     		ldr	r3, .L4	@ tmp113,
 327 0004 1B78     		ldrb	r3, [r3]	@ tmp114, usart1_have_data
 328 0006 DBB2     		uxtb	r3, r3	@ D.7938, tmp114
 329 0008 002B     		cmp	r3, #0	@ D.7938,
 330 000a 18D0     		beq	.L3	@,
 331              		.loc 1 129 0 is_stmt 0 discriminator 1
 332 000c 0E4B     		ldr	r3, .L4+4	@ tmp115,
 333 000e 1B78     		ldrb	r3, [r3]	@ tmp116, usart1_mini_timeout
 334 0010 DBB2     		uxtb	r3, r3	@ D.7938, tmp116
 335 0012 002B     		cmp	r3, #0	@ D.7938,
 336 0014 13D1     		bne	.L3	@,
 130:src/sim900_800.c **** 	{
 131:src/sim900_800.c **** 		gsm_have_data = 0;
 337              		.loc 1 131 0 is_stmt 1
 338 0016 0B4B     		ldr	r3, .L4	@ tmp117,
 339 0018 0022     		movs	r2, #0	@ tmp118,
 340 001a 1A70     		strb	r2, [r3]	@ tmp119, usart1_have_data
 132:src/sim900_800.c **** 		gsm_pckt_ready = 1;
 341              		.loc 1 132 0
 342 001c 0B4B     		ldr	r3, .L4+8	@ tmp120,
 343 001e 0122     		movs	r2, #1	@ tmp121,
 344 0020 1A70     		strb	r2, [r3]	@ tmp122, usart1_pckt_ready
 133:src/sim900_800.c **** 		gsm_pckt_bytes = ReadUsart1Buffer((unsigned char *) buffUARTGSMrx2, sizeof(buffUARTGSMrx2));
 345              		.loc 1 133 0
 346 0022 8023     		movs	r3, #128	@ tmp132,
 347 0024 5A00     		lsls	r2, r3, #1	@ tmp123, tmp132,
 348 0026 0A4B     		ldr	r3, .L4+12	@ tmp124,
 349 0028 1100     		movs	r1, r2	@, tmp123
 350 002a 1800     		movs	r0, r3	@, tmp124
 351 002c FFF7FEFF 		bl	ReadUsart1Buffer	@
 352 0030 0300     		movs	r3, r0	@ tmp125,
 353 0032 1A00     		movs	r2, r3	@ D.7938, tmp126
 354 0034 074B     		ldr	r3, .L4+16	@ tmp127,
 355 0036 1A70     		strb	r2, [r3]	@ tmp128, usart1_pckt_bytes
 134:src/sim900_800.c **** 		PacketReadyUARTGSM = 1;
ARM GAS  /tmp/ccKua49E.s 			page 10


 356              		.loc 1 134 0
 357 0038 074B     		ldr	r3, .L4+20	@ tmp129,
 358 003a 0122     		movs	r2, #1	@ tmp130,
 359 003c 1A70     		strb	r2, [r3]	@ tmp131, PacketReadyUARTGSM
 360              	.L3:
 135:src/sim900_800.c **** //		GSMReceive (unsigned char * pAlertasReportar, char * puserCode, unsigned char * pclaveAct, unsi
 136:src/sim900_800.c **** 	}
 137:src/sim900_800.c **** 
 138:src/sim900_800.c **** #ifdef USE_GSM_GATEWAY
 139:src/sim900_800.c **** 	if ((usart2_have_data) && (!usart2_mini_timeout))
 140:src/sim900_800.c **** 	{
 141:src/sim900_800.c **** 		usart2_have_data = 0;
 142:src/sim900_800.c **** 		usart2_pckt_ready = 1;
 143:src/sim900_800.c **** 		usart2_pckt_bytes = ReadUsart2Buffer((unsigned char *) buffUARTGSMrx2, sizeof(buffUARTGSMrx2));
 144:src/sim900_800.c **** 	}
 145:src/sim900_800.c **** #endif
 146:src/sim900_800.c **** }
 361              		.loc 1 146 0
 362 003e C046     		nop
 363              		@ sp needed	@
 364 0040 10BD     		pop	{r4, pc}
 365              	.L5:
 366 0042 C046     		.align	2
 367              	.L4:
 368 0044 00000000 		.word	usart1_have_data
 369 0048 00000000 		.word	usart1_mini_timeout
 370 004c 00000000 		.word	usart1_pckt_ready
 371 0050 00000000 		.word	buffUARTGSMrx2
 372 0054 00000000 		.word	usart1_pckt_bytes
 373 0058 00000000 		.word	PacketReadyUARTGSM
 374              		.cfi_endproc
 375              	.LFE20:
 376              		.size	GSMProcess, .-GSMProcess
 377              		.section	.text.GSM_Start,"ax",%progbits
 378              		.align	2
 379              		.global	GSM_Start
 380              		.code	16
 381              		.thumb_func
 382              		.type	GSM_Start, %function
 383              	GSM_Start:
 384              	.LFB21:
 147:src/sim900_800.c **** 
 148:src/sim900_800.c **** 
 149:src/sim900_800.c **** //------------------------------------//
 150:src/sim900_800.c **** //
 151:src/sim900_800.c **** //Wait: 1
 152:src/sim900_800.c **** //OK: 	2
 153:src/sim900_800.c **** //ERR:	3
 154:src/sim900_800.c **** //TO:	4
 155:src/sim900_800.c **** //------------------------------------//
 156:src/sim900_800.c **** /*
 157:src/sim900_800.c **** unsigned char GSM_Start(void)
 158:src/sim900_800.c **** {
 159:src/sim900_800.c **** 
 160:src/sim900_800.c **** 	if (!GSM_STATUS || (GSMStartState > 1))
 161:src/sim900_800.c **** 	{
 162:src/sim900_800.c **** 		switch(GSMStartState)
ARM GAS  /tmp/ccKua49E.s 			page 11


 163:src/sim900_800.c **** 		{
 164:src/sim900_800.c **** 			case 0:
 165:src/sim900_800.c **** 				GSMStartTime = 40;
 166:src/sim900_800.c **** 				GSM_PWRKEY_ON;
 167:src/sim900_800.c **** 				LED_NETLIGHT_ON;
 168:src/sim900_800.c **** 				GSMStartState++;
 169:src/sim900_800.c **** 				break;
 170:src/sim900_800.c **** 			case 1:
 171:src/sim900_800.c **** 				if(GSMStartTime == 0) //Espera 4 segugundos.
 172:src/sim900_800.c **** 				{
 173:src/sim900_800.c **** 					LED_NETLIGHT_OFF;
 174:src/sim900_800.c **** 					GSM_PWRKEY_OFF;
 175:src/sim900_800.c **** 					GSMStartTime = 100; //10 segundos.
 176:src/sim900_800.c **** 					GSMStartState++;
 177:src/sim900_800.c **** 				}
 178:src/sim900_800.c **** 				break;
 179:src/sim900_800.c **** 			case 2:
 180:src/sim900_800.c **** 				if(GSM_STATUS)
 181:src/sim900_800.c **** 				{
 182:src/sim900_800.c **** 					//Encendio.
 183:src/sim900_800.c **** 					LED_NETLIGHT_ON;
 184:src/sim900_800.c **** 					GSMStartState++;
 185:src/sim900_800.c **** 					GSMStartTime = 30;
 186:src/sim900_800.c **** 				}
 187:src/sim900_800.c **** 				if(GSMStartTime == 0)
 188:src/sim900_800.c **** 				{
 189:src/sim900_800.c **** 					//Se agoto el tiempo de espera.
 190:src/sim900_800.c **** 					GSMStartState = 0;
 191:src/sim900_800.c **** 					return 4;
 192:src/sim900_800.c **** 				}
 193:src/sim900_800.c **** 				break;
 194:src/sim900_800.c **** 			case 3:
 195:src/sim900_800.c **** 				if(GSMStartTime == 0)
 196:src/sim900_800.c **** 				{
 197:src/sim900_800.c **** 					//1 segundo mas.
 198:src/sim900_800.c **** 					LED_NETLIGHT_OFF;
 199:src/sim900_800.c **** 					GSM_PWRKEY_ON;
 200:src/sim900_800.c **** 					GSMStartState = 0;
 201:src/sim900_800.c **** 					return 2;
 202:src/sim900_800.c **** 				}
 203:src/sim900_800.c **** 				break;
 204:src/sim900_800.c **** 		}
 205:src/sim900_800.c **** 	}
 206:src/sim900_800.c **** 	if (GSM_STATUS || (GSMStartState == 0))
 207:src/sim900_800.c **** 	{
 208:src/sim900_800.c **** 		return 2;
 209:src/sim900_800.c **** 	}
 210:src/sim900_800.c **** 	return 1;
 211:src/sim900_800.c **** }
 212:src/sim900_800.c **** */
 213:src/sim900_800.c **** 
 214:src/sim900_800.c **** //GSM_Start() contesta:
 215:src/sim900_800.c **** //0 trabajando
 216:src/sim900_800.c **** //1 terminado OK
 217:src/sim900_800.c **** //2 ERROR
 218:src/sim900_800.c **** //3 Timeout
 219:src/sim900_800.c **** unsigned char GSM_Start (void)
ARM GAS  /tmp/ccKua49E.s 			page 12


 220:src/sim900_800.c **** {
 385              		.loc 1 220 0
 386              		.cfi_startproc
 221:src/sim900_800.c **** 	switch(GSMStartState)
 387              		.loc 1 221 0
 388 0000 3C4B     		ldr	r3, .L23	@ tmp137,
 389 0002 1B78     		ldrb	r3, [r3]	@ D.7939, GSMStartState
 390 0004 012B     		cmp	r3, #1	@ D.7940,
 391 0006 1BD0     		beq	.L8	@,
 392 0008 02DC     		bgt	.L9	@,
 393 000a 002B     		cmp	r3, #0	@ D.7940,
 394 000c 05D0     		beq	.L10	@,
 395 000e 65E0     		b	.L7	@
 396              	.L9:
 397 0010 022B     		cmp	r3, #2	@ D.7940,
 398 0012 2FD0     		beq	.L11	@,
 399 0014 032B     		cmp	r3, #3	@ D.7940,
 400 0016 50D0     		beq	.L12	@,
 401 0018 60E0     		b	.L7	@
 402              	.L10:
 222:src/sim900_800.c **** 	{
 223:src/sim900_800.c **** 		case 0:
 224:src/sim900_800.c **** 			//Levanto PWRKEY
 225:src/sim900_800.c **** 			LED_NETLIGHT_ON;
 403              		.loc 1 225 0
 404 001a 9023     		movs	r3, #144	@ tmp192,
 405 001c DB05     		lsls	r3, r3, #23	@ D.7941, tmp192,
 406 001e 8022     		movs	r2, #128	@ tmp193,
 407 0020 5201     		lsls	r2, r2, #5	@ tmp138, tmp193,
 408 0022 9A61     		str	r2, [r3, #24]	@ tmp138, _31->BSRR
 226:src/sim900_800.c **** 			GSMStartTime = 100;
 409              		.loc 1 226 0
 410 0024 344B     		ldr	r3, .L23+4	@ tmp139,
 411 0026 6422     		movs	r2, #100	@ tmp140,
 412 0028 1A80     		strh	r2, [r3]	@ tmp141, GSMStartTime
 227:src/sim900_800.c **** 			GSM_PWRKEY_ON;
 413              		.loc 1 227 0
 414 002a 9023     		movs	r3, #144	@ tmp194,
 415 002c DB05     		lsls	r3, r3, #23	@ D.7941, tmp194,
 416 002e 8022     		movs	r2, #128	@ tmp142,
 417 0030 9A61     		str	r2, [r3, #24]	@ tmp142, _34->BSRR
 228:src/sim900_800.c **** 			GSMStartState++;
 418              		.loc 1 228 0
 419 0032 304B     		ldr	r3, .L23	@ tmp143,
 420 0034 1B78     		ldrb	r3, [r3]	@ D.7939, GSMStartState
 421 0036 0133     		adds	r3, r3, #1	@ tmp144,
 422 0038 DAB2     		uxtb	r2, r3	@ D.7939, tmp144
 423 003a 2E4B     		ldr	r3, .L23	@ tmp145,
 424 003c 1A70     		strb	r2, [r3]	@ tmp146, GSMStartState
 229:src/sim900_800.c **** 			break;
 425              		.loc 1 229 0
 426 003e 56E0     		b	.L13	@
 427              	.L8:
 230:src/sim900_800.c **** 
 231:src/sim900_800.c **** 		case 1:
 232:src/sim900_800.c **** 			//Bajo PWRKEY
 233:src/sim900_800.c **** 			if(GSMStartTime == 0) //Espera 100 mseg
ARM GAS  /tmp/ccKua49E.s 			page 13


 428              		.loc 1 233 0
 429 0040 2D4B     		ldr	r3, .L23+4	@ tmp147,
 430 0042 1B88     		ldrh	r3, [r3]	@ tmp148, GSMStartTime
 431 0044 9BB2     		uxth	r3, r3	@ D.7942, tmp148
 432 0046 002B     		cmp	r3, #0	@ D.7942,
 433 0048 4CD1     		bne	.L20	@,
 234:src/sim900_800.c **** 			{
 235:src/sim900_800.c **** 				LED_NETLIGHT_OFF;
 434              		.loc 1 235 0
 435 004a 9023     		movs	r3, #144	@ tmp187,
 436 004c DB05     		lsls	r3, r3, #23	@ D.7941, tmp187,
 437 004e 8022     		movs	r2, #128	@ tmp188,
 438 0050 5205     		lsls	r2, r2, #21	@ tmp149, tmp188,
 439 0052 9A61     		str	r2, [r3, #24]	@ tmp149, _41->BSRR
 236:src/sim900_800.c **** 				GSM_PWRKEY_OFF;
 440              		.loc 1 236 0
 441 0054 9023     		movs	r3, #144	@ tmp189,
 442 0056 DB05     		lsls	r3, r3, #23	@ D.7941, tmp189,
 443 0058 8022     		movs	r2, #128	@ tmp190,
 444 005a 1204     		lsls	r2, r2, #16	@ tmp150, tmp190,
 445 005c 9A61     		str	r2, [r3, #24]	@ tmp150, _43->BSRR
 237:src/sim900_800.c **** 				GSMStartTime = 4000; //hasta 4 segundos.
 446              		.loc 1 237 0
 447 005e 264B     		ldr	r3, .L23+4	@ tmp151,
 448 0060 FA22     		movs	r2, #250	@ tmp191,
 449 0062 1201     		lsls	r2, r2, #4	@ tmp152, tmp191,
 450 0064 1A80     		strh	r2, [r3]	@ tmp153, GSMStartTime
 238:src/sim900_800.c **** 				GSMStartState++;
 451              		.loc 1 238 0
 452 0066 234B     		ldr	r3, .L23	@ tmp154,
 453 0068 1B78     		ldrb	r3, [r3]	@ D.7939, GSMStartState
 454 006a 0133     		adds	r3, r3, #1	@ tmp155,
 455 006c DAB2     		uxtb	r2, r3	@ D.7939, tmp155
 456 006e 214B     		ldr	r3, .L23	@ tmp156,
 457 0070 1A70     		strb	r2, [r3]	@ tmp157, GSMStartState
 239:src/sim900_800.c **** 			}
 240:src/sim900_800.c **** 			break;
 458              		.loc 1 240 0
 459 0072 37E0     		b	.L20	@
 460              	.L11:
 241:src/sim900_800.c **** 
 242:src/sim900_800.c **** 		case 2:
 243:src/sim900_800.c **** 			//Levanto PWRKEY
 244:src/sim900_800.c **** 			if (GSM_STATUS)
 461              		.loc 1 244 0
 462 0074 9023     		movs	r3, #144	@ tmp186,
 463 0076 DB05     		lsls	r3, r3, #23	@ D.7941, tmp186,
 464 0078 1B8A     		ldrh	r3, [r3, #16]	@ tmp159,
 465 007a 9BB2     		uxth	r3, r3	@ D.7942, tmp159
 466 007c 1A00     		movs	r2, r3	@ D.7940, D.7942
 467 007e 2023     		movs	r3, #32	@ tmp160,
 468 0080 1340     		ands	r3, r2	@ D.7940, D.7940
 469 0082 13D0     		beq	.L15	@,
 245:src/sim900_800.c **** 			{
 246:src/sim900_800.c **** 				GSMStartTime = 1000;
 470              		.loc 1 246 0
 471 0084 1C4B     		ldr	r3, .L23+4	@ tmp161,
ARM GAS  /tmp/ccKua49E.s 			page 14


 472 0086 FA22     		movs	r2, #250	@ tmp182,
 473 0088 9200     		lsls	r2, r2, #2	@ tmp162, tmp182,
 474 008a 1A80     		strh	r2, [r3]	@ tmp163, GSMStartTime
 247:src/sim900_800.c **** 				GSMStartState++;
 475              		.loc 1 247 0
 476 008c 194B     		ldr	r3, .L23	@ tmp164,
 477 008e 1B78     		ldrb	r3, [r3]	@ D.7939, GSMStartState
 478 0090 0133     		adds	r3, r3, #1	@ tmp165,
 479 0092 DAB2     		uxtb	r2, r3	@ D.7939, tmp165
 480 0094 174B     		ldr	r3, .L23	@ tmp166,
 481 0096 1A70     		strb	r2, [r3]	@ tmp167, GSMStartState
 248:src/sim900_800.c **** 				LED_NETLIGHT_ON;
 482              		.loc 1 248 0
 483 0098 9023     		movs	r3, #144	@ tmp183,
 484 009a DB05     		lsls	r3, r3, #23	@ D.7941, tmp183,
 485 009c 8022     		movs	r2, #128	@ tmp184,
 486 009e 5201     		lsls	r2, r2, #5	@ tmp168, tmp184,
 487 00a0 9A61     		str	r2, [r3, #24]	@ tmp168, _20->BSRR
 249:src/sim900_800.c **** 				GSM_PWRKEY_ON;
 488              		.loc 1 249 0
 489 00a2 9023     		movs	r3, #144	@ tmp185,
 490 00a4 DB05     		lsls	r3, r3, #23	@ D.7941, tmp185,
 491 00a6 8022     		movs	r2, #128	@ tmp169,
 492 00a8 9A61     		str	r2, [r3, #24]	@ tmp169, _22->BSRR
 250:src/sim900_800.c **** 			}
 251:src/sim900_800.c **** 			else if(GSMStartTime == 0) //Espera hasta 4 segs
 252:src/sim900_800.c **** 			{
 253:src/sim900_800.c **** 				return 3;		//TimeOut
 254:src/sim900_800.c **** 			}
 255:src/sim900_800.c **** 			break;
 493              		.loc 1 255 0
 494 00aa 1DE0     		b	.L21	@
 495              	.L15:
 251:src/sim900_800.c **** 			{
 496              		.loc 1 251 0
 497 00ac 124B     		ldr	r3, .L23+4	@ tmp170,
 498 00ae 1B88     		ldrh	r3, [r3]	@ tmp171, GSMStartTime
 499 00b0 9BB2     		uxth	r3, r3	@ D.7942, tmp171
 500 00b2 002B     		cmp	r3, #0	@ D.7942,
 501 00b4 18D1     		bne	.L21	@,
 253:src/sim900_800.c **** 			}
 502              		.loc 1 253 0
 503 00b6 0323     		movs	r3, #3	@ D.7939,
 504 00b8 1AE0     		b	.L17	@
 505              	.L12:
 256:src/sim900_800.c **** 
 257:src/sim900_800.c **** 		case 3:
 258:src/sim900_800.c **** 			if(GSMStartTime == 0)	//Espero 1 segundo mas y reviso GSM_STATUS
 506              		.loc 1 258 0
 507 00ba 0F4B     		ldr	r3, .L23+4	@ tmp172,
 508 00bc 1B88     		ldrh	r3, [r3]	@ tmp173, GSMStartTime
 509 00be 9BB2     		uxth	r3, r3	@ D.7942, tmp173
 510 00c0 002B     		cmp	r3, #0	@ D.7942,
 511 00c2 13D1     		bne	.L22	@,
 259:src/sim900_800.c **** 			{
 260:src/sim900_800.c **** 				if (GSM_STATUS)
 512              		.loc 1 260 0
ARM GAS  /tmp/ccKua49E.s 			page 15


 513 00c4 9023     		movs	r3, #144	@ tmp181,
 514 00c6 DB05     		lsls	r3, r3, #23	@ D.7941, tmp181,
 515 00c8 1B8A     		ldrh	r3, [r3, #16]	@ tmp175,
 516 00ca 9BB2     		uxth	r3, r3	@ D.7942, tmp175
 517 00cc 1A00     		movs	r2, r3	@ D.7940, D.7942
 518 00ce 2023     		movs	r3, #32	@ tmp176,
 519 00d0 1340     		ands	r3, r2	@ D.7940, D.7940
 520 00d2 01D0     		beq	.L19	@,
 261:src/sim900_800.c **** 					return 1;		//OK
 521              		.loc 1 261 0
 522 00d4 0123     		movs	r3, #1	@ D.7939,
 523 00d6 0BE0     		b	.L17	@
 524              	.L19:
 262:src/sim900_800.c **** 				else
 263:src/sim900_800.c **** 					return 2;		//Error
 525              		.loc 1 263 0
 526 00d8 0223     		movs	r3, #2	@ D.7939,
 527 00da 09E0     		b	.L17	@
 528              	.L7:
 264:src/sim900_800.c **** 			}
 265:src/sim900_800.c **** 			break;
 266:src/sim900_800.c **** 
 267:src/sim900_800.c **** 		default:
 268:src/sim900_800.c **** 			GSMStartState = 0;
 529              		.loc 1 268 0
 530 00dc 054B     		ldr	r3, .L23	@ tmp177,
 531 00de 0022     		movs	r2, #0	@ tmp178,
 532 00e0 1A70     		strb	r2, [r3]	@ tmp179, GSMStartState
 269:src/sim900_800.c **** 			break;
 533              		.loc 1 269 0
 534 00e2 04E0     		b	.L13	@
 535              	.L20:
 240:src/sim900_800.c **** 
 536              		.loc 1 240 0
 537 00e4 C046     		nop
 538 00e6 02E0     		b	.L13	@
 539              	.L21:
 255:src/sim900_800.c **** 
 540              		.loc 1 255 0
 541 00e8 C046     		nop
 542 00ea 00E0     		b	.L13	@
 543              	.L22:
 265:src/sim900_800.c **** 
 544              		.loc 1 265 0
 545 00ec C046     		nop
 546              	.L13:
 270:src/sim900_800.c **** 	}
 271:src/sim900_800.c **** 	return 0;						//trabajando
 547              		.loc 1 271 0
 548 00ee 0023     		movs	r3, #0	@ D.7939,
 549              	.L17:
 272:src/sim900_800.c **** }
 550              		.loc 1 272 0
 551 00f0 1800     		movs	r0, r3	@, <retval>
 552              		@ sp needed	@
 553 00f2 7047     		bx	lr
 554              	.L24:
ARM GAS  /tmp/ccKua49E.s 			page 16


 555              		.align	2
 556              	.L23:
 557 00f4 00000000 		.word	GSMStartState
 558 00f8 00000000 		.word	GSMStartTime
 559              		.cfi_endproc
 560              	.LFE21:
 561              		.size	GSM_Start, .-GSM_Start
 562              		.section	.text.GSM_Start_Stop_ResetSM,"ax",%progbits
 563              		.align	2
 564              		.global	GSM_Start_Stop_ResetSM
 565              		.code	16
 566              		.thumb_func
 567              		.type	GSM_Start_Stop_ResetSM, %function
 568              	GSM_Start_Stop_ResetSM:
 569              	.LFB22:
 273:src/sim900_800.c **** 
 274:src/sim900_800.c **** void GSM_Start_Stop_ResetSM (void)
 275:src/sim900_800.c **** {
 570              		.loc 1 275 0
 571              		.cfi_startproc
 276:src/sim900_800.c **** 	GSMStartState = 0;
 572              		.loc 1 276 0
 573 0000 024B     		ldr	r3, .L26	@ tmp110,
 574 0002 0022     		movs	r2, #0	@ tmp111,
 575 0004 1A70     		strb	r2, [r3]	@ tmp112, GSMStartState
 277:src/sim900_800.c **** }
 576              		.loc 1 277 0
 577 0006 C046     		nop
 578              		@ sp needed	@
 579 0008 7047     		bx	lr
 580              	.L27:
 581 000a C046     		.align	2
 582              	.L26:
 583 000c 00000000 		.word	GSMStartState
 584              		.cfi_endproc
 585              	.LFE22:
 586              		.size	GSM_Start_Stop_ResetSM, .-GSM_Start_Stop_ResetSM
 587              		.section	.text.GSM_Stop,"ax",%progbits
 588              		.align	2
 589              		.global	GSM_Stop
 590              		.code	16
 591              		.thumb_func
 592              		.type	GSM_Stop, %function
 593              	GSM_Stop:
 594              	.LFB23:
 278:src/sim900_800.c **** 
 279:src/sim900_800.c **** //GSM_Stop() contesta:
 280:src/sim900_800.c **** //0 trabajando
 281:src/sim900_800.c **** //1 terminado OK
 282:src/sim900_800.c **** //2 ERROR
 283:src/sim900_800.c **** //3 Timeout
 284:src/sim900_800.c **** unsigned char GSM_Stop(void)
 285:src/sim900_800.c **** {
 595              		.loc 1 285 0
 596              		.cfi_startproc
 597 0000 82B0     		sub	sp, sp, #8	@,,
 598              	.LCFI1:
ARM GAS  /tmp/ccKua49E.s 			page 17


 599              		.cfi_def_cfa_offset 8
 286:src/sim900_800.c **** 	unsigned char resp = 0;
 600              		.loc 1 286 0
 601 0002 6B46     		mov	r3, sp	@ tmp173,
 602 0004 0733     		adds	r3, r3, #7	@ tmp127,
 603 0006 0022     		movs	r2, #0	@ tmp128,
 604 0008 1A70     		strb	r2, [r3]	@ tmp129, resp
 287:src/sim900_800.c **** 
 288:src/sim900_800.c **** 	switch(GSMStartState)
 605              		.loc 1 288 0
 606 000a 294B     		ldr	r3, .L39	@ tmp130,
 607 000c 1B78     		ldrb	r3, [r3]	@ D.7944, GSMStartState
 608 000e 012B     		cmp	r3, #1	@ D.7945,
 609 0010 16D0     		beq	.L30	@,
 610 0012 022B     		cmp	r3, #2	@ D.7945,
 611 0014 2CD0     		beq	.L31	@,
 612 0016 002B     		cmp	r3, #0	@ D.7945,
 613 0018 3BD1     		bne	.L29	@,
 289:src/sim900_800.c **** 	{
 290:src/sim900_800.c **** 		case 0:
 291:src/sim900_800.c **** 			//Levanto PWRKEY
 292:src/sim900_800.c **** 			GSM_PWRKEY_OFF;
 614              		.loc 1 292 0
 615 001a 9023     		movs	r3, #144	@ tmp170,
 616 001c DB05     		lsls	r3, r3, #23	@ D.7946, tmp170,
 617 001e 8022     		movs	r2, #128	@ tmp171,
 618 0020 1204     		lsls	r2, r2, #16	@ tmp131, tmp171,
 619 0022 9A61     		str	r2, [r3, #24]	@ tmp131, _11->BSRR
 293:src/sim900_800.c **** 			GSMStartTime = 250;	//espero 250ms
 620              		.loc 1 293 0
 621 0024 234B     		ldr	r3, .L39+4	@ tmp132,
 622 0026 FA22     		movs	r2, #250	@ tmp133,
 623 0028 1A80     		strh	r2, [r3]	@ tmp134, GSMStartTime
 294:src/sim900_800.c **** 			GSMGeneralTimeOut = 4000;	//timeout de 4 segs
 624              		.loc 1 294 0
 625 002a 234B     		ldr	r3, .L39+8	@ tmp135,
 626 002c FA22     		movs	r2, #250	@ tmp172,
 627 002e 1201     		lsls	r2, r2, #4	@ tmp136, tmp172,
 628 0030 1A80     		strh	r2, [r3]	@ tmp137, GSMGeneralTimeOut
 295:src/sim900_800.c **** 			GSMStartState++;
 629              		.loc 1 295 0
 630 0032 1F4B     		ldr	r3, .L39	@ tmp138,
 631 0034 1B78     		ldrb	r3, [r3]	@ D.7944, GSMStartState
 632 0036 0133     		adds	r3, r3, #1	@ tmp139,
 633 0038 DAB2     		uxtb	r2, r3	@ D.7944, tmp139
 634 003a 1D4B     		ldr	r3, .L39	@ tmp140,
 635 003c 1A70     		strb	r2, [r3]	@ tmp141, GSMStartState
 296:src/sim900_800.c **** 			break;
 636              		.loc 1 296 0
 637 003e 28E0     		b	.L29	@
 638              	.L30:
 297:src/sim900_800.c **** 
 298:src/sim900_800.c **** 		case 1:
 299:src/sim900_800.c **** 			if ((!GSMStartTime) && (!GSM_STATUS))
 639              		.loc 1 299 0
 640 0040 1C4B     		ldr	r3, .L39+4	@ tmp142,
 641 0042 1B88     		ldrh	r3, [r3]	@ tmp143, GSMStartTime
ARM GAS  /tmp/ccKua49E.s 			page 18


 642 0044 9BB2     		uxth	r3, r3	@ D.7947, tmp143
 643 0046 002B     		cmp	r3, #0	@ D.7947,
 644 0048 20D1     		bne	.L37	@,
 645              		.loc 1 299 0 is_stmt 0 discriminator 1
 646 004a 9023     		movs	r3, #144	@ tmp169,
 647 004c DB05     		lsls	r3, r3, #23	@ D.7946, tmp169,
 648 004e 1B8A     		ldrh	r3, [r3, #16]	@ tmp145,
 649 0050 9BB2     		uxth	r3, r3	@ D.7947, tmp145
 650 0052 1A00     		movs	r2, r3	@ D.7945, D.7947
 651 0054 2023     		movs	r3, #32	@ tmp146,
 652 0056 1340     		ands	r3, r2	@ D.7945, D.7945
 653 0058 18D1     		bne	.L37	@,
 300:src/sim900_800.c **** 			{
 301:src/sim900_800.c **** 				GSMStartTime = 1000;	//espero 1seg
 654              		.loc 1 301 0 is_stmt 1
 655 005a 164B     		ldr	r3, .L39+4	@ tmp147,
 656 005c FA22     		movs	r2, #250	@ tmp168,
 657 005e 9200     		lsls	r2, r2, #2	@ tmp148, tmp168,
 658 0060 1A80     		strh	r2, [r3]	@ tmp149, GSMStartTime
 302:src/sim900_800.c **** 				GSMStartState++;
 659              		.loc 1 302 0
 660 0062 134B     		ldr	r3, .L39	@ tmp150,
 661 0064 1B78     		ldrb	r3, [r3]	@ D.7944, GSMStartState
 662 0066 0133     		adds	r3, r3, #1	@ tmp151,
 663 0068 DAB2     		uxtb	r2, r3	@ D.7944, tmp151
 664 006a 114B     		ldr	r3, .L39	@ tmp152,
 665 006c 1A70     		strb	r2, [r3]	@ tmp153, GSMStartState
 303:src/sim900_800.c **** 			}
 304:src/sim900_800.c **** 			break;
 666              		.loc 1 304 0
 667 006e 0DE0     		b	.L37	@
 668              	.L31:
 305:src/sim900_800.c **** 
 306:src/sim900_800.c **** 		case 2:
 307:src/sim900_800.c **** 			if (!GSMStartTime)
 669              		.loc 1 307 0
 670 0070 104B     		ldr	r3, .L39+4	@ tmp154,
 671 0072 1B88     		ldrh	r3, [r3]	@ tmp155, GSMStartTime
 672 0074 9BB2     		uxth	r3, r3	@ D.7947, tmp155
 673 0076 002B     		cmp	r3, #0	@ D.7947,
 674 0078 0AD1     		bne	.L38	@,
 308:src/sim900_800.c **** 			{
 309:src/sim900_800.c **** 				GSM_PWRKEY_ON;
 675              		.loc 1 309 0
 676 007a 9023     		movs	r3, #144	@ tmp167,
 677 007c DB05     		lsls	r3, r3, #23	@ D.7946, tmp167,
 678 007e 8022     		movs	r2, #128	@ tmp156,
 679 0080 9A61     		str	r2, [r3, #24]	@ tmp156, _30->BSRR
 310:src/sim900_800.c **** 				resp = 1;
 680              		.loc 1 310 0
 681 0082 6B46     		mov	r3, sp	@ tmp174,
 682 0084 0733     		adds	r3, r3, #7	@ tmp157,
 683 0086 0122     		movs	r2, #1	@ tmp158,
 684 0088 1A70     		strb	r2, [r3]	@ tmp159, resp
 311:src/sim900_800.c **** 			}
 312:src/sim900_800.c **** 			break;
 685              		.loc 1 312 0
ARM GAS  /tmp/ccKua49E.s 			page 19


 686 008a 01E0     		b	.L38	@
 687              	.L37:
 304:src/sim900_800.c **** 
 688              		.loc 1 304 0
 689 008c C046     		nop
 690 008e 00E0     		b	.L29	@
 691              	.L38:
 692              		.loc 1 312 0
 693 0090 C046     		nop
 694              	.L29:
 313:src/sim900_800.c **** 	}
 314:src/sim900_800.c **** 
 315:src/sim900_800.c **** 	if (!GSMGeneralTimeOut)
 695              		.loc 1 315 0
 696 0092 094B     		ldr	r3, .L39+8	@ tmp160,
 697 0094 1B88     		ldrh	r3, [r3]	@ tmp161, GSMGeneralTimeOut
 698 0096 9BB2     		uxth	r3, r3	@ D.7947, tmp161
 699 0098 002B     		cmp	r3, #0	@ D.7947,
 700 009a 03D1     		bne	.L35	@,
 316:src/sim900_800.c **** 		resp = 3;				//timeout
 701              		.loc 1 316 0
 702 009c 6B46     		mov	r3, sp	@ tmp175,
 703 009e 0733     		adds	r3, r3, #7	@ tmp162,
 704 00a0 0322     		movs	r2, #3	@ tmp163,
 705 00a2 1A70     		strb	r2, [r3]	@ tmp164, resp
 706              	.L35:
 317:src/sim900_800.c **** 
 318:src/sim900_800.c **** 	return resp;
 707              		.loc 1 318 0
 708 00a4 6B46     		mov	r3, sp	@ tmp176,
 709 00a6 0733     		adds	r3, r3, #7	@ tmp165,
 710 00a8 1B78     		ldrb	r3, [r3]	@ D.7944, resp
 319:src/sim900_800.c **** }
 711              		.loc 1 319 0
 712 00aa 1800     		movs	r0, r3	@, <retval>
 713 00ac 02B0     		add	sp, sp, #8	@,,
 714              		@ sp needed	@
 715 00ae 7047     		bx	lr
 716              	.L40:
 717              		.align	2
 718              	.L39:
 719 00b0 00000000 		.word	GSMStartState
 720 00b4 00000000 		.word	GSMStartTime
 721 00b8 00000000 		.word	GSMGeneralTimeOut
 722              		.cfi_endproc
 723              	.LFE23:
 724              		.size	GSM_Stop, .-GSM_Stop
 725              		.section	.text.GSM_Delay,"ax",%progbits
 726              		.align	2
 727              		.global	GSM_Delay
 728              		.code	16
 729              		.thumb_func
 730              		.type	GSM_Delay, %function
 731              	GSM_Delay:
 732              	.LFB24:
 320:src/sim900_800.c **** 
 321:src/sim900_800.c **** //TODO: OJO utiliza GSMStartState
ARM GAS  /tmp/ccKua49E.s 			page 20


 322:src/sim900_800.c **** //in: delay en ms
 323:src/sim900_800.c **** //out: 0 working; 1 finish
 324:src/sim900_800.c **** unsigned char GSM_Delay (unsigned short tim)
 325:src/sim900_800.c **** {
 733              		.loc 1 325 0
 734              		.cfi_startproc
 735 0000 84B0     		sub	sp, sp, #16	@,,
 736              	.LCFI2:
 737              		.cfi_def_cfa_offset 16
 738 0002 0200     		movs	r2, r0	@ tmp117, tim
 739 0004 6B46     		mov	r3, sp	@ tmp144,
 740 0006 0633     		adds	r3, r3, #6	@ tmp118,
 741 0008 1A80     		strh	r2, [r3]	@ tmp119, tim
 326:src/sim900_800.c **** 	unsigned char resp = 0;
 742              		.loc 1 326 0
 743 000a 0F23     		movs	r3, #15	@ tmp120,
 744 000c 6B44     		add	r3, r3, sp	@ tmp120,
 745 000e 0022     		movs	r2, #0	@ tmp121,
 746 0010 1A70     		strb	r2, [r3]	@ tmp122, resp
 327:src/sim900_800.c **** 
 328:src/sim900_800.c **** 	switch(GSMStartState)
 747              		.loc 1 328 0
 748 0012 154B     		ldr	r3, .L50	@ tmp123,
 749 0014 1B78     		ldrb	r3, [r3]	@ D.7948, GSMStartState
 750 0016 002B     		cmp	r3, #0	@ D.7949,
 751 0018 02D0     		beq	.L43	@,
 752 001a 012B     		cmp	r3, #1	@ D.7949,
 753 001c 0CD0     		beq	.L44	@,
 754 001e 18E0     		b	.L48	@
 755              	.L43:
 329:src/sim900_800.c **** 	{
 330:src/sim900_800.c **** 		case 0:
 331:src/sim900_800.c **** 			GSMGeneralTimeOut = tim;
 756              		.loc 1 331 0
 757 0020 124B     		ldr	r3, .L50+4	@ tmp124,
 758 0022 6A46     		mov	r2, sp	@ tmp146,
 759 0024 0632     		adds	r2, r2, #6	@ tmp125,
 760 0026 1288     		ldrh	r2, [r2]	@ tmp126, tim
 761 0028 1A80     		strh	r2, [r3]	@ tmp126, GSMGeneralTimeOut
 332:src/sim900_800.c **** 			GSMStartState++;
 762              		.loc 1 332 0
 763 002a 0F4B     		ldr	r3, .L50	@ tmp127,
 764 002c 1B78     		ldrb	r3, [r3]	@ D.7948, GSMStartState
 765 002e 0133     		adds	r3, r3, #1	@ tmp128,
 766 0030 DAB2     		uxtb	r2, r3	@ D.7948, tmp128
 767 0032 0D4B     		ldr	r3, .L50	@ tmp129,
 768 0034 1A70     		strb	r2, [r3]	@ tmp130, GSMStartState
 333:src/sim900_800.c **** 			break;
 769              		.loc 1 333 0
 770 0036 11E0     		b	.L45	@
 771              	.L44:
 334:src/sim900_800.c **** 
 335:src/sim900_800.c **** 		case 1:
 336:src/sim900_800.c **** 			if (!GSMGeneralTimeOut)
 772              		.loc 1 336 0
 773 0038 0C4B     		ldr	r3, .L50+4	@ tmp131,
 774 003a 1B88     		ldrh	r3, [r3]	@ tmp132, GSMGeneralTimeOut
ARM GAS  /tmp/ccKua49E.s 			page 21


 775 003c 9BB2     		uxth	r3, r3	@ D.7950, tmp132
 776 003e 002B     		cmp	r3, #0	@ D.7950,
 777 0040 0BD1     		bne	.L49	@,
 337:src/sim900_800.c **** 			{
 338:src/sim900_800.c **** 				GSMStartState = 0;
 778              		.loc 1 338 0
 779 0042 094B     		ldr	r3, .L50	@ tmp133,
 780 0044 0022     		movs	r2, #0	@ tmp134,
 781 0046 1A70     		strb	r2, [r3]	@ tmp135, GSMStartState
 339:src/sim900_800.c **** 				resp = 1;
 782              		.loc 1 339 0
 783 0048 0F23     		movs	r3, #15	@ tmp136,
 784 004a 6B44     		add	r3, r3, sp	@ tmp136,
 785 004c 0122     		movs	r2, #1	@ tmp137,
 786 004e 1A70     		strb	r2, [r3]	@ tmp138, resp
 340:src/sim900_800.c **** 			}
 341:src/sim900_800.c **** 			break;
 787              		.loc 1 341 0
 788 0050 03E0     		b	.L49	@
 789              	.L48:
 342:src/sim900_800.c **** 
 343:src/sim900_800.c **** 		default:
 344:src/sim900_800.c **** 			GSMStartState = 0;
 790              		.loc 1 344 0
 791 0052 054B     		ldr	r3, .L50	@ tmp139,
 792 0054 0022     		movs	r2, #0	@ tmp140,
 793 0056 1A70     		strb	r2, [r3]	@ tmp141, GSMStartState
 345:src/sim900_800.c **** 			break;
 794              		.loc 1 345 0
 795 0058 00E0     		b	.L45	@
 796              	.L49:
 341:src/sim900_800.c **** 
 797              		.loc 1 341 0
 798 005a C046     		nop
 799              	.L45:
 346:src/sim900_800.c **** 	}
 347:src/sim900_800.c **** 	return resp;
 800              		.loc 1 347 0
 801 005c 0F23     		movs	r3, #15	@ tmp142,
 802 005e 6B44     		add	r3, r3, sp	@ tmp142,
 803 0060 1B78     		ldrb	r3, [r3]	@ D.7948, resp
 348:src/sim900_800.c **** }
 804              		.loc 1 348 0
 805 0062 1800     		movs	r0, r3	@, <retval>
 806 0064 04B0     		add	sp, sp, #16	@,,
 807              		@ sp needed	@
 808 0066 7047     		bx	lr
 809              	.L51:
 810              		.align	2
 811              	.L50:
 812 0068 00000000 		.word	GSMStartState
 813 006c 00000000 		.word	GSMGeneralTimeOut
 814              		.cfi_endproc
 815              	.LFE24:
 816              		.size	GSM_Delay, .-GSM_Delay
 817              		.section	.rodata
 818              		.align	2
ARM GAS  /tmp/ccKua49E.s 			page 22


 819              	.LC18:
 820 0000 41542B43 		.ascii	"AT+CSPN?\015\012\000"
 820      53504E3F 
 820      0D0A00
 821 000b 00       		.align	2
 822              	.LC20:
 823 000c 2B435350 		.ascii	"+CSPN\000"
 823      4E00
 824              		.section	.text.GSMPrestador,"ax",%progbits
 825              		.align	2
 826              		.global	GSMPrestador
 827              		.code	16
 828              		.thumb_func
 829              		.type	GSMPrestador, %function
 830              	GSMPrestador:
 831              	.LFB25:
 349:src/sim900_800.c **** 
 350:src/sim900_800.c **** //GSMPrestador(&PrestadorSim1, &PrestadorSim2, &CONFIGURACIONgprsAPN1[0], &CONFIGURACIONgprsUsuario
 351:src/sim900_800.c **** void GSMPrestador(unsigned char * pGSMHWstatus, unsigned char * prestadorSim1, unsigned char * pres
 352:src/sim900_800.c **** {
 832              		.loc 1 352 0
 833              		.cfi_startproc
 834 0000 10B5     		push	{r4, lr}	@
 835              	.LCFI3:
 836              		.cfi_def_cfa_offset 8
 837              		.cfi_offset 4, -8
 838              		.cfi_offset 14, -4
 839 0002 86B0     		sub	sp, sp, #24	@,,
 840              	.LCFI4:
 841              		.cfi_def_cfa_offset 32
 842 0004 0390     		str	r0, [sp, #12]	@ pGSMHWstatus, pGSMHWstatus
 843 0006 0291     		str	r1, [sp, #8]	@ prestadorSim1, prestadorSim1
 844 0008 0192     		str	r2, [sp, #4]	@ prestadorSim2, prestadorSim2
 845 000a 0093     		str	r3, [sp]	@ pCONFIGURACIONgprsAPN1, pCONFIGURACIONgprsAPN1
 353:src/sim900_800.c **** 	unsigned char i;
 354:src/sim900_800.c **** 
 355:src/sim900_800.c **** 	if (prestadorSimTime == 0)
 846              		.loc 1 355 0
 847 000c DA4B     		ldr	r3, .L94	@ tmp151,
 848 000e 1B78     		ldrb	r3, [r3]	@ D.7951, prestadorSimTime
 849 0010 002B     		cmp	r3, #0	@ D.7951,
 850 0012 00D0     		beq	.LCB487	@
 851 0014 D5E1     		b	.L87	@long jump	@
 852              	.LCB487:
 356:src/sim900_800.c **** 	{
 357:src/sim900_800.c **** 		switch(prestadorSimSelect)
 853              		.loc 1 357 0
 854 0016 D94B     		ldr	r3, .L94+4	@ tmp152,
 855 0018 1B78     		ldrb	r3, [r3]	@ D.7951, prestadorSimSelect
 856 001a 012B     		cmp	r3, #1	@ D.7952,
 857 001c 13D0     		beq	.L55	@,
 858 001e 022B     		cmp	r3, #2	@ D.7952,
 859 0020 00D1     		bne	.LCB493	@
 860 0022 E8E0     		b	.L56	@long jump	@
 861              	.LCB493:
 862 0024 002B     		cmp	r3, #0	@ D.7952,
 863 0026 00D0     		beq	.LCB495	@
ARM GAS  /tmp/ccKua49E.s 			page 23


 864 0028 C4E1     		b	.L84	@long jump	@
 865              	.LCB495:
 358:src/sim900_800.c **** 		{
 359:src/sim900_800.c **** 			case 0:
 360:src/sim900_800.c **** 				if (*pGSMHWstatus & 0x01)
 866              		.loc 1 360 0
 867 002a 039B     		ldr	r3, [sp, #12]	@ tmp153, pGSMHWstatus
 868 002c 1B78     		ldrb	r3, [r3]	@ D.7951, *pGSMHWstatus_25(D)
 869 002e 1A00     		movs	r2, r3	@ D.7952, D.7951
 870 0030 0123     		movs	r3, #1	@ tmp154,
 871 0032 1340     		ands	r3, r2	@ D.7952, D.7952
 872 0034 00D1     		bne	.LCB502	@
 873 0036 C1E1     		b	.L88	@long jump	@
 874              	.LCB502:
 361:src/sim900_800.c **** 					prestadorSimSelect++;
 875              		.loc 1 361 0
 876 0038 D04B     		ldr	r3, .L94+4	@ tmp155,
 877 003a 1B78     		ldrb	r3, [r3]	@ D.7951, prestadorSimSelect
 878 003c 0133     		adds	r3, r3, #1	@ tmp156,
 879 003e DAB2     		uxtb	r2, r3	@ D.7951, tmp156
 880 0040 CE4B     		ldr	r3, .L94+4	@ tmp157,
 881 0042 1A70     		strb	r2, [r3]	@ tmp158, prestadorSimSelect
 362:src/sim900_800.c **** 				break;
 882              		.loc 1 362 0
 883 0044 BAE1     		b	.L88	@
 884              	.L55:
 363:src/sim900_800.c **** 			case 1:
 364:src/sim900_800.c **** 				if (*prestadorSim1 == 0)
 885              		.loc 1 364 0
 886 0046 029B     		ldr	r3, [sp, #8]	@ tmp159, prestadorSim1
 887 0048 1B78     		ldrb	r3, [r3]	@ D.7951, *prestadorSim1_33(D)
 888 004a 002B     		cmp	r3, #0	@ D.7951,
 889 004c 00D0     		beq	.LCB516	@
 890 004e D2E0     		b	.L56	@long jump	@
 891              	.LCB516:
 365:src/sim900_800.c **** 				{
 366:src/sim900_800.c **** 					switch(prestadorSimState)
 892              		.loc 1 366 0
 893 0050 CB4B     		ldr	r3, .L94+8	@ tmp160,
 894 0052 1B78     		ldrb	r3, [r3]	@ D.7951, prestadorSimState
 895 0054 012B     		cmp	r3, #1	@ D.7952,
 896 0056 0BD0     		beq	.L60	@,
 897 0058 022B     		cmp	r3, #2	@ D.7952,
 898 005a 44D0     		beq	.L61	@,
 899 005c 002B     		cmp	r3, #0	@ D.7952,
 900 005e 00D0     		beq	.LCB524	@
 901 0060 C2E0     		b	.L85	@long jump	@
 902              	.LCB524:
 367:src/sim900_800.c **** 					{
 368:src/sim900_800.c **** 					case 0:
 369:src/sim900_800.c **** 						prestadorSimState++;
 903              		.loc 1 369 0
 904 0062 C74B     		ldr	r3, .L94+8	@ tmp161,
 905 0064 1B78     		ldrb	r3, [r3]	@ D.7951, prestadorSimState
 906 0066 0133     		adds	r3, r3, #1	@ tmp162,
 907 0068 DAB2     		uxtb	r2, r3	@ D.7951, tmp162
 908 006a C54B     		ldr	r3, .L94+8	@ tmp163,
ARM GAS  /tmp/ccKua49E.s 			page 24


 909 006c 1A70     		strb	r2, [r3]	@ tmp164, prestadorSimState
 370:src/sim900_800.c **** 						break;
 910              		.loc 1 370 0
 911 006e C2E0     		b	.L56	@
 912              	.L60:
 371:src/sim900_800.c **** 					case 1:
 372:src/sim900_800.c **** 
 373:src/sim900_800.c **** 						i = GSM_SetSIM (1);
 913              		.loc 1 373 0
 914 0070 1724     		movs	r4, #23	@ tmp165,
 915 0072 6C44     		add	r4, r4, sp	@ tmp165,
 916 0074 0120     		movs	r0, #1	@,
 917 0076 FFF7FEFF 		bl	GSM_SetSIM	@
 918 007a 0300     		movs	r3, r0	@ tmp166,
 919 007c 2370     		strb	r3, [r4]	@ tmp168, i
 374:src/sim900_800.c **** 						if (i == 2)
 920              		.loc 1 374 0
 921 007e 1723     		movs	r3, #23	@ tmp169,
 922 0080 6B44     		add	r3, r3, sp	@ tmp169,
 923 0082 1B78     		ldrb	r3, [r3]	@ tmp170, i
 924 0084 022B     		cmp	r3, #2	@ tmp170,
 925 0086 05D1     		bne	.L63	@,
 375:src/sim900_800.c **** 							prestadorSimState++;
 926              		.loc 1 375 0
 927 0088 BD4B     		ldr	r3, .L94+8	@ tmp171,
 928 008a 1B78     		ldrb	r3, [r3]	@ D.7951, prestadorSimState
 929 008c 0133     		adds	r3, r3, #1	@ tmp172,
 930 008e DAB2     		uxtb	r2, r3	@ D.7951, tmp172
 931 0090 BB4B     		ldr	r3, .L94+8	@ tmp173,
 932 0092 1A70     		strb	r2, [r3]	@ tmp174, prestadorSimState
 933              	.L63:
 376:src/sim900_800.c **** 						if (i > 2)
 934              		.loc 1 376 0
 935 0094 1723     		movs	r3, #23	@ tmp175,
 936 0096 6B44     		add	r3, r3, sp	@ tmp175,
 937 0098 1B78     		ldrb	r3, [r3]	@ tmp176, i
 938 009a 022B     		cmp	r3, #2	@ tmp176,
 939 009c 08D9     		bls	.L64	@,
 377:src/sim900_800.c **** 						{
 378:src/sim900_800.c **** 							prestadorSimState = 0;
 940              		.loc 1 378 0
 941 009e B84B     		ldr	r3, .L94+8	@ tmp177,
 942 00a0 0022     		movs	r2, #0	@ tmp178,
 943 00a2 1A70     		strb	r2, [r3]	@ tmp179, prestadorSimState
 379:src/sim900_800.c **** 							//prestadorSimTime = 150;
 380:src/sim900_800.c **** 							prestadorSimSelect++;
 944              		.loc 1 380 0
 945 00a4 B54B     		ldr	r3, .L94+4	@ tmp180,
 946 00a6 1B78     		ldrb	r3, [r3]	@ D.7951, prestadorSimSelect
 947 00a8 0133     		adds	r3, r3, #1	@ tmp181,
 948 00aa DAB2     		uxtb	r2, r3	@ D.7951, tmp181
 949 00ac B34B     		ldr	r3, .L94+4	@ tmp182,
 950 00ae 1A70     		strb	r2, [r3]	@ tmp183, prestadorSimSelect
 951              	.L64:
 381:src/sim900_800.c **** 						}
 382:src/sim900_800.c **** 
 383:src/sim900_800.c **** 						if (i == 2)
ARM GAS  /tmp/ccKua49E.s 			page 25


 952              		.loc 1 383 0
 953 00b0 1723     		movs	r3, #23	@ tmp184,
 954 00b2 6B44     		add	r3, r3, sp	@ tmp184,
 955 00b4 1B78     		ldrb	r3, [r3]	@ tmp185, i
 956 00b6 022B     		cmp	r3, #2	@ tmp185,
 957 00b8 05D1     		bne	.L65	@,
 384:src/sim900_800.c **** 							prestadorSimState++;
 958              		.loc 1 384 0
 959 00ba B14B     		ldr	r3, .L94+8	@ tmp186,
 960 00bc 1B78     		ldrb	r3, [r3]	@ D.7951, prestadorSimState
 961 00be 0133     		adds	r3, r3, #1	@ tmp187,
 962 00c0 DAB2     		uxtb	r2, r3	@ D.7951, tmp187
 963 00c2 AF4B     		ldr	r3, .L94+8	@ tmp188,
 964 00c4 1A70     		strb	r2, [r3]	@ tmp189, prestadorSimState
 965              	.L65:
 385:src/sim900_800.c **** 						if (i > 2)
 966              		.loc 1 385 0
 967 00c6 1723     		movs	r3, #23	@ tmp190,
 968 00c8 6B44     		add	r3, r3, sp	@ tmp190,
 969 00ca 1B78     		ldrb	r3, [r3]	@ tmp191, i
 970 00cc 022B     		cmp	r3, #2	@ tmp191,
 971 00ce 00D8     		bhi	.LCB587	@
 972 00d0 8EE0     		b	.L89	@long jump	@
 973              	.LCB587:
 386:src/sim900_800.c **** 						{
 387:src/sim900_800.c **** 							prestadorSimState = 0;
 974              		.loc 1 387 0
 975 00d2 AB4B     		ldr	r3, .L94+8	@ tmp192,
 976 00d4 0022     		movs	r2, #0	@ tmp193,
 977 00d6 1A70     		strb	r2, [r3]	@ tmp194, prestadorSimState
 388:src/sim900_800.c **** 							//prestadorSimTime = 150;
 389:src/sim900_800.c **** 							prestadorSimSelect++;
 978              		.loc 1 389 0
 979 00d8 A84B     		ldr	r3, .L94+4	@ tmp195,
 980 00da 1B78     		ldrb	r3, [r3]	@ D.7951, prestadorSimSelect
 981 00dc 0133     		adds	r3, r3, #1	@ tmp196,
 982 00de DAB2     		uxtb	r2, r3	@ D.7951, tmp196
 983 00e0 A64B     		ldr	r3, .L94+4	@ tmp197,
 984 00e2 1A70     		strb	r2, [r3]	@ tmp198, prestadorSimSelect
 390:src/sim900_800.c **** 						}
 391:src/sim900_800.c **** 
 392:src/sim900_800.c **** 						break;
 985              		.loc 1 392 0
 986 00e4 84E0     		b	.L89	@
 987              	.L61:
 393:src/sim900_800.c **** 					case 2:
 394:src/sim900_800.c **** 						i = GSMSendCommand ("AT+CSPN?\r\n", 15, 1, &GSMbuffRtaCommand[0]);
 988              		.loc 1 394 0
 989 00e6 1724     		movs	r4, #23	@ tmp199,
 990 00e8 6C44     		add	r4, r4, sp	@ tmp199,
 991 00ea A64B     		ldr	r3, .L94+12	@ tmp200,
 992 00ec A648     		ldr	r0, .L94+16	@ tmp201,
 993 00ee 0122     		movs	r2, #1	@,
 994 00f0 0F21     		movs	r1, #15	@,
 995 00f2 FFF7FEFF 		bl	GSMSendCommand	@
 996 00f6 0300     		movs	r3, r0	@ tmp202,
 997 00f8 2370     		strb	r3, [r4]	@ tmp204, i
ARM GAS  /tmp/ccKua49E.s 			page 26


 395:src/sim900_800.c **** 
 396:src/sim900_800.c **** 						if (i == 2)
 998              		.loc 1 396 0
 999 00fa 1723     		movs	r3, #23	@ tmp205,
 1000 00fc 6B44     		add	r3, r3, sp	@ tmp205,
 1001 00fe 1B78     		ldrb	r3, [r3]	@ tmp206, i
 1002 0100 022B     		cmp	r3, #2	@ tmp206,
 1003 0102 62D1     		bne	.L67	@,
 397:src/sim900_800.c **** 						{
 398:src/sim900_800.c **** 							if (!strncmp ((const char *)&GSMbuffRtaCommand[0],(const char *) "+CSPN", sizeof("+CSPN") - 
 1004              		.loc 1 398 0
 1005 0104 A149     		ldr	r1, .L94+20	@ tmp207,
 1006 0106 9F4B     		ldr	r3, .L94+12	@ tmp208,
 1007 0108 0522     		movs	r2, #5	@,
 1008 010a 1800     		movs	r0, r3	@, tmp208
 1009 010c FFF7FEFF 		bl	strncmp	@
 1010 0110 031E     		subs	r3, r0, #0	@ D.7952,,
 1011 0112 54D1     		bne	.L68	@,
 399:src/sim900_800.c **** 							{
 400:src/sim900_800.c **** 
 401:src/sim900_800.c **** 								if (!strncmp ((const char *)&GSMbuffRtaCommand[8], (const char *) pCONFIGURACIONgprsProveed
 1012              		.loc 1 401 0
 1013 0114 0A99     		ldr	r1, [sp, #40]	@ tmp209, pCONFIGURACIONgprsProveedor1
 1014 0116 9E4B     		ldr	r3, .L94+24	@ tmp210,
 1015 0118 0322     		movs	r2, #3	@,
 1016 011a 1800     		movs	r0, r3	@, tmp210
 1017 011c FFF7FEFF 		bl	strncmp	@
 1018 0120 031E     		subs	r3, r0, #0	@ D.7952,,
 1019 0122 20D1     		bne	.L69	@,
 402:src/sim900_800.c **** 								{
 403:src/sim900_800.c **** 									*prestadorSim1 = 1;
 1020              		.loc 1 403 0
 1021 0124 029B     		ldr	r3, [sp, #8]	@ tmp211, prestadorSim1
 1022 0126 0122     		movs	r2, #1	@ tmp212,
 1023 0128 1A70     		strb	r2, [r3]	@ tmp213, *prestadorSim1_33(D)
 404:src/sim900_800.c **** 
 405:src/sim900_800.c **** 									strcpy((char *)SIM900APNSIM1, 		(const char *)pCONFIGURACIONgprsAPN1);
 1024              		.loc 1 405 0
 1025 012a 009A     		ldr	r2, [sp]	@ tmp214, pCONFIGURACIONgprsAPN1
 1026 012c 994B     		ldr	r3, .L94+28	@ tmp215,
 1027 012e 1100     		movs	r1, r2	@, tmp214
 1028 0130 1800     		movs	r0, r3	@, tmp215
 1029 0132 FFF7FEFF 		bl	strcpy	@
 406:src/sim900_800.c **** 									strcpy((char *)SIM900USUARIOSIM1, 	(const char *)pCONFIGURACIONgprsUsuario1);
 1030              		.loc 1 406 0
 1031 0136 089A     		ldr	r2, [sp, #32]	@ tmp216, pCONFIGURACIONgprsUsuario1
 1032 0138 974B     		ldr	r3, .L94+32	@ tmp217,
 1033 013a 1100     		movs	r1, r2	@, tmp216
 1034 013c 1800     		movs	r0, r3	@, tmp217
 1035 013e FFF7FEFF 		bl	strcpy	@
 407:src/sim900_800.c **** 									strcpy((char *)SIM900CLAVESIM1, 	(const char *)pCONFIGURACIONgprsClave1);
 1036              		.loc 1 407 0
 1037 0142 099A     		ldr	r2, [sp, #36]	@ tmp218, pCONFIGURACIONgprsClave1
 1038 0144 954B     		ldr	r3, .L94+36	@ tmp219,
 1039 0146 1100     		movs	r1, r2	@, tmp218
 1040 0148 1800     		movs	r0, r3	@, tmp219
 1041 014a FFF7FEFF 		bl	strcpy	@
ARM GAS  /tmp/ccKua49E.s 			page 27


 408:src/sim900_800.c **** 									strcpy((char *)SIM900IPREMOTE, 		(const char *)pCONFIGURACIONIPREMOTE);
 1042              		.loc 1 408 0
 1043 014e 0F9A     		ldr	r2, [sp, #60]	@ tmp220, pCONFIGURACIONIPREMOTE
 1044 0150 934B     		ldr	r3, .L94+40	@ tmp221,
 1045 0152 1100     		movs	r1, r2	@, tmp220
 1046 0154 1800     		movs	r0, r3	@, tmp221
 1047 0156 FFF7FEFF 		bl	strcpy	@
 409:src/sim900_800.c **** 									strcpy((char *)SIM900PORTREMOTE, 	(const char *)pCONFIGURACIONPORTREMOTE);
 1048              		.loc 1 409 0
 1049 015a 109A     		ldr	r2, [sp, #64]	@ tmp222, pCONFIGURACIONPORTREMOTE
 1050 015c 914B     		ldr	r3, .L94+44	@ tmp223,
 1051 015e 1100     		movs	r1, r2	@, tmp222
 1052 0160 1800     		movs	r0, r3	@, tmp223
 1053 0162 FFF7FEFF 		bl	strcpy	@
 1054              	.L69:
 410:src/sim900_800.c **** 								}
 411:src/sim900_800.c **** 
 412:src/sim900_800.c **** 								if (!strncmp ((const char *)&GSMbuffRtaCommand[8], (const char *) &pCONFIGURACIONgprsProvee
 1055              		.loc 1 412 0
 1056 0166 0E99     		ldr	r1, [sp, #56]	@ tmp224, pCONFIGURACIONgprsProveedor2
 1057 0168 894B     		ldr	r3, .L94+24	@ tmp225,
 1058 016a 0322     		movs	r2, #3	@,
 1059 016c 1800     		movs	r0, r3	@, tmp225
 1060 016e FFF7FEFF 		bl	strncmp	@
 1061 0172 031E     		subs	r3, r0, #0	@ D.7952,,
 1062 0174 20D1     		bne	.L70	@,
 413:src/sim900_800.c **** 								{
 414:src/sim900_800.c **** 									*prestadorSim1 = 2;
 1063              		.loc 1 414 0
 1064 0176 029B     		ldr	r3, [sp, #8]	@ tmp226, prestadorSim1
 1065 0178 0222     		movs	r2, #2	@ tmp227,
 1066 017a 1A70     		strb	r2, [r3]	@ tmp228, *prestadorSim1_33(D)
 415:src/sim900_800.c **** 
 416:src/sim900_800.c **** 									strcpy((char *)SIM900APNSIM1, 		(const char *)pCONFIGURACIONgprsAPN2);
 1067              		.loc 1 416 0
 1068 017c 0B9A     		ldr	r2, [sp, #44]	@ tmp229, pCONFIGURACIONgprsAPN2
 1069 017e 854B     		ldr	r3, .L94+28	@ tmp230,
 1070 0180 1100     		movs	r1, r2	@, tmp229
 1071 0182 1800     		movs	r0, r3	@, tmp230
 1072 0184 FFF7FEFF 		bl	strcpy	@
 417:src/sim900_800.c **** 									strcpy((char *)SIM900USUARIOSIM1, 	(const char *)pCONFIGURACIONgprsUsuario2);
 1073              		.loc 1 417 0
 1074 0188 0C9A     		ldr	r2, [sp, #48]	@ tmp231, pCONFIGURACIONgprsUsuario2
 1075 018a 834B     		ldr	r3, .L94+32	@ tmp232,
 1076 018c 1100     		movs	r1, r2	@, tmp231
 1077 018e 1800     		movs	r0, r3	@, tmp232
 1078 0190 FFF7FEFF 		bl	strcpy	@
 418:src/sim900_800.c **** 									strcpy((char *)SIM900CLAVESIM1, 	(const char *)pCONFIGURACIONgprsClave2);
 1079              		.loc 1 418 0
 1080 0194 0D9A     		ldr	r2, [sp, #52]	@ tmp233, pCONFIGURACIONgprsClave2
 1081 0196 814B     		ldr	r3, .L94+36	@ tmp234,
 1082 0198 1100     		movs	r1, r2	@, tmp233
 1083 019a 1800     		movs	r0, r3	@, tmp234
 1084 019c FFF7FEFF 		bl	strcpy	@
 419:src/sim900_800.c **** 									strcpy((char *)SIM900IPREMOTE, 		(const char *)pCONFIGURACIONIPREMOTE);
 1085              		.loc 1 419 0
 1086 01a0 0F9A     		ldr	r2, [sp, #60]	@ tmp235, pCONFIGURACIONIPREMOTE
ARM GAS  /tmp/ccKua49E.s 			page 28


 1087 01a2 7F4B     		ldr	r3, .L94+40	@ tmp236,
 1088 01a4 1100     		movs	r1, r2	@, tmp235
 1089 01a6 1800     		movs	r0, r3	@, tmp236
 1090 01a8 FFF7FEFF 		bl	strcpy	@
 420:src/sim900_800.c **** 									strcpy((char *)SIM900PORTREMOTE, 	(const char *)pCONFIGURACIONPORTREMOTE);
 1091              		.loc 1 420 0
 1092 01ac 109A     		ldr	r2, [sp, #64]	@ tmp237, pCONFIGURACIONPORTREMOTE
 1093 01ae 7D4B     		ldr	r3, .L94+44	@ tmp238,
 1094 01b0 1100     		movs	r1, r2	@, tmp237
 1095 01b2 1800     		movs	r0, r3	@, tmp238
 1096 01b4 FFF7FEFF 		bl	strcpy	@
 1097              	.L70:
 421:src/sim900_800.c **** 								}
 422:src/sim900_800.c **** 
 423:src/sim900_800.c **** /*								if (!strncmp ((const char *)&GSMbuffRtaCommand[8], (const char *) "Personal", sizeof("Per
 424:src/sim900_800.c **** 								{
 425:src/sim900_800.c **** 									*prestadorSim1 = 1;
 426:src/sim900_800.c **** 									LCDTransmitSMStr("\r      SIM 1     \n    Personal    ");
 427:src/sim900_800.c **** 								}
 428:src/sim900_800.c **** 								if (!strncmp ((const char *)&GSMbuffRtaCommand[8], (const char *) "Movistar", sizeof("Movis
 429:src/sim900_800.c **** 								{
 430:src/sim900_800.c **** 									*prestadorSim1 = 2;
 431:src/sim900_800.c **** 									LCDTransmitSMStr("\r      SIM 1     \n    Movistar    ");
 432:src/sim900_800.c **** 								}
 433:src/sim900_800.c **** 								if (!strncmp ((const char *)&GSMbuffRtaCommand[8], (const char *) "Claro", sizeof("Claro") 
 434:src/sim900_800.c **** 								{
 435:src/sim900_800.c **** 									*prestadorSim1 = 3;
 436:src/sim900_800.c **** 									LCDTransmitSMStr("\r      SIM 1     \n      Claro     ");
 437:src/sim900_800.c **** 								}
 438:src/sim900_800.c **** */
 439:src/sim900_800.c **** 								prestadorSimState = 0;
 1098              		.loc 1 439 0
 1099 01b8 714B     		ldr	r3, .L94+8	@ tmp239,
 1100 01ba 0022     		movs	r2, #0	@ tmp240,
 1101 01bc 1A70     		strb	r2, [r3]	@ tmp241, prestadorSimState
 1102              	.L68:
 440:src/sim900_800.c **** 							}
 441:src/sim900_800.c **** 							//prestadorSimTime = 150;
 442:src/sim900_800.c **** 							prestadorSimSelect++;
 1103              		.loc 1 442 0
 1104 01be 6F4B     		ldr	r3, .L94+4	@ tmp242,
 1105 01c0 1B78     		ldrb	r3, [r3]	@ D.7951, prestadorSimSelect
 1106 01c2 0133     		adds	r3, r3, #1	@ tmp243,
 1107 01c4 DAB2     		uxtb	r2, r3	@ D.7951, tmp243
 1108 01c6 6D4B     		ldr	r3, .L94+4	@ tmp244,
 1109 01c8 1A70     		strb	r2, [r3]	@ tmp245, prestadorSimSelect
 1110              	.L67:
 443:src/sim900_800.c **** 						}
 444:src/sim900_800.c **** 						if (i > 2)
 1111              		.loc 1 444 0
 1112 01ca 1723     		movs	r3, #23	@ tmp246,
 1113 01cc 6B44     		add	r3, r3, sp	@ tmp246,
 1114 01ce 1B78     		ldrb	r3, [r3]	@ tmp247, i
 1115 01d0 022B     		cmp	r3, #2	@ tmp247,
 1116 01d2 0FD9     		bls	.L90	@,
 445:src/sim900_800.c **** 						{
 446:src/sim900_800.c **** 							prestadorSimState = 0;
ARM GAS  /tmp/ccKua49E.s 			page 29


 1117              		.loc 1 446 0
 1118 01d4 6A4B     		ldr	r3, .L94+8	@ tmp248,
 1119 01d6 0022     		movs	r2, #0	@ tmp249,
 1120 01d8 1A70     		strb	r2, [r3]	@ tmp250, prestadorSimState
 447:src/sim900_800.c **** 							//prestadorSimTime = 150;
 448:src/sim900_800.c **** 							prestadorSimSelect++;
 1121              		.loc 1 448 0
 1122 01da 684B     		ldr	r3, .L94+4	@ tmp251,
 1123 01dc 1B78     		ldrb	r3, [r3]	@ D.7951, prestadorSimSelect
 1124 01de 0133     		adds	r3, r3, #1	@ tmp252,
 1125 01e0 DAB2     		uxtb	r2, r3	@ D.7951, tmp252
 1126 01e2 664B     		ldr	r3, .L94+4	@ tmp253,
 1127 01e4 1A70     		strb	r2, [r3]	@ tmp254, prestadorSimSelect
 449:src/sim900_800.c **** 
 450:src/sim900_800.c **** 						}
 451:src/sim900_800.c **** 						break;
 1128              		.loc 1 451 0
 1129 01e6 05E0     		b	.L90	@
 1130              	.L85:
 452:src/sim900_800.c **** 
 453:src/sim900_800.c **** 					default:
 454:src/sim900_800.c **** 						prestadorSimState = 0;
 1131              		.loc 1 454 0
 1132 01e8 654B     		ldr	r3, .L94+8	@ tmp255,
 1133 01ea 0022     		movs	r2, #0	@ tmp256,
 1134 01ec 1A70     		strb	r2, [r3]	@ tmp257, prestadorSimState
 455:src/sim900_800.c **** 						break;
 1135              		.loc 1 455 0
 1136 01ee 02E0     		b	.L56	@
 1137              	.L89:
 392:src/sim900_800.c **** 					case 2:
 1138              		.loc 1 392 0
 1139 01f0 C046     		nop
 1140 01f2 00E0     		b	.L56	@
 1141              	.L90:
 451:src/sim900_800.c **** 
 1142              		.loc 1 451 0
 1143 01f4 C046     		nop
 1144              	.L56:
 456:src/sim900_800.c **** 					}
 457:src/sim900_800.c **** 				}
 458:src/sim900_800.c **** 			case 2:
 459:src/sim900_800.c **** 				if (*prestadorSim2 == 0)
 1145              		.loc 1 459 0
 1146 01f6 019B     		ldr	r3, [sp, #4]	@ tmp258, prestadorSim2
 1147 01f8 1B78     		ldrb	r3, [r3]	@ D.7951, *prestadorSim2_99(D)
 1148 01fa 002B     		cmp	r3, #0	@ D.7951,
 1149 01fc 00D0     		beq	.LCB748	@
 1150 01fe DFE0     		b	.L91	@long jump	@
 1151              	.LCB748:
 460:src/sim900_800.c **** 				{
 461:src/sim900_800.c **** 					switch(prestadorSimState)
 1152              		.loc 1 461 0
 1153 0200 5F4B     		ldr	r3, .L94+8	@ tmp259,
 1154 0202 1B78     		ldrb	r3, [r3]	@ D.7951, prestadorSimState
 1155 0204 012B     		cmp	r3, #1	@ D.7952,
 1156 0206 0BD0     		beq	.L74	@,
ARM GAS  /tmp/ccKua49E.s 			page 30


 1157 0208 022B     		cmp	r3, #2	@ D.7952,
 1158 020a 2BD0     		beq	.L75	@,
 1159 020c 002B     		cmp	r3, #0	@ D.7952,
 1160 020e 00D0     		beq	.LCB756	@
 1161 0210 A9E0     		b	.L86	@long jump	@
 1162              	.LCB756:
 462:src/sim900_800.c **** 					{
 463:src/sim900_800.c **** 						case 0:
 464:src/sim900_800.c **** 							if (*pGSMHWstatus & 0x02);
 465:src/sim900_800.c **** 								prestadorSimState++;
 1163              		.loc 1 465 0
 1164 0212 5B4B     		ldr	r3, .L94+8	@ tmp262,
 1165 0214 1B78     		ldrb	r3, [r3]	@ D.7951, prestadorSimState
 1166 0216 0133     		adds	r3, r3, #1	@ tmp263,
 1167 0218 DAB2     		uxtb	r2, r3	@ D.7951, tmp263
 1168 021a 594B     		ldr	r3, .L94+8	@ tmp264,
 1169 021c 1A70     		strb	r2, [r3]	@ tmp265, prestadorSimState
 466:src/sim900_800.c **** 							break;
 1170              		.loc 1 466 0
 1171 021e A9E0     		b	.L72	@
 1172              	.L74:
 467:src/sim900_800.c **** 						case 1:
 468:src/sim900_800.c **** 							i = GSM_SetSIM (2);
 1173              		.loc 1 468 0
 1174 0220 1724     		movs	r4, #23	@ tmp266,
 1175 0222 6C44     		add	r4, r4, sp	@ tmp266,
 1176 0224 0220     		movs	r0, #2	@,
 1177 0226 FFF7FEFF 		bl	GSM_SetSIM	@
 1178 022a 0300     		movs	r3, r0	@ tmp267,
 1179 022c 2370     		strb	r3, [r4]	@ tmp269, i
 469:src/sim900_800.c **** 
 470:src/sim900_800.c **** 							if (i == 2)
 1180              		.loc 1 470 0
 1181 022e 1723     		movs	r3, #23	@ tmp270,
 1182 0230 6B44     		add	r3, r3, sp	@ tmp270,
 1183 0232 1B78     		ldrb	r3, [r3]	@ tmp271, i
 1184 0234 022B     		cmp	r3, #2	@ tmp271,
 1185 0236 05D1     		bne	.L77	@,
 471:src/sim900_800.c **** 								prestadorSimState++;
 1186              		.loc 1 471 0
 1187 0238 514B     		ldr	r3, .L94+8	@ tmp272,
 1188 023a 1B78     		ldrb	r3, [r3]	@ D.7951, prestadorSimState
 1189 023c 0133     		adds	r3, r3, #1	@ tmp273,
 1190 023e DAB2     		uxtb	r2, r3	@ D.7951, tmp273
 1191 0240 4F4B     		ldr	r3, .L94+8	@ tmp274,
 1192 0242 1A70     		strb	r2, [r3]	@ tmp275, prestadorSimState
 1193              	.L77:
 472:src/sim900_800.c **** 							if (i > 2)
 1194              		.loc 1 472 0
 1195 0244 1723     		movs	r3, #23	@ tmp276,
 1196 0246 6B44     		add	r3, r3, sp	@ tmp276,
 1197 0248 1B78     		ldrb	r3, [r3]	@ tmp277, i
 1198 024a 022B     		cmp	r3, #2	@ tmp277,
 1199 024c 00D8     		bhi	.LCB790	@
 1200 024e 8EE0     		b	.L92	@long jump	@
 1201              	.LCB790:
 473:src/sim900_800.c **** 							{
ARM GAS  /tmp/ccKua49E.s 			page 31


 474:src/sim900_800.c **** 								prestadorSimState = 0;
 1202              		.loc 1 474 0
 1203 0250 4B4B     		ldr	r3, .L94+8	@ tmp278,
 1204 0252 0022     		movs	r2, #0	@ tmp279,
 1205 0254 1A70     		strb	r2, [r3]	@ tmp280, prestadorSimState
 475:src/sim900_800.c **** 								prestadorSimSelect = 0;
 1206              		.loc 1 475 0
 1207 0256 494B     		ldr	r3, .L94+4	@ tmp281,
 1208 0258 0022     		movs	r2, #0	@ tmp282,
 1209 025a 1A70     		strb	r2, [r3]	@ tmp283, prestadorSimSelect
 476:src/sim900_800.c **** 								prestadorSimTime = 150;
 1210              		.loc 1 476 0
 1211 025c 464B     		ldr	r3, .L94	@ tmp284,
 1212 025e 9622     		movs	r2, #150	@ tmp285,
 1213 0260 1A70     		strb	r2, [r3]	@ tmp286, prestadorSimTime
 477:src/sim900_800.c **** 							}
 478:src/sim900_800.c **** 
 479:src/sim900_800.c **** 							break;
 1214              		.loc 1 479 0
 1215 0262 84E0     		b	.L92	@
 1216              	.L75:
 480:src/sim900_800.c **** 						case 2:
 481:src/sim900_800.c **** 							i = GSMSendCommand ("AT+CSPN?\r\n", 15, 1, &GSMbuffRtaCommand[0]);
 1217              		.loc 1 481 0
 1218 0264 1724     		movs	r4, #23	@ tmp287,
 1219 0266 6C44     		add	r4, r4, sp	@ tmp287,
 1220 0268 464B     		ldr	r3, .L94+12	@ tmp288,
 1221 026a 4748     		ldr	r0, .L94+16	@ tmp289,
 1222 026c 0122     		movs	r2, #1	@,
 1223 026e 0F21     		movs	r1, #15	@,
 1224 0270 FFF7FEFF 		bl	GSMSendCommand	@
 1225 0274 0300     		movs	r3, r0	@ tmp290,
 1226 0276 2370     		strb	r3, [r4]	@ tmp292, i
 482:src/sim900_800.c **** 
 483:src/sim900_800.c **** 							if (i == 2)
 1227              		.loc 1 483 0
 1228 0278 1723     		movs	r3, #23	@ tmp293,
 1229 027a 6B44     		add	r3, r3, sp	@ tmp293,
 1230 027c 1B78     		ldrb	r3, [r3]	@ tmp294, i
 1231 027e 022B     		cmp	r3, #2	@ tmp294,
 1232 0280 62D1     		bne	.L79	@,
 484:src/sim900_800.c **** 							{
 485:src/sim900_800.c **** 								if (!strncmp ((const char *)&GSMbuffRtaCommand[0],(const char *) "+CSPN", sizeof("+CSPN") -
 1233              		.loc 1 485 0
 1234 0282 4249     		ldr	r1, .L94+20	@ tmp295,
 1235 0284 3F4B     		ldr	r3, .L94+12	@ tmp296,
 1236 0286 0522     		movs	r2, #5	@,
 1237 0288 1800     		movs	r0, r3	@, tmp296
 1238 028a FFF7FEFF 		bl	strncmp	@
 1239 028e 031E     		subs	r3, r0, #0	@ D.7952,,
 1240 0290 54D1     		bne	.L80	@,
 486:src/sim900_800.c **** 								{
 487:src/sim900_800.c **** 
 488:src/sim900_800.c **** 									if (!strncmp ((const char *)&GSMbuffRtaCommand[8], (const char *) pCONFIGURACIONgprsProvee
 1241              		.loc 1 488 0
 1242 0292 0A99     		ldr	r1, [sp, #40]	@ tmp297, pCONFIGURACIONgprsProveedor1
 1243 0294 3E4B     		ldr	r3, .L94+24	@ tmp298,
ARM GAS  /tmp/ccKua49E.s 			page 32


 1244 0296 0322     		movs	r2, #3	@,
 1245 0298 1800     		movs	r0, r3	@, tmp298
 1246 029a FFF7FEFF 		bl	strncmp	@
 1247 029e 031E     		subs	r3, r0, #0	@ D.7952,,
 1248 02a0 20D1     		bne	.L81	@,
 489:src/sim900_800.c **** 									{
 490:src/sim900_800.c **** 										*prestadorSim2 = 1;
 1249              		.loc 1 490 0
 1250 02a2 019B     		ldr	r3, [sp, #4]	@ tmp299, prestadorSim2
 1251 02a4 0122     		movs	r2, #1	@ tmp300,
 1252 02a6 1A70     		strb	r2, [r3]	@ tmp301, *prestadorSim2_99(D)
 491:src/sim900_800.c **** 
 492:src/sim900_800.c **** 										strcpy((char *)SIM900APNSIM2, 		(const char *)pCONFIGURACIONgprsAPN1);
 1253              		.loc 1 492 0
 1254 02a8 009A     		ldr	r2, [sp]	@ tmp302, pCONFIGURACIONgprsAPN1
 1255 02aa 3F4B     		ldr	r3, .L94+48	@ tmp303,
 1256 02ac 1100     		movs	r1, r2	@, tmp302
 1257 02ae 1800     		movs	r0, r3	@, tmp303
 1258 02b0 FFF7FEFF 		bl	strcpy	@
 493:src/sim900_800.c **** 										strcpy((char *)SIM900USUARIOSIM2, 	(const char *)pCONFIGURACIONgprsUsuario1);
 1259              		.loc 1 493 0
 1260 02b4 089A     		ldr	r2, [sp, #32]	@ tmp304, pCONFIGURACIONgprsUsuario1
 1261 02b6 3D4B     		ldr	r3, .L94+52	@ tmp305,
 1262 02b8 1100     		movs	r1, r2	@, tmp304
 1263 02ba 1800     		movs	r0, r3	@, tmp305
 1264 02bc FFF7FEFF 		bl	strcpy	@
 494:src/sim900_800.c **** 										strcpy((char *)SIM900CLAVESIM2, 	(const char *)pCONFIGURACIONgprsClave1);
 1265              		.loc 1 494 0
 1266 02c0 099A     		ldr	r2, [sp, #36]	@ tmp306, pCONFIGURACIONgprsClave1
 1267 02c2 3B4B     		ldr	r3, .L94+56	@ tmp307,
 1268 02c4 1100     		movs	r1, r2	@, tmp306
 1269 02c6 1800     		movs	r0, r3	@, tmp307
 1270 02c8 FFF7FEFF 		bl	strcpy	@
 495:src/sim900_800.c **** 										strcpy((char *)SIM900IPREMOTE, 		(const char *)pCONFIGURACIONIPREMOTE);
 1271              		.loc 1 495 0
 1272 02cc 0F9A     		ldr	r2, [sp, #60]	@ tmp308, pCONFIGURACIONIPREMOTE
 1273 02ce 344B     		ldr	r3, .L94+40	@ tmp309,
 1274 02d0 1100     		movs	r1, r2	@, tmp308
 1275 02d2 1800     		movs	r0, r3	@, tmp309
 1276 02d4 FFF7FEFF 		bl	strcpy	@
 496:src/sim900_800.c **** 										strcpy((char *)SIM900PORTREMOTE, 	(const char *)pCONFIGURACIONPORTREMOTE);
 1277              		.loc 1 496 0
 1278 02d8 109A     		ldr	r2, [sp, #64]	@ tmp310, pCONFIGURACIONPORTREMOTE
 1279 02da 324B     		ldr	r3, .L94+44	@ tmp311,
 1280 02dc 1100     		movs	r1, r2	@, tmp310
 1281 02de 1800     		movs	r0, r3	@, tmp311
 1282 02e0 FFF7FEFF 		bl	strcpy	@
 1283              	.L81:
 497:src/sim900_800.c **** 									}
 498:src/sim900_800.c **** 
 499:src/sim900_800.c **** 									if (!strncmp ((const char *)&GSMbuffRtaCommand[8], (const char *) pCONFIGURACIONgprsProvee
 1284              		.loc 1 499 0
 1285 02e4 0E99     		ldr	r1, [sp, #56]	@ tmp312, pCONFIGURACIONgprsProveedor2
 1286 02e6 2A4B     		ldr	r3, .L94+24	@ tmp313,
 1287 02e8 0322     		movs	r2, #3	@,
 1288 02ea 1800     		movs	r0, r3	@, tmp313
 1289 02ec FFF7FEFF 		bl	strncmp	@
ARM GAS  /tmp/ccKua49E.s 			page 33


 1290 02f0 031E     		subs	r3, r0, #0	@ D.7952,,
 1291 02f2 20D1     		bne	.L82	@,
 500:src/sim900_800.c **** 									{
 501:src/sim900_800.c **** 										*prestadorSim2 = 2;
 1292              		.loc 1 501 0
 1293 02f4 019B     		ldr	r3, [sp, #4]	@ tmp314, prestadorSim2
 1294 02f6 0222     		movs	r2, #2	@ tmp315,
 1295 02f8 1A70     		strb	r2, [r3]	@ tmp316, *prestadorSim2_99(D)
 502:src/sim900_800.c **** 
 503:src/sim900_800.c **** 										strcpy((char *)SIM900APNSIM2, 		(const char *)pCONFIGURACIONgprsAPN2);
 1296              		.loc 1 503 0
 1297 02fa 0B9A     		ldr	r2, [sp, #44]	@ tmp317, pCONFIGURACIONgprsAPN2
 1298 02fc 2A4B     		ldr	r3, .L94+48	@ tmp318,
 1299 02fe 1100     		movs	r1, r2	@, tmp317
 1300 0300 1800     		movs	r0, r3	@, tmp318
 1301 0302 FFF7FEFF 		bl	strcpy	@
 504:src/sim900_800.c **** 										strcpy((char *)SIM900USUARIOSIM2, 	(const char *)pCONFIGURACIONgprsUsuario2);
 1302              		.loc 1 504 0
 1303 0306 0C9A     		ldr	r2, [sp, #48]	@ tmp319, pCONFIGURACIONgprsUsuario2
 1304 0308 284B     		ldr	r3, .L94+52	@ tmp320,
 1305 030a 1100     		movs	r1, r2	@, tmp319
 1306 030c 1800     		movs	r0, r3	@, tmp320
 1307 030e FFF7FEFF 		bl	strcpy	@
 505:src/sim900_800.c **** 										strcpy((char *)SIM900CLAVESIM2, 	(const char *)pCONFIGURACIONgprsClave2);
 1308              		.loc 1 505 0
 1309 0312 0D9A     		ldr	r2, [sp, #52]	@ tmp321, pCONFIGURACIONgprsClave2
 1310 0314 264B     		ldr	r3, .L94+56	@ tmp322,
 1311 0316 1100     		movs	r1, r2	@, tmp321
 1312 0318 1800     		movs	r0, r3	@, tmp322
 1313 031a FFF7FEFF 		bl	strcpy	@
 506:src/sim900_800.c **** 										strcpy((char *)SIM900IPREMOTE, 		(const char *)pCONFIGURACIONIPREMOTE);
 1314              		.loc 1 506 0
 1315 031e 0F9A     		ldr	r2, [sp, #60]	@ tmp323, pCONFIGURACIONIPREMOTE
 1316 0320 1F4B     		ldr	r3, .L94+40	@ tmp324,
 1317 0322 1100     		movs	r1, r2	@, tmp323
 1318 0324 1800     		movs	r0, r3	@, tmp324
 1319 0326 FFF7FEFF 		bl	strcpy	@
 507:src/sim900_800.c **** 										strcpy((char *)SIM900PORTREMOTE, 	(const char *)pCONFIGURACIONPORTREMOTE);
 1320              		.loc 1 507 0
 1321 032a 109A     		ldr	r2, [sp, #64]	@ tmp325, pCONFIGURACIONPORTREMOTE
 1322 032c 1D4B     		ldr	r3, .L94+44	@ tmp326,
 1323 032e 1100     		movs	r1, r2	@, tmp325
 1324 0330 1800     		movs	r0, r3	@, tmp326
 1325 0332 FFF7FEFF 		bl	strcpy	@
 1326              	.L82:
 508:src/sim900_800.c **** 									}
 509:src/sim900_800.c **** 
 510:src/sim900_800.c **** /*									if (!strncmp ((const char *)&GSMbuffRtaCommand[8], (const char *) "Personal", sizeof("Pe
 511:src/sim900_800.c **** 									{
 512:src/sim900_800.c **** 										*prestadorSim2 = 1;
 513:src/sim900_800.c **** 										LCDTransmitSMStr("\r      SIM 2     \n    Personal    ");
 514:src/sim900_800.c **** 									}
 515:src/sim900_800.c **** 									if (!strncmp ((const char *)&GSMbuffRtaCommand[8], (const char *) "Movistar", sizeof("Movi
 516:src/sim900_800.c **** 									{
 517:src/sim900_800.c **** 										*prestadorSim2 = 2;
 518:src/sim900_800.c **** 										LCDTransmitSMStr("\r      SIM 2     \n    Movistar    ");
 519:src/sim900_800.c **** 									}
ARM GAS  /tmp/ccKua49E.s 			page 34


 520:src/sim900_800.c **** 									if (!strncmp ((const char *)&GSMbuffRtaCommand[8], (const char *) "Claro", sizeof("Claro")
 521:src/sim900_800.c **** 									{
 522:src/sim900_800.c **** 										*prestadorSim2 = 3;
 523:src/sim900_800.c **** 										LCDTransmitSMStr("\r      SIM 2     \n      Claro     ");
 524:src/sim900_800.c **** 									}
 525:src/sim900_800.c **** */
 526:src/sim900_800.c **** 									prestadorSimState = 0;
 1327              		.loc 1 526 0
 1328 0336 124B     		ldr	r3, .L94+8	@ tmp327,
 1329 0338 0022     		movs	r2, #0	@ tmp328,
 1330 033a 1A70     		strb	r2, [r3]	@ tmp329, prestadorSimState
 1331              	.L80:
 527:src/sim900_800.c **** 
 528:src/sim900_800.c **** 								}
 529:src/sim900_800.c **** 								prestadorSimSelect = 0;
 1332              		.loc 1 529 0
 1333 033c 0F4B     		ldr	r3, .L94+4	@ tmp330,
 1334 033e 0022     		movs	r2, #0	@ tmp331,
 1335 0340 1A70     		strb	r2, [r3]	@ tmp332, prestadorSimSelect
 530:src/sim900_800.c **** 								prestadorSimTime = 150;
 1336              		.loc 1 530 0
 1337 0342 0D4B     		ldr	r3, .L94	@ tmp333,
 1338 0344 9622     		movs	r2, #150	@ tmp334,
 1339 0346 1A70     		strb	r2, [r3]	@ tmp335, prestadorSimTime
 1340              	.L79:
 531:src/sim900_800.c **** 							}
 532:src/sim900_800.c **** 							if (i > 2)
 1341              		.loc 1 532 0
 1342 0348 1723     		movs	r3, #23	@ tmp336,
 1343 034a 6B44     		add	r3, r3, sp	@ tmp336,
 1344 034c 1B78     		ldrb	r3, [r3]	@ tmp337, i
 1345 034e 022B     		cmp	r3, #2	@ tmp337,
 1346 0350 0FD9     		bls	.L93	@,
 533:src/sim900_800.c **** 							{
 534:src/sim900_800.c **** 								prestadorSimState = 0;
 1347              		.loc 1 534 0
 1348 0352 0B4B     		ldr	r3, .L94+8	@ tmp338,
 1349 0354 0022     		movs	r2, #0	@ tmp339,
 1350 0356 1A70     		strb	r2, [r3]	@ tmp340, prestadorSimState
 535:src/sim900_800.c **** 								prestadorSimSelect = 0;
 1351              		.loc 1 535 0
 1352 0358 084B     		ldr	r3, .L94+4	@ tmp341,
 1353 035a 0022     		movs	r2, #0	@ tmp342,
 1354 035c 1A70     		strb	r2, [r3]	@ tmp343, prestadorSimSelect
 536:src/sim900_800.c **** 								prestadorSimTime = 150;
 1355              		.loc 1 536 0
 1356 035e 064B     		ldr	r3, .L94	@ tmp344,
 1357 0360 9622     		movs	r2, #150	@ tmp345,
 1358 0362 1A70     		strb	r2, [r3]	@ tmp346, prestadorSimTime
 537:src/sim900_800.c **** 							}
 538:src/sim900_800.c **** 							break;
 1359              		.loc 1 538 0
 1360 0364 05E0     		b	.L93	@
 1361              	.L86:
 539:src/sim900_800.c **** 
 540:src/sim900_800.c **** 						default:
 541:src/sim900_800.c **** 							prestadorSimState = 0;
ARM GAS  /tmp/ccKua49E.s 			page 35


 1362              		.loc 1 541 0
 1363 0366 064B     		ldr	r3, .L94+8	@ tmp347,
 1364 0368 0022     		movs	r2, #0	@ tmp348,
 1365 036a 1A70     		strb	r2, [r3]	@ tmp349, prestadorSimState
 542:src/sim900_800.c **** 							break;
 1366              		.loc 1 542 0
 1367 036c 02E0     		b	.L72	@
 1368              	.L92:
 479:src/sim900_800.c **** 						case 2:
 1369              		.loc 1 479 0
 1370 036e C046     		nop
 1371 0370 26E0     		b	.L91	@
 1372              	.L93:
 538:src/sim900_800.c **** 
 1373              		.loc 1 538 0
 1374 0372 C046     		nop
 1375              	.L72:
 543:src/sim900_800.c **** 					}
 544:src/sim900_800.c **** 				}
 545:src/sim900_800.c **** 				break;
 1376              		.loc 1 545 0 discriminator 1
 1377 0374 24E0     		b	.L91	@
 1378              	.L95:
 1379 0376 C046     		.align	2
 1380              	.L94:
 1381 0378 00000000 		.word	prestadorSimTime
 1382 037c 00000000 		.word	prestadorSimSelect
 1383 0380 00000000 		.word	prestadorSimState
 1384 0384 00000000 		.word	GSMbuffRtaCommand
 1385 0388 00000000 		.word	.LC18
 1386 038c 0C000000 		.word	.LC20
 1387 0390 08000000 		.word	GSMbuffRtaCommand+8
 1388 0394 00000000 		.word	SIM900APNSIM1
 1389 0398 00000000 		.word	SIM900USUARIOSIM1
 1390 039c 00000000 		.word	SIM900CLAVESIM1
 1391 03a0 00000000 		.word	SIM900IPREMOTE
 1392 03a4 00000000 		.word	SIM900PORTREMOTE
 1393 03a8 00000000 		.word	SIM900APNSIM2
 1394 03ac 00000000 		.word	SIM900USUARIOSIM2
 1395 03b0 00000000 		.word	SIM900CLAVESIM2
 1396              	.L84:
 546:src/sim900_800.c **** 
 547:src/sim900_800.c **** 			default:
 548:src/sim900_800.c **** 				prestadorSimSelect = 0;
 1397              		.loc 1 548 0
 1398 03b4 044B     		ldr	r3, .L96	@ tmp350,
 1399 03b6 0022     		movs	r2, #0	@ tmp351,
 1400 03b8 1A70     		strb	r2, [r3]	@ tmp352, prestadorSimSelect
 549:src/sim900_800.c **** 				break;
 1401              		.loc 1 549 0
 1402 03ba 02E0     		b	.L53	@
 1403              	.L88:
 362:src/sim900_800.c **** 			case 1:
 1404              		.loc 1 362 0
 1405 03bc C046     		nop
 1406 03be 00E0     		b	.L87	@
 1407              	.L91:
ARM GAS  /tmp/ccKua49E.s 			page 36


 545:src/sim900_800.c **** 
 1408              		.loc 1 545 0
 1409 03c0 C046     		nop
 1410              	.L53:
 1411              	.L87:
 550:src/sim900_800.c **** 
 551:src/sim900_800.c **** 
 552:src/sim900_800.c **** 		}
 553:src/sim900_800.c **** 
 554:src/sim900_800.c **** 	}
 555:src/sim900_800.c **** }
 1412              		.loc 1 555 0
 1413 03c2 C046     		nop
 1414 03c4 06B0     		add	sp, sp, #24	@,,
 1415              		@ sp needed	@
 1416 03c6 10BD     		pop	{r4, pc}
 1417              	.L97:
 1418              		.align	2
 1419              	.L96:
 1420 03c8 00000000 		.word	prestadorSimSelect
 1421              		.cfi_endproc
 1422              	.LFE25:
 1423              		.size	GSMPrestador, .-GSMPrestador
 1424              		.section	.rodata
 1425 0012 0000     		.align	2
 1426              	.LC33:
 1427 0014 41542B43 		.ascii	"AT+CIPSHUT\015\012\000"
 1427      49505348 
 1427      55540D0A 
 1427      00
 1428              		.section	.text.GSMCloseIP,"ax",%progbits
 1429              		.align	2
 1430              		.global	GSMCloseIP
 1431              		.code	16
 1432              		.thumb_func
 1433              		.type	GSMCloseIP, %function
 1434              	GSMCloseIP:
 1435              	.LFB26:
 556:src/sim900_800.c **** 
 557:src/sim900_800.c **** char GSMCloseIP(void)
 558:src/sim900_800.c **** {
 1436              		.loc 1 558 0
 1437              		.cfi_startproc
 1438 0000 10B5     		push	{r4, lr}	@
 1439              	.LCFI5:
 1440              		.cfi_def_cfa_offset 8
 1441              		.cfi_offset 4, -8
 1442              		.cfi_offset 14, -4
 1443 0002 82B0     		sub	sp, sp, #8	@,,
 1444              	.LCFI6:
 1445              		.cfi_def_cfa_offset 16
 559:src/sim900_800.c **** 	unsigned char i = 0;
 1446              		.loc 1 559 0
 1447 0004 6B46     		mov	r3, sp	@ tmp136,
 1448 0006 0733     		adds	r3, r3, #7	@ tmp113,
 1449 0008 0022     		movs	r2, #0	@ tmp114,
 1450 000a 1A70     		strb	r2, [r3]	@ tmp115, i
ARM GAS  /tmp/ccKua49E.s 			page 37


 560:src/sim900_800.c **** 
 561:src/sim900_800.c **** 	if (flagCloseIP == 1)
 1451              		.loc 1 561 0
 1452 000c 154B     		ldr	r3, .L103	@ tmp116,
 1453 000e 1B78     		ldrb	r3, [r3]	@ D.7956, flagCloseIP
 1454 0010 012B     		cmp	r3, #1	@ D.7956,
 1455 0012 23D1     		bne	.L99	@,
 562:src/sim900_800.c **** 	{
 563:src/sim900_800.c **** 		i = GSMSendCommand ("AT+CIPSHUT\r\n", 15, 0, &GSMbuffRtaCommand[0]);
 1456              		.loc 1 563 0
 1457 0014 6B46     		mov	r3, sp	@ tmp137,
 1458 0016 DC1D     		adds	r4, r3, #7	@ tmp117, tmp137,
 1459 0018 134B     		ldr	r3, .L103+4	@ tmp118,
 1460 001a 1448     		ldr	r0, .L103+8	@ tmp119,
 1461 001c 0022     		movs	r2, #0	@,
 1462 001e 0F21     		movs	r1, #15	@,
 1463 0020 FFF7FEFF 		bl	GSMSendCommand	@
 1464 0024 0300     		movs	r3, r0	@ tmp120,
 1465 0026 2370     		strb	r3, [r4]	@ tmp122, i
 564:src/sim900_800.c **** 
 565:src/sim900_800.c **** 		if (i == 2)
 1466              		.loc 1 565 0
 1467 0028 6B46     		mov	r3, sp	@ tmp138,
 1468 002a 0733     		adds	r3, r3, #7	@ tmp123,
 1469 002c 1B78     		ldrb	r3, [r3]	@ tmp124, i
 1470 002e 022B     		cmp	r3, #2	@ tmp124,
 1471 0030 06D1     		bne	.L100	@,
 566:src/sim900_800.c **** 		{
 567:src/sim900_800.c **** 			flagCloseIP = 0;
 1472              		.loc 1 567 0
 1473 0032 0C4B     		ldr	r3, .L103	@ tmp125,
 1474 0034 0022     		movs	r2, #0	@ tmp126,
 1475 0036 1A70     		strb	r2, [r3]	@ tmp127, flagCloseIP
 568:src/sim900_800.c **** 			return i;
 1476              		.loc 1 568 0
 1477 0038 6B46     		mov	r3, sp	@ tmp139,
 1478 003a 0733     		adds	r3, r3, #7	@ tmp128,
 1479 003c 1B78     		ldrb	r3, [r3]	@ D.7955, i
 1480 003e 0EE0     		b	.L101	@
 1481              	.L100:
 569:src/sim900_800.c **** 		}
 570:src/sim900_800.c **** 		if (i > 2)
 1482              		.loc 1 570 0
 1483 0040 6B46     		mov	r3, sp	@ tmp140,
 1484 0042 0733     		adds	r3, r3, #7	@ tmp129,
 1485 0044 1B78     		ldrb	r3, [r3]	@ tmp130, i
 1486 0046 022B     		cmp	r3, #2	@ tmp130,
 1487 0048 06D9     		bls	.L102	@,
 571:src/sim900_800.c **** 		{
 572:src/sim900_800.c **** 			flagCloseIP = 0;
 1488              		.loc 1 572 0
 1489 004a 064B     		ldr	r3, .L103	@ tmp131,
 1490 004c 0022     		movs	r2, #0	@ tmp132,
 1491 004e 1A70     		strb	r2, [r3]	@ tmp133, flagCloseIP
 573:src/sim900_800.c **** 			return i;
 1492              		.loc 1 573 0
 1493 0050 6B46     		mov	r3, sp	@ tmp141,
ARM GAS  /tmp/ccKua49E.s 			page 38


 1494 0052 0733     		adds	r3, r3, #7	@ tmp134,
 1495 0054 1B78     		ldrb	r3, [r3]	@ D.7955, i
 1496 0056 02E0     		b	.L101	@
 1497              	.L102:
 574:src/sim900_800.c **** 		}
 575:src/sim900_800.c **** 
 576:src/sim900_800.c **** 		return 1;
 1498              		.loc 1 576 0
 1499 0058 0123     		movs	r3, #1	@ D.7955,
 1500 005a 00E0     		b	.L101	@
 1501              	.L99:
 577:src/sim900_800.c **** 	}
 578:src/sim900_800.c **** 
 579:src/sim900_800.c **** 	return 0;
 1502              		.loc 1 579 0
 1503 005c 0023     		movs	r3, #0	@ D.7955,
 1504              	.L101:
 580:src/sim900_800.c **** }
 1505              		.loc 1 580 0
 1506 005e 1800     		movs	r0, r3	@, <retval>
 1507 0060 02B0     		add	sp, sp, #8	@,,
 1508              		@ sp needed	@
 1509 0062 10BD     		pop	{r4, pc}
 1510              	.L104:
 1511              		.align	2
 1512              	.L103:
 1513 0064 00000000 		.word	flagCloseIP
 1514 0068 00000000 		.word	GSMbuffRtaCommand
 1515 006c 14000000 		.word	.LC33
 1516              		.cfi_endproc
 1517              	.LFE26:
 1518              		.size	GSMCloseIP, .-GSMCloseIP
 1519              		.section	.rodata
 1520 0021 000000   		.align	2
 1521              	.LC37:
 1522 0024 0D0A00   		.ascii	"\015\012\000"
 1523 0027 00       		.align	2
 1524              	.LC41:
 1525 0028 3E2000   		.ascii	"> \000"
 1526 002b 00       		.align	2
 1527              	.LC43:
 1528 002c 41544F4B 		.ascii	"ATOK\000"
 1528      00
 1529 0031 000000   		.align	2
 1530              	.LC45:
 1531 0034 4F4B00   		.ascii	"OK\000"
 1532 0037 00       		.align	2
 1533              	.LC47:
 1534 0038 4552524F 		.ascii	"ERROR\000"
 1534      5200
 1535 003e 0000     		.align	2
 1536              	.LC54:
 1537 0040 43616C6C 		.ascii	"Call Ready\000"
 1537      20526561 
 1537      647900
 1538 004b 00       		.align	2
 1539              	.LC56:
ARM GAS  /tmp/ccKua49E.s 			page 39


 1540 004c 534D5320 		.ascii	"SMS Ready\000"
 1540      52656164 
 1540      7900
 1541 0056 0000     		.align	2
 1542              	.LC58:
 1543 0058 4E4F524D 		.ascii	"NORMAL POWER DOWN\000"
 1543      414C2050 
 1543      4F574552 
 1543      20444F57 
 1543      4E00
 1544 006a 0000     		.align	2
 1545              	.LC60:
 1546 006c 3030303A 		.ascii	"000:\000"
 1546      00
 1547 0071 000000   		.align	2
 1548              	.LC63:
 1549 0074 2B434D54 		.ascii	"+CMTIDS: \"SM\",\000"
 1549      4944533A 
 1549      2022534D 
 1549      222C00
 1550 0083 00       		.align	2
 1551              	.LC66:
 1552 0084 2B434D54 		.ascii	"+CMTI: \"SM\",\000"
 1552      493A2022 
 1552      534D222C 
 1552      00
 1553 0091 000000   		.align	2
 1554              	.LC69:
 1555 0094 434C4F53 		.ascii	"CLOSED\000"
 1555      454400
 1556              		.section	.text.GSMReceive,"ax",%progbits
 1557              		.align	2
 1558              		.global	GSMReceive
 1559              		.code	16
 1560              		.thumb_func
 1561              		.type	GSMReceive, %function
 1562              	GSMReceive:
 1563              	.LFB27:
 581:src/sim900_800.c **** 
 582:src/sim900_800.c **** //Procesa respuestas del modulo GSM ubicadas en el buffer buffUARTGSMrx2 con flag PacketReadyUARTGS
 583:src/sim900_800.c **** //revisa los flag de estados GSMConfigGPRSflag GSMSendCommandFlag y revisa respuestas no esperadas
 584:src/sim900_800.c **** //para respuestas no esperadas revisa SMS y avisa la cantidad con GSMCantSMS
 585:src/sim900_800.c **** //void GSMReceive (unsigned char * pAlertasReportar, char * puserCode, unsigned char * pclaveAct, u
 586:src/sim900_800.c **** void GSMReceive (void)
 587:src/sim900_800.c **** {
 1564              		.loc 1 587 0
 1565              		.cfi_startproc
 1566 0000 10B5     		push	{r4, lr}	@
 1567              	.LCFI7:
 1568              		.cfi_def_cfa_offset 8
 1569              		.cfi_offset 4, -8
 1570              		.cfi_offset 14, -4
 588:src/sim900_800.c **** 	//---- Comunicacion con modulo GSM ----//
 589:src/sim900_800.c **** 	if (PacketReadyUARTGSM)
 1571              		.loc 1 589 0
 1572 0002 A54B     		ldr	r3, .L125	@ tmp150,
 1573 0004 1B78     		ldrb	r3, [r3]	@ tmp151, PacketReadyUARTGSM
ARM GAS  /tmp/ccKua49E.s 			page 40


 1574 0006 DBB2     		uxtb	r3, r3	@ D.7958, tmp151
 1575 0008 002B     		cmp	r3, #0	@ D.7958,
 1576 000a 00D1     		bne	.LCB1102	@
 1577 000c 41E1     		b	.L124	@long jump	@
 1578              	.LCB1102:
 590:src/sim900_800.c **** 	{
 591:src/sim900_800.c **** 		//TODO: para debug envio lo que llega
 592:src/sim900_800.c **** 		ESPPreParser2(buffUARTGSMrx2, buffUARTGSMrx2);
 1579              		.loc 1 592 0
 1580 000e A34A     		ldr	r2, .L125+4	@ tmp152,
 1581 0010 A24B     		ldr	r3, .L125+4	@ tmp153,
 1582 0012 1100     		movs	r1, r2	@, tmp152
 1583 0014 1800     		movs	r0, r3	@, tmp153
 1584 0016 FFF7FEFF 		bl	ESPPreParser2	@
 593:src/sim900_800.c **** 		Usart2Send(buffUARTGSMrx2);
 1585              		.loc 1 593 0
 1586 001a A04B     		ldr	r3, .L125+4	@ tmp154,
 1587 001c 1800     		movs	r0, r3	@, tmp154
 1588 001e FFF7FEFF 		bl	Usart2Send	@
 594:src/sim900_800.c **** 		Usart2Send("\r\n");
 1589              		.loc 1 594 0
 1590 0022 9F4B     		ldr	r3, .L125+8	@ tmp155,
 1591 0024 1800     		movs	r0, r3	@, tmp155
 1592 0026 FFF7FEFF 		bl	Usart2Send	@
 595:src/sim900_800.c **** 
 596:src/sim900_800.c **** 		if (GSMSendCommandFlag)
 1593              		.loc 1 596 0
 1594 002a 9E4B     		ldr	r3, .L125+12	@ tmp156,
 1595 002c 1B78     		ldrb	r3, [r3]	@ D.7958, GSMSendCommandFlag
 1596 002e 002B     		cmp	r3, #0	@ D.7958,
 1597 0030 47D0     		beq	.L107	@,
 597:src/sim900_800.c **** 		{
 598:src/sim900_800.c **** 			if (GSMSendCommandFlag == 3)
 1598              		.loc 1 598 0
 1599 0032 9C4B     		ldr	r3, .L125+12	@ tmp157,
 1600 0034 1B78     		ldrb	r3, [r3]	@ D.7958, GSMSendCommandFlag
 1601 0036 032B     		cmp	r3, #3	@ D.7958,
 1602 0038 2BD1     		bne	.L108	@,
 599:src/sim900_800.c **** 			{
 600:src/sim900_800.c **** 				if(!strncmp((const char *)&buffUARTGSMrx2[0], (const char *)&GSM_SENDOK[0], strlen((const char 
 1603              		.loc 1 600 0
 1604 003a 9B49     		ldr	r1, .L125+16	@ tmp158,
 1605 003c 974B     		ldr	r3, .L125+4	@ tmp159,
 1606 003e 0722     		movs	r2, #7	@,
 1607 0040 1800     		movs	r0, r3	@, tmp159
 1608 0042 FFF7FEFF 		bl	strncmp	@
 1609 0046 031E     		subs	r3, r0, #0	@ D.7959,,
 1610 0048 02D1     		bne	.L109	@,
 601:src/sim900_800.c **** 					GSMSendCommandFlag = 4;
 1611              		.loc 1 601 0
 1612 004a 964B     		ldr	r3, .L125+12	@ tmp160,
 1613 004c 0422     		movs	r2, #4	@ tmp161,
 1614 004e 1A70     		strb	r2, [r3]	@ tmp162, GSMSendCommandFlag
 1615              	.L109:
 602:src/sim900_800.c **** 				if(!strncmp((const char *)&buffUARTGSMrx2[0], (const char *)"> ", (sizeof("> ") - 1)))
 1616              		.loc 1 602 0
 1617 0050 9649     		ldr	r1, .L125+20	@ tmp163,
ARM GAS  /tmp/ccKua49E.s 			page 41


 1618 0052 924B     		ldr	r3, .L125+4	@ tmp164,
 1619 0054 0222     		movs	r2, #2	@,
 1620 0056 1800     		movs	r0, r3	@, tmp164
 1621 0058 FFF7FEFF 		bl	strncmp	@
 1622 005c 031E     		subs	r3, r0, #0	@ D.7959,,
 1623 005e 02D1     		bne	.L110	@,
 603:src/sim900_800.c **** 					GSMSendCommandFlag = 4;
 1624              		.loc 1 603 0
 1625 0060 904B     		ldr	r3, .L125+12	@ tmp165,
 1626 0062 0422     		movs	r2, #4	@ tmp166,
 1627 0064 1A70     		strb	r2, [r3]	@ tmp167, GSMSendCommandFlag
 1628              	.L110:
 604:src/sim900_800.c **** 				if(!strncmp((const char *)&buffUARTGSMrx2[0], (const char *)"ATOK", (sizeof("ATOK") - 1)))
 1629              		.loc 1 604 0
 1630 0066 9249     		ldr	r1, .L125+24	@ tmp168,
 1631 0068 8C4B     		ldr	r3, .L125+4	@ tmp169,
 1632 006a 0422     		movs	r2, #4	@,
 1633 006c 1800     		movs	r0, r3	@, tmp169
 1634 006e FFF7FEFF 		bl	strncmp	@
 1635 0072 031E     		subs	r3, r0, #0	@ D.7959,,
 1636 0074 02D1     		bne	.L111	@,
 605:src/sim900_800.c **** 					GSMSendCommandFlag = 4;
 1637              		.loc 1 605 0
 1638 0076 8B4B     		ldr	r3, .L125+12	@ tmp170,
 1639 0078 0422     		movs	r2, #4	@ tmp171,
 1640 007a 1A70     		strb	r2, [r3]	@ tmp172, GSMSendCommandFlag
 1641              	.L111:
 606:src/sim900_800.c **** 				if(!strncmp((const char *)&buffUARTGSMrx2[0], (const char *)"OK", (sizeof("OK") - 1)))
 1642              		.loc 1 606 0
 1643 007c 8D49     		ldr	r1, .L125+28	@ tmp173,
 1644 007e 874B     		ldr	r3, .L125+4	@ tmp174,
 1645 0080 0222     		movs	r2, #2	@,
 1646 0082 1800     		movs	r0, r3	@, tmp174
 1647 0084 FFF7FEFF 		bl	strncmp	@
 1648 0088 031E     		subs	r3, r0, #0	@ D.7959,,
 1649 008a 02D1     		bne	.L108	@,
 607:src/sim900_800.c **** 					GSMSendCommandFlag = 4;
 1650              		.loc 1 607 0
 1651 008c 854B     		ldr	r3, .L125+12	@ tmp175,
 1652 008e 0422     		movs	r2, #4	@ tmp176,
 1653 0090 1A70     		strb	r2, [r3]	@ tmp177, GSMSendCommandFlag
 1654              	.L108:
 608:src/sim900_800.c **** 			}
 609:src/sim900_800.c **** 
 610:src/sim900_800.c **** 			if(!strncmp((const char *)&buffUARTGSMrx2[0], (const char *) "ERROR", (sizeof("ERROR") - 1)))
 1655              		.loc 1 610 0
 1656 0092 8949     		ldr	r1, .L125+32	@ tmp178,
 1657 0094 814B     		ldr	r3, .L125+4	@ tmp179,
 1658 0096 0522     		movs	r2, #5	@,
 1659 0098 1800     		movs	r0, r3	@, tmp179
 1660 009a FFF7FEFF 		bl	strncmp	@
 1661 009e 031E     		subs	r3, r0, #0	@ D.7959,,
 1662 00a0 02D1     		bne	.L112	@,
 611:src/sim900_800.c **** 				GSMSendCommandFlag = 5;
 1663              		.loc 1 611 0
 1664 00a2 804B     		ldr	r3, .L125+12	@ tmp180,
 1665 00a4 0522     		movs	r2, #5	@ tmp181,
ARM GAS  /tmp/ccKua49E.s 			page 42


 1666 00a6 1A70     		strb	r2, [r3]	@ tmp182, GSMSendCommandFlag
 1667              	.L112:
 612:src/sim900_800.c **** 
 613:src/sim900_800.c **** 			if (GSMSendCommandFlag == 1)
 1668              		.loc 1 613 0
 1669 00a8 7E4B     		ldr	r3, .L125+12	@ tmp183,
 1670 00aa 1B78     		ldrb	r3, [r3]	@ D.7958, GSMSendCommandFlag
 1671 00ac 012B     		cmp	r3, #1	@ D.7958,
 1672 00ae 08D1     		bne	.L107	@,
 614:src/sim900_800.c **** 			{
 615:src/sim900_800.c **** 				if(buffUARTGSMrx2[0] == GSM_RTA)
 1673              		.loc 1 615 0
 1674 00b0 7A4B     		ldr	r3, .L125+4	@ tmp184,
 1675 00b2 1B78     		ldrb	r3, [r3]	@ tmp185, buffUARTGSMrx2
 1676 00b4 DBB2     		uxtb	r3, r3	@ D.7958, tmp185
 1677 00b6 2B22     		movs	r2, #43	@ D.7958,
 1678 00b8 9342     		cmp	r3, r2	@ D.7958, D.7958
 1679 00ba 02D1     		bne	.L107	@,
 616:src/sim900_800.c **** 					GSMSendCommandFlag = 2;
 1680              		.loc 1 616 0
 1681 00bc 794B     		ldr	r3, .L125+12	@ tmp186,
 1682 00be 0222     		movs	r2, #2	@ tmp187,
 1683 00c0 1A70     		strb	r2, [r3]	@ tmp188, GSMSendCommandFlag
 1684              	.L107:
 617:src/sim900_800.c **** 			}
 618:src/sim900_800.c **** 		}
 619:src/sim900_800.c **** 
 620:src/sim900_800.c **** 		if(GSMConfigGPRSflag == 1)
 1685              		.loc 1 620 0
 1686 00c2 7E4B     		ldr	r3, .L125+36	@ tmp189,
 1687 00c4 1B78     		ldrb	r3, [r3]	@ D.7958, GSMConfigGPRSflag
 1688 00c6 012B     		cmp	r3, #1	@ D.7958,
 1689 00c8 10D1     		bne	.L113	@,
 621:src/sim900_800.c **** 		{
 622:src/sim900_800.c **** 			if(!strncmp((const char *)&buffUARTGSMrx2[0], (const char *)&GSM_IPSTATE[0], strlen((const char 
 1690              		.loc 1 622 0
 1691 00ca 7D49     		ldr	r1, .L125+40	@ tmp190,
 1692 00cc 734B     		ldr	r3, .L125+4	@ tmp191,
 1693 00ce 0622     		movs	r2, #6	@,
 1694 00d0 1800     		movs	r0, r3	@, tmp191
 1695 00d2 FFF7FEFF 		bl	strncmp	@
 1696 00d6 031E     		subs	r3, r0, #0	@ D.7959,,
 1697 00d8 08D1     		bne	.L113	@,
 623:src/sim900_800.c **** 			{
 624:src/sim900_800.c **** 				strcpy((char *)&GSMbuffStatus[0],(const char *)&buffUARTGSMrx2[sizeof(GSM_IPSTATE)]);
 1698              		.loc 1 624 0
 1699 00da 7A4A     		ldr	r2, .L125+44	@ tmp192,
 1700 00dc 7A4B     		ldr	r3, .L125+48	@ tmp193,
 1701 00de 1100     		movs	r1, r2	@, tmp192
 1702 00e0 1800     		movs	r0, r3	@, tmp193
 1703 00e2 FFF7FEFF 		bl	strcpy	@
 625:src/sim900_800.c **** 				GSMConfigGPRSflag = 2;
 1704              		.loc 1 625 0
 1705 00e6 754B     		ldr	r3, .L125+36	@ tmp194,
 1706 00e8 0222     		movs	r2, #2	@ tmp195,
 1707 00ea 1A70     		strb	r2, [r3]	@ tmp196, GSMConfigGPRSflag
 1708              	.L113:
ARM GAS  /tmp/ccKua49E.s 			page 43


 626:src/sim900_800.c **** 			}
 627:src/sim900_800.c **** 		}
 628:src/sim900_800.c **** 
 629:src/sim900_800.c **** 		if(GSMConfigGPRSflag == 3)
 1709              		.loc 1 629 0
 1710 00ec 734B     		ldr	r3, .L125+36	@ tmp197,
 1711 00ee 1B78     		ldrb	r3, [r3]	@ D.7958, GSMConfigGPRSflag
 1712 00f0 032B     		cmp	r3, #3	@ D.7958,
 1713 00f2 00D0     		beq	.LCB1227	@
 1714 00f4 65E0     		b	.L114	@long jump	@
 1715              	.LCB1227:
 630:src/sim900_800.c **** 		{
 631:src/sim900_800.c **** 			if ((buffUARTGSMrx2[0] > 47) && (buffUARTGSMrx2[0] < 59) && (buffUARTGSMrx2[1] > 47) && (buffUAR
 1716              		.loc 1 631 0
 1717 00f6 694B     		ldr	r3, .L125+4	@ tmp198,
 1718 00f8 1B78     		ldrb	r3, [r3]	@ tmp199, buffUARTGSMrx2
 1719 00fa DBB2     		uxtb	r3, r3	@ D.7958, tmp199
 1720 00fc 2F2B     		cmp	r3, #47	@ D.7958,
 1721 00fe 26D9     		bls	.L115	@,
 1722              		.loc 1 631 0 is_stmt 0 discriminator 1
 1723 0100 664B     		ldr	r3, .L125+4	@ tmp200,
 1724 0102 1B78     		ldrb	r3, [r3]	@ tmp201, buffUARTGSMrx2
 1725 0104 DBB2     		uxtb	r3, r3	@ D.7958, tmp201
 1726 0106 3A2B     		cmp	r3, #58	@ D.7958,
 1727 0108 21D8     		bhi	.L115	@,
 1728              		.loc 1 631 0 discriminator 2
 1729 010a 644B     		ldr	r3, .L125+4	@ tmp202,
 1730 010c 5B78     		ldrb	r3, [r3, #1]	@ tmp204,
 1731 010e DBB2     		uxtb	r3, r3	@ D.7958, tmp204
 1732 0110 2F2B     		cmp	r3, #47	@ D.7958,
 1733 0112 1CD9     		bls	.L115	@,
 1734              		.loc 1 631 0 discriminator 3
 1735 0114 614B     		ldr	r3, .L125+4	@ tmp205,
 1736 0116 5B78     		ldrb	r3, [r3, #1]	@ tmp207,
 1737 0118 DBB2     		uxtb	r3, r3	@ D.7958, tmp207
 1738 011a 3A2B     		cmp	r3, #58	@ D.7958,
 1739 011c 17D8     		bhi	.L115	@,
 1740              		.loc 1 631 0 discriminator 4
 1741 011e 5F4B     		ldr	r3, .L125+4	@ tmp208,
 1742 0120 9B78     		ldrb	r3, [r3, #2]	@ tmp210,
 1743 0122 DBB2     		uxtb	r3, r3	@ D.7958, tmp210
 1744 0124 2F2B     		cmp	r3, #47	@ D.7958,
 1745 0126 12D9     		bls	.L115	@,
 1746              		.loc 1 631 0 discriminator 5
 1747 0128 5C4B     		ldr	r3, .L125+4	@ tmp211,
 1748 012a 9B78     		ldrb	r3, [r3, #2]	@ tmp213,
 1749 012c DBB2     		uxtb	r3, r3	@ D.7958, tmp213
 1750 012e 3A2B     		cmp	r3, #58	@ D.7958,
 1751 0130 0DD8     		bhi	.L115	@,
 1752              		.loc 1 631 0 discriminator 6
 1753 0132 5A4B     		ldr	r3, .L125+4	@ tmp214,
 1754 0134 DB78     		ldrb	r3, [r3, #3]	@ tmp216,
 1755 0136 DBB2     		uxtb	r3, r3	@ D.7958, tmp216
 1756 0138 2E2B     		cmp	r3, #46	@ D.7958,
 1757 013a 08D1     		bne	.L115	@,
 632:src/sim900_800.c **** 			{
 633:src/sim900_800.c **** 				strncpy((char *)&GSMIPadd[0],(const char *)&buffUARTGSMrx2[0], 16);
ARM GAS  /tmp/ccKua49E.s 			page 44


 1758              		.loc 1 633 0 is_stmt 1
 1759 013c 5749     		ldr	r1, .L125+4	@ tmp217,
 1760 013e 634B     		ldr	r3, .L125+52	@ tmp218,
 1761 0140 1022     		movs	r2, #16	@,
 1762 0142 1800     		movs	r0, r3	@, tmp218
 1763 0144 FFF7FEFF 		bl	strncpy	@
 634:src/sim900_800.c **** 				GSMSendCommandFlag = 4;
 1764              		.loc 1 634 0
 1765 0148 564B     		ldr	r3, .L125+12	@ tmp219,
 1766 014a 0422     		movs	r2, #4	@ tmp220,
 1767 014c 1A70     		strb	r2, [r3]	@ tmp221, GSMSendCommandFlag
 1768              	.L115:
 635:src/sim900_800.c **** 			}
 636:src/sim900_800.c **** 			if ((buffUARTGSMrx2[0] > 47) && (buffUARTGSMrx2[0] < 59) && (buffUARTGSMrx2[1] > 47) && (buffUAR
 1769              		.loc 1 636 0
 1770 014e 534B     		ldr	r3, .L125+4	@ tmp222,
 1771 0150 1B78     		ldrb	r3, [r3]	@ tmp223, buffUARTGSMrx2
 1772 0152 DBB2     		uxtb	r3, r3	@ D.7958, tmp223
 1773 0154 2F2B     		cmp	r3, #47	@ D.7958,
 1774 0156 1CD9     		bls	.L116	@,
 1775              		.loc 1 636 0 is_stmt 0 discriminator 1
 1776 0158 504B     		ldr	r3, .L125+4	@ tmp224,
 1777 015a 1B78     		ldrb	r3, [r3]	@ tmp225, buffUARTGSMrx2
 1778 015c DBB2     		uxtb	r3, r3	@ D.7958, tmp225
 1779 015e 3A2B     		cmp	r3, #58	@ D.7958,
 1780 0160 17D8     		bhi	.L116	@,
 1781              		.loc 1 636 0 discriminator 2
 1782 0162 4E4B     		ldr	r3, .L125+4	@ tmp226,
 1783 0164 5B78     		ldrb	r3, [r3, #1]	@ tmp228,
 1784 0166 DBB2     		uxtb	r3, r3	@ D.7958, tmp228
 1785 0168 2F2B     		cmp	r3, #47	@ D.7958,
 1786 016a 12D9     		bls	.L116	@,
 1787              		.loc 1 636 0 discriminator 3
 1788 016c 4B4B     		ldr	r3, .L125+4	@ tmp229,
 1789 016e 5B78     		ldrb	r3, [r3, #1]	@ tmp231,
 1790 0170 DBB2     		uxtb	r3, r3	@ D.7958, tmp231
 1791 0172 3A2B     		cmp	r3, #58	@ D.7958,
 1792 0174 0DD8     		bhi	.L116	@,
 1793              		.loc 1 636 0 discriminator 4
 1794 0176 494B     		ldr	r3, .L125+4	@ tmp232,
 1795 0178 9B78     		ldrb	r3, [r3, #2]	@ tmp234,
 1796 017a DBB2     		uxtb	r3, r3	@ D.7958, tmp234
 1797 017c 2E2B     		cmp	r3, #46	@ D.7958,
 1798 017e 08D1     		bne	.L116	@,
 637:src/sim900_800.c **** 			{
 638:src/sim900_800.c **** 				strncpy((char *)&GSMIPadd[0],(const char *)&buffUARTGSMrx2[0], 16);
 1799              		.loc 1 638 0 is_stmt 1
 1800 0180 4649     		ldr	r1, .L125+4	@ tmp235,
 1801 0182 524B     		ldr	r3, .L125+52	@ tmp236,
 1802 0184 1022     		movs	r2, #16	@,
 1803 0186 1800     		movs	r0, r3	@, tmp236
 1804 0188 FFF7FEFF 		bl	strncpy	@
 639:src/sim900_800.c **** 				GSMSendCommandFlag = 4;
 1805              		.loc 1 639 0
 1806 018c 454B     		ldr	r3, .L125+12	@ tmp237,
 1807 018e 0422     		movs	r2, #4	@ tmp238,
 1808 0190 1A70     		strb	r2, [r3]	@ tmp239, GSMSendCommandFlag
ARM GAS  /tmp/ccKua49E.s 			page 45


 1809              	.L116:
 640:src/sim900_800.c **** 			}
 641:src/sim900_800.c **** 			if ((buffUARTGSMrx2[0] > 47) && (buffUARTGSMrx2[0] < 59) && buffUARTGSMrx2[1] == '.')
 1810              		.loc 1 641 0
 1811 0192 424B     		ldr	r3, .L125+4	@ tmp240,
 1812 0194 1B78     		ldrb	r3, [r3]	@ tmp241, buffUARTGSMrx2
 1813 0196 DBB2     		uxtb	r3, r3	@ D.7958, tmp241
 1814 0198 2F2B     		cmp	r3, #47	@ D.7958,
 1815 019a 12D9     		bls	.L114	@,
 1816              		.loc 1 641 0 is_stmt 0 discriminator 1
 1817 019c 3F4B     		ldr	r3, .L125+4	@ tmp242,
 1818 019e 1B78     		ldrb	r3, [r3]	@ tmp243, buffUARTGSMrx2
 1819 01a0 DBB2     		uxtb	r3, r3	@ D.7958, tmp243
 1820 01a2 3A2B     		cmp	r3, #58	@ D.7958,
 1821 01a4 0DD8     		bhi	.L114	@,
 1822              		.loc 1 641 0 discriminator 2
 1823 01a6 3D4B     		ldr	r3, .L125+4	@ tmp244,
 1824 01a8 5B78     		ldrb	r3, [r3, #1]	@ tmp246,
 1825 01aa DBB2     		uxtb	r3, r3	@ D.7958, tmp246
 1826 01ac 2E2B     		cmp	r3, #46	@ D.7958,
 1827 01ae 08D1     		bne	.L114	@,
 642:src/sim900_800.c **** 			{
 643:src/sim900_800.c **** 				strncpy((char *)&GSMIPadd[0],(const char *)&buffUARTGSMrx2[0], 16);
 1828              		.loc 1 643 0 is_stmt 1
 1829 01b0 3A49     		ldr	r1, .L125+4	@ tmp247,
 1830 01b2 464B     		ldr	r3, .L125+52	@ tmp248,
 1831 01b4 1022     		movs	r2, #16	@,
 1832 01b6 1800     		movs	r0, r3	@, tmp248
 1833 01b8 FFF7FEFF 		bl	strncpy	@
 644:src/sim900_800.c **** 				GSMSendCommandFlag = 4;
 1834              		.loc 1 644 0
 1835 01bc 394B     		ldr	r3, .L125+12	@ tmp249,
 1836 01be 0422     		movs	r2, #4	@ tmp250,
 1837 01c0 1A70     		strb	r2, [r3]	@ tmp251, GSMSendCommandFlag
 1838              	.L114:
 645:src/sim900_800.c **** 			}
 646:src/sim900_800.c **** 		}
 647:src/sim900_800.c **** 
 648:src/sim900_800.c **** 		//respuestas no esperadas
 649:src/sim900_800.c **** 		//primero reviso flags
 650:src/sim900_800.c **** 		if(!strncmp((const char *)&buffUARTGSMrx2[0], (const char *)"Call Ready", (sizeof("Call Ready") -
 1839              		.loc 1 650 0
 1840 01c2 4349     		ldr	r1, .L125+56	@ tmp252,
 1841 01c4 354B     		ldr	r3, .L125+4	@ tmp253,
 1842 01c6 0A22     		movs	r2, #10	@,
 1843 01c8 1800     		movs	r0, r3	@, tmp253
 1844 01ca FFF7FEFF 		bl	strncmp	@
 1845 01ce 031E     		subs	r3, r0, #0	@ D.7959,,
 1846 01d0 07D1     		bne	.L117	@,
 651:src/sim900_800.c **** 		{
 652:src/sim900_800.c **** 			FuncsGSMMessageFlags (GSM_RESET_FLAG);
 1847              		.loc 1 652 0
 1848 01d2 8023     		movs	r3, #128	@ tmp291,
 1849 01d4 1B02     		lsls	r3, r3, #8	@ tmp254, tmp291,
 1850 01d6 1800     		movs	r0, r3	@, tmp254
 1851 01d8 FFF7FEFF 		bl	FuncsGSMMessageFlags	@
 653:src/sim900_800.c **** 			FuncsGSMMessageFlags (GSM_SET_CALL);
ARM GAS  /tmp/ccKua49E.s 			page 46


 1852              		.loc 1 653 0
 1853 01dc 0120     		movs	r0, #1	@,
 1854 01de FFF7FEFF 		bl	FuncsGSMMessageFlags	@
 1855              	.L117:
 654:src/sim900_800.c **** 		}			
 655:src/sim900_800.c **** 
 656:src/sim900_800.c **** 		if(!strncmp((const char *)&buffUARTGSMrx2[0], (const char *)"SMS Ready", (sizeof("SMS Ready") - 1
 1856              		.loc 1 656 0
 1857 01e2 3C49     		ldr	r1, .L125+60	@ tmp255,
 1858 01e4 2D4B     		ldr	r3, .L125+4	@ tmp256,
 1859 01e6 0922     		movs	r2, #9	@,
 1860 01e8 1800     		movs	r0, r3	@, tmp256
 1861 01ea FFF7FEFF 		bl	strncmp	@
 1862 01ee 031E     		subs	r3, r0, #0	@ D.7959,,
 1863 01f0 02D1     		bne	.L118	@,
 657:src/sim900_800.c **** 			FuncsGSMMessageFlags (GSM_SET_SMS);
 1864              		.loc 1 657 0
 1865 01f2 0220     		movs	r0, #2	@,
 1866 01f4 FFF7FEFF 		bl	FuncsGSMMessageFlags	@
 1867              	.L118:
 658:src/sim900_800.c **** 
 659:src/sim900_800.c **** 		if(!strncmp((const char *)&buffUARTGSMrx2[0], (const char *)"NORMAL POWER DOWN", (sizeof("NORMAL 
 1868              		.loc 1 659 0
 1869 01f8 3749     		ldr	r1, .L125+64	@ tmp257,
 1870 01fa 284B     		ldr	r3, .L125+4	@ tmp258,
 1871 01fc 1122     		movs	r2, #17	@,
 1872 01fe 1800     		movs	r0, r3	@, tmp258
 1873 0200 FFF7FEFF 		bl	strncmp	@
 1874 0204 031E     		subs	r3, r0, #0	@ D.7959,,
 1875 0206 09D1     		bne	.L119	@,
 660:src/sim900_800.c **** 		{
 661:src/sim900_800.c **** 			FuncsGSMMessageFlags (GSM_RESET_FLAG);
 1876              		.loc 1 661 0
 1877 0208 8023     		movs	r3, #128	@ tmp289,
 1878 020a 1B02     		lsls	r3, r3, #8	@ tmp259, tmp289,
 1879 020c 1800     		movs	r0, r3	@, tmp259
 1880 020e FFF7FEFF 		bl	FuncsGSMMessageFlags	@
 662:src/sim900_800.c **** 			FuncsGSMMessageFlags (GSM_SET_POWER_DOWN);
 1881              		.loc 1 662 0
 1882 0212 8023     		movs	r3, #128	@ tmp290,
 1883 0214 DB01     		lsls	r3, r3, #7	@ tmp260, tmp290,
 1884 0216 1800     		movs	r0, r3	@, tmp260
 1885 0218 FFF7FEFF 		bl	FuncsGSMMessageFlags	@
 1886              	.L119:
 663:src/sim900_800.c **** 		}
 664:src/sim900_800.c **** 
 665:src/sim900_800.c **** 		if (!strncmp((char *)&buffUARTGSMrx2[0], (const char *)"000:", sizeof ("000:") -1))
 1887              		.loc 1 665 0
 1888 021c 2F49     		ldr	r1, .L125+68	@ tmp261,
 1889 021e 1F4B     		ldr	r3, .L125+4	@ tmp262,
 1890 0220 0422     		movs	r2, #4	@,
 1891 0222 1800     		movs	r0, r3	@, tmp262
 1892 0224 FFF7FEFF 		bl	strncmp	@
 1893 0228 031E     		subs	r3, r0, #0	@ D.7959,,
 1894 022a 05D1     		bne	.L120	@,
 666:src/sim900_800.c **** 		{
 667:src/sim900_800.c **** 			strcpy(&GSMReadSMSrepIn[0], (const char *)&buffUARTGSMrx2[0]);
ARM GAS  /tmp/ccKua49E.s 			page 47


 1895              		.loc 1 667 0
 1896 022c 1B4A     		ldr	r2, .L125+4	@ tmp263,
 1897 022e 2C4B     		ldr	r3, .L125+72	@ tmp264,
 1898 0230 1100     		movs	r1, r2	@, tmp263
 1899 0232 1800     		movs	r0, r3	@, tmp264
 1900 0234 FFF7FEFF 		bl	strcpy	@
 1901              	.L120:
 668:src/sim900_800.c **** 		}
 669:src/sim900_800.c **** 		if (!strncmp((char *)&buffUARTGSMrx2[0], (const char *)"+CMTIDS: \"SM\",", sizeof ("+CMTIDS: \"SM
 1902              		.loc 1 669 0
 1903 0238 2A49     		ldr	r1, .L125+76	@ tmp265,
 1904 023a 184B     		ldr	r3, .L125+4	@ tmp266,
 1905 023c 0E22     		movs	r2, #14	@,
 1906 023e 1800     		movs	r0, r3	@, tmp266
 1907 0240 FFF7FEFF 		bl	strncmp	@
 1908 0244 031E     		subs	r3, r0, #0	@ D.7959,,
 1909 0246 07D1     		bne	.L121	@,
 670:src/sim900_800.c **** 		{
 671:src/sim900_800.c **** 			GSMCantSMS2 = buffUARTGSMrx2[14] - 48;
 1910              		.loc 1 671 0
 1911 0248 144B     		ldr	r3, .L125+4	@ tmp267,
 1912 024a 9B7B     		ldrb	r3, [r3, #14]	@ tmp269,
 1913 024c DBB2     		uxtb	r3, r3	@ D.7958, tmp269
 1914 024e 303B     		subs	r3, r3, #48	@ tmp270,
 1915 0250 DAB2     		uxtb	r2, r3	@ D.7960, tmp270
 1916 0252 254B     		ldr	r3, .L125+80	@ tmp271,
 1917 0254 1A70     		strb	r2, [r3]	@ tmp272, GSMCantSMS2
 1918 0256 0EE0     		b	.L122	@
 1919              	.L121:
 672:src/sim900_800.c **** 		}
 673:src/sim900_800.c **** 		else if (!strncmp((char *)&buffUARTGSMrx2[0], (const char *)"+CMTI: \"SM\",", sizeof ("+CMTI: \"S
 1920              		.loc 1 673 0
 1921 0258 2449     		ldr	r1, .L125+84	@ tmp273,
 1922 025a 104B     		ldr	r3, .L125+4	@ tmp274,
 1923 025c 0C22     		movs	r2, #12	@,
 1924 025e 1800     		movs	r0, r3	@, tmp274
 1925 0260 FFF7FEFF 		bl	strncmp	@
 1926 0264 031E     		subs	r3, r0, #0	@ D.7959,,
 1927 0266 06D1     		bne	.L122	@,
 674:src/sim900_800.c **** 		{
 675:src/sim900_800.c **** 			GSMCantSMS = buffUARTGSMrx2[12] - 48;
 1928              		.loc 1 675 0
 1929 0268 0C4B     		ldr	r3, .L125+4	@ tmp275,
 1930 026a 1B7B     		ldrb	r3, [r3, #12]	@ tmp277,
 1931 026c DBB2     		uxtb	r3, r3	@ D.7958, tmp277
 1932 026e 303B     		subs	r3, r3, #48	@ tmp278,
 1933 0270 DAB2     		uxtb	r2, r3	@ D.7960, tmp278
 1934 0272 1F4B     		ldr	r3, .L125+88	@ tmp279,
 1935 0274 1A70     		strb	r2, [r3]	@ tmp280, GSMCantSMS
 1936              	.L122:
 676:src/sim900_800.c **** 		}
 677:src/sim900_800.c **** 
 678:src/sim900_800.c **** //		if(!strncmp((const char *)&buffUARTGSMrx2[0], (const char *)"000: EST,", strlen((const char *)"
 679:src/sim900_800.c **** //			*pAlertasReportar |= 0x80;
 680:src/sim900_800.c **** //
 681:src/sim900_800.c **** //		if(!strncmp((const char *)&buffUARTGSMrx2[0], (const char *)"000: ARM,", strlen((const char *)"
 682:src/sim900_800.c **** //		{
ARM GAS  /tmp/ccKua49E.s 			page 48


 683:src/sim900_800.c **** //			if (!strncmp((const char *)&buffUARTGSMrx2[9], (const char *)puserCode, strlen((const char *)p
 684:src/sim900_800.c **** //			{
 685:src/sim900_800.c **** //				strncpy((char *) pclaveAct, (const char *)&buffUARTGSMrx2[16], 4);
 686:src/sim900_800.c **** //
 687:src/sim900_800.c **** //				*pActDact |= 0x40; //Armar
 688:src/sim900_800.c **** //			}
 689:src/sim900_800.c **** //		}
 690:src/sim900_800.c **** 
 691:src/sim900_800.c **** 		if(!strncmp((const char *)&buffUARTGSMrx2[0], (const char *)"CLOSED", strlen((const char *)"CLOSE
 1937              		.loc 1 691 0
 1938 0276 1F49     		ldr	r1, .L125+92	@ tmp281,
 1939 0278 084B     		ldr	r3, .L125+4	@ tmp282,
 1940 027a 0622     		movs	r2, #6	@,
 1941 027c 1800     		movs	r0, r3	@, tmp282
 1942 027e FFF7FEFF 		bl	strncmp	@
 1943 0282 031E     		subs	r3, r0, #0	@ D.7959,,
 1944 0284 02D1     		bne	.L123	@,
 692:src/sim900_800.c **** 		{
 693:src/sim900_800.c **** 			flagCloseIP = 1;
 1945              		.loc 1 693 0
 1946 0286 1C4B     		ldr	r3, .L125+96	@ tmp283,
 1947 0288 0122     		movs	r2, #1	@ tmp284,
 1948 028a 1A70     		strb	r2, [r3]	@ tmp285, flagCloseIP
 1949              	.L123:
 694:src/sim900_800.c **** 		}
 695:src/sim900_800.c **** 
 696:src/sim900_800.c **** //		if(!strncmp((const char *)&buffUARTGSMrx2[0], (const char *)"000: DRM,", strlen((const char *)"
 697:src/sim900_800.c **** //		{
 698:src/sim900_800.c **** //			if (!strncmp((const char *)&buffUARTGSMrx2[9], (const char *)puserCode, strlen((const char *)p
 699:src/sim900_800.c **** //			{
 700:src/sim900_800.c **** //				strncpy((char *) pclaveAct, (const char *)&buffUARTGSMrx2[16], 4);
 701:src/sim900_800.c **** //
 702:src/sim900_800.c **** //				*pActDact |= 0x80; //Desarmar
 703:src/sim900_800.c **** //			}
 704:src/sim900_800.c **** //		}
 705:src/sim900_800.c **** /*		if(!strncmp((const char *)&buffUARTGSMrx2[0], (const char *)"000: ARM", sizeof("000: ARM") - 1)
 706:src/sim900_800.c **** 		{
 707:src/sim900_800.c **** 			if (!strncmp((const char *)&buffUARTGSMrx2[9], (const char *)puserCode, strlen((const char *)pus
 708:src/sim900_800.c **** 			{
 709:src/sim900_800.c **** 				strncpy((char *) pclaveAct, (const char *)&buffUARTGSMrx2[16], 4);
 710:src/sim900_800.c **** 
 711:src/sim900_800.c **** 				*pActDact |= 0x40; //Armar
 712:src/sim900_800.c **** 				*pActDact |= 0x01; //SendOK.
 713:src/sim900_800.c **** 			}
 714:src/sim900_800.c **** 		}
 715:src/sim900_800.c **** 
 716:src/sim900_800.c **** 		if(!strncmp((const char *)&buffUARTGSMrx2[0], (const char *)"000: DRM", sizeof("000: DRM") - 1))
 717:src/sim900_800.c **** 		{
 718:src/sim900_800.c **** 			if (!strncmp((const char *)&buffUARTGSMrx2[9], (const char *)puserCode, strlen((const char *)pus
 719:src/sim900_800.c **** 			{
 720:src/sim900_800.c **** 				strncpy((char *) pclaveAct, (const char *)&buffUARTGSMrx2[16], 4);
 721:src/sim900_800.c **** 
 722:src/sim900_800.c **** 				*pActDact |= 0x80; //Desrmar
 723:src/sim900_800.c **** 				*pActDact |= 0x01; //SendOK.
 724:src/sim900_800.c **** 			}
 725:src/sim900_800.c **** 		}
 726:src/sim900_800.c **** */
ARM GAS  /tmp/ccKua49E.s 			page 49


 727:src/sim900_800.c **** 		PacketReadyUARTGSM = 0;
 1950              		.loc 1 727 0
 1951 028c 024B     		ldr	r3, .L125	@ tmp286,
 1952 028e 0022     		movs	r2, #0	@ tmp287,
 1953 0290 1A70     		strb	r2, [r3]	@ tmp288, PacketReadyUARTGSM
 1954              	.L124:
 728:src/sim900_800.c **** 	}
 729:src/sim900_800.c **** }
 1955              		.loc 1 729 0
 1956 0292 C046     		nop
 1957              		@ sp needed	@
 1958 0294 10BD     		pop	{r4, pc}
 1959              	.L126:
 1960 0296 C046     		.align	2
 1961              	.L125:
 1962 0298 00000000 		.word	PacketReadyUARTGSM
 1963 029c 00000000 		.word	buffUARTGSMrx2
 1964 02a0 24000000 		.word	.LC37
 1965 02a4 00000000 		.word	GSMSendCommandFlag
 1966 02a8 00000000 		.word	GSM_SENDOK
 1967 02ac 28000000 		.word	.LC41
 1968 02b0 2C000000 		.word	.LC43
 1969 02b4 34000000 		.word	.LC45
 1970 02b8 38000000 		.word	.LC47
 1971 02bc 00000000 		.word	GSMConfigGPRSflag
 1972 02c0 00000000 		.word	GSM_IPSTATE
 1973 02c4 07000000 		.word	buffUARTGSMrx2+7
 1974 02c8 00000000 		.word	GSMbuffStatus
 1975 02cc 00000000 		.word	GSMIPadd
 1976 02d0 40000000 		.word	.LC54
 1977 02d4 4C000000 		.word	.LC56
 1978 02d8 58000000 		.word	.LC58
 1979 02dc 6C000000 		.word	.LC60
 1980 02e0 00000000 		.word	GSMReadSMSrepIn
 1981 02e4 74000000 		.word	.LC63
 1982 02e8 00000000 		.word	GSMCantSMS2
 1983 02ec 84000000 		.word	.LC66
 1984 02f0 00000000 		.word	GSMCantSMS
 1985 02f4 94000000 		.word	.LC69
 1986 02f8 00000000 		.word	flagCloseIP
 1987              		.cfi_endproc
 1988              	.LFE27:
 1989              		.size	GSMReceive, .-GSMReceive
 1990              		.section	.text.GSMSendCommand,"ax",%progbits
 1991              		.align	2
 1992              		.global	GSMSendCommand
 1993              		.code	16
 1994              		.thumb_func
 1995              		.type	GSMSendCommand, %function
 1996              	GSMSendCommand:
 1997              	.LFB28:
 730:src/sim900_800.c **** 
 731:src/sim900_800.c **** //-----------------------------------------------------//
 732:src/sim900_800.c **** //char GSMSendCommand (char *ptrCommand, unsigned char timeOut, unsigned char rta, char *ptrRta)
 733:src/sim900_800.c **** //----------------------------------------------------//
 734:src/sim900_800.c **** //ptrCommand: Comando a enviar.
 735:src/sim900_800.c **** //ptrRta: Respuesta al comando desde sim900.
ARM GAS  /tmp/ccKua49E.s 			page 50


 736:src/sim900_800.c **** //rta: 0: No espera rta. 1: Espera respuesta antes de OK.
 737:src/sim900_800.c **** //TO: time out. en ms
 738:src/sim900_800.c **** //----------------------------------------------------//
 739:src/sim900_800.c **** //Wait: 	1
 740:src/sim900_800.c **** //OK: 		2
 741:src/sim900_800.c **** //ERR:		3
 742:src/sim900_800.c **** //TO:
 743:src/sim900_800.c **** //NO OK:	4
 744:src/sim900_800.c **** //NO RTA: 	5
 745:src/sim900_800.c **** //----------------------------------------------------//
 746:src/sim900_800.c **** char GSMSendCommand (char *ptrCommand, unsigned short timeOut, unsigned char rta, char *ptrRta)
 747:src/sim900_800.c **** {
 1998              		.loc 1 747 0
 1999              		.cfi_startproc
 2000 0000 00B5     		push	{lr}	@
 2001              	.LCFI8:
 2002              		.cfi_def_cfa_offset 4
 2003              		.cfi_offset 14, -4
 2004 0002 85B0     		sub	sp, sp, #20	@,,
 2005              	.LCFI9:
 2006              		.cfi_def_cfa_offset 24
 2007 0004 0390     		str	r0, [sp, #12]	@ ptrCommand, ptrCommand
 2008 0006 0800     		movs	r0, r1	@ tmp127, timeOut
 2009 0008 1100     		movs	r1, r2	@ tmp130, rta
 2010 000a 0193     		str	r3, [sp, #4]	@ ptrRta, ptrRta
 2011 000c 0A23     		movs	r3, #10	@ tmp128,
 2012 000e 6B44     		add	r3, r3, sp	@ tmp128,
 2013 0010 021C     		adds	r2, r0, #0	@ tmp129, tmp127
 2014 0012 1A80     		strh	r2, [r3]	@ tmp129, timeOut
 2015 0014 0923     		movs	r3, #9	@ tmp131,
 2016 0016 6B44     		add	r3, r3, sp	@ tmp131,
 2017 0018 0A1C     		adds	r2, r1, #0	@ tmp132, tmp130
 2018 001a 1A70     		strb	r2, [r3]	@ tmp132, rta
 748:src/sim900_800.c **** 	switch(GSMSendCommandState)
 2019              		.loc 1 748 0
 2020 001c 474B     		ldr	r3, .L145	@ tmp133,
 2021 001e 1B78     		ldrb	r3, [r3]	@ D.7973, GSMSendCommandState
 2022 0020 012B     		cmp	r3, #1	@ D.7974,
 2023 0022 1AD0     		beq	.L129	@,
 2024 0024 02DC     		bgt	.L130	@,
 2025 0026 002B     		cmp	r3, #0	@ D.7974,
 2026 0028 05D0     		beq	.L131	@,
 2027 002a 56E0     		b	.L128	@
 2028              	.L130:
 2029 002c 022B     		cmp	r3, #2	@ D.7974,
 2030 002e 34D0     		beq	.L132	@,
 2031 0030 032B     		cmp	r3, #3	@ D.7974,
 2032 0032 46D0     		beq	.L133	@,
 2033 0034 51E0     		b	.L128	@
 2034              	.L131:
 749:src/sim900_800.c **** 	{
 750:src/sim900_800.c **** 		case 0:
 751:src/sim900_800.c **** 			GSMSendCommandFlag = 0;
 2035              		.loc 1 751 0
 2036 0036 424B     		ldr	r3, .L145+4	@ tmp134,
 2037 0038 0022     		movs	r2, #0	@ tmp135,
 2038 003a 1A70     		strb	r2, [r3]	@ tmp136, GSMSendCommandFlag
ARM GAS  /tmp/ccKua49E.s 			page 51


 752:src/sim900_800.c **** 			GSMSendCommandTimeOut = timeOut;
 2039              		.loc 1 752 0
 2040 003c 414B     		ldr	r3, .L145+8	@ tmp137,
 2041 003e 0A22     		movs	r2, #10	@ tmp138,
 2042 0040 6A44     		add	r2, r2, sp	@ tmp138,
 2043 0042 1288     		ldrh	r2, [r2]	@ tmp139, timeOut
 2044 0044 1A80     		strh	r2, [r3]	@ tmp139, GSMSendCommandTimeOut
 753:src/sim900_800.c **** 			GSMSendCommandState++;
 2045              		.loc 1 753 0
 2046 0046 3D4B     		ldr	r3, .L145	@ tmp140,
 2047 0048 1B78     		ldrb	r3, [r3]	@ D.7973, GSMSendCommandState
 2048 004a 0133     		adds	r3, r3, #1	@ tmp141,
 2049 004c DAB2     		uxtb	r2, r3	@ D.7973, tmp141
 2050 004e 3B4B     		ldr	r3, .L145	@ tmp142,
 2051 0050 1A70     		strb	r2, [r3]	@ tmp143, GSMSendCommandState
 754:src/sim900_800.c **** 			GSMSendCommandIntento = 0;
 2052              		.loc 1 754 0
 2053 0052 3D4B     		ldr	r3, .L145+12	@ tmp144,
 2054 0054 0022     		movs	r2, #0	@ tmp145,
 2055 0056 1A70     		strb	r2, [r3]	@ tmp146, GSMSendCommandIntento
 755:src/sim900_800.c **** 			break;
 2056              		.loc 1 755 0
 2057 0058 46E0     		b	.L134	@
 2058              	.L129:
 756:src/sim900_800.c **** 
 757:src/sim900_800.c **** 		case 1:
 758:src/sim900_800.c **** 			if (rta)
 2059              		.loc 1 758 0
 2060 005a 0923     		movs	r3, #9	@ tmp147,
 2061 005c 6B44     		add	r3, r3, sp	@ tmp147,
 2062 005e 1B78     		ldrb	r3, [r3]	@ tmp148, rta
 2063 0060 002B     		cmp	r3, #0	@ tmp148,
 2064 0062 06D0     		beq	.L135	@,
 759:src/sim900_800.c **** 			{
 760:src/sim900_800.c **** 				GSMSendCommandState = 2;
 2065              		.loc 1 760 0
 2066 0064 354B     		ldr	r3, .L145	@ tmp149,
 2067 0066 0222     		movs	r2, #2	@ tmp150,
 2068 0068 1A70     		strb	r2, [r3]	@ tmp151, GSMSendCommandState
 761:src/sim900_800.c **** 				GSMSendCommandFlag = 1;
 2069              		.loc 1 761 0
 2070 006a 354B     		ldr	r3, .L145+4	@ tmp152,
 2071 006c 0122     		movs	r2, #1	@ tmp153,
 2072 006e 1A70     		strb	r2, [r3]	@ tmp154, GSMSendCommandFlag
 2073 0070 05E0     		b	.L136	@
 2074              	.L135:
 762:src/sim900_800.c **** 			}
 763:src/sim900_800.c **** 			else
 764:src/sim900_800.c **** 			{
 765:src/sim900_800.c **** 				GSMSendCommandState = 3;
 2075              		.loc 1 765 0
 2076 0072 324B     		ldr	r3, .L145	@ tmp155,
 2077 0074 0322     		movs	r2, #3	@ tmp156,
 2078 0076 1A70     		strb	r2, [r3]	@ tmp157, GSMSendCommandState
 766:src/sim900_800.c **** 				GSMSendCommandFlag = 3;
 2079              		.loc 1 766 0
 2080 0078 314B     		ldr	r3, .L145+4	@ tmp158,
ARM GAS  /tmp/ccKua49E.s 			page 52


 2081 007a 0322     		movs	r2, #3	@ tmp159,
 2082 007c 1A70     		strb	r2, [r3]	@ tmp160, GSMSendCommandFlag
 2083              	.L136:
 767:src/sim900_800.c **** 			}
 768:src/sim900_800.c **** 
 769:src/sim900_800.c **** 			if (GSMSendCommandIntento == 1)
 2084              		.loc 1 769 0
 2085 007e 324B     		ldr	r3, .L145+12	@ tmp161,
 2086 0080 1B78     		ldrb	r3, [r3]	@ D.7973, GSMSendCommandIntento
 2087 0082 012B     		cmp	r3, #1	@ D.7973,
 2088 0084 04D1     		bne	.L137	@,
 770:src/sim900_800.c **** 			{
 771:src/sim900_800.c **** 				GSMSendCommandState = 0;
 2089              		.loc 1 771 0
 2090 0086 2D4B     		ldr	r3, .L145	@ tmp162,
 2091 0088 0022     		movs	r2, #0	@ tmp163,
 2092 008a 1A70     		strb	r2, [r3]	@ tmp164, GSMSendCommandState
 772:src/sim900_800.c **** 				return 4;
 2093              		.loc 1 772 0
 2094 008c 0423     		movs	r3, #4	@ D.7973,
 2095 008e 51E0     		b	.L138	@
 2096              	.L137:
 773:src/sim900_800.c **** 			}
 774:src/sim900_800.c **** 			else
 775:src/sim900_800.c **** 			{
 776:src/sim900_800.c **** 				UARTGSMSend(&ptrCommand[0]);
 2097              		.loc 1 776 0
 2098 0090 039B     		ldr	r3, [sp, #12]	@ tmp165, ptrCommand
 2099 0092 1800     		movs	r0, r3	@, tmp165
 2100 0094 FFF7FEFF 		bl	Usart1Send	@
 777:src/sim900_800.c **** 			}
 778:src/sim900_800.c **** 			break;
 2101              		.loc 1 778 0
 2102 0098 26E0     		b	.L134	@
 2103              	.L132:
 779:src/sim900_800.c **** 
 780:src/sim900_800.c **** 		case 2:
 781:src/sim900_800.c **** 			//Espera rta.
 782:src/sim900_800.c **** 			if (GSMSendCommandFlag == 2)
 2104              		.loc 1 782 0
 2105 009a 294B     		ldr	r3, .L145+4	@ tmp166,
 2106 009c 1B78     		ldrb	r3, [r3]	@ D.7973, GSMSendCommandFlag
 2107 009e 022B     		cmp	r3, #2	@ D.7973,
 2108 00a0 1FD1     		bne	.L143	@,
 783:src/sim900_800.c **** 			{
 784:src/sim900_800.c **** 				GSMSendCommandFlag = 3;
 2109              		.loc 1 784 0
 2110 00a2 274B     		ldr	r3, .L145+4	@ tmp167,
 2111 00a4 0322     		movs	r2, #3	@ tmp168,
 2112 00a6 1A70     		strb	r2, [r3]	@ tmp169, GSMSendCommandFlag
 785:src/sim900_800.c **** 				GSMSendCommandState++;
 2113              		.loc 1 785 0
 2114 00a8 244B     		ldr	r3, .L145	@ tmp170,
 2115 00aa 1B78     		ldrb	r3, [r3]	@ D.7973, GSMSendCommandState
 2116 00ac 0133     		adds	r3, r3, #1	@ tmp171,
 2117 00ae DAB2     		uxtb	r2, r3	@ D.7973, tmp171
 2118 00b0 224B     		ldr	r3, .L145	@ tmp172,
ARM GAS  /tmp/ccKua49E.s 			page 53


 2119 00b2 1A70     		strb	r2, [r3]	@ tmp173, GSMSendCommandState
 786:src/sim900_800.c **** 				//Rta obtenida.
 787:src/sim900_800.c **** 				strcpy((char *)ptrRta, (const char *)&buffUARTGSMrx2[0]);
 2120              		.loc 1 787 0
 2121 00b4 254A     		ldr	r2, .L145+16	@ tmp174,
 2122 00b6 019B     		ldr	r3, [sp, #4]	@ tmp175, ptrRta
 2123 00b8 1100     		movs	r1, r2	@, tmp174
 2124 00ba 1800     		movs	r0, r3	@, tmp175
 2125 00bc FFF7FEFF 		bl	strcpy	@
 788:src/sim900_800.c **** 			}
 789:src/sim900_800.c **** 			break;
 2126              		.loc 1 789 0
 2127 00c0 0FE0     		b	.L143	@
 2128              	.L133:
 790:src/sim900_800.c **** 
 791:src/sim900_800.c **** 		case 3:
 792:src/sim900_800.c **** 			//Espera OK.
 793:src/sim900_800.c **** 			if (GSMSendCommandFlag == 4)
 2129              		.loc 1 793 0
 2130 00c2 1F4B     		ldr	r3, .L145+4	@ tmp176,
 2131 00c4 1B78     		ldrb	r3, [r3]	@ D.7973, GSMSendCommandFlag
 2132 00c6 042B     		cmp	r3, #4	@ D.7973,
 2133 00c8 0DD1     		bne	.L144	@,
 794:src/sim900_800.c **** 			{
 795:src/sim900_800.c **** 				//OK recibido.
 796:src/sim900_800.c **** 				GSMSendCommandFlag = 0;
 2134              		.loc 1 796 0
 2135 00ca 1D4B     		ldr	r3, .L145+4	@ tmp177,
 2136 00cc 0022     		movs	r2, #0	@ tmp178,
 2137 00ce 1A70     		strb	r2, [r3]	@ tmp179, GSMSendCommandFlag
 797:src/sim900_800.c **** 				GSMSendCommandState = 0;
 2138              		.loc 1 797 0
 2139 00d0 1A4B     		ldr	r3, .L145	@ tmp180,
 2140 00d2 0022     		movs	r2, #0	@ tmp181,
 2141 00d4 1A70     		strb	r2, [r3]	@ tmp182, GSMSendCommandState
 798:src/sim900_800.c **** 				return 2;
 2142              		.loc 1 798 0
 2143 00d6 0223     		movs	r3, #2	@ D.7973,
 2144 00d8 2CE0     		b	.L138	@
 2145              	.L128:
 799:src/sim900_800.c **** 			}
 800:src/sim900_800.c **** 			break;
 801:src/sim900_800.c **** 
 802:src/sim900_800.c **** 		default:
 803:src/sim900_800.c **** 			GSMSendCommandState = 0;
 2146              		.loc 1 803 0
 2147 00da 184B     		ldr	r3, .L145	@ tmp183,
 2148 00dc 0022     		movs	r2, #0	@ tmp184,
 2149 00de 1A70     		strb	r2, [r3]	@ tmp185, GSMSendCommandState
 804:src/sim900_800.c **** 			break;
 2150              		.loc 1 804 0
 2151 00e0 02E0     		b	.L134	@
 2152              	.L143:
 789:src/sim900_800.c **** 
 2153              		.loc 1 789 0
 2154 00e2 C046     		nop
 2155 00e4 00E0     		b	.L134	@
ARM GAS  /tmp/ccKua49E.s 			page 54


 2156              	.L144:
 800:src/sim900_800.c **** 
 2157              		.loc 1 800 0
 2158 00e6 C046     		nop
 2159              	.L134:
 805:src/sim900_800.c **** 	}
 806:src/sim900_800.c **** 
 807:src/sim900_800.c **** 	if (GSMSendCommandFlag == 5)
 2160              		.loc 1 807 0
 2161 00e8 154B     		ldr	r3, .L145+4	@ tmp186,
 2162 00ea 1B78     		ldrb	r3, [r3]	@ D.7973, GSMSendCommandFlag
 2163 00ec 052B     		cmp	r3, #5	@ D.7973,
 2164 00ee 0DD1     		bne	.L141	@,
 808:src/sim900_800.c **** 	{
 809:src/sim900_800.c **** 		GSMSendCommandIntento++;
 2165              		.loc 1 809 0
 2166 00f0 154B     		ldr	r3, .L145+12	@ tmp187,
 2167 00f2 1B78     		ldrb	r3, [r3]	@ D.7973, GSMSendCommandIntento
 2168 00f4 0133     		adds	r3, r3, #1	@ tmp188,
 2169 00f6 DAB2     		uxtb	r2, r3	@ D.7973, tmp188
 2170 00f8 134B     		ldr	r3, .L145+12	@ tmp189,
 2171 00fa 1A70     		strb	r2, [r3]	@ tmp190, GSMSendCommandIntento
 810:src/sim900_800.c **** 		GSMSendCommandTimeOut = timeOut;
 2172              		.loc 1 810 0
 2173 00fc 114B     		ldr	r3, .L145+8	@ tmp191,
 2174 00fe 0A22     		movs	r2, #10	@ tmp192,
 2175 0100 6A44     		add	r2, r2, sp	@ tmp192,
 2176 0102 1288     		ldrh	r2, [r2]	@ tmp193, timeOut
 2177 0104 1A80     		strh	r2, [r3]	@ tmp193, GSMSendCommandTimeOut
 811:src/sim900_800.c **** 		GSMSendCommandState = 1;
 2178              		.loc 1 811 0
 2179 0106 0D4B     		ldr	r3, .L145	@ tmp194,
 2180 0108 0122     		movs	r2, #1	@ tmp195,
 2181 010a 1A70     		strb	r2, [r3]	@ tmp196, GSMSendCommandState
 2182              	.L141:
 812:src/sim900_800.c **** 	}
 813:src/sim900_800.c **** 
 814:src/sim900_800.c **** 	if (!GSMSendCommandTimeOut)
 2183              		.loc 1 814 0
 2184 010c 0D4B     		ldr	r3, .L145+8	@ tmp197,
 2185 010e 1B88     		ldrh	r3, [r3]	@ tmp198, GSMSendCommandTimeOut
 2186 0110 9BB2     		uxth	r3, r3	@ D.7975, tmp198
 2187 0112 002B     		cmp	r3, #0	@ D.7975,
 2188 0114 0DD1     		bne	.L142	@,
 815:src/sim900_800.c **** 	{
 816:src/sim900_800.c **** 		GSMSendCommandIntento++;
 2189              		.loc 1 816 0
 2190 0116 0C4B     		ldr	r3, .L145+12	@ tmp199,
 2191 0118 1B78     		ldrb	r3, [r3]	@ D.7973, GSMSendCommandIntento
 2192 011a 0133     		adds	r3, r3, #1	@ tmp200,
 2193 011c DAB2     		uxtb	r2, r3	@ D.7973, tmp200
 2194 011e 0A4B     		ldr	r3, .L145+12	@ tmp201,
 2195 0120 1A70     		strb	r2, [r3]	@ tmp202, GSMSendCommandIntento
 817:src/sim900_800.c **** 		GSMSendCommandTimeOut = timeOut;
 2196              		.loc 1 817 0
 2197 0122 084B     		ldr	r3, .L145+8	@ tmp203,
 2198 0124 0A22     		movs	r2, #10	@ tmp204,
ARM GAS  /tmp/ccKua49E.s 			page 55


 2199 0126 6A44     		add	r2, r2, sp	@ tmp204,
 2200 0128 1288     		ldrh	r2, [r2]	@ tmp205, timeOut
 2201 012a 1A80     		strh	r2, [r3]	@ tmp205, GSMSendCommandTimeOut
 818:src/sim900_800.c **** 		GSMSendCommandState = 1;
 2202              		.loc 1 818 0
 2203 012c 034B     		ldr	r3, .L145	@ tmp206,
 2204 012e 0122     		movs	r2, #1	@ tmp207,
 2205 0130 1A70     		strb	r2, [r3]	@ tmp208, GSMSendCommandState
 2206              	.L142:
 819:src/sim900_800.c **** 	}
 820:src/sim900_800.c **** 
 821:src/sim900_800.c **** 	return 1;
 2207              		.loc 1 821 0
 2208 0132 0123     		movs	r3, #1	@ D.7973,
 2209              	.L138:
 822:src/sim900_800.c **** }
 2210              		.loc 1 822 0
 2211 0134 1800     		movs	r0, r3	@, <retval>
 2212 0136 05B0     		add	sp, sp, #20	@,,
 2213              		@ sp needed	@
 2214 0138 00BD     		pop	{pc}
 2215              	.L146:
 2216 013a C046     		.align	2
 2217              	.L145:
 2218 013c 00000000 		.word	GSMSendCommandState
 2219 0140 00000000 		.word	GSMSendCommandFlag
 2220 0144 00000000 		.word	GSMSendCommandTimeOut
 2221 0148 00000000 		.word	GSMSendCommandIntento
 2222 014c 00000000 		.word	buffUARTGSMrx2
 2223              		.cfi_endproc
 2224              	.LFE28:
 2225              		.size	GSMSendCommand, .-GSMSendCommand
 2226              		.section	.rodata
 2227 009b 00       		.align	2
 2228              	.LC82:
 2229 009c 41540D0A 		.ascii	"AT\015\012\000"
 2229      00
 2230 00a1 000000   		.align	2
 2231              	.LC84:
 2232 00a4 41544530 		.ascii	"ATE0\015\012\000"
 2232      0D0A00
 2233 00ab 00       		.align	2
 2234              	.LC86:
 2235 00ac 41542B43 		.ascii	"AT+CMGF=1\015\012\000"
 2235      4D47463D 
 2235      310D0A00 
 2236              		.align	2
 2237              	.LC88:
 2238 00b8 41542B43 		.ascii	"AT+CSCS=\"GSM\"\015\012\000"
 2238      5343533D 
 2238      2247534D 
 2238      220D0A00 
 2239              		.align	2
 2240              	.LC90:
 2241 00c8 41542B43 		.ascii	"AT+CSMP=49,255,0,241\015\012\000"
 2241      534D503D 
 2241      34392C32 
ARM GAS  /tmp/ccKua49E.s 			page 56


 2241      35352C30 
 2241      2C323431 
 2242 00df 00       		.align	2
 2243              	.LC92:
 2244 00e0 41542657 		.ascii	"AT&W\015\012\000"
 2244      0D0A00
 2245              		.section	.text.GSM_Config,"ax",%progbits
 2246              		.align	2
 2247              		.global	GSM_Config
 2248              		.code	16
 2249              		.thumb_func
 2250              		.type	GSM_Config, %function
 2251              	GSM_Config:
 2252              	.LFB29:
 823:src/sim900_800.c **** 
 824:src/sim900_800.c **** //---------------------------------------------------------------//
 825:src/sim900_800.c **** //Configuracion del modulo GSM.
 826:src/sim900_800.c **** //---------------------------------------------------------------//
 827:src/sim900_800.c **** //
 828:src/sim900_800.c **** //Wait: 	0
 829:src/sim900_800.c **** //OK:		1
 830:src/sim900_800.c **** //ERR:	2
 831:src/sim900_800.c **** //TO:		3
 832:src/sim900_800.c **** //---------------------------------------------------------------//
 833:src/sim900_800.c **** char GSM_Config(unsigned short timeOut)
 834:src/sim900_800.c **** {
 2253              		.loc 1 834 0
 2254              		.cfi_startproc
 2255 0000 10B5     		push	{r4, lr}	@
 2256              	.LCFI10:
 2257              		.cfi_def_cfa_offset 8
 2258              		.cfi_offset 4, -8
 2259              		.cfi_offset 14, -4
 2260 0002 84B0     		sub	sp, sp, #16	@,,
 2261              	.LCFI11:
 2262              		.cfi_def_cfa_offset 24
 2263 0004 0200     		movs	r2, r0	@ tmp151, timeOut
 2264 0006 6B46     		mov	r3, sp	@ tmp335,
 2265 0008 0633     		adds	r3, r3, #6	@ tmp152,
 2266 000a 1A80     		strh	r2, [r3]	@ tmp153, timeOut
 835:src/sim900_800.c **** 	unsigned char i;
 836:src/sim900_800.c **** 
 837:src/sim900_800.c **** 	switch(GSMConfigState)
 2267              		.loc 1 837 0
 2268 000c AE4B     		ldr	r3, .L191	@ tmp154,
 2269 000e 1B78     		ldrb	r3, [r3]	@ D.7977, GSMConfigState
 2270 0010 092B     		cmp	r3, #9	@ D.7978,
 2271 0012 00D9     		bls	.LCB1724	@
 2272 0014 34E1     		b	.L148	@long jump	@
 2273              	.LCB1724:
 2274 0016 9A00     		lsls	r2, r3, #2	@ tmp155, D.7978,
 2275 0018 AC4B     		ldr	r3, .L191+4	@ tmp157,
 2276 001a D318     		adds	r3, r2, r3	@ tmp156, tmp155, tmp157
 2277 001c 1B68     		ldr	r3, [r3]	@ tmp158,
 2278 001e 9F46     		mov	pc, r3	@ tmp158
 2279              		.section	.rodata.GSM_Config,"a",%progbits
 2280              		.align	2
ARM GAS  /tmp/ccKua49E.s 			page 57


 2281              	.L150:
 2282 0000 20000000 		.word	.L149
 2283 0004 48000000 		.word	.L151
 2284 0008 BE000000 		.word	.L152
 2285 000c E2000000 		.word	.L153
 2286 0010 20010000 		.word	.L154
 2287 0014 34010000 		.word	.L155
 2288 0018 78010000 		.word	.L156
 2289 001c BC010000 		.word	.L157
 2290 0020 FE010000 		.word	.L158
 2291 0024 40020000 		.word	.L159
 2292              		.section	.text.GSM_Config
 2293              	.L149:
 838:src/sim900_800.c **** 	{
 839:src/sim900_800.c **** 		case 0:
 840:src/sim900_800.c **** 			GSM_NRESET_ON;
 2294              		.loc 1 840 0
 2295              		.syntax divided
 2296              	@ 840 "src/sim900_800.c" 1
 2297 0020 C046     		nop 
 2298              		
 2299              	@ 0 "" 2
 841:src/sim900_800.c **** 			GSM_PWRKEY_ON;
 2300              		.loc 1 841 0
 2301              		.thumb
 2302              		.syntax unified
 2303 0022 9023     		movs	r3, #144	@ tmp334,
 2304 0024 DB05     		lsls	r3, r3, #23	@ D.7980, tmp334,
 2305 0026 8022     		movs	r2, #128	@ tmp159,
 2306 0028 9A61     		str	r2, [r3, #24]	@ tmp159, _69->BSRR
 842:src/sim900_800.c **** 			GSMConfigTime = 0;
 2307              		.loc 1 842 0
 2308 002a A94B     		ldr	r3, .L191+8	@ tmp160,
 2309 002c 0022     		movs	r2, #0	@ tmp161,
 2310 002e 1A80     		strh	r2, [r3]	@ tmp162, GSMConfigTime
 843:src/sim900_800.c **** 			GSMConfigTimeOut = timeOut;
 2311              		.loc 1 843 0
 2312 0030 A84B     		ldr	r3, .L191+12	@ tmp163,
 2313 0032 6A46     		mov	r2, sp	@ tmp336,
 2314 0034 0632     		adds	r2, r2, #6	@ tmp164,
 2315 0036 1288     		ldrh	r2, [r2]	@ tmp165, timeOut
 2316 0038 1A80     		strh	r2, [r3]	@ tmp165, GSMConfigTimeOut
 844:src/sim900_800.c **** 			GSMConfigState++;
 2317              		.loc 1 844 0
 2318 003a A34B     		ldr	r3, .L191	@ tmp166,
 2319 003c 1B78     		ldrb	r3, [r3]	@ D.7977, GSMConfigState
 2320 003e 0133     		adds	r3, r3, #1	@ tmp167,
 2321 0040 DAB2     		uxtb	r2, r3	@ D.7977, tmp167
 2322 0042 A14B     		ldr	r3, .L191	@ tmp168,
 2323 0044 1A70     		strb	r2, [r3]	@ tmp169, GSMConfigState
 845:src/sim900_800.c **** 			break;
 2324              		.loc 1 845 0
 2325 0046 30E1     		b	.L160	@
 2326              	.L151:
 846:src/sim900_800.c **** 
 847:src/sim900_800.c **** 		case 1:
 848:src/sim900_800.c **** 
ARM GAS  /tmp/ccKua49E.s 			page 58


 849:src/sim900_800.c **** 			if (GSM_STATUS)
 2327              		.loc 1 849 0
 2328 0048 9023     		movs	r3, #144	@ tmp333,
 2329 004a DB05     		lsls	r3, r3, #23	@ D.7980, tmp333,
 2330 004c 1B8A     		ldrh	r3, [r3, #16]	@ tmp171,
 2331 004e 9BB2     		uxth	r3, r3	@ D.7979, tmp171
 2332 0050 1A00     		movs	r2, r3	@ D.7978, D.7979
 2333 0052 2023     		movs	r3, #32	@ tmp172,
 2334 0054 1340     		ands	r3, r2	@ D.7978, D.7978
 2335 0056 2AD0     		beq	.L161	@,
 850:src/sim900_800.c **** 			{
 851:src/sim900_800.c **** 				//i = GSMSendCommand ("AT\r\n", 15, 0, &GSMbuffRtaCommand[0]);
 852:src/sim900_800.c **** 				i = GSMSendCommand ("AT\r\n", GSMConfigTimeOut, 0, &GSMbuffRtaCommand[0]);
 2336              		.loc 1 852 0
 2337 0058 9E4B     		ldr	r3, .L191+12	@ tmp173,
 2338 005a 1B88     		ldrh	r3, [r3]	@ tmp174, GSMConfigTimeOut
 2339 005c 99B2     		uxth	r1, r3	@ D.7979, tmp174
 2340 005e 0F24     		movs	r4, #15	@ tmp175,
 2341 0060 6C44     		add	r4, r4, sp	@ tmp175,
 2342 0062 9D4B     		ldr	r3, .L191+16	@ tmp176,
 2343 0064 9D48     		ldr	r0, .L191+20	@ tmp177,
 2344 0066 0022     		movs	r2, #0	@,
 2345 0068 FFF7FEFF 		bl	GSMSendCommand	@
 2346 006c 0300     		movs	r3, r0	@ tmp178,
 2347 006e 2370     		strb	r3, [r4]	@ tmp180, i
 853:src/sim900_800.c **** 
 854:src/sim900_800.c **** 				if ((i == 2) || (i == 3))
 2348              		.loc 1 854 0
 2349 0070 0F23     		movs	r3, #15	@ tmp181,
 2350 0072 6B44     		add	r3, r3, sp	@ tmp181,
 2351 0074 1B78     		ldrb	r3, [r3]	@ tmp182, i
 2352 0076 022B     		cmp	r3, #2	@ tmp182,
 2353 0078 04D0     		beq	.L162	@,
 2354              		.loc 1 854 0 is_stmt 0 discriminator 1
 2355 007a 0F23     		movs	r3, #15	@ tmp183,
 2356 007c 6B44     		add	r3, r3, sp	@ tmp183,
 2357 007e 1B78     		ldrb	r3, [r3]	@ tmp184, i
 2358 0080 032B     		cmp	r3, #3	@ tmp184,
 2359 0082 06D1     		bne	.L163	@,
 2360              	.L162:
 855:src/sim900_800.c **** 				{
 856:src/sim900_800.c **** 					GSMConfigState += 4;
 2361              		.loc 1 856 0 is_stmt 1
 2362 0084 904B     		ldr	r3, .L191	@ tmp185,
 2363 0086 1B78     		ldrb	r3, [r3]	@ D.7977, GSMConfigState
 2364 0088 0433     		adds	r3, r3, #4	@ tmp186,
 2365 008a DAB2     		uxtb	r2, r3	@ D.7977, tmp186
 2366 008c 8E4B     		ldr	r3, .L191	@ tmp187,
 2367 008e 1A70     		strb	r2, [r3]	@ tmp188, GSMConfigState
 857:src/sim900_800.c **** 					GSM_NRESET_ON;
 2368              		.loc 1 857 0
 2369              		.syntax divided
 2370              	@ 857 "src/sim900_800.c" 1
 2371 0090 C046     		nop 
 2372              		
 2373              	@ 0 "" 2
 2374              		.thumb
ARM GAS  /tmp/ccKua49E.s 			page 59


 2375              		.syntax unified
 2376              	.L163:
 858:src/sim900_800.c **** 				}
 859:src/sim900_800.c **** 
 860:src/sim900_800.c **** 				if (i == 4)
 2377              		.loc 1 860 0
 2378 0092 0F23     		movs	r3, #15	@ tmp189,
 2379 0094 6B44     		add	r3, r3, sp	@ tmp189,
 2380 0096 1B78     		ldrb	r3, [r3]	@ tmp190, i
 2381 0098 042B     		cmp	r3, #4	@ tmp190,
 2382 009a 00D0     		beq	.LCB1803	@
 2383 009c F4E0     		b	.L182	@long jump	@
 2384              	.LCB1803:
 861:src/sim900_800.c **** 				{
 862:src/sim900_800.c **** 					GSMConfigState += 1;
 2385              		.loc 1 862 0
 2386 009e 8A4B     		ldr	r3, .L191	@ tmp191,
 2387 00a0 1B78     		ldrb	r3, [r3]	@ D.7977, GSMConfigState
 2388 00a2 0133     		adds	r3, r3, #1	@ tmp192,
 2389 00a4 DAB2     		uxtb	r2, r3	@ D.7977, tmp192
 2390 00a6 884B     		ldr	r3, .L191	@ tmp193,
 2391 00a8 1A70     		strb	r2, [r3]	@ tmp194, GSMConfigState
 863:src/sim900_800.c **** 					GSM_NRESET_ON;
 2392              		.loc 1 863 0
 2393              		.syntax divided
 2394              	@ 863 "src/sim900_800.c" 1
 2395 00aa C046     		nop 
 2396              		
 2397              	@ 0 "" 2
 864:src/sim900_800.c **** 				}
 865:src/sim900_800.c **** 
 866:src/sim900_800.c **** 			}
 867:src/sim900_800.c **** 			else
 868:src/sim900_800.c **** 			{
 869:src/sim900_800.c **** 				GSMConfigState += 2;
 870:src/sim900_800.c **** 				GSM_NRESET_ON;
 871:src/sim900_800.c **** 			}
 872:src/sim900_800.c **** 			break;
 2398              		.loc 1 872 0
 2399              		.thumb
 2400              		.syntax unified
 2401 00ac ECE0     		b	.L182	@
 2402              	.L161:
 869:src/sim900_800.c **** 				GSM_NRESET_ON;
 2403              		.loc 1 869 0
 2404 00ae 864B     		ldr	r3, .L191	@ tmp195,
 2405 00b0 1B78     		ldrb	r3, [r3]	@ D.7977, GSMConfigState
 2406 00b2 0233     		adds	r3, r3, #2	@ tmp196,
 2407 00b4 DAB2     		uxtb	r2, r3	@ D.7977, tmp196
 2408 00b6 844B     		ldr	r3, .L191	@ tmp197,
 2409 00b8 1A70     		strb	r2, [r3]	@ tmp198, GSMConfigState
 870:src/sim900_800.c **** 			}
 2410              		.loc 1 870 0
 2411              		.syntax divided
 2412              	@ 870 "src/sim900_800.c" 1
 2413 00ba C046     		nop 
 2414              		
ARM GAS  /tmp/ccKua49E.s 			page 60


 2415              	@ 0 "" 2
 2416              		.loc 1 872 0
 2417              		.thumb
 2418              		.syntax unified
 2419 00bc E4E0     		b	.L182	@
 2420              	.L152:
 873:src/sim900_800.c **** 
 874:src/sim900_800.c **** 		case 2:
 875:src/sim900_800.c **** 			//Reinicio del modulo.
 876:src/sim900_800.c **** 			GSM_NRESET_OFF;
 2421              		.loc 1 876 0
 2422              		.syntax divided
 2423              	@ 876 "src/sim900_800.c" 1
 2424 00be C046     		nop 
 2425              		
 2426              	@ 0 "" 2
 877:src/sim900_800.c **** 			if(!GSM_STATUS)
 2427              		.loc 1 877 0
 2428              		.thumb
 2429              		.syntax unified
 2430 00c0 9023     		movs	r3, #144	@ tmp332,
 2431 00c2 DB05     		lsls	r3, r3, #23	@ D.7980, tmp332,
 2432 00c4 1B8A     		ldrh	r3, [r3, #16]	@ tmp200,
 2433 00c6 9BB2     		uxth	r3, r3	@ D.7979, tmp200
 2434 00c8 1A00     		movs	r2, r3	@ D.7978, D.7979
 2435 00ca 2023     		movs	r3, #32	@ tmp201,
 2436 00cc 1340     		ands	r3, r2	@ D.7978, D.7978
 2437 00ce 00D0     		beq	.LCB1835	@
 2438 00d0 DCE0     		b	.L183	@long jump	@
 2439              	.LCB1835:
 878:src/sim900_800.c **** 			{
 879:src/sim900_800.c **** 				GSMConfigState++;
 2440              		.loc 1 879 0
 2441 00d2 7D4B     		ldr	r3, .L191	@ tmp202,
 2442 00d4 1B78     		ldrb	r3, [r3]	@ D.7977, GSMConfigState
 2443 00d6 0133     		adds	r3, r3, #1	@ tmp203,
 2444 00d8 DAB2     		uxtb	r2, r3	@ D.7977, tmp203
 2445 00da 7B4B     		ldr	r3, .L191	@ tmp204,
 2446 00dc 1A70     		strb	r2, [r3]	@ tmp205, GSMConfigState
 880:src/sim900_800.c **** 				GSM_NRESET_ON;
 2447              		.loc 1 880 0
 2448              		.syntax divided
 2449              	@ 880 "src/sim900_800.c" 1
 2450 00de C046     		nop 
 2451              		
 2452              	@ 0 "" 2
 881:src/sim900_800.c **** 			}
 882:src/sim900_800.c **** 			break;
 2453              		.loc 1 882 0
 2454              		.thumb
 2455              		.syntax unified
 2456 00e0 D4E0     		b	.L183	@
 2457              	.L153:
 883:src/sim900_800.c **** 
 884:src/sim900_800.c **** 		case 3:
 885:src/sim900_800.c **** 
 886:src/sim900_800.c **** 			//Encendido del modulo.
ARM GAS  /tmp/ccKua49E.s 			page 61


 887:src/sim900_800.c **** 			i = GSM_Start();
 2458              		.loc 1 887 0
 2459 00e2 0F24     		movs	r4, #15	@ tmp206,
 2460 00e4 6C44     		add	r4, r4, sp	@ tmp206,
 2461 00e6 FFF7FEFF 		bl	GSM_Start	@
 2462 00ea 0300     		movs	r3, r0	@ tmp207,
 2463 00ec 2370     		strb	r3, [r4]	@ tmp209, i
 888:src/sim900_800.c **** 
 889:src/sim900_800.c **** 			if (i == 2)
 2464              		.loc 1 889 0
 2465 00ee 0F23     		movs	r3, #15	@ tmp210,
 2466 00f0 6B44     		add	r3, r3, sp	@ tmp210,
 2467 00f2 1B78     		ldrb	r3, [r3]	@ tmp211, i
 2468 00f4 022B     		cmp	r3, #2	@ tmp211,
 2469 00f6 08D1     		bne	.L167	@,
 890:src/sim900_800.c **** 			{
 891:src/sim900_800.c **** 				GSMConfigState++;
 2470              		.loc 1 891 0
 2471 00f8 734B     		ldr	r3, .L191	@ tmp212,
 2472 00fa 1B78     		ldrb	r3, [r3]	@ D.7977, GSMConfigState
 2473 00fc 0133     		adds	r3, r3, #1	@ tmp213,
 2474 00fe DAB2     		uxtb	r2, r3	@ D.7977, tmp213
 2475 0100 714B     		ldr	r3, .L191	@ tmp214,
 2476 0102 1A70     		strb	r2, [r3]	@ tmp215, GSMConfigState
 892:src/sim900_800.c **** 				GSMConfigTime = 20;
 2477              		.loc 1 892 0
 2478 0104 724B     		ldr	r3, .L191+8	@ tmp216,
 2479 0106 1422     		movs	r2, #20	@ tmp217,
 2480 0108 1A80     		strh	r2, [r3]	@ tmp218, GSMConfigTime
 2481              	.L167:
 893:src/sim900_800.c **** 			}
 894:src/sim900_800.c **** 
 895:src/sim900_800.c **** 			if (i == 4)
 2482              		.loc 1 895 0
 2483 010a 0F23     		movs	r3, #15	@ tmp219,
 2484 010c 6B44     		add	r3, r3, sp	@ tmp219,
 2485 010e 1B78     		ldrb	r3, [r3]	@ tmp220, i
 2486 0110 042B     		cmp	r3, #4	@ tmp220,
 2487 0112 00D0     		beq	.LCB1872	@
 2488 0114 BCE0     		b	.L184	@long jump	@
 2489              	.LCB1872:
 896:src/sim900_800.c **** 			{
 897:src/sim900_800.c **** 				GSMConfigState = 1;
 2490              		.loc 1 897 0
 2491 0116 6C4B     		ldr	r3, .L191	@ tmp221,
 2492 0118 0122     		movs	r2, #1	@ tmp222,
 2493 011a 1A70     		strb	r2, [r3]	@ tmp223, GSMConfigState
 898:src/sim900_800.c **** 				return 2;
 2494              		.loc 1 898 0
 2495 011c 0223     		movs	r3, #2	@ D.7977,
 2496 011e CFE0     		b	.L169	@
 2497              	.L154:
 899:src/sim900_800.c **** 			}
 900:src/sim900_800.c **** 			break;
 901:src/sim900_800.c **** 
 902:src/sim900_800.c **** 		case 4:
 903:src/sim900_800.c **** 
ARM GAS  /tmp/ccKua49E.s 			page 62


 904:src/sim900_800.c **** 			if (GSMConfigTime == 0)
 2498              		.loc 1 904 0
 2499 0120 6B4B     		ldr	r3, .L191+8	@ tmp224,
 2500 0122 1B88     		ldrh	r3, [r3]	@ tmp225, GSMConfigTime
 2501 0124 9BB2     		uxth	r3, r3	@ D.7979, tmp225
 2502 0126 002B     		cmp	r3, #0	@ D.7979,
 2503 0128 00D0     		beq	.LCB1885	@
 2504 012a B3E0     		b	.L185	@long jump	@
 2505              	.LCB1885:
 905:src/sim900_800.c **** 				GSMConfigState = 1;
 2506              		.loc 1 905 0
 2507 012c 664B     		ldr	r3, .L191	@ tmp226,
 2508 012e 0122     		movs	r2, #1	@ tmp227,
 2509 0130 1A70     		strb	r2, [r3]	@ tmp228, GSMConfigState
 906:src/sim900_800.c **** 			break;
 2510              		.loc 1 906 0
 2511 0132 AFE0     		b	.L185	@
 2512              	.L155:
 907:src/sim900_800.c **** 
 908:src/sim900_800.c **** 		case 5:
 909:src/sim900_800.c **** 
 910:src/sim900_800.c **** 			//Comandos para configurar.
 911:src/sim900_800.c **** 			//ATE0.
 912:src/sim900_800.c **** 			//i = GSMSendCommand ("ATE0\r\n", 15, 0, &GSMbuffRtaCommand[0]);
 913:src/sim900_800.c **** 			i = GSMSendCommand ("ATE0\r\n", GSMConfigTimeOut, 0, &GSMbuffRtaCommand[0]);
 2513              		.loc 1 913 0
 2514 0134 674B     		ldr	r3, .L191+12	@ tmp229,
 2515 0136 1B88     		ldrh	r3, [r3]	@ tmp230, GSMConfigTimeOut
 2516 0138 99B2     		uxth	r1, r3	@ D.7979, tmp230
 2517 013a 0F24     		movs	r4, #15	@ tmp231,
 2518 013c 6C44     		add	r4, r4, sp	@ tmp231,
 2519 013e 664B     		ldr	r3, .L191+16	@ tmp232,
 2520 0140 6748     		ldr	r0, .L191+24	@ tmp233,
 2521 0142 0022     		movs	r2, #0	@,
 2522 0144 FFF7FEFF 		bl	GSMSendCommand	@
 2523 0148 0300     		movs	r3, r0	@ tmp234,
 2524 014a 2370     		strb	r3, [r4]	@ tmp236, i
 914:src/sim900_800.c **** 
 915:src/sim900_800.c **** 			if (i == 2)
 2525              		.loc 1 915 0
 2526 014c 0F23     		movs	r3, #15	@ tmp237,
 2527 014e 6B44     		add	r3, r3, sp	@ tmp237,
 2528 0150 1B78     		ldrb	r3, [r3]	@ tmp238, i
 2529 0152 022B     		cmp	r3, #2	@ tmp238,
 2530 0154 05D1     		bne	.L171	@,
 916:src/sim900_800.c **** 			{
 917:src/sim900_800.c **** 				GSMConfigState++;
 2531              		.loc 1 917 0
 2532 0156 5C4B     		ldr	r3, .L191	@ tmp239,
 2533 0158 1B78     		ldrb	r3, [r3]	@ D.7977, GSMConfigState
 2534 015a 0133     		adds	r3, r3, #1	@ tmp240,
 2535 015c DAB2     		uxtb	r2, r3	@ D.7977, tmp240
 2536 015e 5A4B     		ldr	r3, .L191	@ tmp241,
 2537 0160 1A70     		strb	r2, [r3]	@ tmp242, GSMConfigState
 2538              	.L171:
 918:src/sim900_800.c **** 			}
 919:src/sim900_800.c **** 			if (i > 2)
ARM GAS  /tmp/ccKua49E.s 			page 63


 2539              		.loc 1 919 0
 2540 0162 0F23     		movs	r3, #15	@ tmp243,
 2541 0164 6B44     		add	r3, r3, sp	@ tmp243,
 2542 0166 1B78     		ldrb	r3, [r3]	@ tmp244, i
 2543 0168 022B     		cmp	r3, #2	@ tmp244,
 2544 016a 00D8     		bhi	.LCB1921	@
 2545 016c 94E0     		b	.L186	@long jump	@
 2546              	.LCB1921:
 920:src/sim900_800.c **** 			{
 921:src/sim900_800.c **** 				GSMConfigState = 1;
 2547              		.loc 1 921 0
 2548 016e 564B     		ldr	r3, .L191	@ tmp245,
 2549 0170 0122     		movs	r2, #1	@ tmp246,
 2550 0172 1A70     		strb	r2, [r3]	@ tmp247, GSMConfigState
 922:src/sim900_800.c **** 				return 2;
 2551              		.loc 1 922 0
 2552 0174 0223     		movs	r3, #2	@ D.7977,
 2553 0176 A3E0     		b	.L169	@
 2554              	.L156:
 923:src/sim900_800.c **** 			}
 924:src/sim900_800.c **** 
 925:src/sim900_800.c **** 			break;
 926:src/sim900_800.c **** 
 927:src/sim900_800.c **** 		case 6:
 928:src/sim900_800.c **** 			//AT+CMGF=1
 929:src/sim900_800.c **** 			//i = GSMSendCommand ("AT+CMGF=1\r\n", 15, 0, &GSMbuffRtaCommand[0]);
 930:src/sim900_800.c **** 			i = GSMSendCommand ("AT+CMGF=1\r\n", GSMConfigTimeOut, 0, &GSMbuffRtaCommand[0]);
 2555              		.loc 1 930 0
 2556 0178 564B     		ldr	r3, .L191+12	@ tmp248,
 2557 017a 1B88     		ldrh	r3, [r3]	@ tmp249, GSMConfigTimeOut
 2558 017c 99B2     		uxth	r1, r3	@ D.7979, tmp249
 2559 017e 0F24     		movs	r4, #15	@ tmp250,
 2560 0180 6C44     		add	r4, r4, sp	@ tmp250,
 2561 0182 554B     		ldr	r3, .L191+16	@ tmp251,
 2562 0184 5748     		ldr	r0, .L191+28	@ tmp252,
 2563 0186 0022     		movs	r2, #0	@,
 2564 0188 FFF7FEFF 		bl	GSMSendCommand	@
 2565 018c 0300     		movs	r3, r0	@ tmp253,
 2566 018e 2370     		strb	r3, [r4]	@ tmp255, i
 931:src/sim900_800.c **** 
 932:src/sim900_800.c **** 			if (i == 2)
 2567              		.loc 1 932 0
 2568 0190 0F23     		movs	r3, #15	@ tmp256,
 2569 0192 6B44     		add	r3, r3, sp	@ tmp256,
 2570 0194 1B78     		ldrb	r3, [r3]	@ tmp257, i
 2571 0196 022B     		cmp	r3, #2	@ tmp257,
 2572 0198 05D1     		bne	.L173	@,
 933:src/sim900_800.c **** 			{
 934:src/sim900_800.c **** 				GSMConfigState++;
 2573              		.loc 1 934 0
 2574 019a 4B4B     		ldr	r3, .L191	@ tmp258,
 2575 019c 1B78     		ldrb	r3, [r3]	@ D.7977, GSMConfigState
 2576 019e 0133     		adds	r3, r3, #1	@ tmp259,
 2577 01a0 DAB2     		uxtb	r2, r3	@ D.7977, tmp259
 2578 01a2 494B     		ldr	r3, .L191	@ tmp260,
 2579 01a4 1A70     		strb	r2, [r3]	@ tmp261, GSMConfigState
 2580              	.L173:
ARM GAS  /tmp/ccKua49E.s 			page 64


 935:src/sim900_800.c **** 			}
 936:src/sim900_800.c **** 			if (i > 2)
 2581              		.loc 1 936 0
 2582 01a6 0F23     		movs	r3, #15	@ tmp262,
 2583 01a8 6B44     		add	r3, r3, sp	@ tmp262,
 2584 01aa 1B78     		ldrb	r3, [r3]	@ tmp263, i
 2585 01ac 022B     		cmp	r3, #2	@ tmp263,
 2586 01ae 00D8     		bhi	.LCB1958	@
 2587 01b0 74E0     		b	.L187	@long jump	@
 2588              	.LCB1958:
 937:src/sim900_800.c **** 			{
 938:src/sim900_800.c **** 				GSMConfigState = 1;
 2589              		.loc 1 938 0
 2590 01b2 454B     		ldr	r3, .L191	@ tmp264,
 2591 01b4 0122     		movs	r2, #1	@ tmp265,
 2592 01b6 1A70     		strb	r2, [r3]	@ tmp266, GSMConfigState
 939:src/sim900_800.c **** 				return 2;
 2593              		.loc 1 939 0
 2594 01b8 0223     		movs	r3, #2	@ D.7977,
 2595 01ba 81E0     		b	.L169	@
 2596              	.L157:
 940:src/sim900_800.c **** 			}
 941:src/sim900_800.c **** 			break;
 942:src/sim900_800.c **** 		case 7:
 943:src/sim900_800.c **** 			//AT+CSCS="GSM"
 944:src/sim900_800.c **** 			//i = GSMSendCommand ("AT+CSCS=\"GSM\"\r\n", 15, 0, &GSMbuffRtaCommand[0]);
 945:src/sim900_800.c **** 			i = GSMSendCommand ("AT+CSCS=\"GSM\"\r\n", GSMConfigTimeOut, 0, &GSMbuffRtaCommand[0]);
 2597              		.loc 1 945 0
 2598 01bc 454B     		ldr	r3, .L191+12	@ tmp267,
 2599 01be 1B88     		ldrh	r3, [r3]	@ tmp268, GSMConfigTimeOut
 2600 01c0 99B2     		uxth	r1, r3	@ D.7979, tmp268
 2601 01c2 0F24     		movs	r4, #15	@ tmp269,
 2602 01c4 6C44     		add	r4, r4, sp	@ tmp269,
 2603 01c6 444B     		ldr	r3, .L191+16	@ tmp270,
 2604 01c8 4748     		ldr	r0, .L191+32	@ tmp271,
 2605 01ca 0022     		movs	r2, #0	@,
 2606 01cc FFF7FEFF 		bl	GSMSendCommand	@
 2607 01d0 0300     		movs	r3, r0	@ tmp272,
 2608 01d2 2370     		strb	r3, [r4]	@ tmp274, i
 946:src/sim900_800.c **** 
 947:src/sim900_800.c **** 			if (i == 2)
 2609              		.loc 1 947 0
 2610 01d4 0F23     		movs	r3, #15	@ tmp275,
 2611 01d6 6B44     		add	r3, r3, sp	@ tmp275,
 2612 01d8 1B78     		ldrb	r3, [r3]	@ tmp276, i
 2613 01da 022B     		cmp	r3, #2	@ tmp276,
 2614 01dc 05D1     		bne	.L175	@,
 948:src/sim900_800.c **** 			{
 949:src/sim900_800.c **** 				GSMConfigState++;
 2615              		.loc 1 949 0
 2616 01de 3A4B     		ldr	r3, .L191	@ tmp277,
 2617 01e0 1B78     		ldrb	r3, [r3]	@ D.7977, GSMConfigState
 2618 01e2 0133     		adds	r3, r3, #1	@ tmp278,
 2619 01e4 DAB2     		uxtb	r2, r3	@ D.7977, tmp278
 2620 01e6 384B     		ldr	r3, .L191	@ tmp279,
 2621 01e8 1A70     		strb	r2, [r3]	@ tmp280, GSMConfigState
 2622              	.L175:
ARM GAS  /tmp/ccKua49E.s 			page 65


 950:src/sim900_800.c **** 			}
 951:src/sim900_800.c **** 			if (i > 2)
 2623              		.loc 1 951 0
 2624 01ea 0F23     		movs	r3, #15	@ tmp281,
 2625 01ec 6B44     		add	r3, r3, sp	@ tmp281,
 2626 01ee 1B78     		ldrb	r3, [r3]	@ tmp282, i
 2627 01f0 022B     		cmp	r3, #2	@ tmp282,
 2628 01f2 55D9     		bls	.L188	@,
 952:src/sim900_800.c **** 			{
 953:src/sim900_800.c **** 				GSMConfigState = 1;
 2629              		.loc 1 953 0
 2630 01f4 344B     		ldr	r3, .L191	@ tmp283,
 2631 01f6 0122     		movs	r2, #1	@ tmp284,
 2632 01f8 1A70     		strb	r2, [r3]	@ tmp285, GSMConfigState
 954:src/sim900_800.c **** 				return 2;
 2633              		.loc 1 954 0
 2634 01fa 0223     		movs	r3, #2	@ D.7977,
 2635 01fc 60E0     		b	.L169	@
 2636              	.L158:
 955:src/sim900_800.c **** 			}
 956:src/sim900_800.c **** 			break;
 957:src/sim900_800.c **** 		case 8:
 958:src/sim900_800.c **** 			//AT+CSMP=49,255,0,241
 959:src/sim900_800.c **** 			//i = GSMSendCommand ("AT+CSMP=49,255,0,241\r\n", 15, 0, &GSMbuffRtaCommand[0]);
 960:src/sim900_800.c **** 			i = GSMSendCommand ("AT+CSMP=49,255,0,241\r\n", GSMConfigTimeOut, 0, &GSMbuffRtaCommand[0]);
 2637              		.loc 1 960 0
 2638 01fe 354B     		ldr	r3, .L191+12	@ tmp286,
 2639 0200 1B88     		ldrh	r3, [r3]	@ tmp287, GSMConfigTimeOut
 2640 0202 99B2     		uxth	r1, r3	@ D.7979, tmp287
 2641 0204 0F24     		movs	r4, #15	@ tmp288,
 2642 0206 6C44     		add	r4, r4, sp	@ tmp288,
 2643 0208 334B     		ldr	r3, .L191+16	@ tmp289,
 2644 020a 3848     		ldr	r0, .L191+36	@ tmp290,
 2645 020c 0022     		movs	r2, #0	@,
 2646 020e FFF7FEFF 		bl	GSMSendCommand	@
 2647 0212 0300     		movs	r3, r0	@ tmp291,
 2648 0214 2370     		strb	r3, [r4]	@ tmp293, i
 961:src/sim900_800.c **** 
 962:src/sim900_800.c **** 			if (i == 2)
 2649              		.loc 1 962 0
 2650 0216 0F23     		movs	r3, #15	@ tmp294,
 2651 0218 6B44     		add	r3, r3, sp	@ tmp294,
 2652 021a 1B78     		ldrb	r3, [r3]	@ tmp295, i
 2653 021c 022B     		cmp	r3, #2	@ tmp295,
 2654 021e 05D1     		bne	.L177	@,
 963:src/sim900_800.c **** 			{
 964:src/sim900_800.c **** 				GSMConfigState++;
 2655              		.loc 1 964 0
 2656 0220 294B     		ldr	r3, .L191	@ tmp296,
 2657 0222 1B78     		ldrb	r3, [r3]	@ D.7977, GSMConfigState
 2658 0224 0133     		adds	r3, r3, #1	@ tmp297,
 2659 0226 DAB2     		uxtb	r2, r3	@ D.7977, tmp297
 2660 0228 274B     		ldr	r3, .L191	@ tmp298,
 2661 022a 1A70     		strb	r2, [r3]	@ tmp299, GSMConfigState
 2662              	.L177:
 965:src/sim900_800.c **** 			}
 966:src/sim900_800.c **** 			if (i > 2)
ARM GAS  /tmp/ccKua49E.s 			page 66


 2663              		.loc 1 966 0
 2664 022c 0F23     		movs	r3, #15	@ tmp300,
 2665 022e 6B44     		add	r3, r3, sp	@ tmp300,
 2666 0230 1B78     		ldrb	r3, [r3]	@ tmp301, i
 2667 0232 022B     		cmp	r3, #2	@ tmp301,
 2668 0234 36D9     		bls	.L189	@,
 967:src/sim900_800.c **** 			{
 968:src/sim900_800.c **** 				GSMConfigState = 1;
 2669              		.loc 1 968 0
 2670 0236 244B     		ldr	r3, .L191	@ tmp302,
 2671 0238 0122     		movs	r2, #1	@ tmp303,
 2672 023a 1A70     		strb	r2, [r3]	@ tmp304, GSMConfigState
 969:src/sim900_800.c **** 				return 2;
 2673              		.loc 1 969 0
 2674 023c 0223     		movs	r3, #2	@ D.7977,
 2675 023e 3FE0     		b	.L169	@
 2676              	.L159:
 970:src/sim900_800.c **** 			}
 971:src/sim900_800.c **** 			break;
 972:src/sim900_800.c **** 		case 9:
 973:src/sim900_800.c **** 			//AT&W
 974:src/sim900_800.c **** 			//i = GSMSendCommand ("AT&W\r\n", 15, 0, &GSMbuffRtaCommand[0]);
 975:src/sim900_800.c **** 			i = GSMSendCommand ("AT&W\r\n", GSMConfigTimeOut, 0, &GSMbuffRtaCommand[0]);
 2677              		.loc 1 975 0
 2678 0240 244B     		ldr	r3, .L191+12	@ tmp305,
 2679 0242 1B88     		ldrh	r3, [r3]	@ tmp306, GSMConfigTimeOut
 2680 0244 99B2     		uxth	r1, r3	@ D.7979, tmp306
 2681 0246 0F24     		movs	r4, #15	@ tmp307,
 2682 0248 6C44     		add	r4, r4, sp	@ tmp307,
 2683 024a 234B     		ldr	r3, .L191+16	@ tmp308,
 2684 024c 2848     		ldr	r0, .L191+40	@ tmp309,
 2685 024e 0022     		movs	r2, #0	@,
 2686 0250 FFF7FEFF 		bl	GSMSendCommand	@
 2687 0254 0300     		movs	r3, r0	@ tmp310,
 2688 0256 2370     		strb	r3, [r4]	@ tmp312, i
 976:src/sim900_800.c **** 
 977:src/sim900_800.c **** 			if (i == 2)
 2689              		.loc 1 977 0
 2690 0258 0F23     		movs	r3, #15	@ tmp313,
 2691 025a 6B44     		add	r3, r3, sp	@ tmp313,
 2692 025c 1B78     		ldrb	r3, [r3]	@ tmp314, i
 2693 025e 022B     		cmp	r3, #2	@ tmp314,
 2694 0260 04D1     		bne	.L179	@,
 978:src/sim900_800.c **** 			{
 979:src/sim900_800.c **** 				GSMConfigState = 1;
 2695              		.loc 1 979 0
 2696 0262 194B     		ldr	r3, .L191	@ tmp315,
 2697 0264 0122     		movs	r2, #1	@ tmp316,
 2698 0266 1A70     		strb	r2, [r3]	@ tmp317, GSMConfigState
 980:src/sim900_800.c **** 				return 1;
 2699              		.loc 1 980 0
 2700 0268 0123     		movs	r3, #1	@ D.7977,
 2701 026a 29E0     		b	.L169	@
 2702              	.L179:
 981:src/sim900_800.c **** 			}
 982:src/sim900_800.c **** 			if (i > 2)
 2703              		.loc 1 982 0
ARM GAS  /tmp/ccKua49E.s 			page 67


 2704 026c 0F23     		movs	r3, #15	@ tmp318,
 2705 026e 6B44     		add	r3, r3, sp	@ tmp318,
 2706 0270 1B78     		ldrb	r3, [r3]	@ tmp319, i
 2707 0272 022B     		cmp	r3, #2	@ tmp319,
 2708 0274 18D9     		bls	.L190	@,
 983:src/sim900_800.c **** 			{
 984:src/sim900_800.c **** 				GSMConfigState = 1;
 2709              		.loc 1 984 0
 2710 0276 144B     		ldr	r3, .L191	@ tmp320,
 2711 0278 0122     		movs	r2, #1	@ tmp321,
 2712 027a 1A70     		strb	r2, [r3]	@ tmp322, GSMConfigState
 985:src/sim900_800.c **** 				return 2;
 2713              		.loc 1 985 0
 2714 027c 0223     		movs	r3, #2	@ D.7977,
 2715 027e 1FE0     		b	.L169	@
 2716              	.L148:
 986:src/sim900_800.c **** 			}
 987:src/sim900_800.c **** 			break;
 988:src/sim900_800.c **** 		default:
 989:src/sim900_800.c **** 			GSMConfigState = 0;
 2717              		.loc 1 989 0
 2718 0280 114B     		ldr	r3, .L191	@ tmp323,
 2719 0282 0022     		movs	r2, #0	@ tmp324,
 2720 0284 1A70     		strb	r2, [r3]	@ tmp325, GSMConfigState
 990:src/sim900_800.c **** 			break;
 2721              		.loc 1 990 0
 2722 0286 10E0     		b	.L160	@
 2723              	.L182:
 872:src/sim900_800.c **** 
 2724              		.loc 1 872 0
 2725 0288 C046     		nop
 2726 028a 0EE0     		b	.L160	@
 2727              	.L183:
 882:src/sim900_800.c **** 
 2728              		.loc 1 882 0
 2729 028c C046     		nop
 2730 028e 0CE0     		b	.L160	@
 2731              	.L184:
 900:src/sim900_800.c **** 
 2732              		.loc 1 900 0
 2733 0290 C046     		nop
 2734 0292 0AE0     		b	.L160	@
 2735              	.L185:
 906:src/sim900_800.c **** 
 2736              		.loc 1 906 0
 2737 0294 C046     		nop
 2738 0296 08E0     		b	.L160	@
 2739              	.L186:
 925:src/sim900_800.c **** 
 2740              		.loc 1 925 0
 2741 0298 C046     		nop
 2742 029a 06E0     		b	.L160	@
 2743              	.L187:
 941:src/sim900_800.c **** 		case 7:
 2744              		.loc 1 941 0
 2745 029c C046     		nop
 2746 029e 04E0     		b	.L160	@
ARM GAS  /tmp/ccKua49E.s 			page 68


 2747              	.L188:
 956:src/sim900_800.c **** 		case 8:
 2748              		.loc 1 956 0
 2749 02a0 C046     		nop
 2750 02a2 02E0     		b	.L160	@
 2751              	.L189:
 971:src/sim900_800.c **** 		case 9:
 2752              		.loc 1 971 0
 2753 02a4 C046     		nop
 2754 02a6 00E0     		b	.L160	@
 2755              	.L190:
 987:src/sim900_800.c **** 		default:
 2756              		.loc 1 987 0
 2757 02a8 C046     		nop
 2758              	.L160:
 991:src/sim900_800.c **** 
 992:src/sim900_800.c **** 	}
 993:src/sim900_800.c **** 
 994:src/sim900_800.c **** 	if (GSMConfigTimeOut == 0)
 2759              		.loc 1 994 0
 2760 02aa 0A4B     		ldr	r3, .L191+12	@ tmp326,
 2761 02ac 1B88     		ldrh	r3, [r3]	@ tmp327, GSMConfigTimeOut
 2762 02ae 9BB2     		uxth	r3, r3	@ D.7979, tmp327
 2763 02b0 002B     		cmp	r3, #0	@ D.7979,
 2764 02b2 04D1     		bne	.L181	@,
 995:src/sim900_800.c **** 	{
 996:src/sim900_800.c **** 		GSMConfigState = 0;
 2765              		.loc 1 996 0
 2766 02b4 044B     		ldr	r3, .L191	@ tmp328,
 2767 02b6 0022     		movs	r2, #0	@ tmp329,
 2768 02b8 1A70     		strb	r2, [r3]	@ tmp330, GSMConfigState
 997:src/sim900_800.c **** 		return 3;
 2769              		.loc 1 997 0
 2770 02ba 0323     		movs	r3, #3	@ D.7977,
 2771 02bc 00E0     		b	.L169	@
 2772              	.L181:
 998:src/sim900_800.c **** 	}
 999:src/sim900_800.c **** 
1000:src/sim900_800.c **** 	return 0;
 2773              		.loc 1 1000 0
 2774 02be 0023     		movs	r3, #0	@ D.7977,
 2775              	.L169:
1001:src/sim900_800.c **** }
 2776              		.loc 1 1001 0
 2777 02c0 1800     		movs	r0, r3	@, <retval>
 2778 02c2 04B0     		add	sp, sp, #16	@,,
 2779              		@ sp needed	@
 2780 02c4 10BD     		pop	{r4, pc}
 2781              	.L192:
 2782 02c6 C046     		.align	2
 2783              	.L191:
 2784 02c8 00000000 		.word	GSMConfigState
 2785 02cc 00000000 		.word	.L150
 2786 02d0 00000000 		.word	GSMConfigTime
 2787 02d4 00000000 		.word	GSMConfigTimeOut
 2788 02d8 00000000 		.word	GSMbuffRtaCommand
 2789 02dc 9C000000 		.word	.LC82
ARM GAS  /tmp/ccKua49E.s 			page 69


 2790 02e0 A4000000 		.word	.LC84
 2791 02e4 AC000000 		.word	.LC86
 2792 02e8 B8000000 		.word	.LC88
 2793 02ec C8000000 		.word	.LC90
 2794 02f0 E0000000 		.word	.LC92
 2795              		.cfi_endproc
 2796              	.LFE29:
 2797              		.size	GSM_Config, .-GSM_Config
 2798              		.section	.rodata
 2799 00e7 00       		.align	2
 2800              	.LC98:
 2801 00e8 41542B43 		.ascii	"AT+CMGS=\"\000"
 2801      4D47533D 
 2801      2200
 2802 00f2 0000     		.align	2
 2803              	.LC100:
 2804 00f4 220D0A00 		.ascii	"\"\015\012\000"
 2805              		.align	2
 2806              	.LC103:
 2807 00f8 1A00     		.ascii	"\032\000"
 2808              		.section	.text.GSMSendSMS,"ax",%progbits
 2809              		.align	2
 2810              		.global	GSMSendSMS
 2811              		.code	16
 2812              		.thumb_func
 2813              		.type	GSMSendSMS, %function
 2814              	GSMSendSMS:
 2815              	.LFB30:
1002:src/sim900_800.c **** 
1003:src/sim900_800.c **** //-----------------------------------------------------------------------//
1004:src/sim900_800.c **** //char GSMSendSMS (char *ptrMSG, char *ptrNUM, unsigned char timeOut)
1005:src/sim900_800.c **** //-----------------------------------------------------------------------//
1006:src/sim900_800.c **** //String de mensaje: 	"..."
1007:src/sim900_800.c **** //timeOut en mS
1008:src/sim900_800.c **** //String Numero: 		"----------"
1009:src/sim900_800.c **** //Wait: 	0
1010:src/sim900_800.c **** //OK:		1
1011:src/sim900_800.c **** //ERR:	2
1012:src/sim900_800.c **** //TO:		3
1013:src/sim900_800.c **** //-----------------------------------------------------------------------//
1014:src/sim900_800.c **** char GSMSendSMS (char *ptrMSG, char *ptrNUM, unsigned short timeOut)
1015:src/sim900_800.c **** {
 2816              		.loc 1 1015 0
 2817              		.cfi_startproc
 2818 0000 10B5     		push	{r4, lr}	@
 2819              	.LCFI12:
 2820              		.cfi_def_cfa_offset 8
 2821              		.cfi_offset 4, -8
 2822              		.cfi_offset 14, -4
 2823 0002 86B0     		sub	sp, sp, #24	@,,
 2824              	.LCFI13:
 2825              		.cfi_def_cfa_offset 32
 2826 0004 0390     		str	r0, [sp, #12]	@ ptrMSG, ptrMSG
 2827 0006 0291     		str	r1, [sp, #8]	@ ptrNUM, ptrNUM
 2828 0008 6B46     		mov	r3, sp	@ tmp214,
 2829 000a 0633     		adds	r3, r3, #6	@ tmp122,
 2830 000c 1A80     		strh	r2, [r3]	@ tmp123, timeOut
ARM GAS  /tmp/ccKua49E.s 			page 70


1016:src/sim900_800.c **** 	unsigned char i;
1017:src/sim900_800.c **** 
1018:src/sim900_800.c **** 	switch(GSMSendSMSState)
 2831              		.loc 1 1018 0
 2832 000e 504B     		ldr	r3, .L208	@ tmp124,
 2833 0010 1B78     		ldrb	r3, [r3]	@ D.7988, GSMSendSMSState
 2834 0012 012B     		cmp	r3, #1	@ D.7989,
 2835 0014 2DD0     		beq	.L195	@,
 2836 0016 022B     		cmp	r3, #2	@ D.7989,
 2837 0018 64D0     		beq	.L196	@,
 2838 001a 002B     		cmp	r3, #0	@ D.7989,
 2839 001c 00D0     		beq	.LCB2194	@
 2840 001e 81E0     		b	.L205	@long jump	@
 2841              	.LCB2194:
1019:src/sim900_800.c **** 	{
1020:src/sim900_800.c **** 		case 0:
1021:src/sim900_800.c **** 			GSMSendSMSFlag = 0;
 2842              		.loc 1 1021 0
 2843 0020 4C4B     		ldr	r3, .L208+4	@ tmp125,
 2844 0022 0022     		movs	r2, #0	@ tmp126,
 2845 0024 1A70     		strb	r2, [r3]	@ tmp127, GSMSendSMSFlag
1022:src/sim900_800.c **** 			GSMSendSMSTimeOut = timeOut;
 2846              		.loc 1 1022 0
 2847 0026 4C4B     		ldr	r3, .L208+8	@ tmp128,
 2848 0028 6A46     		mov	r2, sp	@ tmp215,
 2849 002a 0632     		adds	r2, r2, #6	@ tmp129,
 2850 002c 1288     		ldrh	r2, [r2]	@ tmp130, timeOut
 2851 002e 1A80     		strh	r2, [r3]	@ tmp130, GSMSendSMSTimeOut
1023:src/sim900_800.c **** 			sprintf(&GSMSendSMSbuffAux[0], "AT+CMGS=\"");
 2852              		.loc 1 1023 0
 2853 0030 4A4A     		ldr	r2, .L208+12	@ tmp131,
 2854 0032 4B4B     		ldr	r3, .L208+16	@ tmp132,
 2855 0034 1000     		movs	r0, r2	@ tmp133, tmp131
 2856 0036 1900     		movs	r1, r3	@ tmp134, tmp132
 2857 0038 0A23     		movs	r3, #10	@ tmp135,
 2858 003a 1A00     		movs	r2, r3	@, tmp135
 2859 003c FFF7FEFF 		bl	memcpy	@
1024:src/sim900_800.c **** 			strcat(&GSMSendSMSbuffAux[0], ptrNUM);
 2860              		.loc 1 1024 0
 2861 0040 029A     		ldr	r2, [sp, #8]	@ tmp138, ptrNUM
 2862 0042 464B     		ldr	r3, .L208+12	@ tmp139,
 2863 0044 1100     		movs	r1, r2	@, tmp138
 2864 0046 1800     		movs	r0, r3	@, tmp139
 2865 0048 FFF7FEFF 		bl	strcat	@
1025:src/sim900_800.c **** 			strcat(&GSMSendSMSbuffAux[0], "\"\r\n");
 2866              		.loc 1 1025 0
 2867 004c 434B     		ldr	r3, .L208+12	@ tmp140,
 2868 004e 1800     		movs	r0, r3	@, tmp140
 2869 0050 FFF7FEFF 		bl	strlen	@
 2870 0054 0300     		movs	r3, r0	@ tmp141,
 2871 0056 1A00     		movs	r2, r3	@ D.7990, tmp142
 2872 0058 404B     		ldr	r3, .L208+12	@ tmp143,
 2873 005a D218     		adds	r2, r2, r3	@ D.7991, D.7990, tmp143
 2874 005c 414B     		ldr	r3, .L208+20	@ tmp144,
 2875 005e 1000     		movs	r0, r2	@ tmp145, D.7991
 2876 0060 1900     		movs	r1, r3	@ tmp146, tmp144
 2877 0062 0423     		movs	r3, #4	@ tmp147,
ARM GAS  /tmp/ccKua49E.s 			page 71


 2878 0064 1A00     		movs	r2, r3	@, tmp147
 2879 0066 FFF7FEFF 		bl	memcpy	@
1026:src/sim900_800.c **** 			GSMSendSMSState = 1;
 2880              		.loc 1 1026 0
 2881 006a 394B     		ldr	r3, .L208	@ tmp150,
 2882 006c 0122     		movs	r2, #1	@ tmp151,
 2883 006e 1A70     		strb	r2, [r3]	@ tmp152, GSMSendSMSState
1027:src/sim900_800.c **** 			break;
 2884              		.loc 1 1027 0
 2885 0070 5FE0     		b	.L198	@
 2886              	.L195:
1028:src/sim900_800.c **** 
1029:src/sim900_800.c **** 		case 1:
1030:src/sim900_800.c **** 			i = GSMSendCommand(&GSMSendSMSbuffAux[0], 1000, 0, &GSMbuffRtaCommand[0]);
 2887              		.loc 1 1030 0
 2888 0072 1724     		movs	r4, #23	@ tmp153,
 2889 0074 6C44     		add	r4, r4, sp	@ tmp153,
 2890 0076 3C4A     		ldr	r2, .L208+24	@ tmp154,
 2891 0078 FA23     		movs	r3, #250	@ tmp213,
 2892 007a 9900     		lsls	r1, r3, #2	@ tmp155, tmp213,
 2893 007c 3748     		ldr	r0, .L208+12	@ tmp156,
 2894 007e 1300     		movs	r3, r2	@, tmp154
 2895 0080 0022     		movs	r2, #0	@,
 2896 0082 FFF7FEFF 		bl	GSMSendCommand	@
 2897 0086 0300     		movs	r3, r0	@ tmp157,
 2898 0088 2370     		strb	r3, [r4]	@ tmp159, i
1031:src/sim900_800.c **** 
1032:src/sim900_800.c **** 			if (i == 2)
 2899              		.loc 1 1032 0
 2900 008a 1723     		movs	r3, #23	@ tmp160,
 2901 008c 6B44     		add	r3, r3, sp	@ tmp160,
 2902 008e 1B78     		ldrb	r3, [r3]	@ tmp161, i
 2903 0090 022B     		cmp	r3, #2	@ tmp161,
 2904 0092 1DD1     		bne	.L199	@,
1033:src/sim900_800.c **** 			{
1034:src/sim900_800.c **** 				GSMSendSMSbuffAux[0] = 0;
 2905              		.loc 1 1034 0
 2906 0094 314B     		ldr	r3, .L208+12	@ tmp162,
 2907 0096 0022     		movs	r2, #0	@ tmp163,
 2908 0098 1A70     		strb	r2, [r3]	@ tmp164, GSMSendSMSbuffAux
1035:src/sim900_800.c **** 				strcat(&GSMSendSMSbuffAux[0], ptrMSG);
 2909              		.loc 1 1035 0
 2910 009a 039A     		ldr	r2, [sp, #12]	@ tmp165, ptrMSG
 2911 009c 2F4B     		ldr	r3, .L208+12	@ tmp166,
 2912 009e 1100     		movs	r1, r2	@, tmp165
 2913 00a0 1800     		movs	r0, r3	@, tmp166
 2914 00a2 FFF7FEFF 		bl	strcat	@
1036:src/sim900_800.c **** 				strcat(&GSMSendSMSbuffAux[0], "\032");
 2915              		.loc 1 1036 0
 2916 00a6 2D4B     		ldr	r3, .L208+12	@ tmp167,
 2917 00a8 1800     		movs	r0, r3	@, tmp167
 2918 00aa FFF7FEFF 		bl	strlen	@
 2919 00ae 0300     		movs	r3, r0	@ tmp168,
 2920 00b0 1A00     		movs	r2, r3	@ D.7990, tmp169
 2921 00b2 2A4B     		ldr	r3, .L208+12	@ tmp170,
 2922 00b4 D218     		adds	r2, r2, r3	@ D.7991, D.7990, tmp170
 2923 00b6 2D4B     		ldr	r3, .L208+28	@ tmp171,
ARM GAS  /tmp/ccKua49E.s 			page 72


 2924 00b8 1000     		movs	r0, r2	@ tmp172, D.7991
 2925 00ba 1900     		movs	r1, r3	@ tmp173, tmp171
 2926 00bc 0223     		movs	r3, #2	@ tmp174,
 2927 00be 1A00     		movs	r2, r3	@, tmp174
 2928 00c0 FFF7FEFF 		bl	memcpy	@
1037:src/sim900_800.c **** 				GSMSendSMSState++;
 2929              		.loc 1 1037 0
 2930 00c4 224B     		ldr	r3, .L208	@ tmp177,
 2931 00c6 1B78     		ldrb	r3, [r3]	@ D.7988, GSMSendSMSState
 2932 00c8 0133     		adds	r3, r3, #1	@ tmp178,
 2933 00ca DAB2     		uxtb	r2, r3	@ D.7988, tmp178
 2934 00cc 204B     		ldr	r3, .L208	@ tmp179,
 2935 00ce 1A70     		strb	r2, [r3]	@ tmp180, GSMSendSMSState
 2936              	.L199:
1038:src/sim900_800.c **** 			}
1039:src/sim900_800.c **** 
1040:src/sim900_800.c **** 			if (i > 2)
 2937              		.loc 1 1040 0
 2938 00d0 1723     		movs	r3, #23	@ tmp181,
 2939 00d2 6B44     		add	r3, r3, sp	@ tmp181,
 2940 00d4 1B78     		ldrb	r3, [r3]	@ tmp182, i
 2941 00d6 022B     		cmp	r3, #2	@ tmp182,
 2942 00d8 28D9     		bls	.L206	@,
1041:src/sim900_800.c **** 			{
1042:src/sim900_800.c **** 				GSMSendSMSState = 0;
 2943              		.loc 1 1042 0
 2944 00da 1D4B     		ldr	r3, .L208	@ tmp183,
 2945 00dc 0022     		movs	r2, #0	@ tmp184,
 2946 00de 1A70     		strb	r2, [r3]	@ tmp185, GSMSendSMSState
1043:src/sim900_800.c **** 				return 2;
 2947              		.loc 1 1043 0
 2948 00e0 0223     		movs	r3, #2	@ D.7988,
 2949 00e2 31E0     		b	.L201	@
 2950              	.L196:
1044:src/sim900_800.c **** 			}
1045:src/sim900_800.c **** 			break;
1046:src/sim900_800.c **** 
1047:src/sim900_800.c **** 		case 2:
1048:src/sim900_800.c **** 			// i = GSMSendCommand(&GSMSendSMSbuffAux[0], 1000, 1, &GSMbuffRtaCommand[0]);
1049:src/sim900_800.c **** 			i = GSMSendCommand(&GSMSendSMSbuffAux[0], 1000, 0, &GSMbuffRtaCommand[0]);
 2951              		.loc 1 1049 0
 2952 00e4 1724     		movs	r4, #23	@ tmp186,
 2953 00e6 6C44     		add	r4, r4, sp	@ tmp186,
 2954 00e8 1F4A     		ldr	r2, .L208+24	@ tmp187,
 2955 00ea FA23     		movs	r3, #250	@ tmp212,
 2956 00ec 9900     		lsls	r1, r3, #2	@ tmp188, tmp212,
 2957 00ee 1B48     		ldr	r0, .L208+12	@ tmp189,
 2958 00f0 1300     		movs	r3, r2	@, tmp187
 2959 00f2 0022     		movs	r2, #0	@,
 2960 00f4 FFF7FEFF 		bl	GSMSendCommand	@
 2961 00f8 0300     		movs	r3, r0	@ tmp190,
 2962 00fa 2370     		strb	r3, [r4]	@ tmp192, i
1050:src/sim900_800.c **** 
1051:src/sim900_800.c **** 			if (i == 2)
 2963              		.loc 1 1051 0
 2964 00fc 1723     		movs	r3, #23	@ tmp193,
 2965 00fe 6B44     		add	r3, r3, sp	@ tmp193,
ARM GAS  /tmp/ccKua49E.s 			page 73


 2966 0100 1B78     		ldrb	r3, [r3]	@ tmp194, i
 2967 0102 022B     		cmp	r3, #2	@ tmp194,
 2968 0104 04D1     		bne	.L202	@,
1052:src/sim900_800.c **** 			{
1053:src/sim900_800.c **** 				GSMSendSMSState = 0;
 2969              		.loc 1 1053 0
 2970 0106 124B     		ldr	r3, .L208	@ tmp195,
 2971 0108 0022     		movs	r2, #0	@ tmp196,
 2972 010a 1A70     		strb	r2, [r3]	@ tmp197, GSMSendSMSState
1054:src/sim900_800.c **** 				return 1;
 2973              		.loc 1 1054 0
 2974 010c 0123     		movs	r3, #1	@ D.7988,
 2975 010e 1BE0     		b	.L201	@
 2976              	.L202:
1055:src/sim900_800.c **** 			}
1056:src/sim900_800.c **** 
1057:src/sim900_800.c **** 			if (i > 2)
 2977              		.loc 1 1057 0
 2978 0110 1723     		movs	r3, #23	@ tmp198,
 2979 0112 6B44     		add	r3, r3, sp	@ tmp198,
 2980 0114 1B78     		ldrb	r3, [r3]	@ tmp199, i
 2981 0116 022B     		cmp	r3, #2	@ tmp199,
 2982 0118 0AD9     		bls	.L207	@,
1058:src/sim900_800.c **** 			{
1059:src/sim900_800.c **** 				GSMSendSMSState = 0;
 2983              		.loc 1 1059 0
 2984 011a 0D4B     		ldr	r3, .L208	@ tmp200,
 2985 011c 0022     		movs	r2, #0	@ tmp201,
 2986 011e 1A70     		strb	r2, [r3]	@ tmp202, GSMSendSMSState
1060:src/sim900_800.c **** 				return 2;
 2987              		.loc 1 1060 0
 2988 0120 0223     		movs	r3, #2	@ D.7988,
 2989 0122 11E0     		b	.L201	@
 2990              	.L205:
1061:src/sim900_800.c **** 			}
1062:src/sim900_800.c **** 			break;
1063:src/sim900_800.c **** 
1064:src/sim900_800.c **** 		default:
1065:src/sim900_800.c **** 			GSMSendSMSState = 0;
 2991              		.loc 1 1065 0
 2992 0124 0A4B     		ldr	r3, .L208	@ tmp203,
 2993 0126 0022     		movs	r2, #0	@ tmp204,
 2994 0128 1A70     		strb	r2, [r3]	@ tmp205, GSMSendSMSState
1066:src/sim900_800.c **** 			break;
 2995              		.loc 1 1066 0
 2996 012a 02E0     		b	.L198	@
 2997              	.L206:
1045:src/sim900_800.c **** 
 2998              		.loc 1 1045 0
 2999 012c C046     		nop
 3000 012e 00E0     		b	.L198	@
 3001              	.L207:
1062:src/sim900_800.c **** 
 3002              		.loc 1 1062 0
 3003 0130 C046     		nop
 3004              	.L198:
1067:src/sim900_800.c **** 	}
ARM GAS  /tmp/ccKua49E.s 			page 74


1068:src/sim900_800.c **** 
1069:src/sim900_800.c **** 	if (GSMSendSMSTimeOut == 0)
 3005              		.loc 1 1069 0
 3006 0132 094B     		ldr	r3, .L208+8	@ tmp206,
 3007 0134 1B88     		ldrh	r3, [r3]	@ tmp207, GSMSendSMSTimeOut
 3008 0136 9BB2     		uxth	r3, r3	@ D.7992, tmp207
 3009 0138 002B     		cmp	r3, #0	@ D.7992,
 3010 013a 04D1     		bne	.L204	@,
1070:src/sim900_800.c **** 	{
1071:src/sim900_800.c **** 		GSMSendSMSState = 0;
 3011              		.loc 1 1071 0
 3012 013c 044B     		ldr	r3, .L208	@ tmp208,
 3013 013e 0022     		movs	r2, #0	@ tmp209,
 3014 0140 1A70     		strb	r2, [r3]	@ tmp210, GSMSendSMSState
1072:src/sim900_800.c **** 		return 3;
 3015              		.loc 1 1072 0
 3016 0142 0323     		movs	r3, #3	@ D.7988,
 3017 0144 00E0     		b	.L201	@
 3018              	.L204:
1073:src/sim900_800.c **** 	}
1074:src/sim900_800.c **** 
1075:src/sim900_800.c **** 	return 0;
 3019              		.loc 1 1075 0
 3020 0146 0023     		movs	r3, #0	@ D.7988,
 3021              	.L201:
1076:src/sim900_800.c **** }
 3022              		.loc 1 1076 0
 3023 0148 1800     		movs	r0, r3	@, <retval>
 3024 014a 06B0     		add	sp, sp, #24	@,,
 3025              		@ sp needed	@
 3026 014c 10BD     		pop	{r4, pc}
 3027              	.L209:
 3028 014e C046     		.align	2
 3029              	.L208:
 3030 0150 00000000 		.word	GSMSendSMSState
 3031 0154 00000000 		.word	GSMSendSMSFlag
 3032 0158 00000000 		.word	GSMSendSMSTimeOut
 3033 015c 00000000 		.word	GSMSendSMSbuffAux
 3034 0160 E8000000 		.word	.LC98
 3035 0164 F4000000 		.word	.LC100
 3036 0168 00000000 		.word	GSMbuffRtaCommand
 3037 016c F8000000 		.word	.LC103
 3038              		.cfi_endproc
 3039              	.LFE30:
 3040              		.size	GSMSendSMS, .-GSMSendSMS
 3041              		.section	.rodata
 3042 00fa 0000     		.align	2
 3043              	.LC110:
 3044 00fc 3030303A 		.ascii	"000: KAL,123456,100\015\012\000"
 3044      204B414C 
 3044      2C313233 
 3044      3435362C 
 3044      3130300D 
 3045 0112 0000     		.align	2
 3046              	.LC112:
 3047 0114 41542B43 		.ascii	"AT+CIPSTATUS\015\012\000"
 3047      49505354 
ARM GAS  /tmp/ccKua49E.s 			page 75


 3047      41545553 
 3047      0D0A00
 3048 0123 00       		.align	2
 3049              	.LC120:
 3050 0124 41542B43 		.ascii	"AT+CIPSTART=\"TCP\",\"\000"
 3050      49505354 
 3050      4152543D 
 3050      22544350 
 3050      222C2200 
 3051              		.align	2
 3052              	.LC122:
 3053 0138 222C2200 		.ascii	"\",\"\000"
 3054              		.align	2
 3055              	.LC128:
 3056 013c 434F4E4E 		.ascii	"CONNECTED\000"
 3056      45435445 
 3056      4400
 3057 0146 0000     		.align	2
 3058              	.LC130:
 3059 0148 50445020 		.ascii	"PDP DEACT\000"
 3059      44454143 
 3059      5400
 3060 0152 0000     		.align	2
 3061              	.LC132:
 3062 0154 41542B43 		.ascii	"AT+CPIN?\015\012\000"
 3062      50494E3F 
 3062      0D0A00
 3063 015f 00       		.align	2
 3064              	.LC134:
 3065 0160 2B435049 		.ascii	"+CPIN: READY\000"
 3065      4E3A2052 
 3065      45414459 
 3065      00
 3066 016d 000000   		.align	2
 3067              	.LC136:
 3068 0170 2B435049 		.ascii	"+CPINDS: READY\000"
 3068      4E44533A 
 3068      20524541 
 3068      445900
 3069 017f 00       		.align	2
 3070              	.LC138:
 3071 0180 41542B43 		.ascii	"AT+CREG?\015\012\000"
 3071      5245473F 
 3071      0D0A00
 3072 018b 00       		.align	2
 3073              	.LC140:
 3074 018c 2B435245 		.ascii	"+CREG: 0,1\000"
 3074      473A2030 
 3074      2C3100
 3075 0197 00       		.align	2
 3076              	.LC142:
 3077 0198 41542B43 		.ascii	"AT+CSQ\015\012\000"
 3077      53510D0A 
 3077      00
 3078 01a1 000000   		.align	2
 3079              	.LC144:
 3080 01a4 2B435351 		.ascii	"+CSQ:\000"
ARM GAS  /tmp/ccKua49E.s 			page 76


 3080      3A00
 3081 01aa 0000     		.align	2
 3082              	.LC147:
 3083 01ac 41542B43 		.ascii	"AT+CIPMODE=1\015\012\000"
 3083      49504D4F 
 3083      44453D31 
 3083      0D0A00
 3084 01bb 00       		.align	2
 3085              	.LC149:
 3086 01bc 41542B43 		.ascii	"AT+CGATT?\015\012\000"
 3086      47415454 
 3086      3F0D0A00 
 3087              		.align	2
 3088              	.LC151:
 3089 01c8 2B434741 		.ascii	"+CGATT:\000"
 3089      54543A00 
 3090              		.align	2
 3091              	.LC153:
 3092 01d0 41542B43 		.ascii	"AT+CGDCONT=1,\"IP\",\"\000"
 3092      4744434F 
 3092      4E543D31 
 3092      2C224950 
 3092      222C2200 
 3093              		.align	2
 3094              	.LC155:
 3095 01e4 41542B43 		.ascii	"AT+CSTT=\"\000"
 3095      5354543D 
 3095      2200
 3096 01ee 0000     		.align	2
 3097              	.LC157:
 3098 01f0 41542B43 		.ascii	"AT+CIICR\015\012\000"
 3098      49494352 
 3098      0D0A00
 3099 01fb 00       		.align	2
 3100              	.LC159:
 3101 01fc 41542B43 		.ascii	"AT+CIFSR\015\012\000"
 3101      49465352 
 3101      0D0A00
 3102              		.section	.text.GSMConfigGPRS,"ax",%progbits
 3103              		.align	2
 3104              		.global	GSMConfigGPRS
 3105              		.code	16
 3106              		.thumb_func
 3107              		.type	GSMConfigGPRS, %function
 3108              	GSMConfigGPRS:
 3109              	.LFB31:
1077:src/sim900_800.c **** 
1078:src/sim900_800.c **** //-----------------------------------------------------------------------//
1079:src/sim900_800.c **** //char GSMConfigGPRS (char *ptrAPN, char *ptrUSER, char *ptrKEY , unsigned char timeOut)
1080:src/sim900_800.c **** //-----------------------------------------------------------------------//
1081:src/sim900_800.c **** //char *ptrAPN "gprs.personal.com"
1082:src/sim900_800.c **** //char *ptrUSER ""
1083:src/sim900_800.c **** //char *ptrKEY  ""
1084:src/sim900_800.c **** //char *ptrIPAdd Para devolver la ip asignada.
1085:src/sim900_800.c **** //unsigned char timeOut x100mS
1086:src/sim900_800.c **** //char sim
1087:src/sim900_800.c **** //-----------------------------------------------------------------------//
ARM GAS  /tmp/ccKua49E.s 			page 77


1088:src/sim900_800.c **** //Wait:			1
1089:src/sim900_800.c **** //OK:			2
1090:src/sim900_800.c **** //ERR:			3
1091:src/sim900_800.c **** //TO:			4
1092:src/sim900_800.c **** //NO SIGNAL:	20
1093:src/sim900_800.c **** //-----------------------------------------------------------------------//
1094:src/sim900_800.c **** char GSMConfigGPRS (char sim, char *ptrAPN, char *ptrUSER, char *ptrKEY , char *ptrIPAdd, char *ptr
1095:src/sim900_800.c **** {
 3110              		.loc 1 1095 0
 3111              		.cfi_startproc
 3112 0000 10B5     		push	{r4, lr}	@
 3113              	.LCFI14:
 3114              		.cfi_def_cfa_offset 8
 3115              		.cfi_offset 4, -8
 3116              		.cfi_offset 14, -4
 3117 0002 86B0     		sub	sp, sp, #24	@,,
 3118              	.LCFI15:
 3119              		.cfi_def_cfa_offset 32
 3120 0004 0291     		str	r1, [sp, #8]	@ ptrAPN, ptrAPN
 3121 0006 0192     		str	r2, [sp, #4]	@ ptrUSER, ptrUSER
 3122 0008 0093     		str	r3, [sp]	@ ptrKEY, ptrKEY
 3123 000a 0F23     		movs	r3, #15	@ tmp190,
 3124 000c 6B44     		add	r3, r3, sp	@ tmp190,
 3125 000e 021C     		adds	r2, r0, #0	@ tmp191, tmp189
 3126 0010 1A70     		strb	r2, [r3]	@ tmp191, sim
1096:src/sim900_800.c **** 	unsigned char i;
1097:src/sim900_800.c **** 
1098:src/sim900_800.c **** 	switch(GSMConfigGPRSState)
 3127              		.loc 1 1098 0
 3128 0012 E14B     		ldr	r3, .L293	@ tmp192,
 3129 0014 1B78     		ldrb	r3, [r3]	@ D.8006, GSMConfigGPRSState
 3130 0016 102B     		cmp	r3, #16	@ D.8007,
 3131 0018 01D9     		bls	.LCB2406	@
 3132 001a 00F0FDFB 		bl	.L211	@far jump	@
 3133              	.LCB2406:
 3134 001e 9A00     		lsls	r2, r3, #2	@ tmp193, D.8007,
 3135 0020 DE4B     		ldr	r3, .L293+4	@ tmp195,
 3136 0022 D318     		adds	r3, r2, r3	@ tmp194, tmp193, tmp195
 3137 0024 1B68     		ldr	r3, [r3]	@ tmp196,
 3138 0026 9F46     		mov	pc, r3	@ tmp196
 3139              		.section	.rodata.GSMConfigGPRS,"a",%progbits
 3140              		.align	2
 3141              	.L213:
 3142 0000 28000000 		.word	.L212
 3143 0004 46000000 		.word	.L214
 3144 0008 88000000 		.word	.L215
 3145 000c CC000000 		.word	.L216
 3146 0010 CE020000 		.word	.L217
 3147 0014 3A030000 		.word	.L218
 3148 0018 00040000 		.word	.L219
 3149 001c 90040000 		.word	.L220
 3150 0020 D0040000 		.word	.L221
 3151 0024 76050000 		.word	.L222
 3152 0028 44060000 		.word	.L223
 3153 002c 7E060000 		.word	.L224
 3154 0030 B8060000 		.word	.L225
 3155 0034 FE060000 		.word	.L226
ARM GAS  /tmp/ccKua49E.s 			page 78


 3156 0038 38070000 		.word	.L227
 3157 003c 84070000 		.word	.L228
 3158 0040 DC070000 		.word	.L229
 3159              		.section	.text.GSMConfigGPRS
 3160              	.L212:
1099:src/sim900_800.c **** 	{
1100:src/sim900_800.c **** 
1101:src/sim900_800.c **** 		case 0:
1102:src/sim900_800.c **** 			GSMConfigGPRSTimeOut = timeOut;
 3161              		.loc 1 1102 0
 3162 0028 DD4B     		ldr	r3, .L293+8	@ tmp197,
 3163 002a 0BAA     		add	r2, sp, #44	@ tmp198,,
 3164 002c 1288     		ldrh	r2, [r2]	@ tmp199, timeOut
 3165 002e 1A80     		strh	r2, [r3]	@ tmp199, GSMConfigGPRSTimeOut
1103:src/sim900_800.c **** 			GSMConfigGPRSState++;
 3166              		.loc 1 1103 0
 3167 0030 D94B     		ldr	r3, .L293	@ tmp200,
 3168 0032 1B78     		ldrb	r3, [r3]	@ D.8006, GSMConfigGPRSState
 3169 0034 0133     		adds	r3, r3, #1	@ tmp201,
 3170 0036 DAB2     		uxtb	r2, r3	@ D.8006, tmp201
 3171 0038 D74B     		ldr	r3, .L293	@ tmp202,
 3172 003a 1A70     		strb	r2, [r3]	@ tmp203, GSMConfigGPRSState
1104:src/sim900_800.c **** 			GSMConfigGPRSflag = 1;
 3173              		.loc 1 1104 0
 3174 003c D94B     		ldr	r3, .L293+12	@ tmp204,
 3175 003e 0122     		movs	r2, #1	@ tmp205,
 3176 0040 1A70     		strb	r2, [r3]	@ tmp206, GSMConfigGPRSflag
1105:src/sim900_800.c **** 			break;
 3177              		.loc 1 1105 0
 3178 0042 00F008FC 		bl	.L230	@ far jump	@
 3179              	.L214:
1106:src/sim900_800.c **** 
1107:src/sim900_800.c **** 		case 1:
1108:src/sim900_800.c **** 			i = GSMSendCommand("000: KAL,123456,100\r\n", 20, 0, &GSMbuffRtaCommand[0]);
 3180              		.loc 1 1108 0
 3181 0046 1724     		movs	r4, #23	@ tmp207,
 3182 0048 6C44     		add	r4, r4, sp	@ tmp207,
 3183 004a D74B     		ldr	r3, .L293+16	@ tmp208,
 3184 004c D748     		ldr	r0, .L293+20	@ tmp209,
 3185 004e 0022     		movs	r2, #0	@,
 3186 0050 1421     		movs	r1, #20	@,
 3187 0052 FFF7FEFF 		bl	GSMSendCommand	@
 3188 0056 0300     		movs	r3, r0	@ tmp210,
 3189 0058 2370     		strb	r3, [r4]	@ tmp212, i
1109:src/sim900_800.c **** 
1110:src/sim900_800.c **** 			if (i == 2)
 3190              		.loc 1 1110 0
 3191 005a 1723     		movs	r3, #23	@ tmp213,
 3192 005c 6B44     		add	r3, r3, sp	@ tmp213,
 3193 005e 1B78     		ldrb	r3, [r3]	@ tmp214, i
 3194 0060 022B     		cmp	r3, #2	@ tmp214,
 3195 0062 05D1     		bne	.L231	@,
1111:src/sim900_800.c **** 			{
1112:src/sim900_800.c **** 				//Respondio ACK.
1113:src/sim900_800.c **** 				//Conectado.
1114:src/sim900_800.c **** 				GSMConfigGPRSState = 0;
 3196              		.loc 1 1114 0
ARM GAS  /tmp/ccKua49E.s 			page 79


 3197 0064 CC4B     		ldr	r3, .L293	@ tmp215,
 3198 0066 0022     		movs	r2, #0	@ tmp216,
 3199 0068 1A70     		strb	r2, [r3]	@ tmp217, GSMConfigGPRSState
1115:src/sim900_800.c **** 				return 2;
 3200              		.loc 1 1115 0
 3201 006a 0223     		movs	r3, #2	@ D.8006,
 3202 006c 00F0FDFB 		bl	.L232	@ far jump	@
 3203              	.L231:
1116:src/sim900_800.c **** 			}
1117:src/sim900_800.c **** 
1118:src/sim900_800.c **** 			if (i > 2)
 3204              		.loc 1 1118 0
 3205 0070 1723     		movs	r3, #23	@ tmp218,
 3206 0072 6B44     		add	r3, r3, sp	@ tmp218,
 3207 0074 1B78     		ldrb	r3, [r3]	@ tmp219, i
 3208 0076 022B     		cmp	r3, #2	@ tmp219,
 3209 0078 01D8     		bhi	.LCB2461	@
 3210 007a 00F0D1FB 		bl	.L279	@far jump	@
 3211              	.LCB2461:
1119:src/sim900_800.c **** 			{
1120:src/sim900_800.c **** 				//No conectado.
1121:src/sim900_800.c **** 				//Seleccionar Sim.
1122:src/sim900_800.c **** 				GSMConfigGPRSState = 15;
 3212              		.loc 1 1122 0
 3213 007e C64B     		ldr	r3, .L293	@ tmp220,
 3214 0080 0F22     		movs	r2, #15	@ tmp221,
 3215 0082 1A70     		strb	r2, [r3]	@ tmp222, GSMConfigGPRSState
1123:src/sim900_800.c **** 			}
1124:src/sim900_800.c **** 
1125:src/sim900_800.c **** 			break;
 3216              		.loc 1 1125 0
 3217 0084 00F0CCFB 		bl	.L279	@ far jump	@
 3218              	.L215:
1126:src/sim900_800.c **** 		case 2:
1127:src/sim900_800.c **** 
1128:src/sim900_800.c **** 			i = GSMSendCommand("AT+CIPSTATUS\r\n", 50, 0, &GSMbuffRtaCommand[0]);
 3219              		.loc 1 1128 0
 3220 0088 1724     		movs	r4, #23	@ tmp223,
 3221 008a 6C44     		add	r4, r4, sp	@ tmp223,
 3222 008c C64B     		ldr	r3, .L293+16	@ tmp224,
 3223 008e C848     		ldr	r0, .L293+24	@ tmp225,
 3224 0090 0022     		movs	r2, #0	@,
 3225 0092 3221     		movs	r1, #50	@,
 3226 0094 FFF7FEFF 		bl	GSMSendCommand	@
 3227 0098 0300     		movs	r3, r0	@ tmp226,
 3228 009a 2370     		strb	r3, [r4]	@ tmp228, i
1129:src/sim900_800.c **** 
1130:src/sim900_800.c **** 			if (i == 2)
 3229              		.loc 1 1130 0
 3230 009c 1723     		movs	r3, #23	@ tmp229,
 3231 009e 6B44     		add	r3, r3, sp	@ tmp229,
 3232 00a0 1B78     		ldrb	r3, [r3]	@ tmp230, i
 3233 00a2 022B     		cmp	r3, #2	@ tmp230,
 3234 00a4 05D1     		bne	.L234	@,
1131:src/sim900_800.c **** 			{
1132:src/sim900_800.c **** 				GSMConfigGPRSState++;
 3235              		.loc 1 1132 0
ARM GAS  /tmp/ccKua49E.s 			page 80


 3236 00a6 BC4B     		ldr	r3, .L293	@ tmp231,
 3237 00a8 1B78     		ldrb	r3, [r3]	@ D.8006, GSMConfigGPRSState
 3238 00aa 0133     		adds	r3, r3, #1	@ tmp232,
 3239 00ac DAB2     		uxtb	r2, r3	@ D.8006, tmp232
 3240 00ae BA4B     		ldr	r3, .L293	@ tmp233,
 3241 00b0 1A70     		strb	r2, [r3]	@ tmp234, GSMConfigGPRSState
 3242              	.L234:
1133:src/sim900_800.c **** 			}
1134:src/sim900_800.c **** 
1135:src/sim900_800.c **** 			if (i > 2)
 3243              		.loc 1 1135 0
 3244 00b2 1723     		movs	r3, #23	@ tmp235,
 3245 00b4 6B44     		add	r3, r3, sp	@ tmp235,
 3246 00b6 1B78     		ldrb	r3, [r3]	@ tmp236, i
 3247 00b8 022B     		cmp	r3, #2	@ tmp236,
 3248 00ba 01D8     		bhi	.LCB2495	@
 3249 00bc 00F0B2FB 		bl	.L280	@far jump	@
 3250              	.LCB2495:
1136:src/sim900_800.c **** 			{
1137:src/sim900_800.c **** 				GSMConfigGPRSState = 0;
 3251              		.loc 1 1137 0
 3252 00c0 B54B     		ldr	r3, .L293	@ tmp237,
 3253 00c2 0022     		movs	r2, #0	@ tmp238,
 3254 00c4 1A70     		strb	r2, [r3]	@ tmp239, GSMConfigGPRSState
1138:src/sim900_800.c **** 				return 3;
 3255              		.loc 1 1138 0
 3256 00c6 0323     		movs	r3, #3	@ D.8006,
 3257 00c8 00F0CFFB 		bl	.L232	@ far jump	@
 3258              	.L216:
1139:src/sim900_800.c **** 			}
1140:src/sim900_800.c **** 			break;
1141:src/sim900_800.c **** 		case 3:
1142:src/sim900_800.c **** 			if(GSMConfigGPRSflag == 2)
 3259              		.loc 1 1142 0
 3260 00cc B54B     		ldr	r3, .L293+12	@ tmp240,
 3261 00ce 1B78     		ldrb	r3, [r3]	@ D.8006, GSMConfigGPRSflag
 3262 00d0 022B     		cmp	r3, #2	@ D.8006,
 3263 00d2 01D0     		beq	.LCB2507	@
 3264 00d4 00F0A8FB 		bl	.L281	@far jump	@
 3265              	.LCB2507:
1143:src/sim900_800.c **** 			{
1144:src/sim900_800.c **** 				//const char GSM_IPINITIAL[] 		= "IP INITIAL";
1145:src/sim900_800.c **** 				if(!strncmp((const char *)&GSMbuffStatus[0], (const char *)&GSM_IPINITIAL[0], strlen((const cha
 3266              		.loc 1 1145 0
 3267 00d8 B649     		ldr	r1, .L293+28	@ tmp241,
 3268 00da B74B     		ldr	r3, .L293+32	@ tmp242,
 3269 00dc 0A22     		movs	r2, #10	@,
 3270 00de 1800     		movs	r0, r3	@, tmp242
 3271 00e0 FFF7FEFF 		bl	strncmp	@
 3272 00e4 031E     		subs	r3, r0, #0	@ D.8007,,
 3273 00e6 08D1     		bne	.L237	@,
1146:src/sim900_800.c **** 				{
1147:src/sim900_800.c **** 					GSMConfigGPRSState += 1;
 3274              		.loc 1 1147 0
 3275 00e8 AB4B     		ldr	r3, .L293	@ tmp243,
 3276 00ea 1B78     		ldrb	r3, [r3]	@ D.8006, GSMConfigGPRSState
 3277 00ec 0133     		adds	r3, r3, #1	@ tmp244,
ARM GAS  /tmp/ccKua49E.s 			page 81


 3278 00ee DAB2     		uxtb	r2, r3	@ D.8006, tmp244
 3279 00f0 A94B     		ldr	r3, .L293	@ tmp245,
 3280 00f2 1A70     		strb	r2, [r3]	@ tmp246, GSMConfigGPRSState
1148:src/sim900_800.c **** 					GSMConfigGPRSflag = 1;
 3281              		.loc 1 1148 0
 3282 00f4 AB4B     		ldr	r3, .L293+12	@ tmp247,
 3283 00f6 0122     		movs	r2, #1	@ tmp248,
 3284 00f8 1A70     		strb	r2, [r3]	@ tmp249, GSMConfigGPRSflag
 3285              	.L237:
1149:src/sim900_800.c **** 				}
1150:src/sim900_800.c **** 				//const char GSM_IPSTART[] 		= "IP START";
1151:src/sim900_800.c **** 				if(!strncmp((const char *)&GSMbuffStatus[0], (const char *)&GSM_IPSTART[0], strlen((const char 
 3286              		.loc 1 1151 0
 3287 00fa B049     		ldr	r1, .L293+36	@ tmp250,
 3288 00fc AE4B     		ldr	r3, .L293+32	@ tmp251,
 3289 00fe 0822     		movs	r2, #8	@,
 3290 0100 1800     		movs	r0, r3	@, tmp251
 3291 0102 FFF7FEFF 		bl	strncmp	@
 3292 0106 031E     		subs	r3, r0, #0	@ D.8007,,
 3293 0108 08D1     		bne	.L238	@,
1152:src/sim900_800.c **** 				{
1153:src/sim900_800.c **** 					GSMConfigGPRSState += 8;
 3294              		.loc 1 1153 0
 3295 010a A34B     		ldr	r3, .L293	@ tmp252,
 3296 010c 1B78     		ldrb	r3, [r3]	@ D.8006, GSMConfigGPRSState
 3297 010e 0833     		adds	r3, r3, #8	@ tmp253,
 3298 0110 DAB2     		uxtb	r2, r3	@ D.8006, tmp253
 3299 0112 A14B     		ldr	r3, .L293	@ tmp254,
 3300 0114 1A70     		strb	r2, [r3]	@ tmp255, GSMConfigGPRSState
1154:src/sim900_800.c **** 					GSMConfigGPRSflag = 1;
 3301              		.loc 1 1154 0
 3302 0116 A34B     		ldr	r3, .L293+12	@ tmp256,
 3303 0118 0122     		movs	r2, #1	@ tmp257,
 3304 011a 1A70     		strb	r2, [r3]	@ tmp258, GSMConfigGPRSflag
 3305              	.L238:
1155:src/sim900_800.c **** 				}
1156:src/sim900_800.c **** 				//const char GSM_IPGPRSACT[] 		= "IP GPRSACT";
1157:src/sim900_800.c **** 				if(!strncmp((const char *)&GSMbuffStatus[0], (const char *)&GSM_IPGPRSACT[0], strlen((const cha
 3306              		.loc 1 1157 0
 3307 011c A849     		ldr	r1, .L293+40	@ tmp259,
 3308 011e A64B     		ldr	r3, .L293+32	@ tmp260,
 3309 0120 0A22     		movs	r2, #10	@,
 3310 0122 1800     		movs	r0, r3	@, tmp260
 3311 0124 FFF7FEFF 		bl	strncmp	@
 3312 0128 031E     		subs	r3, r0, #0	@ D.8007,,
 3313 012a 08D1     		bne	.L239	@,
1158:src/sim900_800.c **** 				{
1159:src/sim900_800.c **** 					GSMConfigGPRSState += 9;
 3314              		.loc 1 1159 0
 3315 012c 9A4B     		ldr	r3, .L293	@ tmp261,
 3316 012e 1B78     		ldrb	r3, [r3]	@ D.8006, GSMConfigGPRSState
 3317 0130 0933     		adds	r3, r3, #9	@ tmp262,
 3318 0132 DAB2     		uxtb	r2, r3	@ D.8006, tmp262
 3319 0134 984B     		ldr	r3, .L293	@ tmp263,
 3320 0136 1A70     		strb	r2, [r3]	@ tmp264, GSMConfigGPRSState
1160:src/sim900_800.c **** 					GSMConfigGPRSflag = 1;
 3321              		.loc 1 1160 0
ARM GAS  /tmp/ccKua49E.s 			page 82


 3322 0138 9A4B     		ldr	r3, .L293+12	@ tmp265,
 3323 013a 0122     		movs	r2, #1	@ tmp266,
 3324 013c 1A70     		strb	r2, [r3]	@ tmp267, GSMConfigGPRSflag
 3325              	.L239:
1161:src/sim900_800.c **** 				}
1162:src/sim900_800.c **** 
1163:src/sim900_800.c **** 				//const char GSM_IPSTATUS[] 	= "IP STATUS";
1164:src/sim900_800.c **** 				if(!strncmp((const char *)&GSMbuffStatus[0], (const char *)&GSM_IPSTATUS[0], strlen((const char
 3326              		.loc 1 1164 0
 3327 013e A149     		ldr	r1, .L293+44	@ tmp268,
 3328 0140 9D4B     		ldr	r3, .L293+32	@ tmp269,
 3329 0142 0922     		movs	r2, #9	@,
 3330 0144 1800     		movs	r0, r3	@, tmp269
 3331 0146 FFF7FEFF 		bl	strncmp	@
 3332 014a 031E     		subs	r3, r0, #0	@ D.8007,,
 3333 014c 3AD1     		bne	.L240	@,
1165:src/sim900_800.c **** 				{
1166:src/sim900_800.c **** 					GSMConfigGPRSState += 10;
 3334              		.loc 1 1166 0
 3335 014e 924B     		ldr	r3, .L293	@ tmp270,
 3336 0150 1B78     		ldrb	r3, [r3]	@ D.8006, GSMConfigGPRSState
 3337 0152 0A33     		adds	r3, r3, #10	@ tmp271,
 3338 0154 DAB2     		uxtb	r2, r3	@ D.8006, tmp271
 3339 0156 904B     		ldr	r3, .L293	@ tmp272,
 3340 0158 1A70     		strb	r2, [r3]	@ tmp273, GSMConfigGPRSState
1167:src/sim900_800.c **** 					sprintf(&GSMbuffGPRSCommand[0], (const char*)"AT+CIPSTART=\"TCP\",\"");
 3341              		.loc 1 1167 0
 3342 015a 9B4A     		ldr	r2, .L293+48	@ tmp274,
 3343 015c 9B4B     		ldr	r3, .L293+52	@ tmp275,
 3344 015e 1000     		movs	r0, r2	@ tmp276, tmp274
 3345 0160 1900     		movs	r1, r3	@ tmp277, tmp275
 3346 0162 1423     		movs	r3, #20	@ tmp278,
 3347 0164 1A00     		movs	r2, r3	@, tmp278
 3348 0166 FFF7FEFF 		bl	memcpy	@
1168:src/sim900_800.c **** 					strcat(&GSMbuffGPRSCommand[0], ptrIPremote);
 3349              		.loc 1 1168 0
 3350 016a 099A     		ldr	r2, [sp, #36]	@ tmp281, ptrIPremote
 3351 016c 964B     		ldr	r3, .L293+48	@ tmp282,
 3352 016e 1100     		movs	r1, r2	@, tmp281
 3353 0170 1800     		movs	r0, r3	@, tmp282
 3354 0172 FFF7FEFF 		bl	strcat	@
1169:src/sim900_800.c **** 					strcat(&GSMbuffGPRSCommand[0], "\",\"");
 3355              		.loc 1 1169 0
 3356 0176 944B     		ldr	r3, .L293+48	@ tmp283,
 3357 0178 1800     		movs	r0, r3	@, tmp283
 3358 017a FFF7FEFF 		bl	strlen	@
 3359 017e 0300     		movs	r3, r0	@ tmp284,
 3360 0180 1A00     		movs	r2, r3	@ D.8008, tmp285
 3361 0182 914B     		ldr	r3, .L293+48	@ tmp286,
 3362 0184 D218     		adds	r2, r2, r3	@ D.8009, D.8008, tmp286
 3363 0186 924B     		ldr	r3, .L293+56	@ tmp287,
 3364 0188 1000     		movs	r0, r2	@ tmp288, D.8009
 3365 018a 1900     		movs	r1, r3	@ tmp289, tmp287
 3366 018c 0423     		movs	r3, #4	@ tmp290,
 3367 018e 1A00     		movs	r2, r3	@, tmp290
 3368 0190 FFF7FEFF 		bl	memcpy	@
1170:src/sim900_800.c **** 					strcat(&GSMbuffGPRSCommand[0], ptrPORTremote);
ARM GAS  /tmp/ccKua49E.s 			page 83


 3369              		.loc 1 1170 0
 3370 0194 0A9A     		ldr	r2, [sp, #40]	@ tmp293, ptrPORTremote
 3371 0196 8C4B     		ldr	r3, .L293+48	@ tmp294,
 3372 0198 1100     		movs	r1, r2	@, tmp293
 3373 019a 1800     		movs	r0, r3	@, tmp294
 3374 019c FFF7FEFF 		bl	strcat	@
1171:src/sim900_800.c **** 					strcat(&GSMbuffGPRSCommand[0], "\"\r\n");
 3375              		.loc 1 1171 0
 3376 01a0 894B     		ldr	r3, .L293+48	@ tmp295,
 3377 01a2 1800     		movs	r0, r3	@, tmp295
 3378 01a4 FFF7FEFF 		bl	strlen	@
 3379 01a8 0300     		movs	r3, r0	@ tmp296,
 3380 01aa 1A00     		movs	r2, r3	@ D.8008, tmp297
 3381 01ac 864B     		ldr	r3, .L293+48	@ tmp298,
 3382 01ae D218     		adds	r2, r2, r3	@ D.8009, D.8008, tmp298
 3383 01b0 884B     		ldr	r3, .L293+60	@ tmp299,
 3384 01b2 1000     		movs	r0, r2	@ tmp300, D.8009
 3385 01b4 1900     		movs	r1, r3	@ tmp301, tmp299
 3386 01b6 0423     		movs	r3, #4	@ tmp302,
 3387 01b8 1A00     		movs	r2, r3	@, tmp302
 3388 01ba FFF7FEFF 		bl	memcpy	@
1172:src/sim900_800.c **** 					GSMConfigGPRSflag = 1;
 3389              		.loc 1 1172 0
 3390 01be 794B     		ldr	r3, .L293+12	@ tmp305,
 3391 01c0 0122     		movs	r2, #1	@ tmp306,
 3392 01c2 1A70     		strb	r2, [r3]	@ tmp307, GSMConfigGPRSflag
 3393              	.L240:
1173:src/sim900_800.c **** 				}
1174:src/sim900_800.c **** 				//const char GSM_IPCONNECTING[] 	= "TCP CONNECTING";
1175:src/sim900_800.c **** 				if(!strncmp((const char *)&GSMbuffStatus[0], (const char *)&GSM_IPCONNECTING[0], strlen((const 
 3394              		.loc 1 1175 0
 3395 01c4 8449     		ldr	r1, .L293+64	@ tmp308,
 3396 01c6 7C4B     		ldr	r3, .L293+32	@ tmp309,
 3397 01c8 0E22     		movs	r2, #14	@,
 3398 01ca 1800     		movs	r0, r3	@, tmp309
 3399 01cc FFF7FEFF 		bl	strncmp	@
 3400 01d0 031E     		subs	r3, r0, #0	@ D.8007,,
 3401 01d2 08D1     		bne	.L241	@,
1176:src/sim900_800.c **** 				{
1177:src/sim900_800.c **** 					GSMConfigGPRSState -= 1;
 3402              		.loc 1 1177 0
 3403 01d4 704B     		ldr	r3, .L293	@ tmp310,
 3404 01d6 1B78     		ldrb	r3, [r3]	@ D.8006, GSMConfigGPRSState
 3405 01d8 013B     		subs	r3, r3, #1	@ tmp311,
 3406 01da DAB2     		uxtb	r2, r3	@ D.8006, tmp311
 3407 01dc 6E4B     		ldr	r3, .L293	@ tmp312,
 3408 01de 1A70     		strb	r2, [r3]	@ tmp313, GSMConfigGPRSState
1178:src/sim900_800.c **** 					GSMConfigGPRSflag = 1;
 3409              		.loc 1 1178 0
 3410 01e0 704B     		ldr	r3, .L293+12	@ tmp314,
 3411 01e2 0122     		movs	r2, #1	@ tmp315,
 3412 01e4 1A70     		strb	r2, [r3]	@ tmp316, GSMConfigGPRSflag
 3413              	.L241:
1179:src/sim900_800.c **** 				}
1180:src/sim900_800.c **** 				//const char GSM_IPCONNOK[] 		= "CONNECT OK";
1181:src/sim900_800.c **** 				if(!strncmp((const char *)&GSMbuffStatus[0], (const char *)&GSM_IPCONNOK[0], strlen((const char
 3414              		.loc 1 1181 0
ARM GAS  /tmp/ccKua49E.s 			page 84


 3415 01e6 7D49     		ldr	r1, .L293+68	@ tmp317,
 3416 01e8 734B     		ldr	r3, .L293+32	@ tmp318,
 3417 01ea 0A22     		movs	r2, #10	@,
 3418 01ec 1800     		movs	r0, r3	@, tmp318
 3419 01ee FFF7FEFF 		bl	strncmp	@
 3420 01f2 031E     		subs	r3, r0, #0	@ D.8007,,
 3421 01f4 04D1     		bne	.L242	@,
1182:src/sim900_800.c **** 				{
1183:src/sim900_800.c **** 					GSMConfigGPRSState = 0;
 3422              		.loc 1 1183 0
 3423 01f6 684B     		ldr	r3, .L293	@ tmp319,
 3424 01f8 0022     		movs	r2, #0	@ tmp320,
 3425 01fa 1A70     		strb	r2, [r3]	@ tmp321, GSMConfigGPRSState
1184:src/sim900_800.c **** 					return 2;
 3426              		.loc 1 1184 0
 3427 01fc 0223     		movs	r3, #2	@ D.8006,
 3428 01fe 34E3     		b	.L232	@
 3429              	.L242:
1185:src/sim900_800.c **** 				}
1186:src/sim900_800.c **** /*				//const char GSM_IPCONNFAIL[] 	= "CONNECT FAIL";
1187:src/sim900_800.c **** 				if(!strncmp((const char *)&GSMbuffStatus[0], (const char *)&GSM_IPCONNFAIL[0], strlen((const ch
1188:src/sim900_800.c **** 				{
1189:src/sim900_800.c **** 					GSMConfigGPRSState += 11;
1190:src/sim900_800.c **** 					GSMConfigGPRSflag = 1;
1191:src/sim900_800.c **** 				}
1192:src/sim900_800.c **** */
1193:src/sim900_800.c **** 				//const char GSM_IPCONNCLOSE[] 	= "TCP CLOSED";
1194:src/sim900_800.c **** 				if(!strncmp((const char *)&GSMbuffStatus[0], (const char *)&GSM_IPCONNCLOSE[0], strlen((const c
 3430              		.loc 1 1194 0
 3431 0200 7749     		ldr	r1, .L293+72	@ tmp322,
 3432 0202 6D4B     		ldr	r3, .L293+32	@ tmp323,
 3433 0204 0A22     		movs	r2, #10	@,
 3434 0206 1800     		movs	r0, r3	@, tmp323
 3435 0208 FFF7FEFF 		bl	strncmp	@
 3436 020c 031E     		subs	r3, r0, #0	@ D.8007,,
 3437 020e 3AD1     		bne	.L243	@,
1195:src/sim900_800.c **** 				{
1196:src/sim900_800.c **** 					GSMConfigGPRSState += 10;
 3438              		.loc 1 1196 0
 3439 0210 614B     		ldr	r3, .L293	@ tmp324,
 3440 0212 1B78     		ldrb	r3, [r3]	@ D.8006, GSMConfigGPRSState
 3441 0214 0A33     		adds	r3, r3, #10	@ tmp325,
 3442 0216 DAB2     		uxtb	r2, r3	@ D.8006, tmp325
 3443 0218 5F4B     		ldr	r3, .L293	@ tmp326,
 3444 021a 1A70     		strb	r2, [r3]	@ tmp327, GSMConfigGPRSState
1197:src/sim900_800.c **** 					sprintf(&GSMbuffGPRSCommand[0], (const char*)"AT+CIPSTART=\"TCP\",\"");
 3445              		.loc 1 1197 0
 3446 021c 6A4A     		ldr	r2, .L293+48	@ tmp328,
 3447 021e 6B4B     		ldr	r3, .L293+52	@ tmp329,
 3448 0220 1000     		movs	r0, r2	@ tmp330, tmp328
 3449 0222 1900     		movs	r1, r3	@ tmp331, tmp329
 3450 0224 1423     		movs	r3, #20	@ tmp332,
 3451 0226 1A00     		movs	r2, r3	@, tmp332
 3452 0228 FFF7FEFF 		bl	memcpy	@
1198:src/sim900_800.c **** 					strcat(&GSMbuffGPRSCommand[0], ptrIPremote);
 3453              		.loc 1 1198 0
 3454 022c 099A     		ldr	r2, [sp, #36]	@ tmp335, ptrIPremote
ARM GAS  /tmp/ccKua49E.s 			page 85


 3455 022e 664B     		ldr	r3, .L293+48	@ tmp336,
 3456 0230 1100     		movs	r1, r2	@, tmp335
 3457 0232 1800     		movs	r0, r3	@, tmp336
 3458 0234 FFF7FEFF 		bl	strcat	@
1199:src/sim900_800.c **** 					strcat(&GSMbuffGPRSCommand[0], "\",\"");
 3459              		.loc 1 1199 0
 3460 0238 634B     		ldr	r3, .L293+48	@ tmp337,
 3461 023a 1800     		movs	r0, r3	@, tmp337
 3462 023c FFF7FEFF 		bl	strlen	@
 3463 0240 0300     		movs	r3, r0	@ tmp338,
 3464 0242 1A00     		movs	r2, r3	@ D.8008, tmp339
 3465 0244 604B     		ldr	r3, .L293+48	@ tmp340,
 3466 0246 D218     		adds	r2, r2, r3	@ D.8009, D.8008, tmp340
 3467 0248 614B     		ldr	r3, .L293+56	@ tmp341,
 3468 024a 1000     		movs	r0, r2	@ tmp342, D.8009
 3469 024c 1900     		movs	r1, r3	@ tmp343, tmp341
 3470 024e 0423     		movs	r3, #4	@ tmp344,
 3471 0250 1A00     		movs	r2, r3	@, tmp344
 3472 0252 FFF7FEFF 		bl	memcpy	@
1200:src/sim900_800.c **** 					strcat(&GSMbuffGPRSCommand[0], ptrPORTremote);
 3473              		.loc 1 1200 0
 3474 0256 0A9A     		ldr	r2, [sp, #40]	@ tmp347, ptrPORTremote
 3475 0258 5B4B     		ldr	r3, .L293+48	@ tmp348,
 3476 025a 1100     		movs	r1, r2	@, tmp347
 3477 025c 1800     		movs	r0, r3	@, tmp348
 3478 025e FFF7FEFF 		bl	strcat	@
1201:src/sim900_800.c **** 					strcat(&GSMbuffGPRSCommand[0], "\"\r\n");
 3479              		.loc 1 1201 0
 3480 0262 594B     		ldr	r3, .L293+48	@ tmp349,
 3481 0264 1800     		movs	r0, r3	@, tmp349
 3482 0266 FFF7FEFF 		bl	strlen	@
 3483 026a 0300     		movs	r3, r0	@ tmp350,
 3484 026c 1A00     		movs	r2, r3	@ D.8008, tmp351
 3485 026e 564B     		ldr	r3, .L293+48	@ tmp352,
 3486 0270 D218     		adds	r2, r2, r3	@ D.8009, D.8008, tmp352
 3487 0272 584B     		ldr	r3, .L293+60	@ tmp353,
 3488 0274 1000     		movs	r0, r2	@ tmp354, D.8009
 3489 0276 1900     		movs	r1, r3	@ tmp355, tmp353
 3490 0278 0423     		movs	r3, #4	@ tmp356,
 3491 027a 1A00     		movs	r2, r3	@, tmp356
 3492 027c FFF7FEFF 		bl	memcpy	@
1202:src/sim900_800.c **** 					GSMConfigGPRSflag = 1;
 3493              		.loc 1 1202 0
 3494 0280 484B     		ldr	r3, .L293+12	@ tmp359,
 3495 0282 0122     		movs	r2, #1	@ tmp360,
 3496 0284 1A70     		strb	r2, [r3]	@ tmp361, GSMConfigGPRSflag
 3497              	.L243:
1203:src/sim900_800.c **** 				}
1204:src/sim900_800.c **** 
1205:src/sim900_800.c **** 				if(!strncmp((const char *)&GSMbuffStatus[0], (const char *)"CONNECTED", sizeof("CONNECTED") - 1
 3498              		.loc 1 1205 0
 3499 0286 5749     		ldr	r1, .L293+76	@ tmp362,
 3500 0288 4B4B     		ldr	r3, .L293+32	@ tmp363,
 3501 028a 0922     		movs	r2, #9	@,
 3502 028c 1800     		movs	r0, r3	@, tmp363
 3503 028e FFF7FEFF 		bl	strncmp	@
 3504 0292 031E     		subs	r3, r0, #0	@ D.8007,,
ARM GAS  /tmp/ccKua49E.s 			page 86


 3505 0294 08D1     		bne	.L244	@,
1206:src/sim900_800.c **** 				{
1207:src/sim900_800.c **** 					GSMConfigGPRSState += 11;
 3506              		.loc 1 1207 0
 3507 0296 404B     		ldr	r3, .L293	@ tmp364,
 3508 0298 1B78     		ldrb	r3, [r3]	@ D.8006, GSMConfigGPRSState
 3509 029a 0B33     		adds	r3, r3, #11	@ tmp365,
 3510 029c DAB2     		uxtb	r2, r3	@ D.8006, tmp365
 3511 029e 3E4B     		ldr	r3, .L293	@ tmp366,
 3512 02a0 1A70     		strb	r2, [r3]	@ tmp367, GSMConfigGPRSState
1208:src/sim900_800.c **** 					GSMConfigGPRSflag = 1;
 3513              		.loc 1 1208 0
 3514 02a2 404B     		ldr	r3, .L293+12	@ tmp368,
 3515 02a4 0122     		movs	r2, #1	@ tmp369,
 3516 02a6 1A70     		strb	r2, [r3]	@ tmp370, GSMConfigGPRSflag
 3517              	.L244:
1209:src/sim900_800.c **** 				}
1210:src/sim900_800.c **** 
1211:src/sim900_800.c **** 				if(!strncmp((const char *)&GSMbuffStatus[0], (const char *)"PDP DEACT", sizeof("PDP DEACT") - 1
 3518              		.loc 1 1211 0
 3519 02a8 4F49     		ldr	r1, .L293+80	@ tmp371,
 3520 02aa 434B     		ldr	r3, .L293+32	@ tmp372,
 3521 02ac 0922     		movs	r2, #9	@,
 3522 02ae 1800     		movs	r0, r3	@, tmp372
 3523 02b0 FFF7FEFF 		bl	strncmp	@
 3524 02b4 031E     		subs	r3, r0, #0	@ D.8007,,
 3525 02b6 00D0     		beq	.LCB2750	@
 3526 02b8 B6E2     		b	.L281	@long jump	@
 3527              	.LCB2750:
1212:src/sim900_800.c **** 				{
1213:src/sim900_800.c **** 					GSMConfigGPRSState += 13;
 3528              		.loc 1 1213 0
 3529 02ba 374B     		ldr	r3, .L293	@ tmp373,
 3530 02bc 1B78     		ldrb	r3, [r3]	@ D.8006, GSMConfigGPRSState
 3531 02be 0D33     		adds	r3, r3, #13	@ tmp374,
 3532 02c0 DAB2     		uxtb	r2, r3	@ D.8006, tmp374
 3533 02c2 354B     		ldr	r3, .L293	@ tmp375,
 3534 02c4 1A70     		strb	r2, [r3]	@ tmp376, GSMConfigGPRSState
1214:src/sim900_800.c **** 					GSMConfigGPRSflag = 1;
 3535              		.loc 1 1214 0
 3536 02c6 374B     		ldr	r3, .L293+12	@ tmp377,
 3537 02c8 0122     		movs	r2, #1	@ tmp378,
 3538 02ca 1A70     		strb	r2, [r3]	@ tmp379, GSMConfigGPRSflag
1215:src/sim900_800.c **** 				}
1216:src/sim900_800.c **** 			}
1217:src/sim900_800.c **** 			break;
 3539              		.loc 1 1217 0
 3540 02cc ACE2     		b	.L281	@
 3541              	.L217:
1218:src/sim900_800.c **** 
1219:src/sim900_800.c **** 		case 4:
1220:src/sim900_800.c **** 			i = GSMSendCommand("AT+CPIN?\r\n", 50, 1, &GSMbuffRtaCommand[0]);
 3542              		.loc 1 1220 0
 3543 02ce 1724     		movs	r4, #23	@ tmp380,
 3544 02d0 6C44     		add	r4, r4, sp	@ tmp380,
 3545 02d2 354B     		ldr	r3, .L293+16	@ tmp381,
 3546 02d4 4548     		ldr	r0, .L293+84	@ tmp382,
ARM GAS  /tmp/ccKua49E.s 			page 87


 3547 02d6 0122     		movs	r2, #1	@,
 3548 02d8 3221     		movs	r1, #50	@,
 3549 02da FFF7FEFF 		bl	GSMSendCommand	@
 3550 02de 0300     		movs	r3, r0	@ tmp383,
 3551 02e0 2370     		strb	r3, [r4]	@ tmp385, i
1221:src/sim900_800.c **** 
1222:src/sim900_800.c **** 			if (i == 2)
 3552              		.loc 1 1222 0
 3553 02e2 1723     		movs	r3, #23	@ tmp386,
 3554 02e4 6B44     		add	r3, r3, sp	@ tmp386,
 3555 02e6 1B78     		ldrb	r3, [r3]	@ tmp387, i
 3556 02e8 022B     		cmp	r3, #2	@ tmp387,
 3557 02ea 1BD1     		bne	.L245	@,
1223:src/sim900_800.c **** 			{
1224:src/sim900_800.c **** 				if ((!strncmp((const char *)&GSMbuffRtaCommand[0], (const char *)"+CPIN: READY", sizeof("+CPIN:
 3558              		.loc 1 1224 0
 3559 02ec 4049     		ldr	r1, .L293+88	@ tmp388,
 3560 02ee 2E4B     		ldr	r3, .L293+16	@ tmp389,
 3561 02f0 0C22     		movs	r2, #12	@,
 3562 02f2 1800     		movs	r0, r3	@, tmp389
 3563 02f4 FFF7FEFF 		bl	strncmp	@
 3564 02f8 031E     		subs	r3, r0, #0	@ D.8007,,
 3565 02fa 07D0     		beq	.L246	@,
 3566              		.loc 1 1224 0 is_stmt 0 discriminator 1
 3567 02fc 3D49     		ldr	r1, .L293+92	@ tmp390,
 3568 02fe 2A4B     		ldr	r3, .L293+16	@ tmp391,
 3569 0300 0E22     		movs	r2, #14	@,
 3570 0302 1800     		movs	r0, r3	@, tmp391
 3571 0304 FFF7FEFF 		bl	strncmp	@
 3572 0308 031E     		subs	r3, r0, #0	@ D.8007,,
 3573 030a 06D1     		bne	.L247	@,
 3574              	.L246:
1225:src/sim900_800.c **** 				{
1226:src/sim900_800.c **** 					GSMConfigGPRSState++;
 3575              		.loc 1 1226 0 is_stmt 1
 3576 030c 224B     		ldr	r3, .L293	@ tmp392,
 3577 030e 1B78     		ldrb	r3, [r3]	@ D.8006, GSMConfigGPRSState
 3578 0310 0133     		adds	r3, r3, #1	@ tmp393,
 3579 0312 DAB2     		uxtb	r2, r3	@ D.8006, tmp393
 3580 0314 204B     		ldr	r3, .L293	@ tmp394,
 3581 0316 1A70     		strb	r2, [r3]	@ tmp395, GSMConfigGPRSState
 3582 0318 04E0     		b	.L245	@
 3583              	.L247:
1227:src/sim900_800.c **** 				}
1228:src/sim900_800.c **** 				else
1229:src/sim900_800.c **** 				{
1230:src/sim900_800.c **** 					GSMConfigGPRSState = 0;
 3584              		.loc 1 1230 0
 3585 031a 1F4B     		ldr	r3, .L293	@ tmp396,
 3586 031c 0022     		movs	r2, #0	@ tmp397,
 3587 031e 1A70     		strb	r2, [r3]	@ tmp398, GSMConfigGPRSState
1231:src/sim900_800.c **** 					return 3;
 3588              		.loc 1 1231 0
 3589 0320 0323     		movs	r3, #3	@ D.8006,
 3590 0322 A2E2     		b	.L232	@
 3591              	.L245:
1232:src/sim900_800.c **** 				}
ARM GAS  /tmp/ccKua49E.s 			page 88


1233:src/sim900_800.c **** 			}
1234:src/sim900_800.c **** 
1235:src/sim900_800.c **** 			if (i > 2)
 3592              		.loc 1 1235 0
 3593 0324 1723     		movs	r3, #23	@ tmp399,
 3594 0326 6B44     		add	r3, r3, sp	@ tmp399,
 3595 0328 1B78     		ldrb	r3, [r3]	@ tmp400, i
 3596 032a 022B     		cmp	r3, #2	@ tmp400,
 3597 032c 00D8     		bhi	.LCB2817	@
 3598 032e 7DE2     		b	.L282	@long jump	@
 3599              	.LCB2817:
1236:src/sim900_800.c **** 			{
1237:src/sim900_800.c **** 				GSMConfigGPRSState = 0;
 3600              		.loc 1 1237 0
 3601 0330 194B     		ldr	r3, .L293	@ tmp401,
 3602 0332 0022     		movs	r2, #0	@ tmp402,
 3603 0334 1A70     		strb	r2, [r3]	@ tmp403, GSMConfigGPRSState
1238:src/sim900_800.c **** 				return 3;
 3604              		.loc 1 1238 0
 3605 0336 0323     		movs	r3, #3	@ D.8006,
 3606 0338 97E2     		b	.L232	@
 3607              	.L218:
1239:src/sim900_800.c **** 			}
1240:src/sim900_800.c **** 			break;
1241:src/sim900_800.c **** 
1242:src/sim900_800.c **** 		case 5:
1243:src/sim900_800.c **** 			i = GSMSendCommand("AT+CREG?\r\n", 50, 1, &GSMbuffRtaCommand[0]);
 3608              		.loc 1 1243 0
 3609 033a 1724     		movs	r4, #23	@ tmp404,
 3610 033c 6C44     		add	r4, r4, sp	@ tmp404,
 3611 033e 1A4B     		ldr	r3, .L293+16	@ tmp405,
 3612 0340 2D48     		ldr	r0, .L293+96	@ tmp406,
 3613 0342 0122     		movs	r2, #1	@,
 3614 0344 3221     		movs	r1, #50	@,
 3615 0346 FFF7FEFF 		bl	GSMSendCommand	@
 3616 034a 0300     		movs	r3, r0	@ tmp407,
 3617 034c 2370     		strb	r3, [r4]	@ tmp409, i
1244:src/sim900_800.c **** 
1245:src/sim900_800.c **** 			if (i == 2)
 3618              		.loc 1 1245 0
 3619 034e 1723     		movs	r3, #23	@ tmp410,
 3620 0350 6B44     		add	r3, r3, sp	@ tmp410,
 3621 0352 1B78     		ldrb	r3, [r3]	@ tmp411, i
 3622 0354 022B     		cmp	r3, #2	@ tmp411,
 3623 0356 13D1     		bne	.L249	@,
1246:src/sim900_800.c **** 			{
1247:src/sim900_800.c **** 				if (!strncmp((const char *)&GSMbuffRtaCommand[0], (const char *)"+CREG: 0,1", sizeof("+CREG: 0,
 3624              		.loc 1 1247 0
 3625 0358 2849     		ldr	r1, .L293+100	@ tmp412,
 3626 035a 134B     		ldr	r3, .L293+16	@ tmp413,
 3627 035c 0A22     		movs	r2, #10	@,
 3628 035e 1800     		movs	r0, r3	@, tmp413
 3629 0360 FFF7FEFF 		bl	strncmp	@
 3630 0364 031E     		subs	r3, r0, #0	@ D.8007,,
 3631 0366 06D1     		bne	.L250	@,
1248:src/sim900_800.c **** 				{
1249:src/sim900_800.c **** 					GSMConfigGPRSState++;
ARM GAS  /tmp/ccKua49E.s 			page 89


 3632              		.loc 1 1249 0
 3633 0368 0B4B     		ldr	r3, .L293	@ tmp414,
 3634 036a 1B78     		ldrb	r3, [r3]	@ D.8006, GSMConfigGPRSState
 3635 036c 0133     		adds	r3, r3, #1	@ tmp415,
 3636 036e DAB2     		uxtb	r2, r3	@ D.8006, tmp415
 3637 0370 094B     		ldr	r3, .L293	@ tmp416,
 3638 0372 1A70     		strb	r2, [r3]	@ tmp417, GSMConfigGPRSState
 3639 0374 04E0     		b	.L249	@
 3640              	.L250:
1250:src/sim900_800.c **** 				}
1251:src/sim900_800.c **** 				else
1252:src/sim900_800.c **** 				{
1253:src/sim900_800.c **** 					GSMConfigGPRSState = 0;
 3641              		.loc 1 1253 0
 3642 0376 084B     		ldr	r3, .L293	@ tmp418,
 3643 0378 0022     		movs	r2, #0	@ tmp419,
 3644 037a 1A70     		strb	r2, [r3]	@ tmp420, GSMConfigGPRSState
1254:src/sim900_800.c **** 					return 3;
 3645              		.loc 1 1254 0
 3646 037c 0323     		movs	r3, #3	@ D.8006,
 3647 037e 74E2     		b	.L232	@
 3648              	.L249:
1255:src/sim900_800.c **** 				}
1256:src/sim900_800.c **** 			}
1257:src/sim900_800.c **** 
1258:src/sim900_800.c **** 			if (i > 2)
 3649              		.loc 1 1258 0
 3650 0380 1723     		movs	r3, #23	@ tmp421,
 3651 0382 6B44     		add	r3, r3, sp	@ tmp421,
 3652 0384 1B78     		ldrb	r3, [r3]	@ tmp422, i
 3653 0386 022B     		cmp	r3, #2	@ tmp422,
 3654 0388 00D8     		bhi	.LCB2870	@
 3655 038a 51E2     		b	.L283	@long jump	@
 3656              	.LCB2870:
1259:src/sim900_800.c **** 			{
1260:src/sim900_800.c **** 				GSMConfigGPRSState = 0;
 3657              		.loc 1 1260 0
 3658 038c 024B     		ldr	r3, .L293	@ tmp423,
 3659 038e 0022     		movs	r2, #0	@ tmp424,
 3660 0390 1A70     		strb	r2, [r3]	@ tmp425, GSMConfigGPRSState
1261:src/sim900_800.c **** 				return 3;
 3661              		.loc 1 1261 0
 3662 0392 0323     		movs	r3, #3	@ D.8006,
 3663 0394 69E2     		b	.L232	@
 3664              	.L294:
 3665 0396 C046     		.align	2
 3666              	.L293:
 3667 0398 00000000 		.word	GSMConfigGPRSState
 3668 039c 00000000 		.word	.L213
 3669 03a0 00000000 		.word	GSMConfigGPRSTimeOut
 3670 03a4 00000000 		.word	GSMConfigGPRSflag
 3671 03a8 00000000 		.word	GSMbuffRtaCommand
 3672 03ac FC000000 		.word	.LC110
 3673 03b0 14010000 		.word	.LC112
 3674 03b4 00000000 		.word	GSM_IPINITIAL
 3675 03b8 00000000 		.word	GSMbuffStatus
 3676 03bc 00000000 		.word	GSM_IPSTART
ARM GAS  /tmp/ccKua49E.s 			page 90


 3677 03c0 00000000 		.word	GSM_IPGPRSACT
 3678 03c4 00000000 		.word	GSM_IPSTATUS
 3679 03c8 00000000 		.word	GSMbuffGPRSCommand
 3680 03cc 24010000 		.word	.LC120
 3681 03d0 38010000 		.word	.LC122
 3682 03d4 F4000000 		.word	.LC100
 3683 03d8 00000000 		.word	GSM_IPCONNECTING
 3684 03dc 00000000 		.word	GSM_IPCONNOK
 3685 03e0 00000000 		.word	GSM_IPCONNCLOSE
 3686 03e4 3C010000 		.word	.LC128
 3687 03e8 48010000 		.word	.LC130
 3688 03ec 54010000 		.word	.LC132
 3689 03f0 60010000 		.word	.LC134
 3690 03f4 70010000 		.word	.LC136
 3691 03f8 80010000 		.word	.LC138
 3692 03fc 8C010000 		.word	.LC140
 3693              	.L219:
1262:src/sim900_800.c **** 			}
1263:src/sim900_800.c **** 			break;
1264:src/sim900_800.c **** 		case 6:
1265:src/sim900_800.c **** 			i = GSMSendCommand("AT+CSQ\r\n", 50, 1, &GSMbuffRtaCommand[0]);
 3694              		.loc 1 1265 0
 3695 0400 1724     		movs	r4, #23	@ tmp426,
 3696 0402 6C44     		add	r4, r4, sp	@ tmp426,
 3697 0404 CF4B     		ldr	r3, .L295	@ tmp427,
 3698 0406 D048     		ldr	r0, .L295+4	@ tmp428,
 3699 0408 0122     		movs	r2, #1	@,
 3700 040a 3221     		movs	r1, #50	@,
 3701 040c FFF7FEFF 		bl	GSMSendCommand	@
 3702 0410 0300     		movs	r3, r0	@ tmp429,
 3703 0412 2370     		strb	r3, [r4]	@ tmp431, i
1266:src/sim900_800.c **** 
1267:src/sim900_800.c **** 			if (i == 2)
 3704              		.loc 1 1267 0
 3705 0414 1723     		movs	r3, #23	@ tmp432,
 3706 0416 6B44     		add	r3, r3, sp	@ tmp432,
 3707 0418 1B78     		ldrb	r3, [r3]	@ tmp433, i
 3708 041a 022B     		cmp	r3, #2	@ tmp433,
 3709 041c 2DD1     		bne	.L252	@,
1268:src/sim900_800.c **** 			{
1269:src/sim900_800.c **** 				if (!strncmp((const char *)&GSMbuffRtaCommand[0], (const char *)"+CSQ:", sizeof("+CSQ:") - 1))
 3710              		.loc 1 1269 0
 3711 041e CB49     		ldr	r1, .L295+8	@ tmp434,
 3712 0420 C84B     		ldr	r3, .L295	@ tmp435,
 3713 0422 0522     		movs	r2, #5	@,
 3714 0424 1800     		movs	r0, r3	@, tmp435
 3715 0426 FFF7FEFF 		bl	strncmp	@
 3716 042a 031E     		subs	r3, r0, #0	@ D.8007,,
 3717 042c 20D1     		bne	.L253	@,
1270:src/sim900_800.c **** 				{
1271:src/sim900_800.c **** 						GPRSrssi = ((GSMbuffRtaCommand[6] - 48) * 10 + ((GSMbuffRtaCommand[7] - 48)));
 3718              		.loc 1 1271 0
 3719 042e C54B     		ldr	r3, .L295	@ tmp436,
 3720 0430 9B79     		ldrb	r3, [r3, #6]	@ D.8006,
 3721 0432 303B     		subs	r3, r3, #48	@ D.8007,
 3722 0434 DBB2     		uxtb	r3, r3	@ D.8010, D.8007
 3723 0436 1A1C     		adds	r2, r3, #0	@ tmp438, tmp437
ARM GAS  /tmp/ccKua49E.s 			page 91


 3724 0438 9200     		lsls	r2, r2, #2	@ tmp439, tmp438,
 3725 043a D318     		adds	r3, r2, r3	@ tmp441, tmp440, tmp437
 3726 043c DB18     		adds	r3, r3, r3	@ tmp443, tmp442, tmp442
 3727 043e DAB2     		uxtb	r2, r3	@ D.8010, tmp441
 3728 0440 C04B     		ldr	r3, .L295	@ tmp444,
 3729 0442 DB79     		ldrb	r3, [r3, #7]	@ D.8006,
 3730 0444 D318     		adds	r3, r2, r3	@ tmp445, D.8010, D.8006
 3731 0446 DBB2     		uxtb	r3, r3	@ D.8010, tmp445
 3732 0448 303B     		subs	r3, r3, #48	@ tmp446,
 3733 044a DAB2     		uxtb	r2, r3	@ D.8010, tmp446
 3734 044c C04B     		ldr	r3, .L295+12	@ tmp447,
 3735 044e 1A70     		strb	r2, [r3]	@ tmp448, GPRSrssi
1272:src/sim900_800.c **** 
1273:src/sim900_800.c **** 						if (GPRSrssi != 99)
 3736              		.loc 1 1273 0
 3737 0450 BF4B     		ldr	r3, .L295+12	@ tmp449,
 3738 0452 1B78     		ldrb	r3, [r3]	@ D.8010, GPRSrssi
 3739 0454 632B     		cmp	r3, #99	@ D.8010,
 3740 0456 06D0     		beq	.L254	@,
1274:src/sim900_800.c **** 							GSMConfigGPRSState++;
 3741              		.loc 1 1274 0
 3742 0458 BE4B     		ldr	r3, .L295+16	@ tmp450,
 3743 045a 1B78     		ldrb	r3, [r3]	@ D.8006, GSMConfigGPRSState
 3744 045c 0133     		adds	r3, r3, #1	@ tmp451,
 3745 045e DAB2     		uxtb	r2, r3	@ D.8006, tmp451
 3746 0460 BC4B     		ldr	r3, .L295+16	@ tmp452,
 3747 0462 1A70     		strb	r2, [r3]	@ tmp453, GSMConfigGPRSState
 3748 0464 09E0     		b	.L252	@
 3749              	.L254:
1275:src/sim900_800.c **** 						else
1276:src/sim900_800.c **** 						{
1277:src/sim900_800.c **** 							GSMConfigGPRSState = 0;
 3750              		.loc 1 1277 0
 3751 0466 BB4B     		ldr	r3, .L295+16	@ tmp454,
 3752 0468 0022     		movs	r2, #0	@ tmp455,
 3753 046a 1A70     		strb	r2, [r3]	@ tmp456, GSMConfigGPRSState
1278:src/sim900_800.c **** 							return 20;
 3754              		.loc 1 1278 0
 3755 046c 1423     		movs	r3, #20	@ D.8006,
 3756 046e FCE1     		b	.L232	@
 3757              	.L253:
1279:src/sim900_800.c **** 						}
1280:src/sim900_800.c **** 				}
1281:src/sim900_800.c **** 				else
1282:src/sim900_800.c **** 				{
1283:src/sim900_800.c **** 					GSMConfigGPRSState = 0;
 3758              		.loc 1 1283 0
 3759 0470 B84B     		ldr	r3, .L295+16	@ tmp457,
 3760 0472 0022     		movs	r2, #0	@ tmp458,
 3761 0474 1A70     		strb	r2, [r3]	@ tmp459, GSMConfigGPRSState
1284:src/sim900_800.c **** 					return 3;
 3762              		.loc 1 1284 0
 3763 0476 0323     		movs	r3, #3	@ D.8006,
 3764 0478 F7E1     		b	.L232	@
 3765              	.L252:
1285:src/sim900_800.c **** 				}
1286:src/sim900_800.c **** 			}
ARM GAS  /tmp/ccKua49E.s 			page 92


1287:src/sim900_800.c **** 
1288:src/sim900_800.c **** 			if (i > 2)
 3766              		.loc 1 1288 0
 3767 047a 1723     		movs	r3, #23	@ tmp460,
 3768 047c 6B44     		add	r3, r3, sp	@ tmp460,
 3769 047e 1B78     		ldrb	r3, [r3]	@ tmp461, i
 3770 0480 022B     		cmp	r3, #2	@ tmp461,
 3771 0482 00D8     		bhi	.LCB2983	@
 3772 0484 D6E1     		b	.L284	@long jump	@
 3773              	.LCB2983:
1289:src/sim900_800.c **** 			{
1290:src/sim900_800.c **** 				GSMConfigGPRSState = 0;
 3774              		.loc 1 1290 0
 3775 0486 B34B     		ldr	r3, .L295+16	@ tmp462,
 3776 0488 0022     		movs	r2, #0	@ tmp463,
 3777 048a 1A70     		strb	r2, [r3]	@ tmp464, GSMConfigGPRSState
1291:src/sim900_800.c **** 				return 3;
 3778              		.loc 1 1291 0
 3779 048c 0323     		movs	r3, #3	@ D.8006,
 3780 048e ECE1     		b	.L232	@
 3781              	.L220:
1292:src/sim900_800.c **** 			}
1293:src/sim900_800.c **** 			break;
1294:src/sim900_800.c **** 		case 7:
1295:src/sim900_800.c **** 
1296:src/sim900_800.c **** 			i = GSMSendCommand("AT+CIPMODE=1\r\n", 50, 0, &GSMbuffRtaCommand[0]);
 3782              		.loc 1 1296 0
 3783 0490 1724     		movs	r4, #23	@ tmp465,
 3784 0492 6C44     		add	r4, r4, sp	@ tmp465,
 3785 0494 AB4B     		ldr	r3, .L295	@ tmp466,
 3786 0496 B048     		ldr	r0, .L295+20	@ tmp467,
 3787 0498 0022     		movs	r2, #0	@,
 3788 049a 3221     		movs	r1, #50	@,
 3789 049c FFF7FEFF 		bl	GSMSendCommand	@
 3790 04a0 0300     		movs	r3, r0	@ tmp468,
 3791 04a2 2370     		strb	r3, [r4]	@ tmp470, i
1297:src/sim900_800.c **** 
1298:src/sim900_800.c **** 			if (i == 2)
 3792              		.loc 1 1298 0
 3793 04a4 1723     		movs	r3, #23	@ tmp471,
 3794 04a6 6B44     		add	r3, r3, sp	@ tmp471,
 3795 04a8 1B78     		ldrb	r3, [r3]	@ tmp472, i
 3796 04aa 022B     		cmp	r3, #2	@ tmp472,
 3797 04ac 05D1     		bne	.L256	@,
1299:src/sim900_800.c **** 			{
1300:src/sim900_800.c **** 				GSMConfigGPRSState++;
 3798              		.loc 1 1300 0
 3799 04ae A94B     		ldr	r3, .L295+16	@ tmp473,
 3800 04b0 1B78     		ldrb	r3, [r3]	@ D.8006, GSMConfigGPRSState
 3801 04b2 0133     		adds	r3, r3, #1	@ tmp474,
 3802 04b4 DAB2     		uxtb	r2, r3	@ D.8006, tmp474
 3803 04b6 A74B     		ldr	r3, .L295+16	@ tmp475,
 3804 04b8 1A70     		strb	r2, [r3]	@ tmp476, GSMConfigGPRSState
 3805              	.L256:
1301:src/sim900_800.c **** 			}
1302:src/sim900_800.c **** 
1303:src/sim900_800.c **** 			if (i > 2)
ARM GAS  /tmp/ccKua49E.s 			page 93


 3806              		.loc 1 1303 0
 3807 04ba 1723     		movs	r3, #23	@ tmp477,
 3808 04bc 6B44     		add	r3, r3, sp	@ tmp477,
 3809 04be 1B78     		ldrb	r3, [r3]	@ tmp478, i
 3810 04c0 022B     		cmp	r3, #2	@ tmp478,
 3811 04c2 00D8     		bhi	.LCB3018	@
 3812 04c4 B8E1     		b	.L285	@long jump	@
 3813              	.LCB3018:
1304:src/sim900_800.c **** 			{
1305:src/sim900_800.c **** 				GSMConfigGPRSState = 0;
 3814              		.loc 1 1305 0
 3815 04c6 A34B     		ldr	r3, .L295+16	@ tmp479,
 3816 04c8 0022     		movs	r2, #0	@ tmp480,
 3817 04ca 1A70     		strb	r2, [r3]	@ tmp481, GSMConfigGPRSState
1306:src/sim900_800.c **** 				return 3;
 3818              		.loc 1 1306 0
 3819 04cc 0323     		movs	r3, #3	@ D.8006,
 3820 04ce CCE1     		b	.L232	@
 3821              	.L221:
1307:src/sim900_800.c **** 			}
1308:src/sim900_800.c **** 			break;
1309:src/sim900_800.c **** 
1310:src/sim900_800.c **** 		case 8:
1311:src/sim900_800.c **** 
1312:src/sim900_800.c **** 			i = GSMSendCommand("AT+CGATT?\r\n", 50, 1, &GSMbuffRtaCommand[0]);
 3822              		.loc 1 1312 0
 3823 04d0 1724     		movs	r4, #23	@ tmp482,
 3824 04d2 6C44     		add	r4, r4, sp	@ tmp482,
 3825 04d4 9B4B     		ldr	r3, .L295	@ tmp483,
 3826 04d6 A148     		ldr	r0, .L295+24	@ tmp484,
 3827 04d8 0122     		movs	r2, #1	@,
 3828 04da 3221     		movs	r1, #50	@,
 3829 04dc FFF7FEFF 		bl	GSMSendCommand	@
 3830 04e0 0300     		movs	r3, r0	@ tmp485,
 3831 04e2 2370     		strb	r3, [r4]	@ tmp487, i
1313:src/sim900_800.c **** 
1314:src/sim900_800.c **** 			if (i == 2)
 3832              		.loc 1 1314 0
 3833 04e4 1723     		movs	r3, #23	@ tmp488,
 3834 04e6 6B44     		add	r3, r3, sp	@ tmp488,
 3835 04e8 1B78     		ldrb	r3, [r3]	@ tmp489, i
 3836 04ea 022B     		cmp	r3, #2	@ tmp489,
 3837 04ec 38D1     		bne	.L258	@,
1315:src/sim900_800.c **** 			{
1316:src/sim900_800.c **** 				if(!strncmp((const char *)&GSMbuffRtaCommand[0], (const char *)"+CGATT:", sizeof("+CGATT:") - 1
 3838              		.loc 1 1316 0
 3839 04ee 9C49     		ldr	r1, .L295+28	@ tmp490,
 3840 04f0 944B     		ldr	r3, .L295	@ tmp491,
 3841 04f2 0722     		movs	r2, #7	@,
 3842 04f4 1800     		movs	r0, r3	@, tmp491
 3843 04f6 FFF7FEFF 		bl	strncmp	@
 3844 04fa 031E     		subs	r3, r0, #0	@ D.8007,,
 3845 04fc 30D1     		bne	.L258	@,
1317:src/sim900_800.c **** 				{
1318:src/sim900_800.c **** 					if (GSMbuffRtaCommand[8] == 49)
 3846              		.loc 1 1318 0
 3847 04fe 914B     		ldr	r3, .L295	@ tmp492,
ARM GAS  /tmp/ccKua49E.s 			page 94


 3848 0500 1B7A     		ldrb	r3, [r3, #8]	@ D.8006,
 3849 0502 312B     		cmp	r3, #49	@ D.8006,
 3850 0504 23D1     		bne	.L259	@,
1319:src/sim900_800.c **** 					{
1320:src/sim900_800.c **** 						GSMConfigGPRSState += 1;
 3851              		.loc 1 1320 0
 3852 0506 934B     		ldr	r3, .L295+16	@ tmp493,
 3853 0508 1B78     		ldrb	r3, [r3]	@ D.8006, GSMConfigGPRSState
 3854 050a 0133     		adds	r3, r3, #1	@ tmp494,
 3855 050c DAB2     		uxtb	r2, r3	@ D.8006, tmp494
 3856 050e 914B     		ldr	r3, .L295+16	@ tmp495,
 3857 0510 1A70     		strb	r2, [r3]	@ tmp496, GSMConfigGPRSState
1321:src/sim900_800.c **** 						sprintf(&GSMbuffGPRSCommand[0], (const char*)"AT+CGDCONT=1,\"IP\",\"");
 3858              		.loc 1 1321 0
 3859 0512 944A     		ldr	r2, .L295+32	@ tmp497,
 3860 0514 944B     		ldr	r3, .L295+36	@ tmp498,
 3861 0516 1000     		movs	r0, r2	@ tmp499, tmp497
 3862 0518 1900     		movs	r1, r3	@ tmp500, tmp498
 3863 051a 1423     		movs	r3, #20	@ tmp501,
 3864 051c 1A00     		movs	r2, r3	@, tmp501
 3865 051e FFF7FEFF 		bl	memcpy	@
1322:src/sim900_800.c **** 						strcat(&GSMbuffGPRSCommand[0], ptrAPN);
 3866              		.loc 1 1322 0
 3867 0522 029A     		ldr	r2, [sp, #8]	@ tmp504, ptrAPN
 3868 0524 8F4B     		ldr	r3, .L295+32	@ tmp505,
 3869 0526 1100     		movs	r1, r2	@, tmp504
 3870 0528 1800     		movs	r0, r3	@, tmp505
 3871 052a FFF7FEFF 		bl	strcat	@
1323:src/sim900_800.c **** 						strcat(&GSMbuffGPRSCommand[0], "\"\r\n");
 3872              		.loc 1 1323 0
 3873 052e 8D4B     		ldr	r3, .L295+32	@ tmp506,
 3874 0530 1800     		movs	r0, r3	@, tmp506
 3875 0532 FFF7FEFF 		bl	strlen	@
 3876 0536 0300     		movs	r3, r0	@ tmp507,
 3877 0538 1A00     		movs	r2, r3	@ D.8008, tmp508
 3878 053a 8A4B     		ldr	r3, .L295+32	@ tmp509,
 3879 053c D218     		adds	r2, r2, r3	@ D.8009, D.8008, tmp509
 3880 053e 8B4B     		ldr	r3, .L295+40	@ tmp510,
 3881 0540 1000     		movs	r0, r2	@ tmp511, D.8009
 3882 0542 1900     		movs	r1, r3	@ tmp512, tmp510
 3883 0544 0423     		movs	r3, #4	@ tmp513,
 3884 0546 1A00     		movs	r2, r3	@, tmp513
 3885 0548 FFF7FEFF 		bl	memcpy	@
 3886 054c 08E0     		b	.L258	@
 3887              	.L259:
1324:src/sim900_800.c **** 					}
1325:src/sim900_800.c **** 					else if (GSMbuffRtaCommand[8] == 48)
 3888              		.loc 1 1325 0
 3889 054e 7D4B     		ldr	r3, .L295	@ tmp516,
 3890 0550 1B7A     		ldrb	r3, [r3, #8]	@ D.8006,
 3891 0552 302B     		cmp	r3, #48	@ D.8006,
 3892 0554 04D1     		bne	.L258	@,
1326:src/sim900_800.c **** 					{
1327:src/sim900_800.c **** 						GSMConfigGPRSState = 0;
 3893              		.loc 1 1327 0
 3894 0556 7F4B     		ldr	r3, .L295+16	@ tmp517,
 3895 0558 0022     		movs	r2, #0	@ tmp518,
ARM GAS  /tmp/ccKua49E.s 			page 95


 3896 055a 1A70     		strb	r2, [r3]	@ tmp519, GSMConfigGPRSState
1328:src/sim900_800.c **** 						return 3;
 3897              		.loc 1 1328 0
 3898 055c 0323     		movs	r3, #3	@ D.8006,
 3899 055e 84E1     		b	.L232	@
 3900              	.L258:
1329:src/sim900_800.c **** 						//El modulo no se encuentra listo para conectar GPRS.
1330:src/sim900_800.c **** 					}
1331:src/sim900_800.c **** 				}
1332:src/sim900_800.c **** 			}
1333:src/sim900_800.c **** 
1334:src/sim900_800.c **** 			if (i > 2)
 3901              		.loc 1 1334 0
 3902 0560 1723     		movs	r3, #23	@ tmp520,
 3903 0562 6B44     		add	r3, r3, sp	@ tmp520,
 3904 0564 1B78     		ldrb	r3, [r3]	@ tmp521, i
 3905 0566 022B     		cmp	r3, #2	@ tmp521,
 3906 0568 00D8     		bhi	.LCB3104	@
 3907 056a 67E1     		b	.L286	@long jump	@
 3908              	.LCB3104:
1335:src/sim900_800.c **** 			{
1336:src/sim900_800.c **** 				GSMConfigGPRSState = 0;
 3909              		.loc 1 1336 0
 3910 056c 794B     		ldr	r3, .L295+16	@ tmp522,
 3911 056e 0022     		movs	r2, #0	@ tmp523,
 3912 0570 1A70     		strb	r2, [r3]	@ tmp524, GSMConfigGPRSState
1337:src/sim900_800.c **** 				return 3;
 3913              		.loc 1 1337 0
 3914 0572 0323     		movs	r3, #3	@ D.8006,
 3915 0574 79E1     		b	.L232	@
 3916              	.L222:
1338:src/sim900_800.c **** 			}
1339:src/sim900_800.c **** 
1340:src/sim900_800.c **** 			break;
1341:src/sim900_800.c **** 
1342:src/sim900_800.c **** 		case 9:
1343:src/sim900_800.c **** 
1344:src/sim900_800.c **** 			i = GSMSendCommand(&GSMbuffGPRSCommand[0], 50, 0, &GSMbuffRtaCommand[0]);
 3917              		.loc 1 1344 0
 3918 0576 1724     		movs	r4, #23	@ tmp525,
 3919 0578 6C44     		add	r4, r4, sp	@ tmp525,
 3920 057a 724B     		ldr	r3, .L295	@ tmp526,
 3921 057c 7948     		ldr	r0, .L295+32	@ tmp527,
 3922 057e 0022     		movs	r2, #0	@,
 3923 0580 3221     		movs	r1, #50	@,
 3924 0582 FFF7FEFF 		bl	GSMSendCommand	@
 3925 0586 0300     		movs	r3, r0	@ tmp528,
 3926 0588 2370     		strb	r3, [r4]	@ tmp530, i
1345:src/sim900_800.c **** 
1346:src/sim900_800.c **** 			if (i == 2)
 3927              		.loc 1 1346 0
 3928 058a 1723     		movs	r3, #23	@ tmp531,
 3929 058c 6B44     		add	r3, r3, sp	@ tmp531,
 3930 058e 1B78     		ldrb	r3, [r3]	@ tmp532, i
 3931 0590 022B     		cmp	r3, #2	@ tmp532,
 3932 0592 4CD1     		bne	.L261	@,
1347:src/sim900_800.c **** 			{
ARM GAS  /tmp/ccKua49E.s 			page 96


1348:src/sim900_800.c **** 				GSMConfigGPRSState++;
 3933              		.loc 1 1348 0
 3934 0594 6F4B     		ldr	r3, .L295+16	@ tmp533,
 3935 0596 1B78     		ldrb	r3, [r3]	@ D.8006, GSMConfigGPRSState
 3936 0598 0133     		adds	r3, r3, #1	@ tmp534,
 3937 059a DAB2     		uxtb	r2, r3	@ D.8006, tmp534
 3938 059c 6D4B     		ldr	r3, .L295+16	@ tmp535,
 3939 059e 1A70     		strb	r2, [r3]	@ tmp536, GSMConfigGPRSState
1349:src/sim900_800.c **** 				sprintf(&GSMbuffGPRSCommand[0], (const char*)"AT+CSTT=\"");
 3940              		.loc 1 1349 0
 3941 05a0 704A     		ldr	r2, .L295+32	@ tmp537,
 3942 05a2 734B     		ldr	r3, .L295+44	@ tmp538,
 3943 05a4 1000     		movs	r0, r2	@ tmp539, tmp537
 3944 05a6 1900     		movs	r1, r3	@ tmp540, tmp538
 3945 05a8 0A23     		movs	r3, #10	@ tmp541,
 3946 05aa 1A00     		movs	r2, r3	@, tmp541
 3947 05ac FFF7FEFF 		bl	memcpy	@
1350:src/sim900_800.c **** 				strcat(&GSMbuffGPRSCommand[0], ptrAPN);
 3948              		.loc 1 1350 0
 3949 05b0 029A     		ldr	r2, [sp, #8]	@ tmp544, ptrAPN
 3950 05b2 6C4B     		ldr	r3, .L295+32	@ tmp545,
 3951 05b4 1100     		movs	r1, r2	@, tmp544
 3952 05b6 1800     		movs	r0, r3	@, tmp545
 3953 05b8 FFF7FEFF 		bl	strcat	@
1351:src/sim900_800.c **** 				strcat(&GSMbuffGPRSCommand[0], "\",\"");
 3954              		.loc 1 1351 0
 3955 05bc 694B     		ldr	r3, .L295+32	@ tmp546,
 3956 05be 1800     		movs	r0, r3	@, tmp546
 3957 05c0 FFF7FEFF 		bl	strlen	@
 3958 05c4 0300     		movs	r3, r0	@ tmp547,
 3959 05c6 1A00     		movs	r2, r3	@ D.8008, tmp548
 3960 05c8 664B     		ldr	r3, .L295+32	@ tmp549,
 3961 05ca D218     		adds	r2, r2, r3	@ D.8009, D.8008, tmp549
 3962 05cc 694B     		ldr	r3, .L295+48	@ tmp550,
 3963 05ce 1000     		movs	r0, r2	@ tmp551, D.8009
 3964 05d0 1900     		movs	r1, r3	@ tmp552, tmp550
 3965 05d2 0423     		movs	r3, #4	@ tmp553,
 3966 05d4 1A00     		movs	r2, r3	@, tmp553
 3967 05d6 FFF7FEFF 		bl	memcpy	@
1352:src/sim900_800.c **** 				strcat(&GSMbuffGPRSCommand[0], ptrUSER);
 3968              		.loc 1 1352 0
 3969 05da 019A     		ldr	r2, [sp, #4]	@ tmp556, ptrUSER
 3970 05dc 614B     		ldr	r3, .L295+32	@ tmp557,
 3971 05de 1100     		movs	r1, r2	@, tmp556
 3972 05e0 1800     		movs	r0, r3	@, tmp557
 3973 05e2 FFF7FEFF 		bl	strcat	@
1353:src/sim900_800.c **** 				strcat(&GSMbuffGPRSCommand[0], "\",\"");
 3974              		.loc 1 1353 0
 3975 05e6 5F4B     		ldr	r3, .L295+32	@ tmp558,
 3976 05e8 1800     		movs	r0, r3	@, tmp558
 3977 05ea FFF7FEFF 		bl	strlen	@
 3978 05ee 0300     		movs	r3, r0	@ tmp559,
 3979 05f0 1A00     		movs	r2, r3	@ D.8008, tmp560
 3980 05f2 5C4B     		ldr	r3, .L295+32	@ tmp561,
 3981 05f4 D218     		adds	r2, r2, r3	@ D.8009, D.8008, tmp561
 3982 05f6 5F4B     		ldr	r3, .L295+48	@ tmp562,
 3983 05f8 1000     		movs	r0, r2	@ tmp563, D.8009
ARM GAS  /tmp/ccKua49E.s 			page 97


 3984 05fa 1900     		movs	r1, r3	@ tmp564, tmp562
 3985 05fc 0423     		movs	r3, #4	@ tmp565,
 3986 05fe 1A00     		movs	r2, r3	@, tmp565
 3987 0600 FFF7FEFF 		bl	memcpy	@
1354:src/sim900_800.c **** 				strcat(&GSMbuffGPRSCommand[0], ptrKEY);
 3988              		.loc 1 1354 0
 3989 0604 009A     		ldr	r2, [sp]	@ tmp568, ptrKEY
 3990 0606 574B     		ldr	r3, .L295+32	@ tmp569,
 3991 0608 1100     		movs	r1, r2	@, tmp568
 3992 060a 1800     		movs	r0, r3	@, tmp569
 3993 060c FFF7FEFF 		bl	strcat	@
1355:src/sim900_800.c **** 				strcat(&GSMbuffGPRSCommand[0], "\"\r\n");
 3994              		.loc 1 1355 0
 3995 0610 544B     		ldr	r3, .L295+32	@ tmp570,
 3996 0612 1800     		movs	r0, r3	@, tmp570
 3997 0614 FFF7FEFF 		bl	strlen	@
 3998 0618 0300     		movs	r3, r0	@ tmp571,
 3999 061a 1A00     		movs	r2, r3	@ D.8008, tmp572
 4000 061c 514B     		ldr	r3, .L295+32	@ tmp573,
 4001 061e D218     		adds	r2, r2, r3	@ D.8009, D.8008, tmp573
 4002 0620 524B     		ldr	r3, .L295+40	@ tmp574,
 4003 0622 1000     		movs	r0, r2	@ tmp575, D.8009
 4004 0624 1900     		movs	r1, r3	@ tmp576, tmp574
 4005 0626 0423     		movs	r3, #4	@ tmp577,
 4006 0628 1A00     		movs	r2, r3	@, tmp577
 4007 062a FFF7FEFF 		bl	memcpy	@
 4008              	.L261:
1356:src/sim900_800.c **** 			}
1357:src/sim900_800.c **** 
1358:src/sim900_800.c **** 			if (i > 2)
 4009              		.loc 1 1358 0
 4010 062e 1723     		movs	r3, #23	@ tmp580,
 4011 0630 6B44     		add	r3, r3, sp	@ tmp580,
 4012 0632 1B78     		ldrb	r3, [r3]	@ tmp581, i
 4013 0634 022B     		cmp	r3, #2	@ tmp581,
 4014 0636 00D8     		bhi	.LCB3200	@
 4015 0638 02E1     		b	.L287	@long jump	@
 4016              	.LCB3200:
1359:src/sim900_800.c **** 			{
1360:src/sim900_800.c **** 				GSMConfigGPRSState = 0;
 4017              		.loc 1 1360 0
 4018 063a 464B     		ldr	r3, .L295+16	@ tmp582,
 4019 063c 0022     		movs	r2, #0	@ tmp583,
 4020 063e 1A70     		strb	r2, [r3]	@ tmp584, GSMConfigGPRSState
1361:src/sim900_800.c **** 				return 3;
 4021              		.loc 1 1361 0
 4022 0640 0323     		movs	r3, #3	@ D.8006,
 4023 0642 12E1     		b	.L232	@
 4024              	.L223:
1362:src/sim900_800.c **** 			}
1363:src/sim900_800.c **** 			break;
1364:src/sim900_800.c **** 
1365:src/sim900_800.c **** 		case 10:
1366:src/sim900_800.c **** 
1367:src/sim900_800.c **** 			i = GSMSendCommand(&GSMbuffGPRSCommand[0], 50, 0, &GSMbuffRtaCommand[0]);
 4025              		.loc 1 1367 0
 4026 0644 1724     		movs	r4, #23	@ tmp585,
ARM GAS  /tmp/ccKua49E.s 			page 98


 4027 0646 6C44     		add	r4, r4, sp	@ tmp585,
 4028 0648 3E4B     		ldr	r3, .L295	@ tmp586,
 4029 064a 4648     		ldr	r0, .L295+32	@ tmp587,
 4030 064c 0022     		movs	r2, #0	@,
 4031 064e 3221     		movs	r1, #50	@,
 4032 0650 FFF7FEFF 		bl	GSMSendCommand	@
 4033 0654 0300     		movs	r3, r0	@ tmp588,
 4034 0656 2370     		strb	r3, [r4]	@ tmp590, i
1368:src/sim900_800.c **** 
1369:src/sim900_800.c **** 			if (i == 2)
 4035              		.loc 1 1369 0
 4036 0658 1723     		movs	r3, #23	@ tmp591,
 4037 065a 6B44     		add	r3, r3, sp	@ tmp591,
 4038 065c 1B78     		ldrb	r3, [r3]	@ tmp592, i
 4039 065e 022B     		cmp	r3, #2	@ tmp592,
 4040 0660 02D1     		bne	.L263	@,
1370:src/sim900_800.c **** 			{
1371:src/sim900_800.c **** 				GSMConfigGPRSState = 2;
 4041              		.loc 1 1371 0
 4042 0662 3C4B     		ldr	r3, .L295+16	@ tmp593,
 4043 0664 0222     		movs	r2, #2	@ tmp594,
 4044 0666 1A70     		strb	r2, [r3]	@ tmp595, GSMConfigGPRSState
 4045              	.L263:
1372:src/sim900_800.c **** 			}
1373:src/sim900_800.c **** 
1374:src/sim900_800.c **** 			if (i > 2)
 4046              		.loc 1 1374 0
 4047 0668 1723     		movs	r3, #23	@ tmp596,
 4048 066a 6B44     		add	r3, r3, sp	@ tmp596,
 4049 066c 1B78     		ldrb	r3, [r3]	@ tmp597, i
 4050 066e 022B     		cmp	r3, #2	@ tmp597,
 4051 0670 00D8     		bhi	.LCB3232	@
 4052 0672 E7E0     		b	.L288	@long jump	@
 4053              	.LCB3232:
1375:src/sim900_800.c **** 			{
1376:src/sim900_800.c **** 				GSMConfigGPRSState = 0;
 4054              		.loc 1 1376 0
 4055 0674 374B     		ldr	r3, .L295+16	@ tmp598,
 4056 0676 0022     		movs	r2, #0	@ tmp599,
 4057 0678 1A70     		strb	r2, [r3]	@ tmp600, GSMConfigGPRSState
1377:src/sim900_800.c **** 				return 3;
 4058              		.loc 1 1377 0
 4059 067a 0323     		movs	r3, #3	@ D.8006,
 4060 067c F5E0     		b	.L232	@
 4061              	.L224:
1378:src/sim900_800.c **** 			}
1379:src/sim900_800.c **** 			break;
1380:src/sim900_800.c **** 
1381:src/sim900_800.c **** 		case 11:
1382:src/sim900_800.c **** 			i = GSMSendCommand("AT+CIICR\r\n", 200, 0, &GSMbuffRtaCommand[0]);
 4062              		.loc 1 1382 0
 4063 067e 1724     		movs	r4, #23	@ tmp601,
 4064 0680 6C44     		add	r4, r4, sp	@ tmp601,
 4065 0682 304B     		ldr	r3, .L295	@ tmp602,
 4066 0684 3C48     		ldr	r0, .L295+52	@ tmp603,
 4067 0686 0022     		movs	r2, #0	@,
 4068 0688 C821     		movs	r1, #200	@,
ARM GAS  /tmp/ccKua49E.s 			page 99


 4069 068a FFF7FEFF 		bl	GSMSendCommand	@
 4070 068e 0300     		movs	r3, r0	@ tmp604,
 4071 0690 2370     		strb	r3, [r4]	@ tmp606, i
1383:src/sim900_800.c **** 
1384:src/sim900_800.c **** 			if (i == 2)
 4072              		.loc 1 1384 0
 4073 0692 1723     		movs	r3, #23	@ tmp607,
 4074 0694 6B44     		add	r3, r3, sp	@ tmp607,
 4075 0696 1B78     		ldrb	r3, [r3]	@ tmp608, i
 4076 0698 022B     		cmp	r3, #2	@ tmp608,
 4077 069a 02D1     		bne	.L265	@,
1385:src/sim900_800.c **** 			{
1386:src/sim900_800.c **** 				GSMConfigGPRSState = 2;
 4078              		.loc 1 1386 0
 4079 069c 2D4B     		ldr	r3, .L295+16	@ tmp609,
 4080 069e 0222     		movs	r2, #2	@ tmp610,
 4081 06a0 1A70     		strb	r2, [r3]	@ tmp611, GSMConfigGPRSState
 4082              	.L265:
1387:src/sim900_800.c **** 			}
1388:src/sim900_800.c **** 
1389:src/sim900_800.c **** 			if (i > 2)
 4083              		.loc 1 1389 0
 4084 06a2 1723     		movs	r3, #23	@ tmp612,
 4085 06a4 6B44     		add	r3, r3, sp	@ tmp612,
 4086 06a6 1B78     		ldrb	r3, [r3]	@ tmp613, i
 4087 06a8 022B     		cmp	r3, #2	@ tmp613,
 4088 06aa 00D8     		bhi	.LCB3264	@
 4089 06ac CCE0     		b	.L289	@long jump	@
 4090              	.LCB3264:
1390:src/sim900_800.c **** 			{
1391:src/sim900_800.c **** 				GSMConfigGPRSState = 0;
 4091              		.loc 1 1391 0
 4092 06ae 294B     		ldr	r3, .L295+16	@ tmp614,
 4093 06b0 0022     		movs	r2, #0	@ tmp615,
 4094 06b2 1A70     		strb	r2, [r3]	@ tmp616, GSMConfigGPRSState
1392:src/sim900_800.c **** 				return 3;
 4095              		.loc 1 1392 0
 4096 06b4 0323     		movs	r3, #3	@ D.8006,
 4097 06b6 D8E0     		b	.L232	@
 4098              	.L225:
1393:src/sim900_800.c **** 			}
1394:src/sim900_800.c **** 			break;
1395:src/sim900_800.c **** 
1396:src/sim900_800.c **** 		case 12:
1397:src/sim900_800.c **** 
1398:src/sim900_800.c **** 			GSMConfigGPRSflag = 3;
 4099              		.loc 1 1398 0
 4100 06b8 304B     		ldr	r3, .L295+56	@ tmp617,
 4101 06ba 0322     		movs	r2, #3	@ tmp618,
 4102 06bc 1A70     		strb	r2, [r3]	@ tmp619, GSMConfigGPRSflag
1399:src/sim900_800.c **** 			i = GSMSendCommand("AT+CIFSR\r\n", 50, 0, &GSMbuffRtaCommand[0]);
 4103              		.loc 1 1399 0
 4104 06be 1724     		movs	r4, #23	@ tmp620,
 4105 06c0 6C44     		add	r4, r4, sp	@ tmp620,
 4106 06c2 204B     		ldr	r3, .L295	@ tmp621,
 4107 06c4 2E48     		ldr	r0, .L295+60	@ tmp622,
 4108 06c6 0022     		movs	r2, #0	@,
ARM GAS  /tmp/ccKua49E.s 			page 100


 4109 06c8 3221     		movs	r1, #50	@,
 4110 06ca FFF7FEFF 		bl	GSMSendCommand	@
 4111 06ce 0300     		movs	r3, r0	@ tmp623,
 4112 06d0 2370     		strb	r3, [r4]	@ tmp625, i
1400:src/sim900_800.c **** 
1401:src/sim900_800.c **** 			if (i == 2)
 4113              		.loc 1 1401 0
 4114 06d2 1723     		movs	r3, #23	@ tmp626,
 4115 06d4 6B44     		add	r3, r3, sp	@ tmp626,
 4116 06d6 1B78     		ldrb	r3, [r3]	@ tmp627, i
 4117 06d8 022B     		cmp	r3, #2	@ tmp627,
 4118 06da 05D1     		bne	.L267	@,
1402:src/sim900_800.c **** 			{
1403:src/sim900_800.c **** 				GSMConfigGPRSState = 2;
 4119              		.loc 1 1403 0
 4120 06dc 1D4B     		ldr	r3, .L295+16	@ tmp628,
 4121 06de 0222     		movs	r2, #2	@ tmp629,
 4122 06e0 1A70     		strb	r2, [r3]	@ tmp630, GSMConfigGPRSState
1404:src/sim900_800.c **** 				GSMConfigGPRSflag = 1;
 4123              		.loc 1 1404 0
 4124 06e2 264B     		ldr	r3, .L295+56	@ tmp631,
 4125 06e4 0122     		movs	r2, #1	@ tmp632,
 4126 06e6 1A70     		strb	r2, [r3]	@ tmp633, GSMConfigGPRSflag
 4127              	.L267:
1405:src/sim900_800.c **** 			}
1406:src/sim900_800.c **** 
1407:src/sim900_800.c **** 			if (i > 2)
 4128              		.loc 1 1407 0
 4129 06e8 1723     		movs	r3, #23	@ tmp634,
 4130 06ea 6B44     		add	r3, r3, sp	@ tmp634,
 4131 06ec 1B78     		ldrb	r3, [r3]	@ tmp635, i
 4132 06ee 022B     		cmp	r3, #2	@ tmp635,
 4133 06f0 00D8     		bhi	.LCB3302	@
 4134 06f2 ABE0     		b	.L290	@long jump	@
 4135              	.LCB3302:
1408:src/sim900_800.c **** 			{
1409:src/sim900_800.c **** 				GSMConfigGPRSState = 0;
 4136              		.loc 1 1409 0
 4137 06f4 174B     		ldr	r3, .L295+16	@ tmp636,
 4138 06f6 0022     		movs	r2, #0	@ tmp637,
 4139 06f8 1A70     		strb	r2, [r3]	@ tmp638, GSMConfigGPRSState
1410:src/sim900_800.c **** 				return 3;
 4140              		.loc 1 1410 0
 4141 06fa 0323     		movs	r3, #3	@ D.8006,
 4142 06fc B5E0     		b	.L232	@
 4143              	.L226:
1411:src/sim900_800.c **** 			}
1412:src/sim900_800.c **** 			break;
1413:src/sim900_800.c **** 		case 13:
1414:src/sim900_800.c **** 
1415:src/sim900_800.c **** 			i = GSMSendCommand(&GSMbuffGPRSCommand[0], 50, 0, &GSMbuffRtaCommand[0]);
 4144              		.loc 1 1415 0
 4145 06fe 1724     		movs	r4, #23	@ tmp639,
 4146 0700 6C44     		add	r4, r4, sp	@ tmp639,
 4147 0702 104B     		ldr	r3, .L295	@ tmp640,
 4148 0704 1748     		ldr	r0, .L295+32	@ tmp641,
 4149 0706 0022     		movs	r2, #0	@,
ARM GAS  /tmp/ccKua49E.s 			page 101


 4150 0708 3221     		movs	r1, #50	@,
 4151 070a FFF7FEFF 		bl	GSMSendCommand	@
 4152 070e 0300     		movs	r3, r0	@ tmp642,
 4153 0710 2370     		strb	r3, [r4]	@ tmp644, i
1416:src/sim900_800.c **** 
1417:src/sim900_800.c **** 			if (i == 2)
 4154              		.loc 1 1417 0
 4155 0712 1723     		movs	r3, #23	@ tmp645,
 4156 0714 6B44     		add	r3, r3, sp	@ tmp645,
 4157 0716 1B78     		ldrb	r3, [r3]	@ tmp646, i
 4158 0718 022B     		cmp	r3, #2	@ tmp646,
 4159 071a 02D1     		bne	.L269	@,
1418:src/sim900_800.c **** 			{
1419:src/sim900_800.c **** 				GSMConfigGPRSState = 3;
 4160              		.loc 1 1419 0
 4161 071c 0D4B     		ldr	r3, .L295+16	@ tmp647,
 4162 071e 0322     		movs	r2, #3	@ tmp648,
 4163 0720 1A70     		strb	r2, [r3]	@ tmp649, GSMConfigGPRSState
 4164              	.L269:
1420:src/sim900_800.c **** 			}
1421:src/sim900_800.c **** 
1422:src/sim900_800.c **** 			if (i > 2)
 4165              		.loc 1 1422 0
 4166 0722 1723     		movs	r3, #23	@ tmp650,
 4167 0724 6B44     		add	r3, r3, sp	@ tmp650,
 4168 0726 1B78     		ldrb	r3, [r3]	@ tmp651, i
 4169 0728 022B     		cmp	r3, #2	@ tmp651,
 4170 072a 00D8     		bhi	.LCB3334	@
 4171 072c 90E0     		b	.L291	@long jump	@
 4172              	.LCB3334:
1423:src/sim900_800.c **** 			{
1424:src/sim900_800.c **** 				GSMConfigGPRSState = 0;
 4173              		.loc 1 1424 0
 4174 072e 094B     		ldr	r3, .L295+16	@ tmp652,
 4175 0730 0022     		movs	r2, #0	@ tmp653,
 4176 0732 1A70     		strb	r2, [r3]	@ tmp654, GSMConfigGPRSState
1425:src/sim900_800.c **** 				return 3;
 4177              		.loc 1 1425 0
 4178 0734 0323     		movs	r3, #3	@ D.8006,
 4179 0736 98E0     		b	.L232	@
 4180              	.L227:
1426:src/sim900_800.c **** 			}
1427:src/sim900_800.c **** 			break;
1428:src/sim900_800.c **** 
1429:src/sim900_800.c **** 		case 14:
1430:src/sim900_800.c **** 			GSMConfigGPRSState = 0;
 4181              		.loc 1 1430 0
 4182 0738 064B     		ldr	r3, .L295+16	@ tmp655,
 4183 073a 0022     		movs	r2, #0	@ tmp656,
 4184 073c 1A70     		strb	r2, [r3]	@ tmp657, GSMConfigGPRSState
1431:src/sim900_800.c **** 			return 2;
 4185              		.loc 1 1431 0
 4186 073e 0223     		movs	r3, #2	@ D.8006,
 4187 0740 93E0     		b	.L232	@
 4188              	.L296:
 4189 0742 C046     		.align	2
 4190              	.L295:
ARM GAS  /tmp/ccKua49E.s 			page 102


 4191 0744 00000000 		.word	GSMbuffRtaCommand
 4192 0748 98010000 		.word	.LC142
 4193 074c A4010000 		.word	.LC144
 4194 0750 00000000 		.word	GPRSrssi
 4195 0754 00000000 		.word	GSMConfigGPRSState
 4196 0758 AC010000 		.word	.LC147
 4197 075c BC010000 		.word	.LC149
 4198 0760 C8010000 		.word	.LC151
 4199 0764 00000000 		.word	GSMbuffGPRSCommand
 4200 0768 D0010000 		.word	.LC153
 4201 076c F4000000 		.word	.LC100
 4202 0770 E4010000 		.word	.LC155
 4203 0774 38010000 		.word	.LC122
 4204 0778 F0010000 		.word	.LC157
 4205 077c 00000000 		.word	GSMConfigGPRSflag
 4206 0780 FC010000 		.word	.LC159
 4207              	.L228:
1432:src/sim900_800.c **** 			break;
1433:src/sim900_800.c **** 
1434:src/sim900_800.c **** 		case 15:
1435:src/sim900_800.c **** 			if ((sim == 1) || (sim == 2))
 4208              		.loc 1 1435 0
 4209 0784 0F23     		movs	r3, #15	@ tmp658,
 4210 0786 6B44     		add	r3, r3, sp	@ tmp658,
 4211 0788 1B78     		ldrb	r3, [r3]	@ tmp659, sim
 4212 078a 012B     		cmp	r3, #1	@ tmp659,
 4213 078c 04D0     		beq	.L271	@,
 4214              		.loc 1 1435 0 is_stmt 0 discriminator 1
 4215 078e 0F23     		movs	r3, #15	@ tmp660,
 4216 0790 6B44     		add	r3, r3, sp	@ tmp660,
 4217 0792 1B78     		ldrb	r3, [r3]	@ tmp661, sim
 4218 0794 022B     		cmp	r3, #2	@ tmp661,
 4219 0796 1BD1     		bne	.L272	@,
 4220              	.L271:
1436:src/sim900_800.c **** 			{
1437:src/sim900_800.c **** 				i = GSM_SetSIM(sim);
 4221              		.loc 1 1437 0 is_stmt 1
 4222 0798 1724     		movs	r4, #23	@ tmp662,
 4223 079a 6C44     		add	r4, r4, sp	@ tmp662,
 4224 079c 0F23     		movs	r3, #15	@ tmp663,
 4225 079e 6B44     		add	r3, r3, sp	@ tmp663,
 4226 07a0 1B78     		ldrb	r3, [r3]	@ tmp664, sim
 4227 07a2 1800     		movs	r0, r3	@, tmp664
 4228 07a4 FFF7FEFF 		bl	GSM_SetSIM	@
 4229 07a8 0300     		movs	r3, r0	@ tmp665,
 4230 07aa 2370     		strb	r3, [r4]	@ tmp667, i
1438:src/sim900_800.c **** 
1439:src/sim900_800.c **** 				if (i == 2)
 4231              		.loc 1 1439 0
 4232 07ac 1723     		movs	r3, #23	@ tmp668,
 4233 07ae 6B44     		add	r3, r3, sp	@ tmp668,
 4234 07b0 1B78     		ldrb	r3, [r3]	@ tmp669, i
 4235 07b2 022B     		cmp	r3, #2	@ tmp669,
 4236 07b4 02D1     		bne	.L273	@,
1440:src/sim900_800.c **** 				{
1441:src/sim900_800.c **** 					GSMConfigGPRSState = 2;
 4237              		.loc 1 1441 0
ARM GAS  /tmp/ccKua49E.s 			page 103


 4238 07b6 2E4B     		ldr	r3, .L297	@ tmp670,
 4239 07b8 0222     		movs	r2, #2	@ tmp671,
 4240 07ba 1A70     		strb	r2, [r3]	@ tmp672, GSMConfigGPRSState
 4241              	.L273:
1442:src/sim900_800.c **** 				}
1443:src/sim900_800.c **** 
1444:src/sim900_800.c **** 				if (i>2)
 4242              		.loc 1 1444 0
 4243 07bc 1723     		movs	r3, #23	@ tmp673,
 4244 07be 6B44     		add	r3, r3, sp	@ tmp673,
 4245 07c0 1B78     		ldrb	r3, [r3]	@ tmp674, i
 4246 07c2 022B     		cmp	r3, #2	@ tmp674,
 4247 07c4 09D9     		bls	.L275	@,
1445:src/sim900_800.c **** 				{
1446:src/sim900_800.c **** 					GSMConfigGPRSState = 0;
 4248              		.loc 1 1446 0
 4249 07c6 2A4B     		ldr	r3, .L297	@ tmp675,
 4250 07c8 0022     		movs	r2, #0	@ tmp676,
 4251 07ca 1A70     		strb	r2, [r3]	@ tmp677, GSMConfigGPRSState
1447:src/sim900_800.c **** 					return 3;
 4252              		.loc 1 1447 0
 4253 07cc 0323     		movs	r3, #3	@ D.8006,
 4254 07ce 4CE0     		b	.L232	@
 4255              	.L272:
1448:src/sim900_800.c **** 				}
1449:src/sim900_800.c **** 			}
1450:src/sim900_800.c **** 			else
1451:src/sim900_800.c **** 			{
1452:src/sim900_800.c **** 				GSMConfigGPRSState = 0;
 4256              		.loc 1 1452 0
 4257 07d0 274B     		ldr	r3, .L297	@ tmp678,
 4258 07d2 0022     		movs	r2, #0	@ tmp679,
 4259 07d4 1A70     		strb	r2, [r3]	@ tmp680, GSMConfigGPRSState
1453:src/sim900_800.c **** 				return 3;
 4260              		.loc 1 1453 0
 4261 07d6 0323     		movs	r3, #3	@ D.8006,
 4262 07d8 47E0     		b	.L232	@
 4263              	.L275:
1454:src/sim900_800.c **** 			}
1455:src/sim900_800.c **** 
1456:src/sim900_800.c **** 			break;
 4264              		.loc 1 1456 0 discriminator 1
 4265 07da 3CE0     		b	.L230	@
 4266              	.L229:
1457:src/sim900_800.c **** 		case 16:
1458:src/sim900_800.c **** 
1459:src/sim900_800.c **** 			i = GSMSendCommand("AT+CIPSHUT\r\n", 50, 0, &GSMbuffRtaCommand[0]);
 4267              		.loc 1 1459 0
 4268 07dc 1724     		movs	r4, #23	@ tmp681,
 4269 07de 6C44     		add	r4, r4, sp	@ tmp681,
 4270 07e0 244B     		ldr	r3, .L297+4	@ tmp682,
 4271 07e2 2548     		ldr	r0, .L297+8	@ tmp683,
 4272 07e4 0022     		movs	r2, #0	@,
 4273 07e6 3221     		movs	r1, #50	@,
 4274 07e8 FFF7FEFF 		bl	GSMSendCommand	@
 4275 07ec 0300     		movs	r3, r0	@ tmp684,
 4276 07ee 2370     		strb	r3, [r4]	@ tmp686, i
ARM GAS  /tmp/ccKua49E.s 			page 104


1460:src/sim900_800.c **** 
1461:src/sim900_800.c **** 			if (i == 2)
 4277              		.loc 1 1461 0
 4278 07f0 1723     		movs	r3, #23	@ tmp687,
 4279 07f2 6B44     		add	r3, r3, sp	@ tmp687,
 4280 07f4 1B78     		ldrb	r3, [r3]	@ tmp688, i
 4281 07f6 022B     		cmp	r3, #2	@ tmp688,
 4282 07f8 04D1     		bne	.L276	@,
1462:src/sim900_800.c **** 			{
1463:src/sim900_800.c **** 				GSMConfigGPRSState = 0;
 4283              		.loc 1 1463 0
 4284 07fa 1D4B     		ldr	r3, .L297	@ tmp689,
 4285 07fc 0022     		movs	r2, #0	@ tmp690,
 4286 07fe 1A70     		strb	r2, [r3]	@ tmp691, GSMConfigGPRSState
1464:src/sim900_800.c **** 				return 3;
 4287              		.loc 1 1464 0
 4288 0800 0323     		movs	r3, #3	@ D.8006,
 4289 0802 32E0     		b	.L232	@
 4290              	.L276:
1465:src/sim900_800.c **** 			}
1466:src/sim900_800.c **** 
1467:src/sim900_800.c **** 			if (i > 2)
 4291              		.loc 1 1467 0
 4292 0804 1723     		movs	r3, #23	@ tmp692,
 4293 0806 6B44     		add	r3, r3, sp	@ tmp692,
 4294 0808 1B78     		ldrb	r3, [r3]	@ tmp693, i
 4295 080a 022B     		cmp	r3, #2	@ tmp693,
 4296 080c 22D9     		bls	.L292	@,
1468:src/sim900_800.c **** 			{
1469:src/sim900_800.c **** 				GSMConfigGPRSState = 0;
 4297              		.loc 1 1469 0
 4298 080e 184B     		ldr	r3, .L297	@ tmp694,
 4299 0810 0022     		movs	r2, #0	@ tmp695,
 4300 0812 1A70     		strb	r2, [r3]	@ tmp696, GSMConfigGPRSState
1470:src/sim900_800.c **** 				return 3;
 4301              		.loc 1 1470 0
 4302 0814 0323     		movs	r3, #3	@ D.8006,
 4303 0816 28E0     		b	.L232	@
 4304              	.L211:
1471:src/sim900_800.c **** 			}
1472:src/sim900_800.c **** 			break;
1473:src/sim900_800.c **** 		default:
1474:src/sim900_800.c **** 			GSMConfigGPRSState = 0;
 4305              		.loc 1 1474 0
 4306 0818 154B     		ldr	r3, .L297	@ tmp697,
 4307 081a 0022     		movs	r2, #0	@ tmp698,
 4308 081c 1A70     		strb	r2, [r3]	@ tmp699, GSMConfigGPRSState
1475:src/sim900_800.c **** 			break;
 4309              		.loc 1 1475 0
 4310 081e 1AE0     		b	.L230	@
 4311              	.L279:
1125:src/sim900_800.c **** 		case 2:
 4312              		.loc 1 1125 0
 4313 0820 C046     		nop
 4314 0822 18E0     		b	.L230	@
 4315              	.L280:
1140:src/sim900_800.c **** 		case 3:
ARM GAS  /tmp/ccKua49E.s 			page 105


 4316              		.loc 1 1140 0
 4317 0824 C046     		nop
 4318 0826 16E0     		b	.L230	@
 4319              	.L281:
1217:src/sim900_800.c **** 
 4320              		.loc 1 1217 0
 4321 0828 C046     		nop
 4322 082a 14E0     		b	.L230	@
 4323              	.L282:
1240:src/sim900_800.c **** 
 4324              		.loc 1 1240 0
 4325 082c C046     		nop
 4326 082e 12E0     		b	.L230	@
 4327              	.L283:
1263:src/sim900_800.c **** 		case 6:
 4328              		.loc 1 1263 0
 4329 0830 C046     		nop
 4330 0832 10E0     		b	.L230	@
 4331              	.L284:
1293:src/sim900_800.c **** 		case 7:
 4332              		.loc 1 1293 0
 4333 0834 C046     		nop
 4334 0836 0EE0     		b	.L230	@
 4335              	.L285:
1308:src/sim900_800.c **** 
 4336              		.loc 1 1308 0
 4337 0838 C046     		nop
 4338 083a 0CE0     		b	.L230	@
 4339              	.L286:
1340:src/sim900_800.c **** 
 4340              		.loc 1 1340 0
 4341 083c C046     		nop
 4342 083e 0AE0     		b	.L230	@
 4343              	.L287:
1363:src/sim900_800.c **** 
 4344              		.loc 1 1363 0
 4345 0840 C046     		nop
 4346 0842 08E0     		b	.L230	@
 4347              	.L288:
1379:src/sim900_800.c **** 
 4348              		.loc 1 1379 0
 4349 0844 C046     		nop
 4350 0846 06E0     		b	.L230	@
 4351              	.L289:
1394:src/sim900_800.c **** 
 4352              		.loc 1 1394 0
 4353 0848 C046     		nop
 4354 084a 04E0     		b	.L230	@
 4355              	.L290:
1412:src/sim900_800.c **** 		case 13:
 4356              		.loc 1 1412 0
 4357 084c C046     		nop
 4358 084e 02E0     		b	.L230	@
 4359              	.L291:
1427:src/sim900_800.c **** 
 4360              		.loc 1 1427 0
 4361 0850 C046     		nop
ARM GAS  /tmp/ccKua49E.s 			page 106


 4362 0852 00E0     		b	.L230	@
 4363              	.L292:
1472:src/sim900_800.c **** 		default:
 4364              		.loc 1 1472 0
 4365 0854 C046     		nop
 4366              	.L230:
1476:src/sim900_800.c **** 
1477:src/sim900_800.c **** 	}
1478:src/sim900_800.c **** 
1479:src/sim900_800.c **** 	if (GSMConfigGPRSTimeOut == 0)
 4367              		.loc 1 1479 0
 4368 0856 094B     		ldr	r3, .L297+12	@ tmp700,
 4369 0858 1B88     		ldrh	r3, [r3]	@ D.8011, GSMConfigGPRSTimeOut
 4370 085a 002B     		cmp	r3, #0	@ D.8011,
 4371 085c 04D1     		bne	.L278	@,
1480:src/sim900_800.c **** 	{
1481:src/sim900_800.c **** 		GSMConfigGPRSState = 0;
 4372              		.loc 1 1481 0
 4373 085e 044B     		ldr	r3, .L297	@ tmp701,
 4374 0860 0022     		movs	r2, #0	@ tmp702,
 4375 0862 1A70     		strb	r2, [r3]	@ tmp703, GSMConfigGPRSState
1482:src/sim900_800.c **** 		return 4;
 4376              		.loc 1 1482 0
 4377 0864 0423     		movs	r3, #4	@ D.8006,
 4378 0866 00E0     		b	.L232	@
 4379              	.L278:
1483:src/sim900_800.c **** 	}
1484:src/sim900_800.c **** 
1485:src/sim900_800.c **** 	return 1;
 4380              		.loc 1 1485 0
 4381 0868 0123     		movs	r3, #1	@ D.8006,
 4382              	.L232:
1486:src/sim900_800.c **** }
 4383              		.loc 1 1486 0
 4384 086a 1800     		movs	r0, r3	@, <retval>
 4385 086c 06B0     		add	sp, sp, #24	@,,
 4386              		@ sp needed	@
 4387 086e 10BD     		pop	{r4, pc}
 4388              	.L298:
 4389              		.align	2
 4390              	.L297:
 4391 0870 00000000 		.word	GSMConfigGPRSState
 4392 0874 00000000 		.word	GSMbuffRtaCommand
 4393 0878 14000000 		.word	.LC33
 4394 087c 00000000 		.word	GSMConfigGPRSTimeOut
 4395              		.cfi_endproc
 4396              	.LFE31:
 4397              		.size	GSMConfigGPRS, .-GSMConfigGPRS
 4398              		.section	.rodata
 4399 0207 00       		.align	2
 4400              	.LC163:
 4401 0208 41542B43 		.ascii	"AT+CDSDS=1\015\012\000"
 4401      44534453 
 4401      3D310D0A 
 4401      00
 4402 0215 000000   		.align	2
 4403              	.LC165:
ARM GAS  /tmp/ccKua49E.s 			page 107


 4404 0218 41542B43 		.ascii	"AT+CDSDS=2\015\012\000"
 4404      44534453 
 4404      3D320D0A 
 4404      00
 4405              		.section	.text.GSM_SetSIM,"ax",%progbits
 4406              		.align	2
 4407              		.global	GSM_SetSIM
 4408              		.code	16
 4409              		.thumb_func
 4410              		.type	GSM_SetSIM, %function
 4411              	GSM_SetSIM:
 4412              	.LFB32:
1487:src/sim900_800.c **** 
1488:src/sim900_800.c **** char GSM_SetSIM (unsigned char sim)
1489:src/sim900_800.c **** {
 4413              		.loc 1 1489 0
 4414              		.cfi_startproc
 4415 0000 10B5     		push	{r4, lr}	@
 4416              	.LCFI16:
 4417              		.cfi_def_cfa_offset 8
 4418              		.cfi_offset 4, -8
 4419              		.cfi_offset 14, -4
 4420 0002 84B0     		sub	sp, sp, #16	@,,
 4421              	.LCFI17:
 4422              		.cfi_def_cfa_offset 24
 4423 0004 0200     		movs	r2, r0	@ tmp112, sim
 4424 0006 6B46     		mov	r3, sp	@ tmp137,
 4425 0008 0733     		adds	r3, r3, #7	@ tmp113,
 4426 000a 1A70     		strb	r2, [r3]	@ tmp114, sim
1490:src/sim900_800.c **** 
1491:src/sim900_800.c **** 	unsigned char i;
1492:src/sim900_800.c **** 
1493:src/sim900_800.c **** 	if (sim == 1)
 4427              		.loc 1 1493 0
 4428 000c 6B46     		mov	r3, sp	@ tmp138,
 4429 000e 0733     		adds	r3, r3, #7	@ tmp115,
 4430 0010 1B78     		ldrb	r3, [r3]	@ tmp116, sim
 4431 0012 012B     		cmp	r3, #1	@ tmp116,
 4432 0014 0AD1     		bne	.L300	@,
1494:src/sim900_800.c **** 		i = GSMSendCommand("AT+CDSDS=1\r\n", 50, 0, &GSMbuffRtaCommand[0]);
 4433              		.loc 1 1494 0
 4434 0016 0F24     		movs	r4, #15	@ tmp117,
 4435 0018 6C44     		add	r4, r4, sp	@ tmp117,
 4436 001a 174B     		ldr	r3, .L306	@ tmp118,
 4437 001c 1748     		ldr	r0, .L306+4	@ tmp119,
 4438 001e 0022     		movs	r2, #0	@,
 4439 0020 3221     		movs	r1, #50	@,
 4440 0022 FFF7FEFF 		bl	GSMSendCommand	@
 4441 0026 0300     		movs	r3, r0	@ tmp120,
 4442 0028 2370     		strb	r3, [r4]	@ tmp122, i
 4443 002a 11E0     		b	.L301	@
 4444              	.L300:
1495:src/sim900_800.c **** 	else if (sim == 2)
 4445              		.loc 1 1495 0
 4446 002c 6B46     		mov	r3, sp	@ tmp140,
 4447 002e 0733     		adds	r3, r3, #7	@ tmp123,
 4448 0030 1B78     		ldrb	r3, [r3]	@ tmp124, sim
ARM GAS  /tmp/ccKua49E.s 			page 108


 4449 0032 022B     		cmp	r3, #2	@ tmp124,
 4450 0034 0AD1     		bne	.L302	@,
1496:src/sim900_800.c **** 		i = GSMSendCommand("AT+CDSDS=2\r\n", 50, 0, &GSMbuffRtaCommand[0]);
 4451              		.loc 1 1496 0
 4452 0036 0F24     		movs	r4, #15	@ tmp125,
 4453 0038 6C44     		add	r4, r4, sp	@ tmp125,
 4454 003a 0F4B     		ldr	r3, .L306	@ tmp126,
 4455 003c 1048     		ldr	r0, .L306+8	@ tmp127,
 4456 003e 0022     		movs	r2, #0	@,
 4457 0040 3221     		movs	r1, #50	@,
 4458 0042 FFF7FEFF 		bl	GSMSendCommand	@
 4459 0046 0300     		movs	r3, r0	@ tmp128,
 4460 0048 2370     		strb	r3, [r4]	@ tmp130, i
 4461 004a 01E0     		b	.L301	@
 4462              	.L302:
1497:src/sim900_800.c **** 	else
1498:src/sim900_800.c **** 		return 3;
 4463              		.loc 1 1498 0
 4464 004c 0323     		movs	r3, #3	@ D.8069,
 4465 004e 10E0     		b	.L303	@
 4466              	.L301:
1499:src/sim900_800.c **** 
1500:src/sim900_800.c **** 	if (i == 2)
 4467              		.loc 1 1500 0
 4468 0050 0F23     		movs	r3, #15	@ tmp131,
 4469 0052 6B44     		add	r3, r3, sp	@ tmp131,
 4470 0054 1B78     		ldrb	r3, [r3]	@ tmp132, i
 4471 0056 022B     		cmp	r3, #2	@ tmp132,
 4472 0058 01D1     		bne	.L304	@,
1501:src/sim900_800.c **** 	{
1502:src/sim900_800.c **** 		return 2;
 4473              		.loc 1 1502 0
 4474 005a 0223     		movs	r3, #2	@ D.8069,
 4475 005c 09E0     		b	.L303	@
 4476              	.L304:
1503:src/sim900_800.c **** 	}
1504:src/sim900_800.c **** 	if (i > 2)
 4477              		.loc 1 1504 0
 4478 005e 0F23     		movs	r3, #15	@ tmp133,
 4479 0060 6B44     		add	r3, r3, sp	@ tmp133,
 4480 0062 1B78     		ldrb	r3, [r3]	@ tmp134, i
 4481 0064 022B     		cmp	r3, #2	@ tmp134,
 4482 0066 03D9     		bls	.L305	@,
1505:src/sim900_800.c **** 	{
1506:src/sim900_800.c **** 		return i;
 4483              		.loc 1 1506 0
 4484 0068 0F23     		movs	r3, #15	@ tmp135,
 4485 006a 6B44     		add	r3, r3, sp	@ tmp135,
 4486 006c 1B78     		ldrb	r3, [r3]	@ D.8069, i
 4487 006e 00E0     		b	.L303	@
 4488              	.L305:
1507:src/sim900_800.c **** 	}
1508:src/sim900_800.c **** 
1509:src/sim900_800.c **** 	return 1;
 4489              		.loc 1 1509 0
 4490 0070 0123     		movs	r3, #1	@ D.8069,
 4491              	.L303:
ARM GAS  /tmp/ccKua49E.s 			page 109


1510:src/sim900_800.c **** }
 4492              		.loc 1 1510 0
 4493 0072 1800     		movs	r0, r3	@, <retval>
 4494 0074 04B0     		add	sp, sp, #16	@,,
 4495              		@ sp needed	@
 4496 0076 10BD     		pop	{r4, pc}
 4497              	.L307:
 4498              		.align	2
 4499              	.L306:
 4500 0078 00000000 		.word	GSMbuffRtaCommand
 4501 007c 08020000 		.word	.LC163
 4502 0080 18020000 		.word	.LC165
 4503              		.cfi_endproc
 4504              	.LFE32:
 4505              		.size	GSM_SetSIM, .-GSM_SetSIM
 4506              		.section	.rodata
 4507 0225 000000   		.align	2
 4508              	.LC171:
 4509 0228 41542B43 		.ascii	"AT+CIPSEND\015\012\000"
 4509      49505345 
 4509      4E440D0A 
 4509      00
 4510              		.section	.text.GSMSendIP,"ax",%progbits
 4511              		.align	2
 4512              		.global	GSMSendIP
 4513              		.code	16
 4514              		.thumb_func
 4515              		.type	GSMSendIP, %function
 4516              	GSMSendIP:
 4517              	.LFB33:
1511:src/sim900_800.c **** 
1512:src/sim900_800.c **** char GSMSendIP (char *ptrMSG, unsigned short timeOut)
1513:src/sim900_800.c **** {
 4518              		.loc 1 1513 0
 4519              		.cfi_startproc
 4520 0000 10B5     		push	{r4, lr}	@
 4521              	.LCFI18:
 4522              		.cfi_def_cfa_offset 8
 4523              		.cfi_offset 4, -8
 4524              		.cfi_offset 14, -4
 4525 0002 84B0     		sub	sp, sp, #16	@,,
 4526              	.LCFI19:
 4527              		.cfi_def_cfa_offset 24
 4528 0004 0190     		str	r0, [sp, #4]	@ ptrMSG, ptrMSG
 4529 0006 0A00     		movs	r2, r1	@ tmp121, timeOut
 4530 0008 6B46     		mov	r3, sp	@ tmp192,
 4531 000a 0233     		adds	r3, r3, #2	@ tmp122,
 4532 000c 1A80     		strh	r2, [r3]	@ tmp123, timeOut
1514:src/sim900_800.c **** 	unsigned char i;
1515:src/sim900_800.c **** 
1516:src/sim900_800.c **** 	switch(GSMSendIPState)
 4533              		.loc 1 1516 0
 4534 000e 404B     		ldr	r3, .L323	@ tmp124,
 4535 0010 1B78     		ldrb	r3, [r3]	@ D.8072, GSMSendIPState
 4536 0012 012B     		cmp	r3, #1	@ D.8073,
 4537 0014 12D0     		beq	.L310	@,
 4538 0016 022B     		cmp	r3, #2	@ D.8073,
ARM GAS  /tmp/ccKua49E.s 			page 110


 4539 0018 47D0     		beq	.L311	@,
 4540 001a 002B     		cmp	r3, #0	@ D.8073,
 4541 001c 63D1     		bne	.L320	@,
1517:src/sim900_800.c **** 	{
1518:src/sim900_800.c **** 		case 0:
1519:src/sim900_800.c **** 			GSMSendIPFlag = 0;
 4542              		.loc 1 1519 0
 4543 001e 3D4B     		ldr	r3, .L323+4	@ tmp125,
 4544 0020 0022     		movs	r2, #0	@ tmp126,
 4545 0022 1A70     		strb	r2, [r3]	@ tmp127, GSMSendIPFlag
1520:src/sim900_800.c **** 			GSMSendIPTimeOut = timeOut;
 4546              		.loc 1 1520 0
 4547 0024 3C4B     		ldr	r3, .L323+8	@ tmp128,
 4548 0026 6A46     		mov	r2, sp	@ tmp193,
 4549 0028 0232     		adds	r2, r2, #2	@ tmp129,
 4550 002a 1288     		ldrh	r2, [r2]	@ tmp130, timeOut
 4551 002c 1A80     		strh	r2, [r3]	@ tmp130, GSMSendIPTimeOut
1521:src/sim900_800.c **** 			GSMSendIPState++;
 4552              		.loc 1 1521 0
 4553 002e 384B     		ldr	r3, .L323	@ tmp131,
 4554 0030 1B78     		ldrb	r3, [r3]	@ D.8072, GSMSendIPState
 4555 0032 0133     		adds	r3, r3, #1	@ tmp132,
 4556 0034 DAB2     		uxtb	r2, r3	@ D.8072, tmp132
 4557 0036 364B     		ldr	r3, .L323	@ tmp133,
 4558 0038 1A70     		strb	r2, [r3]	@ tmp134, GSMSendIPState
1522:src/sim900_800.c **** 			break;
 4559              		.loc 1 1522 0
 4560 003a 5BE0     		b	.L313	@
 4561              	.L310:
1523:src/sim900_800.c **** 
1524:src/sim900_800.c **** 		case 1:
1525:src/sim900_800.c **** 
1526:src/sim900_800.c **** 			i = GSMSendCommand("AT+CIPSEND\r\n", 80, 0, &GSMbuffRtaCommand[0]);
 4562              		.loc 1 1526 0
 4563 003c 0F24     		movs	r4, #15	@ tmp135,
 4564 003e 6C44     		add	r4, r4, sp	@ tmp135,
 4565 0040 364B     		ldr	r3, .L323+12	@ tmp136,
 4566 0042 3748     		ldr	r0, .L323+16	@ tmp137,
 4567 0044 0022     		movs	r2, #0	@,
 4568 0046 5021     		movs	r1, #80	@,
 4569 0048 FFF7FEFF 		bl	GSMSendCommand	@
 4570 004c 0300     		movs	r3, r0	@ tmp138,
 4571 004e 2370     		strb	r3, [r4]	@ tmp140, i
1527:src/sim900_800.c **** 
1528:src/sim900_800.c **** 			if (i == 2)
 4572              		.loc 1 1528 0
 4573 0050 0F23     		movs	r3, #15	@ tmp141,
 4574 0052 6B44     		add	r3, r3, sp	@ tmp141,
 4575 0054 1B78     		ldrb	r3, [r3]	@ tmp142, i
 4576 0056 022B     		cmp	r3, #2	@ tmp142,
 4577 0058 1DD1     		bne	.L314	@,
1529:src/sim900_800.c **** 			{
1530:src/sim900_800.c **** 
1531:src/sim900_800.c **** 				GSMSendIPbuffAux[0] = 0;
 4578              		.loc 1 1531 0
 4579 005a 324B     		ldr	r3, .L323+20	@ tmp143,
 4580 005c 0022     		movs	r2, #0	@ tmp144,
ARM GAS  /tmp/ccKua49E.s 			page 111


 4581 005e 1A70     		strb	r2, [r3]	@ tmp145, GSMSendIPbuffAux
1532:src/sim900_800.c **** 				strcat(&GSMSendIPbuffAux[0], ptrMSG);
 4582              		.loc 1 1532 0
 4583 0060 019A     		ldr	r2, [sp, #4]	@ tmp146, ptrMSG
 4584 0062 304B     		ldr	r3, .L323+20	@ tmp147,
 4585 0064 1100     		movs	r1, r2	@, tmp146
 4586 0066 1800     		movs	r0, r3	@, tmp147
 4587 0068 FFF7FEFF 		bl	strcat	@
1533:src/sim900_800.c **** 				strcat(&GSMSendIPbuffAux[0], "\032");
 4588              		.loc 1 1533 0
 4589 006c 2D4B     		ldr	r3, .L323+20	@ tmp148,
 4590 006e 1800     		movs	r0, r3	@, tmp148
 4591 0070 FFF7FEFF 		bl	strlen	@
 4592 0074 0300     		movs	r3, r0	@ tmp149,
 4593 0076 1A00     		movs	r2, r3	@ D.8074, tmp150
 4594 0078 2A4B     		ldr	r3, .L323+20	@ tmp151,
 4595 007a D218     		adds	r2, r2, r3	@ D.8075, D.8074, tmp151
 4596 007c 2A4B     		ldr	r3, .L323+24	@ tmp152,
 4597 007e 1000     		movs	r0, r2	@ tmp153, D.8075
 4598 0080 1900     		movs	r1, r3	@ tmp154, tmp152
 4599 0082 0223     		movs	r3, #2	@ tmp155,
 4600 0084 1A00     		movs	r2, r3	@, tmp155
 4601 0086 FFF7FEFF 		bl	memcpy	@
1534:src/sim900_800.c **** 				GSMSendIPState++;
 4602              		.loc 1 1534 0
 4603 008a 214B     		ldr	r3, .L323	@ tmp158,
 4604 008c 1B78     		ldrb	r3, [r3]	@ D.8072, GSMSendIPState
 4605 008e 0133     		adds	r3, r3, #1	@ tmp159,
 4606 0090 DAB2     		uxtb	r2, r3	@ D.8072, tmp159
 4607 0092 1F4B     		ldr	r3, .L323	@ tmp160,
 4608 0094 1A70     		strb	r2, [r3]	@ tmp161, GSMSendIPState
 4609              	.L314:
1535:src/sim900_800.c **** 			}
1536:src/sim900_800.c **** 
1537:src/sim900_800.c **** 			if (i > 2)
 4610              		.loc 1 1537 0
 4611 0096 0F23     		movs	r3, #15	@ tmp162,
 4612 0098 6B44     		add	r3, r3, sp	@ tmp162,
 4613 009a 1B78     		ldrb	r3, [r3]	@ tmp163, i
 4614 009c 022B     		cmp	r3, #2	@ tmp163,
 4615 009e 26D9     		bls	.L321	@,
1538:src/sim900_800.c **** 			{
1539:src/sim900_800.c **** 				GSMSendIPState = 0;
 4616              		.loc 1 1539 0
 4617 00a0 1B4B     		ldr	r3, .L323	@ tmp164,
 4618 00a2 0022     		movs	r2, #0	@ tmp165,
 4619 00a4 1A70     		strb	r2, [r3]	@ tmp166, GSMSendIPState
1540:src/sim900_800.c **** 				return 3;
 4620              		.loc 1 1540 0
 4621 00a6 0323     		movs	r3, #3	@ D.8072,
 4622 00a8 2FE0     		b	.L316	@
 4623              	.L311:
1541:src/sim900_800.c **** 			}
1542:src/sim900_800.c **** 			break;
1543:src/sim900_800.c **** 		case 2:
1544:src/sim900_800.c **** 
1545:src/sim900_800.c **** 			i = GSMSendCommand(&GSMSendIPbuffAux[0], 50, 0, &GSMbuffRtaCommand[0]);
ARM GAS  /tmp/ccKua49E.s 			page 112


 4624              		.loc 1 1545 0
 4625 00aa 0F24     		movs	r4, #15	@ tmp167,
 4626 00ac 6C44     		add	r4, r4, sp	@ tmp167,
 4627 00ae 1B4B     		ldr	r3, .L323+12	@ tmp168,
 4628 00b0 1C48     		ldr	r0, .L323+20	@ tmp169,
 4629 00b2 0022     		movs	r2, #0	@,
 4630 00b4 3221     		movs	r1, #50	@,
 4631 00b6 FFF7FEFF 		bl	GSMSendCommand	@
 4632 00ba 0300     		movs	r3, r0	@ tmp170,
 4633 00bc 2370     		strb	r3, [r4]	@ tmp172, i
1546:src/sim900_800.c **** 
1547:src/sim900_800.c **** 			if (i == 2)
 4634              		.loc 1 1547 0
 4635 00be 0F23     		movs	r3, #15	@ tmp173,
 4636 00c0 6B44     		add	r3, r3, sp	@ tmp173,
 4637 00c2 1B78     		ldrb	r3, [r3]	@ tmp174, i
 4638 00c4 022B     		cmp	r3, #2	@ tmp174,
 4639 00c6 04D1     		bne	.L317	@,
1548:src/sim900_800.c **** 			{
1549:src/sim900_800.c **** 				GSMSendIPState = 0;
 4640              		.loc 1 1549 0
 4641 00c8 114B     		ldr	r3, .L323	@ tmp175,
 4642 00ca 0022     		movs	r2, #0	@ tmp176,
 4643 00cc 1A70     		strb	r2, [r3]	@ tmp177, GSMSendIPState
1550:src/sim900_800.c **** 				return 2;
 4644              		.loc 1 1550 0
 4645 00ce 0223     		movs	r3, #2	@ D.8072,
 4646 00d0 1BE0     		b	.L316	@
 4647              	.L317:
1551:src/sim900_800.c **** 			}
1552:src/sim900_800.c **** 
1553:src/sim900_800.c **** 			if (i > 2)
 4648              		.loc 1 1553 0
 4649 00d2 0F23     		movs	r3, #15	@ tmp178,
 4650 00d4 6B44     		add	r3, r3, sp	@ tmp178,
 4651 00d6 1B78     		ldrb	r3, [r3]	@ tmp179, i
 4652 00d8 022B     		cmp	r3, #2	@ tmp179,
 4653 00da 0AD9     		bls	.L322	@,
1554:src/sim900_800.c **** 			{
1555:src/sim900_800.c **** 				GSMSendIPState = 0;
 4654              		.loc 1 1555 0
 4655 00dc 0C4B     		ldr	r3, .L323	@ tmp180,
 4656 00de 0022     		movs	r2, #0	@ tmp181,
 4657 00e0 1A70     		strb	r2, [r3]	@ tmp182, GSMSendIPState
1556:src/sim900_800.c **** 				return 3;
 4658              		.loc 1 1556 0
 4659 00e2 0323     		movs	r3, #3	@ D.8072,
 4660 00e4 11E0     		b	.L316	@
 4661              	.L320:
1557:src/sim900_800.c **** 			}
1558:src/sim900_800.c **** 			break;
1559:src/sim900_800.c **** 
1560:src/sim900_800.c **** 		default:
1561:src/sim900_800.c **** 			GSMSendIPState = 0;
 4662              		.loc 1 1561 0
 4663 00e6 0A4B     		ldr	r3, .L323	@ tmp183,
 4664 00e8 0022     		movs	r2, #0	@ tmp184,
ARM GAS  /tmp/ccKua49E.s 			page 113


 4665 00ea 1A70     		strb	r2, [r3]	@ tmp185, GSMSendIPState
1562:src/sim900_800.c **** 			break;
 4666              		.loc 1 1562 0
 4667 00ec 02E0     		b	.L313	@
 4668              	.L321:
1542:src/sim900_800.c **** 		case 2:
 4669              		.loc 1 1542 0
 4670 00ee C046     		nop
 4671 00f0 00E0     		b	.L313	@
 4672              	.L322:
1558:src/sim900_800.c **** 
 4673              		.loc 1 1558 0
 4674 00f2 C046     		nop
 4675              	.L313:
1563:src/sim900_800.c **** 	}
1564:src/sim900_800.c **** 
1565:src/sim900_800.c **** 	if (GSMSendIPTimeOut == 0)
 4676              		.loc 1 1565 0
 4677 00f4 084B     		ldr	r3, .L323+8	@ tmp186,
 4678 00f6 1B88     		ldrh	r3, [r3]	@ tmp187, GSMSendIPTimeOut
 4679 00f8 9BB2     		uxth	r3, r3	@ D.8076, tmp187
 4680 00fa 002B     		cmp	r3, #0	@ D.8076,
 4681 00fc 04D1     		bne	.L319	@,
1566:src/sim900_800.c **** 	{
1567:src/sim900_800.c **** 		GSMSendIPState = 0;
 4682              		.loc 1 1567 0
 4683 00fe 044B     		ldr	r3, .L323	@ tmp188,
 4684 0100 0022     		movs	r2, #0	@ tmp189,
 4685 0102 1A70     		strb	r2, [r3]	@ tmp190, GSMSendIPState
1568:src/sim900_800.c **** 		return 4;
 4686              		.loc 1 1568 0
 4687 0104 0423     		movs	r3, #4	@ D.8072,
 4688 0106 00E0     		b	.L316	@
 4689              	.L319:
1569:src/sim900_800.c **** 	}
1570:src/sim900_800.c **** 
1571:src/sim900_800.c **** 	return 1;
 4690              		.loc 1 1571 0
 4691 0108 0123     		movs	r3, #1	@ D.8072,
 4692              	.L316:
1572:src/sim900_800.c **** }
 4693              		.loc 1 1572 0
 4694 010a 1800     		movs	r0, r3	@, <retval>
 4695 010c 04B0     		add	sp, sp, #16	@,,
 4696              		@ sp needed	@
 4697 010e 10BD     		pop	{r4, pc}
 4698              	.L324:
 4699              		.align	2
 4700              	.L323:
 4701 0110 00000000 		.word	GSMSendIPState
 4702 0114 00000000 		.word	GSMSendIPFlag
 4703 0118 00000000 		.word	GSMSendIPTimeOut
 4704 011c 00000000 		.word	GSMbuffRtaCommand
 4705 0120 28020000 		.word	.LC171
 4706 0124 00000000 		.word	GSMSendIPbuffAux
 4707 0128 F8000000 		.word	.LC103
 4708              		.cfi_endproc
ARM GAS  /tmp/ccKua49E.s 			page 114


 4709              	.LFE33:
 4710              		.size	GSMSendIP, .-GSMSendIP
 4711              		.section	.text.GSMTimeoutCounters,"ax",%progbits
 4712              		.align	2
 4713              		.global	GSMTimeoutCounters
 4714              		.code	16
 4715              		.thumb_func
 4716              		.type	GSMTimeoutCounters, %function
 4717              	GSMTimeoutCounters:
 4718              	.LFB34:
1573:src/sim900_800.c **** 
1574:src/sim900_800.c **** 
1575:src/sim900_800.c **** void GSMTimeoutCounters (void)
1576:src/sim900_800.c **** {
 4719              		.loc 1 1576 0
 4720              		.cfi_startproc
1577:src/sim900_800.c **** 	if (GSMStartTime)
 4721              		.loc 1 1577 0
 4722 0000 344B     		ldr	r3, .L336	@ tmp137,
 4723 0002 1B88     		ldrh	r3, [r3]	@ tmp138, GSMStartTime
 4724 0004 9BB2     		uxth	r3, r3	@ D.8081, tmp138
 4725 0006 002B     		cmp	r3, #0	@ D.8081,
 4726 0008 06D0     		beq	.L326	@,
1578:src/sim900_800.c **** 		GSMStartTime--;
 4727              		.loc 1 1578 0
 4728 000a 324B     		ldr	r3, .L336	@ tmp139,
 4729 000c 1B88     		ldrh	r3, [r3]	@ tmp140, GSMStartTime
 4730 000e 9BB2     		uxth	r3, r3	@ D.8081, tmp140
 4731 0010 013B     		subs	r3, r3, #1	@ tmp141,
 4732 0012 9AB2     		uxth	r2, r3	@ D.8081, tmp141
 4733 0014 2F4B     		ldr	r3, .L336	@ tmp142,
 4734 0016 1A80     		strh	r2, [r3]	@ tmp143, GSMStartTime
 4735              	.L326:
1579:src/sim900_800.c **** 
1580:src/sim900_800.c **** 	if(GSMSendCommandTimeOut)
 4736              		.loc 1 1580 0
 4737 0018 2F4B     		ldr	r3, .L336+4	@ tmp144,
 4738 001a 1B88     		ldrh	r3, [r3]	@ tmp145, GSMSendCommandTimeOut
 4739 001c 9BB2     		uxth	r3, r3	@ D.8081, tmp145
 4740 001e 002B     		cmp	r3, #0	@ D.8081,
 4741 0020 06D0     		beq	.L327	@,
1581:src/sim900_800.c **** 		GSMSendCommandTimeOut--;
 4742              		.loc 1 1581 0
 4743 0022 2D4B     		ldr	r3, .L336+4	@ tmp146,
 4744 0024 1B88     		ldrh	r3, [r3]	@ tmp147, GSMSendCommandTimeOut
 4745 0026 9BB2     		uxth	r3, r3	@ D.8081, tmp147
 4746 0028 013B     		subs	r3, r3, #1	@ tmp148,
 4747 002a 9AB2     		uxth	r2, r3	@ D.8081, tmp148
 4748 002c 2A4B     		ldr	r3, .L336+4	@ tmp149,
 4749 002e 1A80     		strh	r2, [r3]	@ tmp150, GSMSendCommandTimeOut
 4750              	.L327:
1582:src/sim900_800.c **** 
1583:src/sim900_800.c **** 	if(GSMConfigTimeOut)
 4751              		.loc 1 1583 0
 4752 0030 2A4B     		ldr	r3, .L336+8	@ tmp151,
 4753 0032 1B88     		ldrh	r3, [r3]	@ tmp152, GSMConfigTimeOut
 4754 0034 9BB2     		uxth	r3, r3	@ D.8081, tmp152
ARM GAS  /tmp/ccKua49E.s 			page 115


 4755 0036 002B     		cmp	r3, #0	@ D.8081,
 4756 0038 06D0     		beq	.L328	@,
1584:src/sim900_800.c **** 		GSMConfigTimeOut--;
 4757              		.loc 1 1584 0
 4758 003a 284B     		ldr	r3, .L336+8	@ tmp153,
 4759 003c 1B88     		ldrh	r3, [r3]	@ tmp154, GSMConfigTimeOut
 4760 003e 9BB2     		uxth	r3, r3	@ D.8081, tmp154
 4761 0040 013B     		subs	r3, r3, #1	@ tmp155,
 4762 0042 9AB2     		uxth	r2, r3	@ D.8081, tmp155
 4763 0044 254B     		ldr	r3, .L336+8	@ tmp156,
 4764 0046 1A80     		strh	r2, [r3]	@ tmp157, GSMConfigTimeOut
 4765              	.L328:
1585:src/sim900_800.c **** 
1586:src/sim900_800.c **** 	if(GSMConfigTime)
 4766              		.loc 1 1586 0
 4767 0048 254B     		ldr	r3, .L336+12	@ tmp158,
 4768 004a 1B88     		ldrh	r3, [r3]	@ tmp159, GSMConfigTime
 4769 004c 9BB2     		uxth	r3, r3	@ D.8081, tmp159
 4770 004e 002B     		cmp	r3, #0	@ D.8081,
 4771 0050 06D0     		beq	.L329	@,
1587:src/sim900_800.c **** 		GSMConfigTime--;
 4772              		.loc 1 1587 0
 4773 0052 234B     		ldr	r3, .L336+12	@ tmp160,
 4774 0054 1B88     		ldrh	r3, [r3]	@ tmp161, GSMConfigTime
 4775 0056 9BB2     		uxth	r3, r3	@ D.8081, tmp161
 4776 0058 013B     		subs	r3, r3, #1	@ tmp162,
 4777 005a 9AB2     		uxth	r2, r3	@ D.8081, tmp162
 4778 005c 204B     		ldr	r3, .L336+12	@ tmp163,
 4779 005e 1A80     		strh	r2, [r3]	@ tmp164, GSMConfigTime
 4780              	.L329:
1588:src/sim900_800.c **** 
1589:src/sim900_800.c **** 	if(GSMSendSMSTimeOut)
 4781              		.loc 1 1589 0
 4782 0060 204B     		ldr	r3, .L336+16	@ tmp165,
 4783 0062 1B88     		ldrh	r3, [r3]	@ tmp166, GSMSendSMSTimeOut
 4784 0064 9BB2     		uxth	r3, r3	@ D.8081, tmp166
 4785 0066 002B     		cmp	r3, #0	@ D.8081,
 4786 0068 06D0     		beq	.L330	@,
1590:src/sim900_800.c **** 		GSMSendSMSTimeOut--;
 4787              		.loc 1 1590 0
 4788 006a 1E4B     		ldr	r3, .L336+16	@ tmp167,
 4789 006c 1B88     		ldrh	r3, [r3]	@ tmp168, GSMSendSMSTimeOut
 4790 006e 9BB2     		uxth	r3, r3	@ D.8081, tmp168
 4791 0070 013B     		subs	r3, r3, #1	@ tmp169,
 4792 0072 9AB2     		uxth	r2, r3	@ D.8081, tmp169
 4793 0074 1B4B     		ldr	r3, .L336+16	@ tmp170,
 4794 0076 1A80     		strh	r2, [r3]	@ tmp171, GSMSendSMSTimeOut
 4795              	.L330:
1591:src/sim900_800.c **** 
1592:src/sim900_800.c **** 	if(GSMConfigGPRSTimeOut)
 4796              		.loc 1 1592 0
 4797 0078 1B4B     		ldr	r3, .L336+20	@ tmp172,
 4798 007a 1B88     		ldrh	r3, [r3]	@ D.8081, GSMConfigGPRSTimeOut
 4799 007c 002B     		cmp	r3, #0	@ D.8081,
 4800 007e 05D0     		beq	.L331	@,
1593:src/sim900_800.c **** 		GSMConfigGPRSTimeOut--;
 4801              		.loc 1 1593 0
ARM GAS  /tmp/ccKua49E.s 			page 116


 4802 0080 194B     		ldr	r3, .L336+20	@ tmp173,
 4803 0082 1B88     		ldrh	r3, [r3]	@ D.8081, GSMConfigGPRSTimeOut
 4804 0084 013B     		subs	r3, r3, #1	@ tmp174,
 4805 0086 9AB2     		uxth	r2, r3	@ D.8081, tmp174
 4806 0088 174B     		ldr	r3, .L336+20	@ tmp175,
 4807 008a 1A80     		strh	r2, [r3]	@ tmp176, GSMConfigGPRSTimeOut
 4808              	.L331:
1594:src/sim900_800.c **** 
1595:src/sim900_800.c **** 	if(GSMSendIPTimeOut)
 4809              		.loc 1 1595 0
 4810 008c 174B     		ldr	r3, .L336+24	@ tmp177,
 4811 008e 1B88     		ldrh	r3, [r3]	@ tmp178, GSMSendIPTimeOut
 4812 0090 9BB2     		uxth	r3, r3	@ D.8081, tmp178
 4813 0092 002B     		cmp	r3, #0	@ D.8081,
 4814 0094 06D0     		beq	.L332	@,
1596:src/sim900_800.c **** 		GSMSendIPTimeOut--;
 4815              		.loc 1 1596 0
 4816 0096 154B     		ldr	r3, .L336+24	@ tmp179,
 4817 0098 1B88     		ldrh	r3, [r3]	@ tmp180, GSMSendIPTimeOut
 4818 009a 9BB2     		uxth	r3, r3	@ D.8081, tmp180
 4819 009c 013B     		subs	r3, r3, #1	@ tmp181,
 4820 009e 9AB2     		uxth	r2, r3	@ D.8081, tmp181
 4821 00a0 124B     		ldr	r3, .L336+24	@ tmp182,
 4822 00a2 1A80     		strh	r2, [r3]	@ tmp183, GSMSendIPTimeOut
 4823              	.L332:
1597:src/sim900_800.c **** 
1598:src/sim900_800.c **** 	if (prestadorSimTime)
 4824              		.loc 1 1598 0
 4825 00a4 124B     		ldr	r3, .L336+28	@ tmp184,
 4826 00a6 1B78     		ldrb	r3, [r3]	@ D.8082, prestadorSimTime
 4827 00a8 002B     		cmp	r3, #0	@ D.8082,
 4828 00aa 05D0     		beq	.L333	@,
1599:src/sim900_800.c **** 		prestadorSimTime--;
 4829              		.loc 1 1599 0
 4830 00ac 104B     		ldr	r3, .L336+28	@ tmp185,
 4831 00ae 1B78     		ldrb	r3, [r3]	@ D.8082, prestadorSimTime
 4832 00b0 013B     		subs	r3, r3, #1	@ tmp186,
 4833 00b2 DAB2     		uxtb	r2, r3	@ D.8082, tmp186
 4834 00b4 0E4B     		ldr	r3, .L336+28	@ tmp187,
 4835 00b6 1A70     		strb	r2, [r3]	@ tmp188, prestadorSimTime
 4836              	.L333:
1600:src/sim900_800.c **** 
1601:src/sim900_800.c **** 	if(GSMGeneralTimeOut)
 4837              		.loc 1 1601 0
 4838 00b8 0E4B     		ldr	r3, .L336+32	@ tmp189,
 4839 00ba 1B88     		ldrh	r3, [r3]	@ tmp190, GSMGeneralTimeOut
 4840 00bc 9BB2     		uxth	r3, r3	@ D.8081, tmp190
 4841 00be 002B     		cmp	r3, #0	@ D.8081,
 4842 00c0 06D0     		beq	.L335	@,
1602:src/sim900_800.c **** 		GSMGeneralTimeOut--;
 4843              		.loc 1 1602 0
 4844 00c2 0C4B     		ldr	r3, .L336+32	@ tmp191,
 4845 00c4 1B88     		ldrh	r3, [r3]	@ tmp192, GSMGeneralTimeOut
 4846 00c6 9BB2     		uxth	r3, r3	@ D.8081, tmp192
 4847 00c8 013B     		subs	r3, r3, #1	@ tmp193,
 4848 00ca 9AB2     		uxth	r2, r3	@ D.8081, tmp193
 4849 00cc 094B     		ldr	r3, .L336+32	@ tmp194,
ARM GAS  /tmp/ccKua49E.s 			page 117


 4850 00ce 1A80     		strh	r2, [r3]	@ tmp195, GSMGeneralTimeOut
 4851              	.L335:
1603:src/sim900_800.c **** 
1604:src/sim900_800.c **** }
 4852              		.loc 1 1604 0
 4853 00d0 C046     		nop
 4854              		@ sp needed	@
 4855 00d2 7047     		bx	lr
 4856              	.L337:
 4857              		.align	2
 4858              	.L336:
 4859 00d4 00000000 		.word	GSMStartTime
 4860 00d8 00000000 		.word	GSMSendCommandTimeOut
 4861 00dc 00000000 		.word	GSMConfigTimeOut
 4862 00e0 00000000 		.word	GSMConfigTime
 4863 00e4 00000000 		.word	GSMSendSMSTimeOut
 4864 00e8 00000000 		.word	GSMConfigGPRSTimeOut
 4865 00ec 00000000 		.word	GSMSendIPTimeOut
 4866 00f0 00000000 		.word	prestadorSimTime
 4867 00f4 00000000 		.word	GSMGeneralTimeOut
 4868              		.cfi_endproc
 4869              	.LFE34:
 4870              		.size	GSMTimeoutCounters, .-GSMTimeoutCounters
 4871              		.section	.rodata
 4872 0235 000000   		.align	2
 4873              	.LC189:
 4874 0238 41542B43 		.ascii	"AT+CMGR=%d\015\012\000"
 4874      4D47523D 
 4874      25640D0A 
 4874      00
 4875 0245 000000   		.align	2
 4876              	.LC193:
 4877 0248 2B434D47 		.ascii	"+CMGR:\000"
 4877      523A00
 4878 024f 00       		.align	2
 4879              	.LC196:
 4880 0250 3030303A 		.ascii	"000: ARM\000"
 4880      2041524D 
 4880      00
 4881 0259 000000   		.align	2
 4882              	.LC200:
 4883 025c 3030303A 		.ascii	"000: DRM\000"
 4883      2044524D 
 4883      00
 4884 0265 000000   		.align	2
 4885              	.LC202:
 4886 0268 41542B43 		.ascii	"AT+CMGDA=\"DEL READ\"\015\012\000"
 4886      4D474441 
 4886      3D224445 
 4886      4C205245 
 4886      4144220D 
 4887              		.section	.text.GSMrxSMS,"ax",%progbits
 4888              		.align	2
 4889              		.global	GSMrxSMS
 4890              		.code	16
 4891              		.thumb_func
 4892              		.type	GSMrxSMS, %function
ARM GAS  /tmp/ccKua49E.s 			page 118


 4893              	GSMrxSMS:
 4894              	.LFB35:
1605:src/sim900_800.c **** 
1606:src/sim900_800.c **** 
1607:src/sim900_800.c **** //---------------------------------------------------------//
1608:src/sim900_800.c **** //void GSMrxSMS(char * ptrMSG, char *ptrNumTel, char flagSMSin)
1609:src/sim900_800.c **** //---------------------------------------------------------//
1610:src/sim900_800.c **** void GSMrxSMS(unsigned char * pAlertasReportar, char * puserCode, unsigned char * pclaveAct, unsign
1611:src/sim900_800.c **** {
 4895              		.loc 1 1611 0
 4896              		.cfi_startproc
 4897 0000 10B5     		push	{r4, lr}	@
 4898              	.LCFI20:
 4899              		.cfi_def_cfa_offset 8
 4900              		.cfi_offset 4, -8
 4901              		.cfi_offset 14, -4
 4902 0002 86B0     		sub	sp, sp, #24	@,,
 4903              	.LCFI21:
 4904              		.cfi_def_cfa_offset 32
 4905 0004 0390     		str	r0, [sp, #12]	@ pAlertasReportar, pAlertasReportar
 4906 0006 0291     		str	r1, [sp, #8]	@ puserCode, puserCode
 4907 0008 0192     		str	r2, [sp, #4]	@ pclaveAct, pclaveAct
 4908 000a 0093     		str	r3, [sp]	@ pActDact, pActDact
1612:src/sim900_800.c **** 	unsigned char i;
1613:src/sim900_800.c **** 	unsigned char flag;
1614:src/sim900_800.c **** 
1615:src/sim900_800.c **** 	if (GSMCantSMS)
 4909              		.loc 1 1615 0
 4910 000c D04B     		ldr	r3, .L397	@ tmp214,
 4911 000e 1B78     		ldrb	r3, [r3]	@ D.8083, GSMCantSMS
 4912 0010 002B     		cmp	r3, #0	@ D.8083,
 4913 0012 00D1     		bne	.LCB4024	@
 4914 0014 5CE1     		b	.L339	@long jump	@
 4915              	.LCB4024:
1616:src/sim900_800.c **** 	{
1617:src/sim900_800.c **** 		switch(GSMrxSMSState)
 4916              		.loc 1 1617 0
 4917 0016 CF4B     		ldr	r3, .L397+4	@ tmp215,
 4918 0018 1B78     		ldrb	r3, [r3]	@ D.8083, GSMrxSMSState
 4919 001a 012B     		cmp	r3, #1	@ D.8084,
 4920 001c 0BD0     		beq	.L341	@,
 4921 001e 022B     		cmp	r3, #2	@ D.8084,
 4922 0020 25D0     		beq	.L342	@,
 4923 0022 002B     		cmp	r3, #0	@ D.8084,
 4924 0024 00D0     		beq	.LCB4032	@
 4925 0026 4EE1     		b	.L386	@long jump	@
 4926              	.LCB4032:
1618:src/sim900_800.c **** 		{
1619:src/sim900_800.c **** 
1620:src/sim900_800.c **** 			case 0:
1621:src/sim900_800.c **** 				GSMrxSMSState++;
 4927              		.loc 1 1621 0
 4928 0028 CA4B     		ldr	r3, .L397+4	@ tmp216,
 4929 002a 1B78     		ldrb	r3, [r3]	@ D.8083, GSMrxSMSState
 4930 002c 0133     		adds	r3, r3, #1	@ tmp217,
 4931 002e DAB2     		uxtb	r2, r3	@ D.8083, tmp217
 4932 0030 C84B     		ldr	r3, .L397+4	@ tmp218,
ARM GAS  /tmp/ccKua49E.s 			page 119


 4933 0032 1A70     		strb	r2, [r3]	@ tmp219, GSMrxSMSState
1622:src/sim900_800.c **** 				break;
 4934              		.loc 1 1622 0
 4935 0034 DBE2     		b	.L363	@
 4936              	.L341:
1623:src/sim900_800.c **** 			case 1:
1624:src/sim900_800.c **** 				i = GSM_SetSIM (1);
 4937              		.loc 1 1624 0
 4938 0036 1724     		movs	r4, #23	@ tmp220,
 4939 0038 6C44     		add	r4, r4, sp	@ tmp220,
 4940 003a 0120     		movs	r0, #1	@,
 4941 003c FFF7FEFF 		bl	GSM_SetSIM	@
 4942 0040 0300     		movs	r3, r0	@ tmp221,
 4943 0042 2370     		strb	r3, [r4]	@ tmp223, i
1625:src/sim900_800.c **** 
1626:src/sim900_800.c **** 				if (i == 2)
 4944              		.loc 1 1626 0
 4945 0044 1723     		movs	r3, #23	@ tmp224,
 4946 0046 6B44     		add	r3, r3, sp	@ tmp224,
 4947 0048 1B78     		ldrb	r3, [r3]	@ tmp225, i
 4948 004a 022B     		cmp	r3, #2	@ tmp225,
 4949 004c 05D1     		bne	.L345	@,
1627:src/sim900_800.c **** 					GSMrxSMSState++;
 4950              		.loc 1 1627 0
 4951 004e C14B     		ldr	r3, .L397+4	@ tmp226,
 4952 0050 1B78     		ldrb	r3, [r3]	@ D.8083, GSMrxSMSState
 4953 0052 0133     		adds	r3, r3, #1	@ tmp227,
 4954 0054 DAB2     		uxtb	r2, r3	@ D.8083, tmp227
 4955 0056 BF4B     		ldr	r3, .L397+4	@ tmp228,
 4956 0058 1A70     		strb	r2, [r3]	@ tmp229, GSMrxSMSState
 4957              	.L345:
1628:src/sim900_800.c **** 				if (i > 2)
 4958              		.loc 1 1628 0
 4959 005a 1723     		movs	r3, #23	@ tmp230,
 4960 005c 6B44     		add	r3, r3, sp	@ tmp230,
 4961 005e 1B78     		ldrb	r3, [r3]	@ tmp231, i
 4962 0060 022B     		cmp	r3, #2	@ tmp231,
 4963 0062 00D8     		bhi	.LCB4066	@
 4964 0064 BCE2     		b	.L390	@long jump	@
 4965              	.LCB4066:
1629:src/sim900_800.c **** 					GSMrxSMSState=0;
 4966              		.loc 1 1629 0
 4967 0066 BB4B     		ldr	r3, .L397+4	@ tmp232,
 4968 0068 0022     		movs	r2, #0	@ tmp233,
 4969 006a 1A70     		strb	r2, [r3]	@ tmp234, GSMrxSMSState
1630:src/sim900_800.c **** 				break;
 4970              		.loc 1 1630 0
 4971 006c B8E2     		b	.L390	@
 4972              	.L342:
1631:src/sim900_800.c **** 
1632:src/sim900_800.c **** 			case 2:
1633:src/sim900_800.c **** 					//Verifico que no hayan sido leidos los SMS.
1634:src/sim900_800.c **** 					if (GSMnumSMS <= GSMCantSMS)
 4973              		.loc 1 1634 0
 4974 006e BA4B     		ldr	r3, .L397+8	@ tmp235,
 4975 0070 1A78     		ldrb	r2, [r3]	@ D.8083, GSMnumSMS
 4976 0072 B74B     		ldr	r3, .L397	@ tmp236,
ARM GAS  /tmp/ccKua49E.s 			page 120


 4977 0074 1B78     		ldrb	r3, [r3]	@ D.8083, GSMCantSMS
 4978 0076 9A42     		cmp	r2, r3	@ D.8083, D.8083
 4979 0078 00D9     		bls	.LCB4079	@
 4980 007a FDE0     		b	.L347	@long jump	@
 4981              	.LCB4079:
1635:src/sim900_800.c **** 					{
1636:src/sim900_800.c **** 						switch(GSMReadSMSState)
 4982              		.loc 1 1636 0
 4983 007c B74B     		ldr	r3, .L397+12	@ tmp237,
 4984 007e 1B78     		ldrb	r3, [r3]	@ D.8085, GSMReadSMSState
 4985 0080 002B     		cmp	r3, #0	@ D.8084,
 4986 0082 02D0     		beq	.L349	@,
 4987 0084 012B     		cmp	r3, #1	@ D.8084,
 4988 0086 12D0     		beq	.L350	@,
 4989 0088 F1E0     		b	.L387	@
 4990              	.L349:
1637:src/sim900_800.c **** 						{
1638:src/sim900_800.c **** 							case 0:
1639:src/sim900_800.c **** 								GSMReadSMSrepIn[0] = 0;
 4991              		.loc 1 1639 0
 4992 008a B54B     		ldr	r3, .L397+16	@ tmp238,
 4993 008c 0022     		movs	r2, #0	@ tmp239,
 4994 008e 1A70     		strb	r2, [r3]	@ tmp240, GSMReadSMSrepIn
1640:src/sim900_800.c **** 								sprintf(&GSMReadSMScommand[0], (const char *)"AT+CMGR=%d\r\n", GSMnumSMS);
 4995              		.loc 1 1640 0
 4996 0090 B14B     		ldr	r3, .L397+8	@ tmp241,
 4997 0092 1B78     		ldrb	r3, [r3]	@ D.8083, GSMnumSMS
 4998 0094 1A00     		movs	r2, r3	@ D.8084, D.8083
 4999 0096 B349     		ldr	r1, .L397+20	@ tmp242,
 5000 0098 B34B     		ldr	r3, .L397+24	@ tmp243,
 5001 009a 1800     		movs	r0, r3	@, tmp243
 5002 009c FFF7FEFF 		bl	sprintf	@
1641:src/sim900_800.c **** 								GSMReadSMSState++;
 5003              		.loc 1 1641 0
 5004 00a0 AE4B     		ldr	r3, .L397+12	@ tmp244,
 5005 00a2 1B78     		ldrb	r3, [r3]	@ D.8085, GSMReadSMSState
 5006 00a4 0133     		adds	r3, r3, #1	@ tmp245,
 5007 00a6 DAB2     		uxtb	r2, r3	@ D.8085, tmp245
 5008 00a8 AC4B     		ldr	r3, .L397+12	@ tmp246,
 5009 00aa 1A70     		strb	r2, [r3]	@ tmp247, GSMReadSMSState
1642:src/sim900_800.c **** 								break;
 5010              		.loc 1 1642 0
 5011 00ac 0AE1     		b	.L361	@
 5012              	.L350:
1643:src/sim900_800.c **** 
1644:src/sim900_800.c **** 							case 1:
1645:src/sim900_800.c **** 
1646:src/sim900_800.c **** 								i = GSMSendCommand (&GSMReadSMScommand[0], 15, 1, &GSMbuffRtaCommand[0]);
 5013              		.loc 1 1646 0
 5014 00ae 1724     		movs	r4, #23	@ tmp248,
 5015 00b0 6C44     		add	r4, r4, sp	@ tmp248,
 5016 00b2 AE4B     		ldr	r3, .L397+28	@ tmp249,
 5017 00b4 AC48     		ldr	r0, .L397+24	@ tmp250,
 5018 00b6 0122     		movs	r2, #1	@,
 5019 00b8 0F21     		movs	r1, #15	@,
 5020 00ba FFF7FEFF 		bl	GSMSendCommand	@
 5021 00be 0300     		movs	r3, r0	@ tmp251,
ARM GAS  /tmp/ccKua49E.s 			page 121


 5022 00c0 2370     		strb	r3, [r4]	@ tmp253, i
1647:src/sim900_800.c **** 
1648:src/sim900_800.c **** 								if (i == 2)
 5023              		.loc 1 1648 0
 5024 00c2 1723     		movs	r3, #23	@ tmp254,
 5025 00c4 6B44     		add	r3, r3, sp	@ tmp254,
 5026 00c6 1B78     		ldrb	r3, [r3]	@ tmp255, i
 5027 00c8 022B     		cmp	r3, #2	@ tmp255,
 5028 00ca 00D0     		beq	.LCB4123	@
 5029 00cc C6E0     		b	.L352	@long jump	@
 5030              	.LCB4123:
1649:src/sim900_800.c **** 								{
1650:src/sim900_800.c **** 									if (!strncmp((char *)&GSMbuffRtaCommand[0], (const char *)"+CMGR:", sizeof("+CMGR:") - 1))
 5031              		.loc 1 1650 0
 5032 00ce A849     		ldr	r1, .L397+32	@ tmp256,
 5033 00d0 A64B     		ldr	r3, .L397+28	@ tmp257,
 5034 00d2 0622     		movs	r2, #6	@,
 5035 00d4 1800     		movs	r0, r3	@, tmp257
 5036 00d6 FFF7FEFF 		bl	strncmp	@
 5037 00da 031E     		subs	r3, r0, #0	@ D.8084,,
 5038 00dc 00D0     		beq	.LCB4131	@
 5039 00de BDE0     		b	.L352	@long jump	@
 5040              	.LCB4131:
1651:src/sim900_800.c **** 									{
1652:src/sim900_800.c **** 
1653:src/sim900_800.c **** 										if (!strncmp((char *)&GSMReadSMSrepIn[0], (const char *)"000:", sizeof ("000:") -1))
 5041              		.loc 1 1653 0
 5042 00e0 A449     		ldr	r1, .L397+36	@ tmp258,
 5043 00e2 9F4B     		ldr	r3, .L397+16	@ tmp259,
 5044 00e4 0422     		movs	r2, #4	@,
 5045 00e6 1800     		movs	r0, r3	@, tmp259
 5046 00e8 FFF7FEFF 		bl	strncmp	@
 5047 00ec 031E     		subs	r3, r0, #0	@ D.8084,,
 5048 00ee 00D0     		beq	.LCB4139	@
 5049 00f0 ABE0     		b	.L353	@long jump	@
 5050              	.LCB4139:
1654:src/sim900_800.c **** 										{
1655:src/sim900_800.c **** 											i = 0;
 5051              		.loc 1 1655 0
 5052 00f2 1723     		movs	r3, #23	@ tmp260,
 5053 00f4 6B44     		add	r3, r3, sp	@ tmp260,
 5054 00f6 0022     		movs	r2, #0	@ tmp261,
 5055 00f8 1A70     		strb	r2, [r3]	@ tmp262, i
1656:src/sim900_800.c **** 											flag = 0;
 5056              		.loc 1 1656 0
 5057 00fa 1623     		movs	r3, #22	@ tmp263,
 5058 00fc 6B44     		add	r3, r3, sp	@ tmp263,
 5059 00fe 0022     		movs	r2, #0	@ tmp264,
 5060 0100 1A70     		strb	r2, [r3]	@ tmp265, flag
1657:src/sim900_800.c **** 											while (GSMbuffRtaCommand[i] != 0)
 5061              		.loc 1 1657 0
 5062 0102 47E0     		b	.L354	@
 5063              	.L358:
1658:src/sim900_800.c **** 											{
1659:src/sim900_800.c **** 												if ((GSMbuffRtaCommand[i] == ',') && (GSMbuffRtaCommand[i+1] == '"') && (flag == 0))
 5064              		.loc 1 1659 0
 5065 0104 1723     		movs	r3, #23	@ tmp266,
ARM GAS  /tmp/ccKua49E.s 			page 122


 5066 0106 6B44     		add	r3, r3, sp	@ tmp266,
 5067 0108 1B78     		ldrb	r3, [r3]	@ D.8084, i
 5068 010a 984A     		ldr	r2, .L397+28	@ tmp267,
 5069 010c D35C     		ldrb	r3, [r2, r3]	@ D.8085, GSMbuffRtaCommand
 5070 010e 2C2B     		cmp	r3, #44	@ D.8085,
 5071 0110 39D1     		bne	.L355	@,
 5072              		.loc 1 1659 0 is_stmt 0 discriminator 1
 5073 0112 1723     		movs	r3, #23	@ tmp268,
 5074 0114 6B44     		add	r3, r3, sp	@ tmp268,
 5075 0116 1B78     		ldrb	r3, [r3]	@ D.8084, i
 5076 0118 0133     		adds	r3, r3, #1	@ D.8084,
 5077 011a 944A     		ldr	r2, .L397+28	@ tmp269,
 5078 011c D35C     		ldrb	r3, [r2, r3]	@ D.8085, GSMbuffRtaCommand
 5079 011e 222B     		cmp	r3, #34	@ D.8085,
 5080 0120 31D1     		bne	.L355	@,
 5081              		.loc 1 1659 0 discriminator 2
 5082 0122 1623     		movs	r3, #22	@ tmp270,
 5083 0124 6B44     		add	r3, r3, sp	@ tmp270,
 5084 0126 1B78     		ldrb	r3, [r3]	@ tmp271, flag
 5085 0128 002B     		cmp	r3, #0	@ tmp271,
 5086 012a 2CD1     		bne	.L355	@,
1660:src/sim900_800.c **** 												{
1661:src/sim900_800.c **** 													i += 2;
 5087              		.loc 1 1661 0 is_stmt 1
 5088 012c 1723     		movs	r3, #23	@ tmp272,
 5089 012e 6B44     		add	r3, r3, sp	@ tmp272,
 5090 0130 1722     		movs	r2, #23	@ tmp273,
 5091 0132 6A44     		add	r2, r2, sp	@ tmp273,
 5092 0134 1278     		ldrb	r2, [r2]	@ tmp274, i
 5093 0136 0232     		adds	r2, r2, #2	@ tmp275,
 5094 0138 1A70     		strb	r2, [r3]	@ tmp276, i
1662:src/sim900_800.c **** 													flag = i;
 5095              		.loc 1 1662 0
 5096 013a 1623     		movs	r3, #22	@ tmp277,
 5097 013c 6B44     		add	r3, r3, sp	@ tmp277,
 5098 013e 1722     		movs	r2, #23	@ tmp278,
 5099 0140 6A44     		add	r2, r2, sp	@ tmp278,
 5100 0142 1278     		ldrb	r2, [r2]	@ tmp279, i
 5101 0144 1A70     		strb	r2, [r3]	@ tmp279, flag
1663:src/sim900_800.c **** 													while (GSMbuffRtaCommand[i] != '"')
 5102              		.loc 1 1663 0
 5103 0146 06E0     		b	.L356	@
 5104              	.L357:
1664:src/sim900_800.c **** 													{
1665:src/sim900_800.c **** 														i++;
 5105              		.loc 1 1665 0
 5106 0148 1723     		movs	r3, #23	@ tmp280,
 5107 014a 6B44     		add	r3, r3, sp	@ tmp280,
 5108 014c 1A78     		ldrb	r2, [r3]	@ D.8083, i
 5109 014e 1723     		movs	r3, #23	@ tmp281,
 5110 0150 6B44     		add	r3, r3, sp	@ tmp281,
 5111 0152 0132     		adds	r2, r2, #1	@ tmp282,
 5112 0154 1A70     		strb	r2, [r3]	@ tmp283, i
 5113              	.L356:
1663:src/sim900_800.c **** 													while (GSMbuffRtaCommand[i] != '"')
 5114              		.loc 1 1663 0
 5115 0156 1723     		movs	r3, #23	@ tmp284,
ARM GAS  /tmp/ccKua49E.s 			page 123


 5116 0158 6B44     		add	r3, r3, sp	@ tmp284,
 5117 015a 1B78     		ldrb	r3, [r3]	@ D.8084, i
 5118 015c 834A     		ldr	r2, .L397+28	@ tmp285,
 5119 015e D35C     		ldrb	r3, [r2, r3]	@ D.8085, GSMbuffRtaCommand
 5120 0160 222B     		cmp	r3, #34	@ D.8085,
 5121 0162 F1D1     		bne	.L357	@,
1666:src/sim900_800.c **** 													}
1667:src/sim900_800.c **** 													strncpy(pGSMReadSMStel, &GSMbuffRtaCommand[flag], (i - flag));
 5122              		.loc 1 1667 0
 5123 0164 1623     		movs	r3, #22	@ tmp286,
 5124 0166 6B44     		add	r3, r3, sp	@ tmp286,
 5125 0168 1A78     		ldrb	r2, [r3]	@ D.8084, flag
 5126 016a 804B     		ldr	r3, .L397+28	@ tmp287,
 5127 016c D118     		adds	r1, r2, r3	@ D.8086, D.8084, tmp287
 5128 016e 1723     		movs	r3, #23	@ tmp288,
 5129 0170 6B44     		add	r3, r3, sp	@ tmp288,
 5130 0172 1A78     		ldrb	r2, [r3]	@ D.8084, i
 5131 0174 1623     		movs	r3, #22	@ tmp289,
 5132 0176 6B44     		add	r3, r3, sp	@ tmp289,
 5133 0178 1B78     		ldrb	r3, [r3]	@ D.8084, flag
 5134 017a D31A     		subs	r3, r2, r3	@ D.8084, D.8084, D.8084
 5135 017c 1A00     		movs	r2, r3	@ D.8087, D.8084
 5136 017e 089B     		ldr	r3, [sp, #32]	@ tmp290, pGSMReadSMStel
 5137 0180 1800     		movs	r0, r3	@, tmp290
 5138 0182 FFF7FEFF 		bl	strncpy	@
 5139              	.L355:
1668:src/sim900_800.c **** 													//strcat(pGSMReadSMStel, (const char *)"\r\n");
1669:src/sim900_800.c **** 													//UARTDBGSend(pGSMReadSMStel);
1670:src/sim900_800.c **** 													//GSMReadSMStel[0]  = 0;
1671:src/sim900_800.c **** 												}
1672:src/sim900_800.c **** 												i++;
 5140              		.loc 1 1672 0
 5141 0186 1723     		movs	r3, #23	@ tmp291,
 5142 0188 6B44     		add	r3, r3, sp	@ tmp291,
 5143 018a 1A78     		ldrb	r2, [r3]	@ D.8083, i
 5144 018c 1723     		movs	r3, #23	@ tmp292,
 5145 018e 6B44     		add	r3, r3, sp	@ tmp292,
 5146 0190 0132     		adds	r2, r2, #1	@ tmp293,
 5147 0192 1A70     		strb	r2, [r3]	@ tmp294, i
 5148              	.L354:
1657:src/sim900_800.c **** 											{
 5149              		.loc 1 1657 0
 5150 0194 1723     		movs	r3, #23	@ tmp295,
 5151 0196 6B44     		add	r3, r3, sp	@ tmp295,
 5152 0198 1B78     		ldrb	r3, [r3]	@ D.8084, i
 5153 019a 744A     		ldr	r2, .L397+28	@ tmp296,
 5154 019c D35C     		ldrb	r3, [r2, r3]	@ D.8085, GSMbuffRtaCommand
 5155 019e 002B     		cmp	r3, #0	@ D.8085,
 5156 01a0 B0D1     		bne	.L358	@,
1673:src/sim900_800.c **** 											}
1674:src/sim900_800.c **** 
1675:src/sim900_800.c **** 											GSMReadSMSrepIn[19] = 0;
 5157              		.loc 1 1675 0
 5158 01a2 6F4B     		ldr	r3, .L397+16	@ tmp297,
 5159 01a4 0022     		movs	r2, #0	@ tmp298,
 5160 01a6 DA74     		strb	r2, [r3, #19]	@ tmp299, GSMReadSMSrepIn
1676:src/sim900_800.c **** 											if(!strncmp((const char *)&GSMReadSMSrepIn[0], (const char *)"000: ARM", sizeof("000: AR
ARM GAS  /tmp/ccKua49E.s 			page 124


 5161              		.loc 1 1676 0
 5162 01a8 7349     		ldr	r1, .L397+40	@ tmp300,
 5163 01aa 6D4B     		ldr	r3, .L397+16	@ tmp301,
 5164 01ac 0822     		movs	r2, #8	@,
 5165 01ae 1800     		movs	r0, r3	@, tmp301
 5166 01b0 FFF7FEFF 		bl	strncmp	@
 5167 01b4 031E     		subs	r3, r0, #0	@ D.8084,,
 5168 01b6 1FD1     		bne	.L359	@,
1677:src/sim900_800.c **** 											{
1678:src/sim900_800.c **** 												if (!strncmp((const char *)&GSMReadSMSrepIn[9], (const char *)puserCode, strlen((const 
 5169              		.loc 1 1678 0
 5170 01b8 029B     		ldr	r3, [sp, #8]	@ tmp302, puserCode
 5171 01ba 1800     		movs	r0, r3	@, tmp302
 5172 01bc FFF7FEFF 		bl	strlen	@
 5173 01c0 0200     		movs	r2, r0	@ D.8087,
 5174 01c2 0299     		ldr	r1, [sp, #8]	@ tmp303, puserCode
 5175 01c4 6D4B     		ldr	r3, .L397+44	@ tmp304,
 5176 01c6 1800     		movs	r0, r3	@, tmp304
 5177 01c8 FFF7FEFF 		bl	strncmp	@
 5178 01cc 031E     		subs	r3, r0, #0	@ D.8084,,
 5179 01ce 13D1     		bne	.L359	@,
1679:src/sim900_800.c **** 												{
1680:src/sim900_800.c **** 													strncpy((char *) pclaveAct, (const char *)&buffUARTGSMrx2[16], 4);
 5180              		.loc 1 1680 0
 5181 01d0 6B49     		ldr	r1, .L397+48	@ tmp305,
 5182 01d2 019B     		ldr	r3, [sp, #4]	@ tmp306, pclaveAct
 5183 01d4 0422     		movs	r2, #4	@,
 5184 01d6 1800     		movs	r0, r3	@, tmp306
 5185 01d8 FFF7FEFF 		bl	strncpy	@
1681:src/sim900_800.c **** 
1682:src/sim900_800.c **** 													*pActDact |= 0x40; //Armar
 5186              		.loc 1 1682 0
 5187 01dc 009B     		ldr	r3, [sp]	@ tmp307, pActDact
 5188 01de 1B78     		ldrb	r3, [r3]	@ D.8083, *pActDact_102(D)
 5189 01e0 4022     		movs	r2, #64	@ tmp309,
 5190 01e2 1343     		orrs	r3, r2	@ tmp308, tmp309
 5191 01e4 DAB2     		uxtb	r2, r3	@ D.8083, tmp308
 5192 01e6 009B     		ldr	r3, [sp]	@ tmp310, pActDact
 5193 01e8 1A70     		strb	r2, [r3]	@ tmp311, *pActDact_102(D)
1683:src/sim900_800.c **** 													*pActDact |= 0x01; //SendOK.
 5194              		.loc 1 1683 0
 5195 01ea 009B     		ldr	r3, [sp]	@ tmp312, pActDact
 5196 01ec 1B78     		ldrb	r3, [r3]	@ D.8083, *pActDact_102(D)
 5197 01ee 0122     		movs	r2, #1	@ tmp314,
 5198 01f0 1343     		orrs	r3, r2	@ tmp313, tmp314
 5199 01f2 DAB2     		uxtb	r2, r3	@ D.8083, tmp313
 5200 01f4 009B     		ldr	r3, [sp]	@ tmp315, pActDact
 5201 01f6 1A70     		strb	r2, [r3]	@ tmp316, *pActDact_102(D)
 5202              	.L359:
1684:src/sim900_800.c **** 												}
1685:src/sim900_800.c **** 											}
1686:src/sim900_800.c **** 
1687:src/sim900_800.c **** 											if(!strncmp((const char *)&GSMReadSMSrepIn[0], (const char *)"000: DRM", sizeof("000: DR
 5203              		.loc 1 1687 0
 5204 01f8 6249     		ldr	r1, .L397+52	@ tmp317,
 5205 01fa 594B     		ldr	r3, .L397+16	@ tmp318,
 5206 01fc 0822     		movs	r2, #8	@,
ARM GAS  /tmp/ccKua49E.s 			page 125


 5207 01fe 1800     		movs	r0, r3	@, tmp318
 5208 0200 FFF7FEFF 		bl	strncmp	@
 5209 0204 031E     		subs	r3, r0, #0	@ D.8084,,
 5210 0206 20D1     		bne	.L353	@,
1688:src/sim900_800.c **** 											{
1689:src/sim900_800.c **** 												if (!strncmp((const char *)&GSMReadSMSrepIn[9], (const char *)puserCode, strlen((const 
 5211              		.loc 1 1689 0
 5212 0208 029B     		ldr	r3, [sp, #8]	@ tmp319, puserCode
 5213 020a 1800     		movs	r0, r3	@, tmp319
 5214 020c FFF7FEFF 		bl	strlen	@
 5215 0210 0200     		movs	r2, r0	@ D.8087,
 5216 0212 0299     		ldr	r1, [sp, #8]	@ tmp320, puserCode
 5217 0214 594B     		ldr	r3, .L397+44	@ tmp321,
 5218 0216 1800     		movs	r0, r3	@, tmp321
 5219 0218 FFF7FEFF 		bl	strncmp	@
 5220 021c 031E     		subs	r3, r0, #0	@ D.8084,,
 5221 021e 14D1     		bne	.L353	@,
1690:src/sim900_800.c **** 												{
1691:src/sim900_800.c **** 													strncpy((char *) pclaveAct, (const char *)&buffUARTGSMrx2[16], 4);
 5222              		.loc 1 1691 0
 5223 0220 5749     		ldr	r1, .L397+48	@ tmp322,
 5224 0222 019B     		ldr	r3, [sp, #4]	@ tmp323, pclaveAct
 5225 0224 0422     		movs	r2, #4	@,
 5226 0226 1800     		movs	r0, r3	@, tmp323
 5227 0228 FFF7FEFF 		bl	strncpy	@
1692:src/sim900_800.c **** 
1693:src/sim900_800.c **** 													*pActDact |= 0x80; //Desrmar
 5228              		.loc 1 1693 0
 5229 022c 009B     		ldr	r3, [sp]	@ tmp324, pActDact
 5230 022e 1B78     		ldrb	r3, [r3]	@ D.8083, *pActDact_102(D)
 5231 0230 8022     		movs	r2, #128	@ tmp544,
 5232 0232 5242     		rsbs	r2, r2, #0	@ tmp326, tmp544
 5233 0234 1343     		orrs	r3, r2	@ tmp325, tmp326
 5234 0236 DAB2     		uxtb	r2, r3	@ D.8083, tmp325
 5235 0238 009B     		ldr	r3, [sp]	@ tmp327, pActDact
 5236 023a 1A70     		strb	r2, [r3]	@ tmp328, *pActDact_102(D)
1694:src/sim900_800.c **** 													*pActDact |= 0x01; //SendOK.
 5237              		.loc 1 1694 0
 5238 023c 009B     		ldr	r3, [sp]	@ tmp329, pActDact
 5239 023e 1B78     		ldrb	r3, [r3]	@ D.8083, *pActDact_102(D)
 5240 0240 0122     		movs	r2, #1	@ tmp331,
 5241 0242 1343     		orrs	r3, r2	@ tmp330, tmp331
 5242 0244 DAB2     		uxtb	r2, r3	@ D.8083, tmp330
 5243 0246 009B     		ldr	r3, [sp]	@ tmp332, pActDact
 5244 0248 1A70     		strb	r2, [r3]	@ tmp333, *pActDact_102(D)
 5245              	.L353:
1695:src/sim900_800.c **** 												}
1696:src/sim900_800.c **** 											}
1697:src/sim900_800.c **** 											//strcat(&GSMReadSMSrepIn[0], (const char *)"\r\n");
1698:src/sim900_800.c **** 											//UARTDBGSend(&GSMReadSMSrepIn[0]);
1699:src/sim900_800.c **** 											//Led4Toggle();
1700:src/sim900_800.c **** 										}
1701:src/sim900_800.c **** 
1702:src/sim900_800.c **** 										GSMReadSMSState = 0;
 5246              		.loc 1 1702 0
 5247 024a 444B     		ldr	r3, .L397+12	@ tmp334,
 5248 024c 0022     		movs	r2, #0	@ tmp335,
ARM GAS  /tmp/ccKua49E.s 			page 126


 5249 024e 1A70     		strb	r2, [r3]	@ tmp336, GSMReadSMSState
1703:src/sim900_800.c **** 										GSMnumSMS++;
 5250              		.loc 1 1703 0
 5251 0250 414B     		ldr	r3, .L397+8	@ tmp337,
 5252 0252 1B78     		ldrb	r3, [r3]	@ D.8083, GSMnumSMS
 5253 0254 0133     		adds	r3, r3, #1	@ tmp338,
 5254 0256 DAB2     		uxtb	r2, r3	@ D.8083, tmp338
 5255 0258 3F4B     		ldr	r3, .L397+8	@ tmp339,
 5256 025a 1A70     		strb	r2, [r3]	@ tmp340, GSMnumSMS
 5257              	.L352:
1704:src/sim900_800.c **** 									}
1705:src/sim900_800.c **** 								}
1706:src/sim900_800.c **** 
1707:src/sim900_800.c **** 								if (i > 2)
 5258              		.loc 1 1707 0
 5259 025c 1723     		movs	r3, #23	@ tmp341,
 5260 025e 6B44     		add	r3, r3, sp	@ tmp341,
 5261 0260 1B78     		ldrb	r3, [r3]	@ tmp342, i
 5262 0262 022B     		cmp	r3, #2	@ tmp342,
 5263 0264 2DD9     		bls	.L391	@,
1708:src/sim900_800.c **** 								{
1709:src/sim900_800.c **** 									GSMReadSMSState = 0;
 5264              		.loc 1 1709 0
 5265 0266 3D4B     		ldr	r3, .L397+12	@ tmp343,
 5266 0268 0022     		movs	r2, #0	@ tmp344,
 5267 026a 1A70     		strb	r2, [r3]	@ tmp345, GSMReadSMSState
1710:src/sim900_800.c **** 								}
1711:src/sim900_800.c **** 							break;
 5268              		.loc 1 1711 0
 5269 026c 29E0     		b	.L391	@
 5270              	.L387:
1712:src/sim900_800.c **** 
1713:src/sim900_800.c **** 						default:
1714:src/sim900_800.c **** 							GSMReadSMSState = 0;
 5271              		.loc 1 1714 0
 5272 026e 3B4B     		ldr	r3, .L397+12	@ tmp346,
 5273 0270 0022     		movs	r2, #0	@ tmp347,
 5274 0272 1A70     		strb	r2, [r3]	@ tmp348, GSMReadSMSState
1715:src/sim900_800.c **** 							break;
 5275              		.loc 1 1715 0
 5276 0274 C046     		nop
 5277 0276 25E0     		b	.L361	@
 5278              	.L347:
1716:src/sim900_800.c **** 						}
1717:src/sim900_800.c **** 			}
1718:src/sim900_800.c **** 			else
1719:src/sim900_800.c **** 			{
1720:src/sim900_800.c **** 
1721:src/sim900_800.c **** 				i = GSMSendCommand ("AT+CMGDA=\"DEL READ\"\r\n", 15, 0, &GSMbuffRtaCommand[0]);
 5279              		.loc 1 1721 0
 5280 0278 1724     		movs	r4, #23	@ tmp349,
 5281 027a 6C44     		add	r4, r4, sp	@ tmp349,
 5282 027c 3B4B     		ldr	r3, .L397+28	@ tmp350,
 5283 027e 4248     		ldr	r0, .L397+56	@ tmp351,
 5284 0280 0022     		movs	r2, #0	@,
 5285 0282 0F21     		movs	r1, #15	@,
 5286 0284 FFF7FEFF 		bl	GSMSendCommand	@
ARM GAS  /tmp/ccKua49E.s 			page 127


 5287 0288 0300     		movs	r3, r0	@ tmp352,
 5288 028a 2370     		strb	r3, [r4]	@ tmp354, i
1722:src/sim900_800.c **** 
1723:src/sim900_800.c **** 				if (i == 2)
 5289              		.loc 1 1723 0
 5290 028c 1723     		movs	r3, #23	@ tmp355,
 5291 028e 6B44     		add	r3, r3, sp	@ tmp355,
 5292 0290 1B78     		ldrb	r3, [r3]	@ tmp356, i
 5293 0292 022B     		cmp	r3, #2	@ tmp356,
 5294 0294 0BD1     		bne	.L362	@,
1724:src/sim900_800.c **** 				{
1725:src/sim900_800.c **** 					GSMnumSMS = 1;
 5295              		.loc 1 1725 0
 5296 0296 304B     		ldr	r3, .L397+8	@ tmp357,
 5297 0298 0122     		movs	r2, #1	@ tmp358,
 5298 029a 1A70     		strb	r2, [r3]	@ tmp359, GSMnumSMS
1726:src/sim900_800.c **** 					GSMrxSMSState = 0;
 5299              		.loc 1 1726 0
 5300 029c 2D4B     		ldr	r3, .L397+4	@ tmp360,
 5301 029e 0022     		movs	r2, #0	@ tmp361,
 5302 02a0 1A70     		strb	r2, [r3]	@ tmp362, GSMrxSMSState
1727:src/sim900_800.c **** 					GSMReadSMSState = 0;
 5303              		.loc 1 1727 0
 5304 02a2 2E4B     		ldr	r3, .L397+12	@ tmp363,
 5305 02a4 0022     		movs	r2, #0	@ tmp364,
 5306 02a6 1A70     		strb	r2, [r3]	@ tmp365, GSMReadSMSState
1728:src/sim900_800.c **** 					GSMCantSMS = 0;
 5307              		.loc 1 1728 0
 5308 02a8 294B     		ldr	r3, .L397	@ tmp366,
 5309 02aa 0022     		movs	r2, #0	@ tmp367,
 5310 02ac 1A70     		strb	r2, [r3]	@ tmp368, GSMCantSMS
 5311              	.L362:
1729:src/sim900_800.c **** 				}
1730:src/sim900_800.c **** 
1731:src/sim900_800.c **** 				if (i > 2)
 5312              		.loc 1 1731 0
 5313 02ae 1723     		movs	r3, #23	@ tmp369,
 5314 02b0 6B44     		add	r3, r3, sp	@ tmp369,
 5315 02b2 1B78     		ldrb	r3, [r3]	@ tmp370, i
 5316 02b4 022B     		cmp	r3, #2	@ tmp370,
 5317 02b6 00D8     		bhi	.LCB4386	@
 5318 02b8 94E1     		b	.L392	@long jump	@
 5319              	.LCB4386:
1732:src/sim900_800.c **** 				{
1733:src/sim900_800.c **** 					GSMReadSMSState = 0;
 5320              		.loc 1 1733 0
 5321 02ba 284B     		ldr	r3, .L397+12	@ tmp371,
 5322 02bc 0022     		movs	r2, #0	@ tmp372,
 5323 02be 1A70     		strb	r2, [r3]	@ tmp373, GSMReadSMSState
1734:src/sim900_800.c **** 				}
1735:src/sim900_800.c **** 			}
1736:src/sim900_800.c **** 			break;
 5324              		.loc 1 1736 0
 5325 02c0 90E1     		b	.L392	@
 5326              	.L391:
1711:src/sim900_800.c **** 
 5327              		.loc 1 1711 0
ARM GAS  /tmp/ccKua49E.s 			page 128


 5328 02c2 C046     		nop
 5329              	.L361:
 5330              		.loc 1 1736 0 discriminator 3
 5331 02c4 8EE1     		b	.L392	@
 5332              	.L386:
1737:src/sim900_800.c **** 
1738:src/sim900_800.c **** 		default:
1739:src/sim900_800.c **** 			GSMrxSMSState = 0;
 5333              		.loc 1 1739 0
 5334 02c6 234B     		ldr	r3, .L397+4	@ tmp374,
 5335 02c8 0022     		movs	r2, #0	@ tmp375,
 5336 02ca 1A70     		strb	r2, [r3]	@ tmp376, GSMrxSMSState
1740:src/sim900_800.c **** 			break;
 5337              		.loc 1 1740 0
 5338 02cc C046     		nop
 5339 02ce 8EE1     		b	.L363	@
 5340              	.L339:
1741:src/sim900_800.c **** 		}
1742:src/sim900_800.c **** 	}
1743:src/sim900_800.c **** 	else if (GSMCantSMS2)
 5341              		.loc 1 1743 0
 5342 02d0 2E4B     		ldr	r3, .L397+60	@ tmp377,
 5343 02d2 1B78     		ldrb	r3, [r3]	@ D.8083, GSMCantSMS2
 5344 02d4 002B     		cmp	r3, #0	@ D.8083,
 5345 02d6 00D1     		bne	.LCB4412	@
 5346 02d8 89E1     		b	.L393	@long jump	@
 5347              	.LCB4412:
1744:src/sim900_800.c **** 	{
1745:src/sim900_800.c **** 		switch(GSMrxSMSState)
 5348              		.loc 1 1745 0
 5349 02da 1E4B     		ldr	r3, .L397+4	@ tmp378,
 5350 02dc 1B78     		ldrb	r3, [r3]	@ D.8083, GSMrxSMSState
 5351 02de 012B     		cmp	r3, #1	@ D.8084,
 5352 02e0 0BD0     		beq	.L365	@,
 5353 02e2 022B     		cmp	r3, #2	@ D.8084,
 5354 02e4 25D0     		beq	.L366	@,
 5355 02e6 002B     		cmp	r3, #0	@ D.8084,
 5356 02e8 00D0     		beq	.LCB4420	@
 5357 02ea 75E1     		b	.L388	@long jump	@
 5358              	.LCB4420:
1746:src/sim900_800.c **** 		{
1747:src/sim900_800.c **** 
1748:src/sim900_800.c **** 			case 0:
1749:src/sim900_800.c **** 				GSMrxSMSState++;
 5359              		.loc 1 1749 0
 5360 02ec 194B     		ldr	r3, .L397+4	@ tmp379,
 5361 02ee 1B78     		ldrb	r3, [r3]	@ D.8083, GSMrxSMSState
 5362 02f0 0133     		adds	r3, r3, #1	@ tmp380,
 5363 02f2 DAB2     		uxtb	r2, r3	@ D.8083, tmp380
 5364 02f4 174B     		ldr	r3, .L397+4	@ tmp381,
 5365 02f6 1A70     		strb	r2, [r3]	@ tmp382, GSMrxSMSState
1750:src/sim900_800.c **** 				break;
 5366              		.loc 1 1750 0
 5367 02f8 79E1     		b	.L363	@
 5368              	.L365:
1751:src/sim900_800.c **** 			case 1:
1752:src/sim900_800.c **** 				i = GSM_SetSIM (2);
ARM GAS  /tmp/ccKua49E.s 			page 129


 5369              		.loc 1 1752 0
 5370 02fa 1724     		movs	r4, #23	@ tmp383,
 5371 02fc 6C44     		add	r4, r4, sp	@ tmp383,
 5372 02fe 0220     		movs	r0, #2	@,
 5373 0300 FFF7FEFF 		bl	GSM_SetSIM	@
 5374 0304 0300     		movs	r3, r0	@ tmp384,
 5375 0306 2370     		strb	r3, [r4]	@ tmp386, i
1753:src/sim900_800.c **** 
1754:src/sim900_800.c **** 				if (i == 2)
 5376              		.loc 1 1754 0
 5377 0308 1723     		movs	r3, #23	@ tmp387,
 5378 030a 6B44     		add	r3, r3, sp	@ tmp387,
 5379 030c 1B78     		ldrb	r3, [r3]	@ tmp388, i
 5380 030e 022B     		cmp	r3, #2	@ tmp388,
 5381 0310 05D1     		bne	.L368	@,
1755:src/sim900_800.c **** 					GSMrxSMSState++;
 5382              		.loc 1 1755 0
 5383 0312 104B     		ldr	r3, .L397+4	@ tmp389,
 5384 0314 1B78     		ldrb	r3, [r3]	@ D.8083, GSMrxSMSState
 5385 0316 0133     		adds	r3, r3, #1	@ tmp390,
 5386 0318 DAB2     		uxtb	r2, r3	@ D.8083, tmp390
 5387 031a 0E4B     		ldr	r3, .L397+4	@ tmp391,
 5388 031c 1A70     		strb	r2, [r3]	@ tmp392, GSMrxSMSState
 5389              	.L368:
1756:src/sim900_800.c **** 				if (i > 2)
 5390              		.loc 1 1756 0
 5391 031e 1723     		movs	r3, #23	@ tmp393,
 5392 0320 6B44     		add	r3, r3, sp	@ tmp393,
 5393 0322 1B78     		ldrb	r3, [r3]	@ tmp394, i
 5394 0324 022B     		cmp	r3, #2	@ tmp394,
 5395 0326 00D8     		bhi	.LCB4454	@
 5396 0328 5EE1     		b	.L394	@long jump	@
 5397              	.LCB4454:
1757:src/sim900_800.c **** 					GSMrxSMSState=0;
 5398              		.loc 1 1757 0
 5399 032a 0A4B     		ldr	r3, .L397+4	@ tmp395,
 5400 032c 0022     		movs	r2, #0	@ tmp396,
 5401 032e 1A70     		strb	r2, [r3]	@ tmp397, GSMrxSMSState
1758:src/sim900_800.c **** 				break;
 5402              		.loc 1 1758 0
 5403 0330 5AE1     		b	.L394	@
 5404              	.L366:
1759:src/sim900_800.c **** 
1760:src/sim900_800.c **** 			case 2:
1761:src/sim900_800.c **** 					//Verifico que no hayan sido leidos los SMS.
1762:src/sim900_800.c **** 					if (GSMnumSMS <= GSMCantSMS2)
 5405              		.loc 1 1762 0
 5406 0332 094B     		ldr	r3, .L397+8	@ tmp398,
 5407 0334 1A78     		ldrb	r2, [r3]	@ D.8083, GSMnumSMS
 5408 0336 154B     		ldr	r3, .L397+60	@ tmp399,
 5409 0338 1B78     		ldrb	r3, [r3]	@ D.8083, GSMCantSMS2
 5410 033a 9A42     		cmp	r2, r3	@ D.8083, D.8083
 5411 033c 00D9     		bls	.LCB4467	@
 5412 033e 22E1     		b	.L370	@long jump	@
 5413              	.LCB4467:
1763:src/sim900_800.c **** 					{
1764:src/sim900_800.c **** 						switch(GSMReadSMSState)
ARM GAS  /tmp/ccKua49E.s 			page 130


 5414              		.loc 1 1764 0
 5415 0340 064B     		ldr	r3, .L397+12	@ tmp400,
 5416 0342 1B78     		ldrb	r3, [r3]	@ D.8085, GSMReadSMSState
 5417 0344 002B     		cmp	r3, #0	@ D.8084,
 5418 0346 23D0     		beq	.L372	@,
 5419 0348 012B     		cmp	r3, #1	@ D.8084,
 5420 034a 33D0     		beq	.L373	@,
 5421 034c 16E1     		b	.L389	@
 5422              	.L398:
 5423 034e C046     		.align	2
 5424              	.L397:
 5425 0350 00000000 		.word	GSMCantSMS
 5426 0354 00000000 		.word	GSMrxSMSState
 5427 0358 00000000 		.word	GSMnumSMS
 5428 035c 00000000 		.word	GSMReadSMSState
 5429 0360 00000000 		.word	GSMReadSMSrepIn
 5430 0364 38020000 		.word	.LC189
 5431 0368 00000000 		.word	GSMReadSMScommand
 5432 036c 00000000 		.word	GSMbuffRtaCommand
 5433 0370 48020000 		.word	.LC193
 5434 0374 6C000000 		.word	.LC60
 5435 0378 50020000 		.word	.LC196
 5436 037c 09000000 		.word	GSMReadSMSrepIn+9
 5437 0380 10000000 		.word	buffUARTGSMrx2+16
 5438 0384 5C020000 		.word	.LC200
 5439 0388 68020000 		.word	.LC202
 5440 038c 00000000 		.word	GSMCantSMS2
 5441              	.L372:
1765:src/sim900_800.c **** 						{
1766:src/sim900_800.c **** 							case 0:
1767:src/sim900_800.c **** 								GSMReadSMSrepIn[0] = 0;
 5442              		.loc 1 1767 0
 5443 0390 984B     		ldr	r3, .L399	@ tmp401,
 5444 0392 0022     		movs	r2, #0	@ tmp402,
 5445 0394 1A70     		strb	r2, [r3]	@ tmp403, GSMReadSMSrepIn
1768:src/sim900_800.c **** 								sprintf(&GSMReadSMScommand[0], (const char *)"AT+CMGR=%d\r\n", GSMnumSMS);
 5446              		.loc 1 1768 0
 5447 0396 984B     		ldr	r3, .L399+4	@ tmp404,
 5448 0398 1B78     		ldrb	r3, [r3]	@ D.8083, GSMnumSMS
 5449 039a 1A00     		movs	r2, r3	@ D.8084, D.8083
 5450 039c 9749     		ldr	r1, .L399+8	@ tmp405,
 5451 039e 984B     		ldr	r3, .L399+12	@ tmp406,
 5452 03a0 1800     		movs	r0, r3	@, tmp406
 5453 03a2 FFF7FEFF 		bl	sprintf	@
1769:src/sim900_800.c **** 								GSMReadSMSState++;
 5454              		.loc 1 1769 0
 5455 03a6 974B     		ldr	r3, .L399+16	@ tmp407,
 5456 03a8 1B78     		ldrb	r3, [r3]	@ D.8085, GSMReadSMSState
 5457 03aa 0133     		adds	r3, r3, #1	@ tmp408,
 5458 03ac DAB2     		uxtb	r2, r3	@ D.8085, tmp408
 5459 03ae 954B     		ldr	r3, .L399+16	@ tmp409,
 5460 03b0 1A70     		strb	r2, [r3]	@ tmp410, GSMReadSMSState
1770:src/sim900_800.c **** 								break;
 5461              		.loc 1 1770 0
 5462 03b2 10E1     		b	.L384	@
 5463              	.L373:
1771:src/sim900_800.c **** 
ARM GAS  /tmp/ccKua49E.s 			page 131


1772:src/sim900_800.c **** 							case 1:
1773:src/sim900_800.c **** 
1774:src/sim900_800.c **** 								i = GSMSendCommand (&GSMReadSMScommand[0], 15, 1, &GSMbuffRtaCommand[0]);
 5464              		.loc 1 1774 0
 5465 03b4 1724     		movs	r4, #23	@ tmp411,
 5466 03b6 6C44     		add	r4, r4, sp	@ tmp411,
 5467 03b8 934B     		ldr	r3, .L399+20	@ tmp412,
 5468 03ba 9148     		ldr	r0, .L399+12	@ tmp413,
 5469 03bc 0122     		movs	r2, #1	@,
 5470 03be 0F21     		movs	r1, #15	@,
 5471 03c0 FFF7FEFF 		bl	GSMSendCommand	@
 5472 03c4 0300     		movs	r3, r0	@ tmp414,
 5473 03c6 2370     		strb	r3, [r4]	@ tmp416, i
1775:src/sim900_800.c **** 
1776:src/sim900_800.c **** 								if (i == 2)
 5474              		.loc 1 1776 0
 5475 03c8 1723     		movs	r3, #23	@ tmp417,
 5476 03ca 6B44     		add	r3, r3, sp	@ tmp417,
 5477 03cc 1B78     		ldrb	r3, [r3]	@ tmp418, i
 5478 03ce 022B     		cmp	r3, #2	@ tmp418,
 5479 03d0 00D0     		beq	.LCB4532	@
 5480 03d2 CAE0     		b	.L375	@long jump	@
 5481              	.LCB4532:
1777:src/sim900_800.c **** 								{
1778:src/sim900_800.c **** 									if (!strncmp((char *)&GSMbuffRtaCommand[0], (const char *)"+CMGR:", sizeof("+CMGR:") - 1))
 5482              		.loc 1 1778 0
 5483 03d4 8D49     		ldr	r1, .L399+24	@ tmp419,
 5484 03d6 8C4B     		ldr	r3, .L399+20	@ tmp420,
 5485 03d8 0622     		movs	r2, #6	@,
 5486 03da 1800     		movs	r0, r3	@, tmp420
 5487 03dc FFF7FEFF 		bl	strncmp	@
 5488 03e0 031E     		subs	r3, r0, #0	@ D.8084,,
 5489 03e2 00D0     		beq	.LCB4540	@
 5490 03e4 C1E0     		b	.L375	@long jump	@
 5491              	.LCB4540:
1779:src/sim900_800.c **** 									{
1780:src/sim900_800.c **** 
1781:src/sim900_800.c **** 										if (!strncmp((char *)&GSMReadSMSrepIn[0], (const char *)"000:", sizeof ("000:") -1))
 5492              		.loc 1 1781 0
 5493 03e6 8A49     		ldr	r1, .L399+28	@ tmp421,
 5494 03e8 824B     		ldr	r3, .L399	@ tmp422,
 5495 03ea 0422     		movs	r2, #4	@,
 5496 03ec 1800     		movs	r0, r3	@, tmp422
 5497 03ee FFF7FEFF 		bl	strncmp	@
 5498 03f2 031E     		subs	r3, r0, #0	@ D.8084,,
 5499 03f4 00D0     		beq	.LCB4548	@
 5500 03f6 AFE0     		b	.L376	@long jump	@
 5501              	.LCB4548:
1782:src/sim900_800.c **** 										{
1783:src/sim900_800.c **** 											i = 0;
 5502              		.loc 1 1783 0
 5503 03f8 1723     		movs	r3, #23	@ tmp423,
 5504 03fa 6B44     		add	r3, r3, sp	@ tmp423,
 5505 03fc 0022     		movs	r2, #0	@ tmp424,
 5506 03fe 1A70     		strb	r2, [r3]	@ tmp425, i
1784:src/sim900_800.c **** 											flag = 0;
 5507              		.loc 1 1784 0
ARM GAS  /tmp/ccKua49E.s 			page 132


 5508 0400 1623     		movs	r3, #22	@ tmp426,
 5509 0402 6B44     		add	r3, r3, sp	@ tmp426,
 5510 0404 0022     		movs	r2, #0	@ tmp427,
 5511 0406 1A70     		strb	r2, [r3]	@ tmp428, flag
1785:src/sim900_800.c **** 											while (*(GSMbuffRtaCommand+i) != 0)
 5512              		.loc 1 1785 0
 5513 0408 4AE0     		b	.L377	@
 5514              	.L381:
1786:src/sim900_800.c **** 											{
1787:src/sim900_800.c **** 												if ((*(GSMbuffRtaCommand+i) == ',') && (*(GSMbuffRtaCommand+i+1) == '"') && (flag == 0)
 5515              		.loc 1 1787 0
 5516 040a 1723     		movs	r3, #23	@ tmp429,
 5517 040c 6B44     		add	r3, r3, sp	@ tmp429,
 5518 040e 1A78     		ldrb	r2, [r3]	@ D.8088, i
 5519 0410 7D4B     		ldr	r3, .L399+20	@ tmp430,
 5520 0412 D318     		adds	r3, r2, r3	@ D.8086, D.8088, tmp430
 5521 0414 1B78     		ldrb	r3, [r3]	@ D.8085, *_170
 5522 0416 2C2B     		cmp	r3, #44	@ D.8085,
 5523 0418 3BD1     		bne	.L378	@,
 5524              		.loc 1 1787 0 is_stmt 0 discriminator 1
 5525 041a 1723     		movs	r3, #23	@ tmp431,
 5526 041c 6B44     		add	r3, r3, sp	@ tmp431,
 5527 041e 1B78     		ldrb	r3, [r3]	@ D.8088, i
 5528 0420 5A1C     		adds	r2, r3, #1	@ D.8088, D.8088,
 5529 0422 794B     		ldr	r3, .L399+20	@ tmp432,
 5530 0424 D318     		adds	r3, r2, r3	@ D.8086, D.8088, tmp432
 5531 0426 1B78     		ldrb	r3, [r3]	@ D.8085, *_174
 5532 0428 222B     		cmp	r3, #34	@ D.8085,
 5533 042a 32D1     		bne	.L378	@,
 5534              		.loc 1 1787 0 discriminator 2
 5535 042c 1623     		movs	r3, #22	@ tmp433,
 5536 042e 6B44     		add	r3, r3, sp	@ tmp433,
 5537 0430 1B78     		ldrb	r3, [r3]	@ tmp434, flag
 5538 0432 002B     		cmp	r3, #0	@ tmp434,
 5539 0434 2DD1     		bne	.L378	@,
1788:src/sim900_800.c **** 												{
1789:src/sim900_800.c **** 													i += 2;
 5540              		.loc 1 1789 0 is_stmt 1
 5541 0436 1723     		movs	r3, #23	@ tmp435,
 5542 0438 6B44     		add	r3, r3, sp	@ tmp435,
 5543 043a 1722     		movs	r2, #23	@ tmp436,
 5544 043c 6A44     		add	r2, r2, sp	@ tmp436,
 5545 043e 1278     		ldrb	r2, [r2]	@ tmp437, i
 5546 0440 0232     		adds	r2, r2, #2	@ tmp438,
 5547 0442 1A70     		strb	r2, [r3]	@ tmp439, i
1790:src/sim900_800.c **** 													flag = i;
 5548              		.loc 1 1790 0
 5549 0444 1623     		movs	r3, #22	@ tmp440,
 5550 0446 6B44     		add	r3, r3, sp	@ tmp440,
 5551 0448 1722     		movs	r2, #23	@ tmp441,
 5552 044a 6A44     		add	r2, r2, sp	@ tmp441,
 5553 044c 1278     		ldrb	r2, [r2]	@ tmp442, i
 5554 044e 1A70     		strb	r2, [r3]	@ tmp442, flag
1791:src/sim900_800.c **** 													while (*(GSMbuffRtaCommand+i) != '"')
 5555              		.loc 1 1791 0
 5556 0450 06E0     		b	.L379	@
 5557              	.L380:
ARM GAS  /tmp/ccKua49E.s 			page 133


1792:src/sim900_800.c **** 													{
1793:src/sim900_800.c **** 														i++;
 5558              		.loc 1 1793 0
 5559 0452 1723     		movs	r3, #23	@ tmp443,
 5560 0454 6B44     		add	r3, r3, sp	@ tmp443,
 5561 0456 1A78     		ldrb	r2, [r3]	@ D.8083, i
 5562 0458 1723     		movs	r3, #23	@ tmp444,
 5563 045a 6B44     		add	r3, r3, sp	@ tmp444,
 5564 045c 0132     		adds	r2, r2, #1	@ tmp445,
 5565 045e 1A70     		strb	r2, [r3]	@ tmp446, i
 5566              	.L379:
1791:src/sim900_800.c **** 													while (*(GSMbuffRtaCommand+i) != '"')
 5567              		.loc 1 1791 0
 5568 0460 1723     		movs	r3, #23	@ tmp447,
 5569 0462 6B44     		add	r3, r3, sp	@ tmp447,
 5570 0464 1A78     		ldrb	r2, [r3]	@ D.8088, i
 5571 0466 684B     		ldr	r3, .L399+20	@ tmp448,
 5572 0468 D318     		adds	r3, r2, r3	@ D.8086, D.8088, tmp448
 5573 046a 1B78     		ldrb	r3, [r3]	@ D.8085, *_179
 5574 046c 222B     		cmp	r3, #34	@ D.8085,
 5575 046e F0D1     		bne	.L380	@,
1794:src/sim900_800.c **** 													}
1795:src/sim900_800.c **** 													strncpy((char *)pGSMReadSMStel, (const char *)&GSMbuffRtaCommand[flag], (i - flag));
 5576              		.loc 1 1795 0
 5577 0470 1623     		movs	r3, #22	@ tmp449,
 5578 0472 6B44     		add	r3, r3, sp	@ tmp449,
 5579 0474 1A78     		ldrb	r2, [r3]	@ D.8084, flag
 5580 0476 644B     		ldr	r3, .L399+20	@ tmp450,
 5581 0478 D118     		adds	r1, r2, r3	@ D.8086, D.8084, tmp450
 5582 047a 1723     		movs	r3, #23	@ tmp451,
 5583 047c 6B44     		add	r3, r3, sp	@ tmp451,
 5584 047e 1A78     		ldrb	r2, [r3]	@ D.8084, i
 5585 0480 1623     		movs	r3, #22	@ tmp452,
 5586 0482 6B44     		add	r3, r3, sp	@ tmp452,
 5587 0484 1B78     		ldrb	r3, [r3]	@ D.8084, flag
 5588 0486 D31A     		subs	r3, r2, r3	@ D.8084, D.8084, D.8084
 5589 0488 1A00     		movs	r2, r3	@ D.8087, D.8084
 5590 048a 089B     		ldr	r3, [sp, #32]	@ tmp453, pGSMReadSMStel
 5591 048c 1800     		movs	r0, r3	@, tmp453
 5592 048e FFF7FEFF 		bl	strncpy	@
 5593              	.L378:
1796:src/sim900_800.c **** 													//strcat(pGSMReadSMStel, (const char *)"\r\n");
1797:src/sim900_800.c **** 													//UARTDBGSend(pGSMReadSMStel);
1798:src/sim900_800.c **** 													//*pGSMReadSMStel  = 0;
1799:src/sim900_800.c **** 												}
1800:src/sim900_800.c **** 												i++;
 5594              		.loc 1 1800 0
 5595 0492 1723     		movs	r3, #23	@ tmp454,
 5596 0494 6B44     		add	r3, r3, sp	@ tmp454,
 5597 0496 1A78     		ldrb	r2, [r3]	@ D.8083, i
 5598 0498 1723     		movs	r3, #23	@ tmp455,
 5599 049a 6B44     		add	r3, r3, sp	@ tmp455,
 5600 049c 0132     		adds	r2, r2, #1	@ tmp456,
 5601 049e 1A70     		strb	r2, [r3]	@ tmp457, i
 5602              	.L377:
1785:src/sim900_800.c **** 											{
 5603              		.loc 1 1785 0
ARM GAS  /tmp/ccKua49E.s 			page 134


 5604 04a0 1723     		movs	r3, #23	@ tmp458,
 5605 04a2 6B44     		add	r3, r3, sp	@ tmp458,
 5606 04a4 1A78     		ldrb	r2, [r3]	@ D.8088, i
 5607 04a6 584B     		ldr	r3, .L399+20	@ tmp459,
 5608 04a8 D318     		adds	r3, r2, r3	@ D.8086, D.8088, tmp459
 5609 04aa 1B78     		ldrb	r3, [r3]	@ D.8085, *_167
 5610 04ac 002B     		cmp	r3, #0	@ D.8085,
 5611 04ae ACD1     		bne	.L381	@,
1801:src/sim900_800.c **** 											}
1802:src/sim900_800.c **** 
1803:src/sim900_800.c **** 											GSMReadSMSrepIn[19] = 0;
 5612              		.loc 1 1803 0
 5613 04b0 504B     		ldr	r3, .L399	@ tmp460,
 5614 04b2 0022     		movs	r2, #0	@ tmp461,
 5615 04b4 DA74     		strb	r2, [r3, #19]	@ tmp462, GSMReadSMSrepIn
1804:src/sim900_800.c **** 											if(!strncmp((const char *)&GSMReadSMSrepIn[0], (const char *)"000: ARM", sizeof("000: AR
 5616              		.loc 1 1804 0
 5617 04b6 5749     		ldr	r1, .L399+32	@ tmp463,
 5618 04b8 4E4B     		ldr	r3, .L399	@ tmp464,
 5619 04ba 0822     		movs	r2, #8	@,
 5620 04bc 1800     		movs	r0, r3	@, tmp464
 5621 04be FFF7FEFF 		bl	strncmp	@
 5622 04c2 031E     		subs	r3, r0, #0	@ D.8084,,
 5623 04c4 1FD1     		bne	.L382	@,
1805:src/sim900_800.c **** 											{
1806:src/sim900_800.c **** 												if (!strncmp((const char *)&GSMReadSMSrepIn[9], (const char *)puserCode, strlen((const 
 5624              		.loc 1 1806 0
 5625 04c6 029B     		ldr	r3, [sp, #8]	@ tmp465, puserCode
 5626 04c8 1800     		movs	r0, r3	@, tmp465
 5627 04ca FFF7FEFF 		bl	strlen	@
 5628 04ce 0200     		movs	r2, r0	@ D.8087,
 5629 04d0 0299     		ldr	r1, [sp, #8]	@ tmp466, puserCode
 5630 04d2 514B     		ldr	r3, .L399+36	@ tmp467,
 5631 04d4 1800     		movs	r0, r3	@, tmp467
 5632 04d6 FFF7FEFF 		bl	strncmp	@
 5633 04da 031E     		subs	r3, r0, #0	@ D.8084,,
 5634 04dc 13D1     		bne	.L382	@,
1807:src/sim900_800.c **** 												{
1808:src/sim900_800.c **** 													strncpy((char *) pclaveAct, (const char *)&buffUARTGSMrx2[16], 4);
 5635              		.loc 1 1808 0
 5636 04de 4F49     		ldr	r1, .L399+40	@ tmp468,
 5637 04e0 019B     		ldr	r3, [sp, #4]	@ tmp469, pclaveAct
 5638 04e2 0422     		movs	r2, #4	@,
 5639 04e4 1800     		movs	r0, r3	@, tmp469
 5640 04e6 FFF7FEFF 		bl	strncpy	@
1809:src/sim900_800.c **** 
1810:src/sim900_800.c **** 													*pActDact |= 0x40; //Armar
 5641              		.loc 1 1810 0
 5642 04ea 009B     		ldr	r3, [sp]	@ tmp470, pActDact
 5643 04ec 1B78     		ldrb	r3, [r3]	@ D.8083, *pActDact_102(D)
 5644 04ee 4022     		movs	r2, #64	@ tmp472,
 5645 04f0 1343     		orrs	r3, r2	@ tmp471, tmp472
 5646 04f2 DAB2     		uxtb	r2, r3	@ D.8083, tmp471
 5647 04f4 009B     		ldr	r3, [sp]	@ tmp473, pActDact
 5648 04f6 1A70     		strb	r2, [r3]	@ tmp474, *pActDact_102(D)
1811:src/sim900_800.c **** 													*pActDact |= 0x02; //SendOK.
 5649              		.loc 1 1811 0
ARM GAS  /tmp/ccKua49E.s 			page 135


 5650 04f8 009B     		ldr	r3, [sp]	@ tmp475, pActDact
 5651 04fa 1B78     		ldrb	r3, [r3]	@ D.8083, *pActDact_102(D)
 5652 04fc 0222     		movs	r2, #2	@ tmp477,
 5653 04fe 1343     		orrs	r3, r2	@ tmp476, tmp477
 5654 0500 DAB2     		uxtb	r2, r3	@ D.8083, tmp476
 5655 0502 009B     		ldr	r3, [sp]	@ tmp478, pActDact
 5656 0504 1A70     		strb	r2, [r3]	@ tmp479, *pActDact_102(D)
 5657              	.L382:
1812:src/sim900_800.c **** 												}
1813:src/sim900_800.c **** 											}
1814:src/sim900_800.c **** 
1815:src/sim900_800.c **** 											if(!strncmp((const char *)&GSMReadSMSrepIn[0], (const char *)"000: DRM", sizeof("000: DR
 5658              		.loc 1 1815 0
 5659 0506 4649     		ldr	r1, .L399+44	@ tmp480,
 5660 0508 3A4B     		ldr	r3, .L399	@ tmp481,
 5661 050a 0822     		movs	r2, #8	@,
 5662 050c 1800     		movs	r0, r3	@, tmp481
 5663 050e FFF7FEFF 		bl	strncmp	@
 5664 0512 031E     		subs	r3, r0, #0	@ D.8084,,
 5665 0514 20D1     		bne	.L376	@,
1816:src/sim900_800.c **** 											{
1817:src/sim900_800.c **** 												if (!strncmp((const char *)&GSMReadSMSrepIn[9], (const char *)puserCode, strlen((const 
 5666              		.loc 1 1817 0
 5667 0516 029B     		ldr	r3, [sp, #8]	@ tmp482, puserCode
 5668 0518 1800     		movs	r0, r3	@, tmp482
 5669 051a FFF7FEFF 		bl	strlen	@
 5670 051e 0200     		movs	r2, r0	@ D.8087,
 5671 0520 0299     		ldr	r1, [sp, #8]	@ tmp483, puserCode
 5672 0522 3D4B     		ldr	r3, .L399+36	@ tmp484,
 5673 0524 1800     		movs	r0, r3	@, tmp484
 5674 0526 FFF7FEFF 		bl	strncmp	@
 5675 052a 031E     		subs	r3, r0, #0	@ D.8084,,
 5676 052c 14D1     		bne	.L376	@,
1818:src/sim900_800.c **** 												{
1819:src/sim900_800.c **** 													strncpy((char *) pclaveAct, (const char *)&buffUARTGSMrx2[16], 4);
 5677              		.loc 1 1819 0
 5678 052e 3B49     		ldr	r1, .L399+40	@ tmp485,
 5679 0530 019B     		ldr	r3, [sp, #4]	@ tmp486, pclaveAct
 5680 0532 0422     		movs	r2, #4	@,
 5681 0534 1800     		movs	r0, r3	@, tmp486
 5682 0536 FFF7FEFF 		bl	strncpy	@
1820:src/sim900_800.c **** 
1821:src/sim900_800.c **** 													*pActDact |= 0x80; //Desrmar
 5683              		.loc 1 1821 0
 5684 053a 009B     		ldr	r3, [sp]	@ tmp487, pActDact
 5685 053c 1B78     		ldrb	r3, [r3]	@ D.8083, *pActDact_102(D)
 5686 053e 8022     		movs	r2, #128	@ tmp543,
 5687 0540 5242     		rsbs	r2, r2, #0	@ tmp489, tmp543
 5688 0542 1343     		orrs	r3, r2	@ tmp488, tmp489
 5689 0544 DAB2     		uxtb	r2, r3	@ D.8083, tmp488
 5690 0546 009B     		ldr	r3, [sp]	@ tmp490, pActDact
 5691 0548 1A70     		strb	r2, [r3]	@ tmp491, *pActDact_102(D)
1822:src/sim900_800.c **** 													*pActDact |= 0x02; //SendOK.
 5692              		.loc 1 1822 0
 5693 054a 009B     		ldr	r3, [sp]	@ tmp492, pActDact
 5694 054c 1B78     		ldrb	r3, [r3]	@ D.8083, *pActDact_102(D)
 5695 054e 0222     		movs	r2, #2	@ tmp494,
ARM GAS  /tmp/ccKua49E.s 			page 136


 5696 0550 1343     		orrs	r3, r2	@ tmp493, tmp494
 5697 0552 DAB2     		uxtb	r2, r3	@ D.8083, tmp493
 5698 0554 009B     		ldr	r3, [sp]	@ tmp495, pActDact
 5699 0556 1A70     		strb	r2, [r3]	@ tmp496, *pActDact_102(D)
 5700              	.L376:
1823:src/sim900_800.c **** 												}
1824:src/sim900_800.c **** 											}
1825:src/sim900_800.c **** 											//strcat(&GSMReadSMSrepIn[0], (const char *)"\r\n");
1826:src/sim900_800.c **** 											//UARTDBGSend(&GSMReadSMSrepIn[0]);
1827:src/sim900_800.c **** 											//Led4Toggle();
1828:src/sim900_800.c **** 										}
1829:src/sim900_800.c **** 
1830:src/sim900_800.c **** 										GSMReadSMSState = 0;
 5701              		.loc 1 1830 0
 5702 0558 2A4B     		ldr	r3, .L399+16	@ tmp497,
 5703 055a 0022     		movs	r2, #0	@ tmp498,
 5704 055c 1A70     		strb	r2, [r3]	@ tmp499, GSMReadSMSState
1831:src/sim900_800.c **** 										GSMnumSMS++;
 5705              		.loc 1 1831 0
 5706 055e 264B     		ldr	r3, .L399+4	@ tmp500,
 5707 0560 1B78     		ldrb	r3, [r3]	@ D.8083, GSMnumSMS
 5708 0562 0133     		adds	r3, r3, #1	@ tmp501,
 5709 0564 DAB2     		uxtb	r2, r3	@ D.8083, tmp501
 5710 0566 244B     		ldr	r3, .L399+4	@ tmp502,
 5711 0568 1A70     		strb	r2, [r3]	@ tmp503, GSMnumSMS
 5712              	.L375:
1832:src/sim900_800.c **** 									}
1833:src/sim900_800.c **** 								}
1834:src/sim900_800.c **** 
1835:src/sim900_800.c **** 								if (i > 2)
 5713              		.loc 1 1835 0
 5714 056a 1723     		movs	r3, #23	@ tmp504,
 5715 056c 6B44     		add	r3, r3, sp	@ tmp504,
 5716 056e 1B78     		ldrb	r3, [r3]	@ tmp505, i
 5717 0570 022B     		cmp	r3, #2	@ tmp505,
 5718 0572 2FD9     		bls	.L395	@,
1836:src/sim900_800.c **** 								{
1837:src/sim900_800.c **** 									GSMReadSMSState = 0;
 5719              		.loc 1 1837 0
 5720 0574 234B     		ldr	r3, .L399+16	@ tmp506,
 5721 0576 0022     		movs	r2, #0	@ tmp507,
 5722 0578 1A70     		strb	r2, [r3]	@ tmp508, GSMReadSMSState
1838:src/sim900_800.c **** 									//GSMrxSMSState = 0;
1839:src/sim900_800.c **** 								}
1840:src/sim900_800.c **** 							break;
 5723              		.loc 1 1840 0
 5724 057a 2BE0     		b	.L395	@
 5725              	.L389:
1841:src/sim900_800.c **** 
1842:src/sim900_800.c **** 						default:
1843:src/sim900_800.c **** 							GSMReadSMSState = 0;
 5726              		.loc 1 1843 0
 5727 057c 214B     		ldr	r3, .L399+16	@ tmp509,
 5728 057e 0022     		movs	r2, #0	@ tmp510,
 5729 0580 1A70     		strb	r2, [r3]	@ tmp511, GSMReadSMSState
1844:src/sim900_800.c **** 							break;
 5730              		.loc 1 1844 0
ARM GAS  /tmp/ccKua49E.s 			page 137


 5731 0582 C046     		nop
 5732 0584 27E0     		b	.L384	@
 5733              	.L370:
1845:src/sim900_800.c **** 						}
1846:src/sim900_800.c **** 			}
1847:src/sim900_800.c **** 			else
1848:src/sim900_800.c **** 			{
1849:src/sim900_800.c **** 
1850:src/sim900_800.c **** 				i = GSMSendCommand ("AT+CMGDA=\"DEL READ\"\r\n", 15, 0, &GSMbuffRtaCommand[0]);
 5734              		.loc 1 1850 0
 5735 0586 1724     		movs	r4, #23	@ tmp512,
 5736 0588 6C44     		add	r4, r4, sp	@ tmp512,
 5737 058a 1F4B     		ldr	r3, .L399+20	@ tmp513,
 5738 058c 2548     		ldr	r0, .L399+48	@ tmp514,
 5739 058e 0022     		movs	r2, #0	@,
 5740 0590 0F21     		movs	r1, #15	@,
 5741 0592 FFF7FEFF 		bl	GSMSendCommand	@
 5742 0596 0300     		movs	r3, r0	@ tmp515,
 5743 0598 2370     		strb	r3, [r4]	@ tmp517, i
1851:src/sim900_800.c **** 
1852:src/sim900_800.c **** 				if (i == 2)
 5744              		.loc 1 1852 0
 5745 059a 1723     		movs	r3, #23	@ tmp518,
 5746 059c 6B44     		add	r3, r3, sp	@ tmp518,
 5747 059e 1B78     		ldrb	r3, [r3]	@ tmp519, i
 5748 05a0 022B     		cmp	r3, #2	@ tmp519,
 5749 05a2 0BD1     		bne	.L385	@,
1853:src/sim900_800.c **** 				{
1854:src/sim900_800.c **** 					GSMnumSMS = 1;
 5750              		.loc 1 1854 0
 5751 05a4 144B     		ldr	r3, .L399+4	@ tmp520,
 5752 05a6 0122     		movs	r2, #1	@ tmp521,
 5753 05a8 1A70     		strb	r2, [r3]	@ tmp522, GSMnumSMS
1855:src/sim900_800.c **** 					GSMReadSMSState = 0;
 5754              		.loc 1 1855 0
 5755 05aa 164B     		ldr	r3, .L399+16	@ tmp523,
 5756 05ac 0022     		movs	r2, #0	@ tmp524,
 5757 05ae 1A70     		strb	r2, [r3]	@ tmp525, GSMReadSMSState
1856:src/sim900_800.c **** 					GSMrxSMSState = 0;
 5758              		.loc 1 1856 0
 5759 05b0 1D4B     		ldr	r3, .L399+52	@ tmp526,
 5760 05b2 0022     		movs	r2, #0	@ tmp527,
 5761 05b4 1A70     		strb	r2, [r3]	@ tmp528, GSMrxSMSState
1857:src/sim900_800.c **** 					GSMCantSMS2 = 0;
 5762              		.loc 1 1857 0
 5763 05b6 1D4B     		ldr	r3, .L399+56	@ tmp529,
 5764 05b8 0022     		movs	r2, #0	@ tmp530,
 5765 05ba 1A70     		strb	r2, [r3]	@ tmp531, GSMCantSMS2
 5766              	.L385:
1858:src/sim900_800.c **** 				}
1859:src/sim900_800.c **** 
1860:src/sim900_800.c **** 				if (i > 2)
 5767              		.loc 1 1860 0
 5768 05bc 1723     		movs	r3, #23	@ tmp532,
 5769 05be 6B44     		add	r3, r3, sp	@ tmp532,
 5770 05c0 1B78     		ldrb	r3, [r3]	@ tmp533, i
 5771 05c2 022B     		cmp	r3, #2	@ tmp533,
ARM GAS  /tmp/ccKua49E.s 			page 138


 5772 05c4 12D9     		bls	.L396	@,
1861:src/sim900_800.c **** 				{
1862:src/sim900_800.c **** 					GSMrxSMSState = 0;
 5773              		.loc 1 1862 0
 5774 05c6 184B     		ldr	r3, .L399+52	@ tmp534,
 5775 05c8 0022     		movs	r2, #0	@ tmp535,
 5776 05ca 1A70     		strb	r2, [r3]	@ tmp536, GSMrxSMSState
1863:src/sim900_800.c **** 					GSMReadSMSState = 0;
 5777              		.loc 1 1863 0
 5778 05cc 0D4B     		ldr	r3, .L399+16	@ tmp537,
 5779 05ce 0022     		movs	r2, #0	@ tmp538,
 5780 05d0 1A70     		strb	r2, [r3]	@ tmp539, GSMReadSMSState
1864:src/sim900_800.c **** 				}
1865:src/sim900_800.c **** 			}
1866:src/sim900_800.c **** 			break;
 5781              		.loc 1 1866 0
 5782 05d2 0BE0     		b	.L396	@
 5783              	.L395:
1840:src/sim900_800.c **** 
 5784              		.loc 1 1840 0
 5785 05d4 C046     		nop
 5786              	.L384:
 5787              		.loc 1 1866 0 discriminator 6
 5788 05d6 09E0     		b	.L396	@
 5789              	.L388:
1867:src/sim900_800.c **** 		default:
1868:src/sim900_800.c **** 			GSMrxSMSState = 0;
 5790              		.loc 1 1868 0
 5791 05d8 134B     		ldr	r3, .L399+52	@ tmp540,
 5792 05da 0022     		movs	r2, #0	@ tmp541,
 5793 05dc 1A70     		strb	r2, [r3]	@ tmp542, GSMrxSMSState
1869:src/sim900_800.c **** 			break;
 5794              		.loc 1 1869 0
 5795 05de 06E0     		b	.L363	@
 5796              	.L390:
1630:src/sim900_800.c **** 
 5797              		.loc 1 1630 0
 5798 05e0 C046     		nop
 5799 05e2 04E0     		b	.L393	@
 5800              	.L392:
1736:src/sim900_800.c **** 
 5801              		.loc 1 1736 0
 5802 05e4 C046     		nop
 5803 05e6 02E0     		b	.L393	@
 5804              	.L394:
1758:src/sim900_800.c **** 
 5805              		.loc 1 1758 0
 5806 05e8 C046     		nop
 5807 05ea 00E0     		b	.L393	@
 5808              	.L396:
1866:src/sim900_800.c **** 		default:
 5809              		.loc 1 1866 0
 5810 05ec C046     		nop
 5811              	.L363:
 5812              	.L393:
1870:src/sim900_800.c **** 		}
1871:src/sim900_800.c **** 	}
ARM GAS  /tmp/ccKua49E.s 			page 139


1872:src/sim900_800.c **** }
 5813              		.loc 1 1872 0
 5814 05ee C046     		nop
 5815 05f0 06B0     		add	sp, sp, #24	@,,
 5816              		@ sp needed	@
 5817 05f2 10BD     		pop	{r4, pc}
 5818              	.L400:
 5819              		.align	2
 5820              	.L399:
 5821 05f4 00000000 		.word	GSMReadSMSrepIn
 5822 05f8 00000000 		.word	GSMnumSMS
 5823 05fc 38020000 		.word	.LC189
 5824 0600 00000000 		.word	GSMReadSMScommand
 5825 0604 00000000 		.word	GSMReadSMSState
 5826 0608 00000000 		.word	GSMbuffRtaCommand
 5827 060c 48020000 		.word	.LC193
 5828 0610 6C000000 		.word	.LC60
 5829 0614 50020000 		.word	.LC196
 5830 0618 09000000 		.word	GSMReadSMSrepIn+9
 5831 061c 10000000 		.word	buffUARTGSMrx2+16
 5832 0620 5C020000 		.word	.LC200
 5833 0624 68020000 		.word	.LC202
 5834 0628 00000000 		.word	GSMrxSMSState
 5835 062c 00000000 		.word	GSMCantSMS2
 5836              		.cfi_endproc
 5837              	.LFE35:
 5838              		.size	GSMrxSMS, .-GSMrxSMS
 5839              		.section	.text.GSMConfigPDPGPRS,"ax",%progbits
 5840              		.align	2
 5841              		.global	GSMConfigPDPGPRS
 5842              		.code	16
 5843              		.thumb_func
 5844              		.type	GSMConfigPDPGPRS, %function
 5845              	GSMConfigPDPGPRS:
 5846              	.LFB36:
1873:src/sim900_800.c **** 
1874:src/sim900_800.c **** char GSMConfigPDPGPRS (char sim, char *ptrAPN, char *ptrUSER, char *ptrKEY , char *ptrIPAdd, char *
1875:src/sim900_800.c **** {
 5847              		.loc 1 1875 0
 5848              		.cfi_startproc
 5849 0000 10B5     		push	{r4, lr}	@
 5850              	.LCFI22:
 5851              		.cfi_def_cfa_offset 8
 5852              		.cfi_offset 4, -8
 5853              		.cfi_offset 14, -4
 5854 0002 86B0     		sub	sp, sp, #24	@,,
 5855              	.LCFI23:
 5856              		.cfi_def_cfa_offset 32
 5857 0004 0291     		str	r1, [sp, #8]	@ ptrAPN, ptrAPN
 5858 0006 0192     		str	r2, [sp, #4]	@ ptrUSER, ptrUSER
 5859 0008 0093     		str	r3, [sp]	@ ptrKEY, ptrKEY
 5860 000a 0F23     		movs	r3, #15	@ tmp173,
 5861 000c 6B44     		add	r3, r3, sp	@ tmp173,
 5862 000e 021C     		adds	r2, r0, #0	@ tmp174, tmp172
 5863 0010 1A70     		strb	r2, [r3]	@ tmp174, sim
1876:src/sim900_800.c **** 	unsigned char i;
1877:src/sim900_800.c **** 
ARM GAS  /tmp/ccKua49E.s 			page 140


1878:src/sim900_800.c **** 	switch(GSMConfigGPRSState)
 5864              		.loc 1 1878 0
 5865 0012 C64B     		ldr	r3, .L477	@ tmp175,
 5866 0014 1B78     		ldrb	r3, [r3]	@ D.8094, GSMConfigGPRSState
 5867 0016 102B     		cmp	r3, #16	@ D.8095,
 5868 0018 00D9     		bls	.LCB4895	@
 5869 001a 21E3     		b	.L402	@long jump	@
 5870              	.LCB4895:
 5871 001c 9A00     		lsls	r2, r3, #2	@ tmp176, D.8095,
 5872 001e C44B     		ldr	r3, .L477+4	@ tmp178,
 5873 0020 D318     		adds	r3, r2, r3	@ tmp177, tmp176, tmp178
 5874 0022 1B68     		ldr	r3, [r3]	@ tmp179,
 5875 0024 9F46     		mov	pc, r3	@ tmp179
 5876              		.section	.rodata.GSMConfigPDPGPRS,"a",%progbits
 5877              		.align	2
 5878              	.L404:
 5879 0000 26000000 		.word	.L403
 5880 0004 42000000 		.word	.L405
 5881 0008 4A000000 		.word	.L406
 5882 000c 8A000000 		.word	.L407
 5883 0010 A2010000 		.word	.L408
 5884 0014 FE010000 		.word	.L409
 5885 0018 5A020000 		.word	.L410
 5886 001c EA020000 		.word	.L411
 5887 0020 8C030000 		.word	.L412
 5888 0024 32040000 		.word	.L413
 5889 0028 00050000 		.word	.L414
 5890 002c 3A050000 		.word	.L415
 5891 0030 74050000 		.word	.L416
 5892 0034 BA050000 		.word	.L417
 5893 0038 C2050000 		.word	.L418
 5894 003c CC050000 		.word	.L419
 5895 0040 24060000 		.word	.L420
 5896              		.section	.text.GSMConfigPDPGPRS
 5897              	.L403:
1879:src/sim900_800.c **** 	{
1880:src/sim900_800.c **** 
1881:src/sim900_800.c **** 		case 0:
1882:src/sim900_800.c **** 			GSMConfigGPRSTimeOut = timeOut;
 5898              		.loc 1 1882 0
 5899 0026 C34B     		ldr	r3, .L477+8	@ tmp180,
 5900 0028 0BAA     		add	r2, sp, #44	@ tmp181,,
 5901 002a 1288     		ldrh	r2, [r2]	@ tmp182, timeOut
 5902 002c 1A80     		strh	r2, [r3]	@ tmp182, GSMConfigGPRSTimeOut
1883:src/sim900_800.c **** 			GSMConfigGPRSState++;
 5903              		.loc 1 1883 0
 5904 002e BF4B     		ldr	r3, .L477	@ tmp183,
 5905 0030 1B78     		ldrb	r3, [r3]	@ D.8094, GSMConfigGPRSState
 5906 0032 0133     		adds	r3, r3, #1	@ tmp184,
 5907 0034 DAB2     		uxtb	r2, r3	@ D.8094, tmp184
 5908 0036 BD4B     		ldr	r3, .L477	@ tmp185,
 5909 0038 1A70     		strb	r2, [r3]	@ tmp186, GSMConfigGPRSState
1884:src/sim900_800.c **** 			GSMConfigGPRSflag = 1;
 5910              		.loc 1 1884 0
 5911 003a BF4B     		ldr	r3, .L477+12	@ tmp187,
 5912 003c 0122     		movs	r2, #1	@ tmp188,
 5913 003e 1A70     		strb	r2, [r3]	@ tmp189, GSMConfigGPRSflag
ARM GAS  /tmp/ccKua49E.s 			page 141


1885:src/sim900_800.c **** 			break;
 5914              		.loc 1 1885 0
 5915 0040 29E3     		b	.L421	@
 5916              	.L405:
1886:src/sim900_800.c **** 
1887:src/sim900_800.c **** 		case 1:
1888:src/sim900_800.c **** 			GSMConfigGPRSState = 15;
 5917              		.loc 1 1888 0
 5918 0042 BA4B     		ldr	r3, .L477	@ tmp190,
 5919 0044 0F22     		movs	r2, #15	@ tmp191,
 5920 0046 1A70     		strb	r2, [r3]	@ tmp192, GSMConfigGPRSState
1889:src/sim900_800.c **** /*
1890:src/sim900_800.c **** 			i = GSMSendCommand("000: KAL,123456,100\r\n", 50, 0, &GSMbuffRtaCommand[0]);
1891:src/sim900_800.c **** 
1892:src/sim900_800.c **** 			if (i == 2)
1893:src/sim900_800.c **** 			{
1894:src/sim900_800.c **** 				//Respondio ACK.
1895:src/sim900_800.c **** 				//Conectado.
1896:src/sim900_800.c **** 				GSMConfigGPRSState = 0;
1897:src/sim900_800.c **** 				return 2;
1898:src/sim900_800.c **** 			}
1899:src/sim900_800.c **** 
1900:src/sim900_800.c **** 			if (i > 2)
1901:src/sim900_800.c **** 			{
1902:src/sim900_800.c **** 				//No conectado.
1903:src/sim900_800.c **** 				//Seleccionar Sim.
1904:src/sim900_800.c **** 				GSMConfigGPRSState = 15;
1905:src/sim900_800.c **** 			}
1906:src/sim900_800.c **** */
1907:src/sim900_800.c **** 			break;
 5921              		.loc 1 1907 0
 5922 0048 25E3     		b	.L421	@
 5923              	.L406:
1908:src/sim900_800.c **** 		case 2:
1909:src/sim900_800.c **** 
1910:src/sim900_800.c **** 			i = GSMSendCommand("AT+CIPSTATUS\r\n", 50, 0, &GSMbuffRtaCommand[0]);
 5924              		.loc 1 1910 0
 5925 004a 1724     		movs	r4, #23	@ tmp193,
 5926 004c 6C44     		add	r4, r4, sp	@ tmp193,
 5927 004e BB4B     		ldr	r3, .L477+16	@ tmp194,
 5928 0050 BB48     		ldr	r0, .L477+20	@ tmp195,
 5929 0052 0022     		movs	r2, #0	@,
 5930 0054 3221     		movs	r1, #50	@,
 5931 0056 FFF7FEFF 		bl	GSMSendCommand	@
 5932 005a 0300     		movs	r3, r0	@ tmp196,
 5933 005c 2370     		strb	r3, [r4]	@ tmp198, i
1911:src/sim900_800.c **** 
1912:src/sim900_800.c **** 			if (i == 2)
 5934              		.loc 1 1912 0
 5935 005e 1723     		movs	r3, #23	@ tmp199,
 5936 0060 6B44     		add	r3, r3, sp	@ tmp199,
 5937 0062 1B78     		ldrb	r3, [r3]	@ tmp200, i
 5938 0064 022B     		cmp	r3, #2	@ tmp200,
 5939 0066 05D1     		bne	.L422	@,
1913:src/sim900_800.c **** 			{
1914:src/sim900_800.c **** 				GSMConfigGPRSState++;
 5940              		.loc 1 1914 0
ARM GAS  /tmp/ccKua49E.s 			page 142


 5941 0068 B04B     		ldr	r3, .L477	@ tmp201,
 5942 006a 1B78     		ldrb	r3, [r3]	@ D.8094, GSMConfigGPRSState
 5943 006c 0133     		adds	r3, r3, #1	@ tmp202,
 5944 006e DAB2     		uxtb	r2, r3	@ D.8094, tmp202
 5945 0070 AE4B     		ldr	r3, .L477	@ tmp203,
 5946 0072 1A70     		strb	r2, [r3]	@ tmp204, GSMConfigGPRSState
 5947              	.L422:
1915:src/sim900_800.c **** 			}
1916:src/sim900_800.c **** 
1917:src/sim900_800.c **** 			if (i > 2)
 5948              		.loc 1 1917 0
 5949 0074 1723     		movs	r3, #23	@ tmp205,
 5950 0076 6B44     		add	r3, r3, sp	@ tmp205,
 5951 0078 1B78     		ldrb	r3, [r3]	@ tmp206, i
 5952 007a 022B     		cmp	r3, #2	@ tmp206,
 5953 007c 00D8     		bhi	.LCB4957	@
 5954 007e F3E2     		b	.L465	@long jump	@
 5955              	.LCB4957:
1918:src/sim900_800.c **** 			{
1919:src/sim900_800.c **** 				GSMConfigGPRSState = 0;
 5956              		.loc 1 1919 0
 5957 0080 AA4B     		ldr	r3, .L477	@ tmp207,
 5958 0082 0022     		movs	r2, #0	@ tmp208,
 5959 0084 1A70     		strb	r2, [r3]	@ tmp209, GSMConfigGPRSState
1920:src/sim900_800.c **** 				return 3;
 5960              		.loc 1 1920 0
 5961 0086 0323     		movs	r3, #3	@ D.8094,
 5962 0088 0FE3     		b	.L424	@
 5963              	.L407:
1921:src/sim900_800.c **** 			}
1922:src/sim900_800.c **** 			break;
1923:src/sim900_800.c **** 		case 3:
1924:src/sim900_800.c **** 			if(GSMConfigGPRSflag == 2)
 5964              		.loc 1 1924 0
 5965 008a AB4B     		ldr	r3, .L477+12	@ tmp210,
 5966 008c 1B78     		ldrb	r3, [r3]	@ D.8094, GSMConfigGPRSflag
 5967 008e 022B     		cmp	r3, #2	@ D.8094,
 5968 0090 00D0     		beq	.LCB4969	@
 5969 0092 EBE2     		b	.L466	@long jump	@
 5970              	.LCB4969:
1925:src/sim900_800.c **** 			{
1926:src/sim900_800.c **** 				//const char GSM_IPINITIAL[] 		= "IP INITIAL";
1927:src/sim900_800.c **** 				if(!strncmp((const char *)&GSMbuffStatus[0], (const char *)&GSM_IPINITIAL[0], strlen((const cha
 5971              		.loc 1 1927 0
 5972 0094 AB49     		ldr	r1, .L477+24	@ tmp211,
 5973 0096 AC4B     		ldr	r3, .L477+28	@ tmp212,
 5974 0098 0A22     		movs	r2, #10	@,
 5975 009a 1800     		movs	r0, r3	@, tmp212
 5976 009c FFF7FEFF 		bl	strncmp	@
 5977 00a0 031E     		subs	r3, r0, #0	@ D.8095,,
 5978 00a2 08D1     		bne	.L426	@,
1928:src/sim900_800.c **** 				{
1929:src/sim900_800.c **** 					GSMConfigGPRSState += 1;
 5979              		.loc 1 1929 0
 5980 00a4 A14B     		ldr	r3, .L477	@ tmp213,
 5981 00a6 1B78     		ldrb	r3, [r3]	@ D.8094, GSMConfigGPRSState
 5982 00a8 0133     		adds	r3, r3, #1	@ tmp214,
ARM GAS  /tmp/ccKua49E.s 			page 143


 5983 00aa DAB2     		uxtb	r2, r3	@ D.8094, tmp214
 5984 00ac 9F4B     		ldr	r3, .L477	@ tmp215,
 5985 00ae 1A70     		strb	r2, [r3]	@ tmp216, GSMConfigGPRSState
1930:src/sim900_800.c **** 					GSMConfigGPRSflag = 1;
 5986              		.loc 1 1930 0
 5987 00b0 A14B     		ldr	r3, .L477+12	@ tmp217,
 5988 00b2 0122     		movs	r2, #1	@ tmp218,
 5989 00b4 1A70     		strb	r2, [r3]	@ tmp219, GSMConfigGPRSflag
 5990              	.L426:
1931:src/sim900_800.c **** 				}
1932:src/sim900_800.c **** 				//const char GSM_IPSTART[] 		= "IP START";
1933:src/sim900_800.c **** 				if(!strncmp((const char *)&GSMbuffStatus[0], (const char *)&GSM_IPSTART[0], strlen((const char 
 5991              		.loc 1 1933 0
 5992 00b6 A549     		ldr	r1, .L477+32	@ tmp220,
 5993 00b8 A34B     		ldr	r3, .L477+28	@ tmp221,
 5994 00ba 0822     		movs	r2, #8	@,
 5995 00bc 1800     		movs	r0, r3	@, tmp221
 5996 00be FFF7FEFF 		bl	strncmp	@
 5997 00c2 031E     		subs	r3, r0, #0	@ D.8095,,
 5998 00c4 08D1     		bne	.L427	@,
1934:src/sim900_800.c **** 				{
1935:src/sim900_800.c **** 					GSMConfigGPRSState += 8;
 5999              		.loc 1 1935 0
 6000 00c6 994B     		ldr	r3, .L477	@ tmp222,
 6001 00c8 1B78     		ldrb	r3, [r3]	@ D.8094, GSMConfigGPRSState
 6002 00ca 0833     		adds	r3, r3, #8	@ tmp223,
 6003 00cc DAB2     		uxtb	r2, r3	@ D.8094, tmp223
 6004 00ce 974B     		ldr	r3, .L477	@ tmp224,
 6005 00d0 1A70     		strb	r2, [r3]	@ tmp225, GSMConfigGPRSState
1936:src/sim900_800.c **** 					GSMConfigGPRSflag = 1;
 6006              		.loc 1 1936 0
 6007 00d2 994B     		ldr	r3, .L477+12	@ tmp226,
 6008 00d4 0122     		movs	r2, #1	@ tmp227,
 6009 00d6 1A70     		strb	r2, [r3]	@ tmp228, GSMConfigGPRSflag
 6010              	.L427:
1937:src/sim900_800.c **** 				}
1938:src/sim900_800.c **** 				//const char GSM_IPGPRSACT[] 		= "IP GPRSACT";
1939:src/sim900_800.c **** 				if(!strncmp((const char *)&GSMbuffStatus[0], (const char *)&GSM_IPGPRSACT[0], strlen((const cha
 6011              		.loc 1 1939 0
 6012 00d8 9D49     		ldr	r1, .L477+36	@ tmp229,
 6013 00da 9B4B     		ldr	r3, .L477+28	@ tmp230,
 6014 00dc 0A22     		movs	r2, #10	@,
 6015 00de 1800     		movs	r0, r3	@, tmp230
 6016 00e0 FFF7FEFF 		bl	strncmp	@
 6017 00e4 031E     		subs	r3, r0, #0	@ D.8095,,
 6018 00e6 08D1     		bne	.L428	@,
1940:src/sim900_800.c **** 				{
1941:src/sim900_800.c **** 					GSMConfigGPRSState += 9;
 6019              		.loc 1 1941 0
 6020 00e8 904B     		ldr	r3, .L477	@ tmp231,
 6021 00ea 1B78     		ldrb	r3, [r3]	@ D.8094, GSMConfigGPRSState
 6022 00ec 0933     		adds	r3, r3, #9	@ tmp232,
 6023 00ee DAB2     		uxtb	r2, r3	@ D.8094, tmp232
 6024 00f0 8E4B     		ldr	r3, .L477	@ tmp233,
 6025 00f2 1A70     		strb	r2, [r3]	@ tmp234, GSMConfigGPRSState
1942:src/sim900_800.c **** 					GSMConfigGPRSflag = 1;
 6026              		.loc 1 1942 0
ARM GAS  /tmp/ccKua49E.s 			page 144


 6027 00f4 904B     		ldr	r3, .L477+12	@ tmp235,
 6028 00f6 0122     		movs	r2, #1	@ tmp236,
 6029 00f8 1A70     		strb	r2, [r3]	@ tmp237, GSMConfigGPRSflag
 6030              	.L428:
1943:src/sim900_800.c **** 				}
1944:src/sim900_800.c **** 
1945:src/sim900_800.c **** 				//const char GSM_IPSTATUS[] 	= "IP STATUS";
1946:src/sim900_800.c **** 				if(!strncmp((const char *)&GSMbuffStatus[0], (const char *)&GSM_IPSTATUS[0], strlen((const char
 6031              		.loc 1 1946 0
 6032 00fa 9649     		ldr	r1, .L477+40	@ tmp238,
 6033 00fc 924B     		ldr	r3, .L477+28	@ tmp239,
 6034 00fe 0922     		movs	r2, #9	@,
 6035 0100 1800     		movs	r0, r3	@, tmp239
 6036 0102 FFF7FEFF 		bl	strncmp	@
 6037 0106 031E     		subs	r3, r0, #0	@ D.8095,,
 6038 0108 04D1     		bne	.L429	@,
1947:src/sim900_800.c **** 				{
1948:src/sim900_800.c **** /*					GSMConfigGPRSState += 10;
1949:src/sim900_800.c **** 					sprintf(&GSMbuffGPRSCommand[0], (const char*)"AT+CIPSTART=\"TCP\",\"");
1950:src/sim900_800.c **** 					strcat(&GSMbuffGPRSCommand[0], ptrIPremote);
1951:src/sim900_800.c **** 					strcat(&GSMbuffGPRSCommand[0], "\",\"");
1952:src/sim900_800.c **** 					strcat(&GSMbuffGPRSCommand[0], ptrPORTremote);
1953:src/sim900_800.c **** 					strcat(&GSMbuffGPRSCommand[0], "\"\r\n");
1954:src/sim900_800.c **** 					GSMConfigGPRSflag = 1;
1955:src/sim900_800.c **** */
1956:src/sim900_800.c **** 					GSMConfigGPRSState = 0;
 6039              		.loc 1 1956 0
 6040 010a 884B     		ldr	r3, .L477	@ tmp240,
 6041 010c 0022     		movs	r2, #0	@ tmp241,
 6042 010e 1A70     		strb	r2, [r3]	@ tmp242, GSMConfigGPRSState
1957:src/sim900_800.c **** 					return 2;
 6043              		.loc 1 1957 0
 6044 0110 0223     		movs	r3, #2	@ D.8094,
 6045 0112 CAE2     		b	.L424	@
 6046              	.L429:
1958:src/sim900_800.c **** 				}
1959:src/sim900_800.c **** 				//const char GSM_IPCONNECTING[] 	= "TCP CONNECTING";
1960:src/sim900_800.c **** 				if(!strncmp((const char *)&GSMbuffStatus[0], (const char *)&GSM_IPCONNECTING[0], strlen((const 
 6047              		.loc 1 1960 0
 6048 0114 9049     		ldr	r1, .L477+44	@ tmp243,
 6049 0116 8C4B     		ldr	r3, .L477+28	@ tmp244,
 6050 0118 0E22     		movs	r2, #14	@,
 6051 011a 1800     		movs	r0, r3	@, tmp244
 6052 011c FFF7FEFF 		bl	strncmp	@
 6053 0120 031E     		subs	r3, r0, #0	@ D.8095,,
 6054 0122 04D1     		bne	.L430	@,
1961:src/sim900_800.c **** 				{
1962:src/sim900_800.c **** 					//GSMConfigGPRSState -= 1;
1963:src/sim900_800.c **** 					//GSMConfigGPRSflag = 1;
1964:src/sim900_800.c **** 					GSMConfigGPRSState = 0;
 6055              		.loc 1 1964 0
 6056 0124 814B     		ldr	r3, .L477	@ tmp245,
 6057 0126 0022     		movs	r2, #0	@ tmp246,
 6058 0128 1A70     		strb	r2, [r3]	@ tmp247, GSMConfigGPRSState
1965:src/sim900_800.c **** 					return 2;
 6059              		.loc 1 1965 0
 6060 012a 0223     		movs	r3, #2	@ D.8094,
ARM GAS  /tmp/ccKua49E.s 			page 145


 6061 012c BDE2     		b	.L424	@
 6062              	.L430:
1966:src/sim900_800.c **** 				}
1967:src/sim900_800.c **** 				//const char GSM_IPCONNOK[] 		= "CONNECT OK";
1968:src/sim900_800.c **** 				if(!strncmp((const char *)&GSMbuffStatus[0], (const char *)&GSM_IPCONNOK[0], strlen((const char
 6063              		.loc 1 1968 0
 6064 012e 8B49     		ldr	r1, .L477+48	@ tmp248,
 6065 0130 854B     		ldr	r3, .L477+28	@ tmp249,
 6066 0132 0A22     		movs	r2, #10	@,
 6067 0134 1800     		movs	r0, r3	@, tmp249
 6068 0136 FFF7FEFF 		bl	strncmp	@
 6069 013a 031E     		subs	r3, r0, #0	@ D.8095,,
 6070 013c 04D1     		bne	.L431	@,
1969:src/sim900_800.c **** 				{
1970:src/sim900_800.c **** 					GSMConfigGPRSState = 0;
 6071              		.loc 1 1970 0
 6072 013e 7B4B     		ldr	r3, .L477	@ tmp250,
 6073 0140 0022     		movs	r2, #0	@ tmp251,
 6074 0142 1A70     		strb	r2, [r3]	@ tmp252, GSMConfigGPRSState
1971:src/sim900_800.c **** 					return 2;
 6075              		.loc 1 1971 0
 6076 0144 0223     		movs	r3, #2	@ D.8094,
 6077 0146 B0E2     		b	.L424	@
 6078              	.L431:
1972:src/sim900_800.c **** 				}
1973:src/sim900_800.c **** /*				//const char GSM_IPCONNFAIL[] 	= "CONNECT FAIL";
1974:src/sim900_800.c **** 				if(!strncmp((const char *)&GSMbuffStatus[0], (const char *)&GSM_IPCONNFAIL[0], strlen((const ch
1975:src/sim900_800.c **** 				{
1976:src/sim900_800.c **** 					GSMConfigGPRSState += 11;
1977:src/sim900_800.c **** 					GSMConfigGPRSflag = 1;
1978:src/sim900_800.c **** 				}
1979:src/sim900_800.c **** */
1980:src/sim900_800.c **** 				//const char GSM_IPCONNCLOSE[] 	= "TCP CLOSED";
1981:src/sim900_800.c **** 				if(!strncmp((const char *)&GSMbuffStatus[0], (const char *)&GSM_IPCONNCLOSE[0], strlen((const c
 6079              		.loc 1 1981 0
 6080 0148 8549     		ldr	r1, .L477+52	@ tmp253,
 6081 014a 7F4B     		ldr	r3, .L477+28	@ tmp254,
 6082 014c 0A22     		movs	r2, #10	@,
 6083 014e 1800     		movs	r0, r3	@, tmp254
 6084 0150 FFF7FEFF 		bl	strncmp	@
 6085 0154 031E     		subs	r3, r0, #0	@ D.8095,,
 6086 0156 04D1     		bne	.L432	@,
1982:src/sim900_800.c **** 				{
1983:src/sim900_800.c **** 					/*	GSMConfigGPRSState += 10;
1984:src/sim900_800.c **** 					sprintf(&GSMbuffGPRSCommand[0], (const char*)"AT+CIPSTART=\"TCP\",\"");
1985:src/sim900_800.c **** 					strcat(&GSMbuffGPRSCommand[0], ptrIPremote);
1986:src/sim900_800.c **** 					strcat(&GSMbuffGPRSCommand[0], "\",\"");
1987:src/sim900_800.c **** 					strcat(&GSMbuffGPRSCommand[0], ptrPORTremote);
1988:src/sim900_800.c **** 					strcat(&GSMbuffGPRSCommand[0], "\"\r\n");
1989:src/sim900_800.c **** 					GSMConfigGPRSflag = 1;
1990:src/sim900_800.c **** 					*/
1991:src/sim900_800.c **** 					GSMConfigGPRSState = 0;
 6087              		.loc 1 1991 0
 6088 0158 744B     		ldr	r3, .L477	@ tmp255,
 6089 015a 0022     		movs	r2, #0	@ tmp256,
 6090 015c 1A70     		strb	r2, [r3]	@ tmp257, GSMConfigGPRSState
1992:src/sim900_800.c **** 					return 2;
ARM GAS  /tmp/ccKua49E.s 			page 146


 6091              		.loc 1 1992 0
 6092 015e 0223     		movs	r3, #2	@ D.8094,
 6093 0160 A3E2     		b	.L424	@
 6094              	.L432:
1993:src/sim900_800.c **** 				}
1994:src/sim900_800.c **** 
1995:src/sim900_800.c **** 				if(!strncmp((const char *)&GSMbuffStatus[0], (const char *)"CONNECTED", sizeof("CONNECTED") - 1
 6095              		.loc 1 1995 0
 6096 0162 8049     		ldr	r1, .L477+56	@ tmp258,
 6097 0164 784B     		ldr	r3, .L477+28	@ tmp259,
 6098 0166 0922     		movs	r2, #9	@,
 6099 0168 1800     		movs	r0, r3	@, tmp259
 6100 016a FFF7FEFF 		bl	strncmp	@
 6101 016e 031E     		subs	r3, r0, #0	@ D.8095,,
 6102 0170 04D1     		bne	.L433	@,
1996:src/sim900_800.c **** 				{
1997:src/sim900_800.c **** 					/*GSMConfigGPRSState += 11;
1998:src/sim900_800.c **** 					GSMConfigGPRSflag = 1;
1999:src/sim900_800.c **** 					*/
2000:src/sim900_800.c **** 					GSMConfigGPRSState = 0;
 6103              		.loc 1 2000 0
 6104 0172 6E4B     		ldr	r3, .L477	@ tmp260,
 6105 0174 0022     		movs	r2, #0	@ tmp261,
 6106 0176 1A70     		strb	r2, [r3]	@ tmp262, GSMConfigGPRSState
2001:src/sim900_800.c **** 					return 2;
 6107              		.loc 1 2001 0
 6108 0178 0223     		movs	r3, #2	@ D.8094,
 6109 017a 96E2     		b	.L424	@
 6110              	.L433:
2002:src/sim900_800.c **** 				}
2003:src/sim900_800.c **** 
2004:src/sim900_800.c **** 				if(!strncmp((const char *)&GSMbuffStatus[0], (const char *)"PDP DEACT", sizeof("PDP DEACT") - 1
 6111              		.loc 1 2004 0
 6112 017c 7A49     		ldr	r1, .L477+60	@ tmp263,
 6113 017e 724B     		ldr	r3, .L477+28	@ tmp264,
 6114 0180 0922     		movs	r2, #9	@,
 6115 0182 1800     		movs	r0, r3	@, tmp264
 6116 0184 FFF7FEFF 		bl	strncmp	@
 6117 0188 031E     		subs	r3, r0, #0	@ D.8095,,
 6118 018a 00D0     		beq	.LCB5114	@
 6119 018c 6EE2     		b	.L466	@long jump	@
 6120              	.LCB5114:
2005:src/sim900_800.c **** 				{
2006:src/sim900_800.c **** 					GSMConfigGPRSState += 13;
 6121              		.loc 1 2006 0
 6122 018e 674B     		ldr	r3, .L477	@ tmp265,
 6123 0190 1B78     		ldrb	r3, [r3]	@ D.8094, GSMConfigGPRSState
 6124 0192 0D33     		adds	r3, r3, #13	@ tmp266,
 6125 0194 DAB2     		uxtb	r2, r3	@ D.8094, tmp266
 6126 0196 654B     		ldr	r3, .L477	@ tmp267,
 6127 0198 1A70     		strb	r2, [r3]	@ tmp268, GSMConfigGPRSState
2007:src/sim900_800.c **** 					GSMConfigGPRSflag = 1;
 6128              		.loc 1 2007 0
 6129 019a 674B     		ldr	r3, .L477+12	@ tmp269,
 6130 019c 0122     		movs	r2, #1	@ tmp270,
 6131 019e 1A70     		strb	r2, [r3]	@ tmp271, GSMConfigGPRSflag
2008:src/sim900_800.c **** 				}
ARM GAS  /tmp/ccKua49E.s 			page 147


2009:src/sim900_800.c **** 			}
2010:src/sim900_800.c **** 			break;
 6132              		.loc 1 2010 0
 6133 01a0 64E2     		b	.L466	@
 6134              	.L408:
2011:src/sim900_800.c **** 
2012:src/sim900_800.c **** 		case 4:
2013:src/sim900_800.c **** 			i = GSMSendCommand("AT+CPIN?\r\n", 50, 1, &GSMbuffRtaCommand[0]);
 6135              		.loc 1 2013 0
 6136 01a2 1724     		movs	r4, #23	@ tmp272,
 6137 01a4 6C44     		add	r4, r4, sp	@ tmp272,
 6138 01a6 654B     		ldr	r3, .L477+16	@ tmp273,
 6139 01a8 7048     		ldr	r0, .L477+64	@ tmp274,
 6140 01aa 0122     		movs	r2, #1	@,
 6141 01ac 3221     		movs	r1, #50	@,
 6142 01ae FFF7FEFF 		bl	GSMSendCommand	@
 6143 01b2 0300     		movs	r3, r0	@ tmp275,
 6144 01b4 2370     		strb	r3, [r4]	@ tmp277, i
2014:src/sim900_800.c **** 
2015:src/sim900_800.c **** 			if (i == 2)
 6145              		.loc 1 2015 0
 6146 01b6 1723     		movs	r3, #23	@ tmp278,
 6147 01b8 6B44     		add	r3, r3, sp	@ tmp278,
 6148 01ba 1B78     		ldrb	r3, [r3]	@ tmp279, i
 6149 01bc 022B     		cmp	r3, #2	@ tmp279,
 6150 01be 13D1     		bne	.L434	@,
2016:src/sim900_800.c **** 			{
2017:src/sim900_800.c **** 				if (!strncmp((const char *)&GSMbuffRtaCommand[0], (const char *)"+CPIN: READY", sizeof("+CPIN: 
 6151              		.loc 1 2017 0
 6152 01c0 6B49     		ldr	r1, .L477+68	@ tmp280,
 6153 01c2 5E4B     		ldr	r3, .L477+16	@ tmp281,
 6154 01c4 0C22     		movs	r2, #12	@,
 6155 01c6 1800     		movs	r0, r3	@, tmp281
 6156 01c8 FFF7FEFF 		bl	strncmp	@
 6157 01cc 031E     		subs	r3, r0, #0	@ D.8095,,
 6158 01ce 06D1     		bne	.L435	@,
2018:src/sim900_800.c **** 				{
2019:src/sim900_800.c **** 					GSMConfigGPRSState++;
 6159              		.loc 1 2019 0
 6160 01d0 564B     		ldr	r3, .L477	@ tmp282,
 6161 01d2 1B78     		ldrb	r3, [r3]	@ D.8094, GSMConfigGPRSState
 6162 01d4 0133     		adds	r3, r3, #1	@ tmp283,
 6163 01d6 DAB2     		uxtb	r2, r3	@ D.8094, tmp283
 6164 01d8 544B     		ldr	r3, .L477	@ tmp284,
 6165 01da 1A70     		strb	r2, [r3]	@ tmp285, GSMConfigGPRSState
 6166 01dc 04E0     		b	.L434	@
 6167              	.L435:
2020:src/sim900_800.c **** 				}
2021:src/sim900_800.c **** 				else
2022:src/sim900_800.c **** 				{
2023:src/sim900_800.c **** 					GSMConfigGPRSState = 0;
 6168              		.loc 1 2023 0
 6169 01de 534B     		ldr	r3, .L477	@ tmp286,
 6170 01e0 0022     		movs	r2, #0	@ tmp287,
 6171 01e2 1A70     		strb	r2, [r3]	@ tmp288, GSMConfigGPRSState
2024:src/sim900_800.c **** 					return 3;
 6172              		.loc 1 2024 0
ARM GAS  /tmp/ccKua49E.s 			page 148


 6173 01e4 0323     		movs	r3, #3	@ D.8094,
 6174 01e6 60E2     		b	.L424	@
 6175              	.L434:
2025:src/sim900_800.c **** 				}
2026:src/sim900_800.c **** 			}
2027:src/sim900_800.c **** 
2028:src/sim900_800.c **** 			if (i > 2)
 6176              		.loc 1 2028 0
 6177 01e8 1723     		movs	r3, #23	@ tmp289,
 6178 01ea 6B44     		add	r3, r3, sp	@ tmp289,
 6179 01ec 1B78     		ldrb	r3, [r3]	@ tmp290, i
 6180 01ee 022B     		cmp	r3, #2	@ tmp290,
 6181 01f0 00D8     		bhi	.LCB5172	@
 6182 01f2 3DE2     		b	.L467	@long jump	@
 6183              	.LCB5172:
2029:src/sim900_800.c **** 			{
2030:src/sim900_800.c **** 				GSMConfigGPRSState = 0;
 6184              		.loc 1 2030 0
 6185 01f4 4D4B     		ldr	r3, .L477	@ tmp291,
 6186 01f6 0022     		movs	r2, #0	@ tmp292,
 6187 01f8 1A70     		strb	r2, [r3]	@ tmp293, GSMConfigGPRSState
2031:src/sim900_800.c **** 				return 3;
 6188              		.loc 1 2031 0
 6189 01fa 0323     		movs	r3, #3	@ D.8094,
 6190 01fc 55E2     		b	.L424	@
 6191              	.L409:
2032:src/sim900_800.c **** 			}
2033:src/sim900_800.c **** 			break;
2034:src/sim900_800.c **** 
2035:src/sim900_800.c **** 		case 5:
2036:src/sim900_800.c **** 			i = GSMSendCommand("AT+CREG?\r\n", 50, 1, &GSMbuffRtaCommand[0]);
 6192              		.loc 1 2036 0
 6193 01fe 1724     		movs	r4, #23	@ tmp294,
 6194 0200 6C44     		add	r4, r4, sp	@ tmp294,
 6195 0202 4E4B     		ldr	r3, .L477+16	@ tmp295,
 6196 0204 5B48     		ldr	r0, .L477+72	@ tmp296,
 6197 0206 0122     		movs	r2, #1	@,
 6198 0208 3221     		movs	r1, #50	@,
 6199 020a FFF7FEFF 		bl	GSMSendCommand	@
 6200 020e 0300     		movs	r3, r0	@ tmp297,
 6201 0210 2370     		strb	r3, [r4]	@ tmp299, i
2037:src/sim900_800.c **** 
2038:src/sim900_800.c **** 			if (i == 2)
 6202              		.loc 1 2038 0
 6203 0212 1723     		movs	r3, #23	@ tmp300,
 6204 0214 6B44     		add	r3, r3, sp	@ tmp300,
 6205 0216 1B78     		ldrb	r3, [r3]	@ tmp301, i
 6206 0218 022B     		cmp	r3, #2	@ tmp301,
 6207 021a 13D1     		bne	.L437	@,
2039:src/sim900_800.c **** 			{
2040:src/sim900_800.c **** 				if (!strncmp((const char *)&GSMbuffRtaCommand[0], (const char *)"+CREG: 0,1", sizeof("+CREG: 0,
 6208              		.loc 1 2040 0
 6209 021c 5649     		ldr	r1, .L477+76	@ tmp302,
 6210 021e 474B     		ldr	r3, .L477+16	@ tmp303,
 6211 0220 0A22     		movs	r2, #10	@,
 6212 0222 1800     		movs	r0, r3	@, tmp303
 6213 0224 FFF7FEFF 		bl	strncmp	@
ARM GAS  /tmp/ccKua49E.s 			page 149


 6214 0228 031E     		subs	r3, r0, #0	@ D.8095,,
 6215 022a 06D1     		bne	.L438	@,
2041:src/sim900_800.c **** 				{
2042:src/sim900_800.c **** 					GSMConfigGPRSState++;
 6216              		.loc 1 2042 0
 6217 022c 3F4B     		ldr	r3, .L477	@ tmp304,
 6218 022e 1B78     		ldrb	r3, [r3]	@ D.8094, GSMConfigGPRSState
 6219 0230 0133     		adds	r3, r3, #1	@ tmp305,
 6220 0232 DAB2     		uxtb	r2, r3	@ D.8094, tmp305
 6221 0234 3D4B     		ldr	r3, .L477	@ tmp306,
 6222 0236 1A70     		strb	r2, [r3]	@ tmp307, GSMConfigGPRSState
 6223 0238 04E0     		b	.L437	@
 6224              	.L438:
2043:src/sim900_800.c **** 				}
2044:src/sim900_800.c **** 				else
2045:src/sim900_800.c **** 				{
2046:src/sim900_800.c **** 					GSMConfigGPRSState = 0;
 6225              		.loc 1 2046 0
 6226 023a 3C4B     		ldr	r3, .L477	@ tmp308,
 6227 023c 0022     		movs	r2, #0	@ tmp309,
 6228 023e 1A70     		strb	r2, [r3]	@ tmp310, GSMConfigGPRSState
2047:src/sim900_800.c **** 					return 3;
 6229              		.loc 1 2047 0
 6230 0240 0323     		movs	r3, #3	@ D.8094,
 6231 0242 32E2     		b	.L424	@
 6232              	.L437:
2048:src/sim900_800.c **** 				}
2049:src/sim900_800.c **** 			}
2050:src/sim900_800.c **** 
2051:src/sim900_800.c **** 			if (i > 2)
 6233              		.loc 1 2051 0
 6234 0244 1723     		movs	r3, #23	@ tmp311,
 6235 0246 6B44     		add	r3, r3, sp	@ tmp311,
 6236 0248 1B78     		ldrb	r3, [r3]	@ tmp312, i
 6237 024a 022B     		cmp	r3, #2	@ tmp312,
 6238 024c 00D8     		bhi	.LCB5225	@
 6239 024e 11E2     		b	.L468	@long jump	@
 6240              	.LCB5225:
2052:src/sim900_800.c **** 			{
2053:src/sim900_800.c **** 				GSMConfigGPRSState = 0;
 6241              		.loc 1 2053 0
 6242 0250 364B     		ldr	r3, .L477	@ tmp313,
 6243 0252 0022     		movs	r2, #0	@ tmp314,
 6244 0254 1A70     		strb	r2, [r3]	@ tmp315, GSMConfigGPRSState
2054:src/sim900_800.c **** 				return 3;
 6245              		.loc 1 2054 0
 6246 0256 0323     		movs	r3, #3	@ D.8094,
 6247 0258 27E2     		b	.L424	@
 6248              	.L410:
2055:src/sim900_800.c **** 			}
2056:src/sim900_800.c **** 			break;
2057:src/sim900_800.c **** 		case 6:
2058:src/sim900_800.c **** 			i = GSMSendCommand("AT+CSQ\r\n", 50, 1, &GSMbuffRtaCommand[0]);
 6249              		.loc 1 2058 0
 6250 025a 1724     		movs	r4, #23	@ tmp316,
 6251 025c 6C44     		add	r4, r4, sp	@ tmp316,
 6252 025e 374B     		ldr	r3, .L477+16	@ tmp317,
ARM GAS  /tmp/ccKua49E.s 			page 150


 6253 0260 4648     		ldr	r0, .L477+80	@ tmp318,
 6254 0262 0122     		movs	r2, #1	@,
 6255 0264 3221     		movs	r1, #50	@,
 6256 0266 FFF7FEFF 		bl	GSMSendCommand	@
 6257 026a 0300     		movs	r3, r0	@ tmp319,
 6258 026c 2370     		strb	r3, [r4]	@ tmp321, i
2059:src/sim900_800.c **** 
2060:src/sim900_800.c **** 			if (i == 2)
 6259              		.loc 1 2060 0
 6260 026e 1723     		movs	r3, #23	@ tmp322,
 6261 0270 6B44     		add	r3, r3, sp	@ tmp322,
 6262 0272 1B78     		ldrb	r3, [r3]	@ tmp323, i
 6263 0274 022B     		cmp	r3, #2	@ tmp323,
 6264 0276 2DD1     		bne	.L440	@,
2061:src/sim900_800.c **** 			{
2062:src/sim900_800.c **** 				if (!strncmp((const char *)&GSMbuffRtaCommand[0], (const char *)"+CSQ:", sizeof("+CSQ:") - 1))
 6265              		.loc 1 2062 0
 6266 0278 4149     		ldr	r1, .L477+84	@ tmp324,
 6267 027a 304B     		ldr	r3, .L477+16	@ tmp325,
 6268 027c 0522     		movs	r2, #5	@,
 6269 027e 1800     		movs	r0, r3	@, tmp325
 6270 0280 FFF7FEFF 		bl	strncmp	@
 6271 0284 031E     		subs	r3, r0, #0	@ D.8095,,
 6272 0286 20D1     		bne	.L441	@,
2063:src/sim900_800.c **** 				{
2064:src/sim900_800.c **** 						GPRSrssi = ((GSMbuffRtaCommand[6] - 48) * 10 + ((GSMbuffRtaCommand[7] - 48)));
 6273              		.loc 1 2064 0
 6274 0288 2C4B     		ldr	r3, .L477+16	@ tmp326,
 6275 028a 9B79     		ldrb	r3, [r3, #6]	@ D.8094,
 6276 028c 303B     		subs	r3, r3, #48	@ D.8095,
 6277 028e DBB2     		uxtb	r3, r3	@ D.8096, D.8095
 6278 0290 1A1C     		adds	r2, r3, #0	@ tmp328, tmp327
 6279 0292 9200     		lsls	r2, r2, #2	@ tmp329, tmp328,
 6280 0294 D318     		adds	r3, r2, r3	@ tmp331, tmp330, tmp327
 6281 0296 DB18     		adds	r3, r3, r3	@ tmp333, tmp332, tmp332
 6282 0298 DAB2     		uxtb	r2, r3	@ D.8096, tmp331
 6283 029a 284B     		ldr	r3, .L477+16	@ tmp334,
 6284 029c DB79     		ldrb	r3, [r3, #7]	@ D.8094,
 6285 029e D318     		adds	r3, r2, r3	@ tmp335, D.8096, D.8094
 6286 02a0 DBB2     		uxtb	r3, r3	@ D.8096, tmp335
 6287 02a2 303B     		subs	r3, r3, #48	@ tmp336,
 6288 02a4 DAB2     		uxtb	r2, r3	@ D.8096, tmp336
 6289 02a6 374B     		ldr	r3, .L477+88	@ tmp337,
 6290 02a8 1A70     		strb	r2, [r3]	@ tmp338, GPRSrssi
2065:src/sim900_800.c **** 
2066:src/sim900_800.c **** 						if (GPRSrssi != 99)
 6291              		.loc 1 2066 0
 6292 02aa 364B     		ldr	r3, .L477+88	@ tmp339,
 6293 02ac 1B78     		ldrb	r3, [r3]	@ D.8096, GPRSrssi
 6294 02ae 632B     		cmp	r3, #99	@ D.8096,
 6295 02b0 06D0     		beq	.L442	@,
2067:src/sim900_800.c **** 							GSMConfigGPRSState++;
 6296              		.loc 1 2067 0
 6297 02b2 1E4B     		ldr	r3, .L477	@ tmp340,
 6298 02b4 1B78     		ldrb	r3, [r3]	@ D.8094, GSMConfigGPRSState
 6299 02b6 0133     		adds	r3, r3, #1	@ tmp341,
 6300 02b8 DAB2     		uxtb	r2, r3	@ D.8094, tmp341
ARM GAS  /tmp/ccKua49E.s 			page 151


 6301 02ba 1C4B     		ldr	r3, .L477	@ tmp342,
 6302 02bc 1A70     		strb	r2, [r3]	@ tmp343, GSMConfigGPRSState
 6303 02be 09E0     		b	.L440	@
 6304              	.L442:
2068:src/sim900_800.c **** 						else
2069:src/sim900_800.c **** 						{
2070:src/sim900_800.c **** 							GSMConfigGPRSState = 0;
 6305              		.loc 1 2070 0
 6306 02c0 1A4B     		ldr	r3, .L477	@ tmp344,
 6307 02c2 0022     		movs	r2, #0	@ tmp345,
 6308 02c4 1A70     		strb	r2, [r3]	@ tmp346, GSMConfigGPRSState
2071:src/sim900_800.c **** 							return 20;
 6309              		.loc 1 2071 0
 6310 02c6 1423     		movs	r3, #20	@ D.8094,
 6311 02c8 EFE1     		b	.L424	@
 6312              	.L441:
2072:src/sim900_800.c **** 						}
2073:src/sim900_800.c **** 				}
2074:src/sim900_800.c **** 				else
2075:src/sim900_800.c **** 				{
2076:src/sim900_800.c **** 					GSMConfigGPRSState = 0;
 6313              		.loc 1 2076 0
 6314 02ca 184B     		ldr	r3, .L477	@ tmp347,
 6315 02cc 0022     		movs	r2, #0	@ tmp348,
 6316 02ce 1A70     		strb	r2, [r3]	@ tmp349, GSMConfigGPRSState
2077:src/sim900_800.c **** 					return 3;
 6317              		.loc 1 2077 0
 6318 02d0 0323     		movs	r3, #3	@ D.8094,
 6319 02d2 EAE1     		b	.L424	@
 6320              	.L440:
2078:src/sim900_800.c **** 				}
2079:src/sim900_800.c **** 			}
2080:src/sim900_800.c **** 
2081:src/sim900_800.c **** 			if (i > 2)
 6321              		.loc 1 2081 0
 6322 02d4 1723     		movs	r3, #23	@ tmp350,
 6323 02d6 6B44     		add	r3, r3, sp	@ tmp350,
 6324 02d8 1B78     		ldrb	r3, [r3]	@ tmp351, i
 6325 02da 022B     		cmp	r3, #2	@ tmp351,
 6326 02dc 00D8     		bhi	.LCB5307	@
 6327 02de CBE1     		b	.L469	@long jump	@
 6328              	.LCB5307:
2082:src/sim900_800.c **** 			{
2083:src/sim900_800.c **** 				GSMConfigGPRSState = 0;
 6329              		.loc 1 2083 0
 6330 02e0 124B     		ldr	r3, .L477	@ tmp352,
 6331 02e2 0022     		movs	r2, #0	@ tmp353,
 6332 02e4 1A70     		strb	r2, [r3]	@ tmp354, GSMConfigGPRSState
2084:src/sim900_800.c **** 				return 3;
 6333              		.loc 1 2084 0
 6334 02e6 0323     		movs	r3, #3	@ D.8094,
 6335 02e8 DFE1     		b	.L424	@
 6336              	.L411:
2085:src/sim900_800.c **** 			}
2086:src/sim900_800.c **** 			break;
2087:src/sim900_800.c **** 		case 7:
2088:src/sim900_800.c **** 
ARM GAS  /tmp/ccKua49E.s 			page 152


2089:src/sim900_800.c **** 			i = GSMSendCommand("AT+CIPMODE=1\r\n", 50, 0, &GSMbuffRtaCommand[0]);
 6337              		.loc 1 2089 0
 6338 02ea 1724     		movs	r4, #23	@ tmp355,
 6339 02ec 6C44     		add	r4, r4, sp	@ tmp355,
 6340 02ee 134B     		ldr	r3, .L477+16	@ tmp356,
 6341 02f0 2548     		ldr	r0, .L477+92	@ tmp357,
 6342 02f2 0022     		movs	r2, #0	@,
 6343 02f4 3221     		movs	r1, #50	@,
 6344 02f6 FFF7FEFF 		bl	GSMSendCommand	@
 6345 02fa 0300     		movs	r3, r0	@ tmp358,
 6346 02fc 2370     		strb	r3, [r4]	@ tmp360, i
2090:src/sim900_800.c **** 
2091:src/sim900_800.c **** 			if (i == 2)
 6347              		.loc 1 2091 0
 6348 02fe 1723     		movs	r3, #23	@ tmp361,
 6349 0300 6B44     		add	r3, r3, sp	@ tmp361,
 6350 0302 1B78     		ldrb	r3, [r3]	@ tmp362, i
 6351 0304 022B     		cmp	r3, #2	@ tmp362,
 6352 0306 05D1     		bne	.L444	@,
2092:src/sim900_800.c **** 			{
2093:src/sim900_800.c **** 				GSMConfigGPRSState++;
 6353              		.loc 1 2093 0
 6354 0308 084B     		ldr	r3, .L477	@ tmp363,
 6355 030a 1B78     		ldrb	r3, [r3]	@ D.8094, GSMConfigGPRSState
 6356 030c 0133     		adds	r3, r3, #1	@ tmp364,
 6357 030e DAB2     		uxtb	r2, r3	@ D.8094, tmp364
 6358 0310 064B     		ldr	r3, .L477	@ tmp365,
 6359 0312 1A70     		strb	r2, [r3]	@ tmp366, GSMConfigGPRSState
 6360              	.L444:
2094:src/sim900_800.c **** 			}
2095:src/sim900_800.c **** 
2096:src/sim900_800.c **** 			if (i > 2)
 6361              		.loc 1 2096 0
 6362 0314 1723     		movs	r3, #23	@ tmp367,
 6363 0316 6B44     		add	r3, r3, sp	@ tmp367,
 6364 0318 1B78     		ldrb	r3, [r3]	@ tmp368, i
 6365 031a 022B     		cmp	r3, #2	@ tmp368,
 6366 031c 00D8     		bhi	.LCB5342	@
 6367 031e ADE1     		b	.L470	@long jump	@
 6368              	.LCB5342:
2097:src/sim900_800.c **** 			{
2098:src/sim900_800.c **** 				GSMConfigGPRSState = 0;
 6369              		.loc 1 2098 0
 6370 0320 024B     		ldr	r3, .L477	@ tmp369,
 6371 0322 0022     		movs	r2, #0	@ tmp370,
 6372 0324 1A70     		strb	r2, [r3]	@ tmp371, GSMConfigGPRSState
2099:src/sim900_800.c **** 				return 3;
 6373              		.loc 1 2099 0
 6374 0326 0323     		movs	r3, #3	@ D.8094,
 6375 0328 BFE1     		b	.L424	@
 6376              	.L478:
 6377 032a C046     		.align	2
 6378              	.L477:
 6379 032c 00000000 		.word	GSMConfigGPRSState
 6380 0330 00000000 		.word	.L404
 6381 0334 00000000 		.word	GSMConfigGPRSTimeOut
 6382 0338 00000000 		.word	GSMConfigGPRSflag
ARM GAS  /tmp/ccKua49E.s 			page 153


 6383 033c 00000000 		.word	GSMbuffRtaCommand
 6384 0340 14010000 		.word	.LC112
 6385 0344 00000000 		.word	GSM_IPINITIAL
 6386 0348 00000000 		.word	GSMbuffStatus
 6387 034c 00000000 		.word	GSM_IPSTART
 6388 0350 00000000 		.word	GSM_IPGPRSACT
 6389 0354 00000000 		.word	GSM_IPSTATUS
 6390 0358 00000000 		.word	GSM_IPCONNECTING
 6391 035c 00000000 		.word	GSM_IPCONNOK
 6392 0360 00000000 		.word	GSM_IPCONNCLOSE
 6393 0364 3C010000 		.word	.LC128
 6394 0368 48010000 		.word	.LC130
 6395 036c 54010000 		.word	.LC132
 6396 0370 60010000 		.word	.LC134
 6397 0374 80010000 		.word	.LC138
 6398 0378 8C010000 		.word	.LC140
 6399 037c 98010000 		.word	.LC142
 6400 0380 A4010000 		.word	.LC144
 6401 0384 00000000 		.word	GPRSrssi
 6402 0388 AC010000 		.word	.LC147
 6403              	.L412:
2100:src/sim900_800.c **** 			}
2101:src/sim900_800.c **** 			break;
2102:src/sim900_800.c **** 
2103:src/sim900_800.c **** 		case 8:
2104:src/sim900_800.c **** 
2105:src/sim900_800.c **** 			i = GSMSendCommand("AT+CGATT?\r\n", 50, 1, &GSMbuffRtaCommand[0]);
 6404              		.loc 1 2105 0
 6405 038c 1724     		movs	r4, #23	@ tmp372,
 6406 038e 6C44     		add	r4, r4, sp	@ tmp372,
 6407 0390 C74B     		ldr	r3, .L479	@ tmp373,
 6408 0392 C848     		ldr	r0, .L479+4	@ tmp374,
 6409 0394 0122     		movs	r2, #1	@,
 6410 0396 3221     		movs	r1, #50	@,
 6411 0398 FFF7FEFF 		bl	GSMSendCommand	@
 6412 039c 0300     		movs	r3, r0	@ tmp375,
 6413 039e 2370     		strb	r3, [r4]	@ tmp377, i
2106:src/sim900_800.c **** 
2107:src/sim900_800.c **** 			if (i == 2)
 6414              		.loc 1 2107 0
 6415 03a0 1723     		movs	r3, #23	@ tmp378,
 6416 03a2 6B44     		add	r3, r3, sp	@ tmp378,
 6417 03a4 1B78     		ldrb	r3, [r3]	@ tmp379, i
 6418 03a6 022B     		cmp	r3, #2	@ tmp379,
 6419 03a8 38D1     		bne	.L446	@,
2108:src/sim900_800.c **** 			{
2109:src/sim900_800.c **** 				if(!strncmp((const char *)&GSMbuffRtaCommand[0], (const char *)"+CGATT:", sizeof("+CGATT:") - 1
 6420              		.loc 1 2109 0
 6421 03aa C349     		ldr	r1, .L479+8	@ tmp380,
 6422 03ac C04B     		ldr	r3, .L479	@ tmp381,
 6423 03ae 0722     		movs	r2, #7	@,
 6424 03b0 1800     		movs	r0, r3	@, tmp381
 6425 03b2 FFF7FEFF 		bl	strncmp	@
 6426 03b6 031E     		subs	r3, r0, #0	@ D.8095,,
 6427 03b8 30D1     		bne	.L446	@,
2110:src/sim900_800.c **** 				{
2111:src/sim900_800.c **** 					if (GSMbuffRtaCommand[8] == 49)
ARM GAS  /tmp/ccKua49E.s 			page 154


 6428              		.loc 1 2111 0
 6429 03ba BD4B     		ldr	r3, .L479	@ tmp382,
 6430 03bc 1B7A     		ldrb	r3, [r3, #8]	@ D.8094,
 6431 03be 312B     		cmp	r3, #49	@ D.8094,
 6432 03c0 23D1     		bne	.L447	@,
2112:src/sim900_800.c **** 					{
2113:src/sim900_800.c **** 						GSMConfigGPRSState += 1;
 6433              		.loc 1 2113 0
 6434 03c2 BE4B     		ldr	r3, .L479+12	@ tmp383,
 6435 03c4 1B78     		ldrb	r3, [r3]	@ D.8094, GSMConfigGPRSState
 6436 03c6 0133     		adds	r3, r3, #1	@ tmp384,
 6437 03c8 DAB2     		uxtb	r2, r3	@ D.8094, tmp384
 6438 03ca BC4B     		ldr	r3, .L479+12	@ tmp385,
 6439 03cc 1A70     		strb	r2, [r3]	@ tmp386, GSMConfigGPRSState
2114:src/sim900_800.c **** 						sprintf(&GSMbuffGPRSCommand[0], (const char*)"AT+CGDCONT=1,\"IP\",\"");
 6440              		.loc 1 2114 0
 6441 03ce BC4A     		ldr	r2, .L479+16	@ tmp387,
 6442 03d0 BC4B     		ldr	r3, .L479+20	@ tmp388,
 6443 03d2 1000     		movs	r0, r2	@ tmp389, tmp387
 6444 03d4 1900     		movs	r1, r3	@ tmp390, tmp388
 6445 03d6 1423     		movs	r3, #20	@ tmp391,
 6446 03d8 1A00     		movs	r2, r3	@, tmp391
 6447 03da FFF7FEFF 		bl	memcpy	@
2115:src/sim900_800.c **** 						strcat(&GSMbuffGPRSCommand[0], ptrAPN);
 6448              		.loc 1 2115 0
 6449 03de 029A     		ldr	r2, [sp, #8]	@ tmp394, ptrAPN
 6450 03e0 B74B     		ldr	r3, .L479+16	@ tmp395,
 6451 03e2 1100     		movs	r1, r2	@, tmp394
 6452 03e4 1800     		movs	r0, r3	@, tmp395
 6453 03e6 FFF7FEFF 		bl	strcat	@
2116:src/sim900_800.c **** 						strcat(&GSMbuffGPRSCommand[0], "\"\r\n");
 6454              		.loc 1 2116 0
 6455 03ea B54B     		ldr	r3, .L479+16	@ tmp396,
 6456 03ec 1800     		movs	r0, r3	@, tmp396
 6457 03ee FFF7FEFF 		bl	strlen	@
 6458 03f2 0300     		movs	r3, r0	@ tmp397,
 6459 03f4 1A00     		movs	r2, r3	@ D.8097, tmp398
 6460 03f6 B24B     		ldr	r3, .L479+16	@ tmp399,
 6461 03f8 D218     		adds	r2, r2, r3	@ D.8098, D.8097, tmp399
 6462 03fa B34B     		ldr	r3, .L479+24	@ tmp400,
 6463 03fc 1000     		movs	r0, r2	@ tmp401, D.8098
 6464 03fe 1900     		movs	r1, r3	@ tmp402, tmp400
 6465 0400 0423     		movs	r3, #4	@ tmp403,
 6466 0402 1A00     		movs	r2, r3	@, tmp403
 6467 0404 FFF7FEFF 		bl	memcpy	@
 6468 0408 08E0     		b	.L446	@
 6469              	.L447:
2117:src/sim900_800.c **** 					}
2118:src/sim900_800.c **** 					else if (GSMbuffRtaCommand[8] == 48)
 6470              		.loc 1 2118 0
 6471 040a A94B     		ldr	r3, .L479	@ tmp406,
 6472 040c 1B7A     		ldrb	r3, [r3, #8]	@ D.8094,
 6473 040e 302B     		cmp	r3, #48	@ D.8094,
 6474 0410 04D1     		bne	.L446	@,
2119:src/sim900_800.c **** 					{
2120:src/sim900_800.c **** 						GSMConfigGPRSState = 0;
 6475              		.loc 1 2120 0
ARM GAS  /tmp/ccKua49E.s 			page 155


 6476 0412 AA4B     		ldr	r3, .L479+12	@ tmp407,
 6477 0414 0022     		movs	r2, #0	@ tmp408,
 6478 0416 1A70     		strb	r2, [r3]	@ tmp409, GSMConfigGPRSState
2121:src/sim900_800.c **** 						return 3;
 6479              		.loc 1 2121 0
 6480 0418 0323     		movs	r3, #3	@ D.8094,
 6481 041a 46E1     		b	.L424	@
 6482              	.L446:
2122:src/sim900_800.c **** 						//El modulo no se encuentra listo para conectar GPRS.
2123:src/sim900_800.c **** 					}
2124:src/sim900_800.c **** 				}
2125:src/sim900_800.c **** 			}
2126:src/sim900_800.c **** 
2127:src/sim900_800.c **** 			if (i > 2)
 6483              		.loc 1 2127 0
 6484 041c 1723     		movs	r3, #23	@ tmp410,
 6485 041e 6B44     		add	r3, r3, sp	@ tmp410,
 6486 0420 1B78     		ldrb	r3, [r3]	@ tmp411, i
 6487 0422 022B     		cmp	r3, #2	@ tmp411,
 6488 0424 00D8     		bhi	.LCB5457	@
 6489 0426 2BE1     		b	.L471	@long jump	@
 6490              	.LCB5457:
2128:src/sim900_800.c **** 			{
2129:src/sim900_800.c **** 				GSMConfigGPRSState = 0;
 6491              		.loc 1 2129 0
 6492 0428 A44B     		ldr	r3, .L479+12	@ tmp412,
 6493 042a 0022     		movs	r2, #0	@ tmp413,
 6494 042c 1A70     		strb	r2, [r3]	@ tmp414, GSMConfigGPRSState
2130:src/sim900_800.c **** 				return 3;
 6495              		.loc 1 2130 0
 6496 042e 0323     		movs	r3, #3	@ D.8094,
 6497 0430 3BE1     		b	.L424	@
 6498              	.L413:
2131:src/sim900_800.c **** 			}
2132:src/sim900_800.c **** 
2133:src/sim900_800.c **** 			break;
2134:src/sim900_800.c **** 
2135:src/sim900_800.c **** 		case 9:
2136:src/sim900_800.c **** 
2137:src/sim900_800.c **** 			i = GSMSendCommand(&GSMbuffGPRSCommand[0], 50, 0, &GSMbuffRtaCommand[0]);
 6499              		.loc 1 2137 0
 6500 0432 1724     		movs	r4, #23	@ tmp415,
 6501 0434 6C44     		add	r4, r4, sp	@ tmp415,
 6502 0436 9E4B     		ldr	r3, .L479	@ tmp416,
 6503 0438 A148     		ldr	r0, .L479+16	@ tmp417,
 6504 043a 0022     		movs	r2, #0	@,
 6505 043c 3221     		movs	r1, #50	@,
 6506 043e FFF7FEFF 		bl	GSMSendCommand	@
 6507 0442 0300     		movs	r3, r0	@ tmp418,
 6508 0444 2370     		strb	r3, [r4]	@ tmp420, i
2138:src/sim900_800.c **** 
2139:src/sim900_800.c **** 			if (i == 2)
 6509              		.loc 1 2139 0
 6510 0446 1723     		movs	r3, #23	@ tmp421,
 6511 0448 6B44     		add	r3, r3, sp	@ tmp421,
 6512 044a 1B78     		ldrb	r3, [r3]	@ tmp422, i
 6513 044c 022B     		cmp	r3, #2	@ tmp422,
ARM GAS  /tmp/ccKua49E.s 			page 156


 6514 044e 4CD1     		bne	.L449	@,
2140:src/sim900_800.c **** 			{
2141:src/sim900_800.c **** 				GSMConfigGPRSState++;
 6515              		.loc 1 2141 0
 6516 0450 9A4B     		ldr	r3, .L479+12	@ tmp423,
 6517 0452 1B78     		ldrb	r3, [r3]	@ D.8094, GSMConfigGPRSState
 6518 0454 0133     		adds	r3, r3, #1	@ tmp424,
 6519 0456 DAB2     		uxtb	r2, r3	@ D.8094, tmp424
 6520 0458 984B     		ldr	r3, .L479+12	@ tmp425,
 6521 045a 1A70     		strb	r2, [r3]	@ tmp426, GSMConfigGPRSState
2142:src/sim900_800.c **** 				sprintf(&GSMbuffGPRSCommand[0], (const char*)"AT+CSTT=\"");
 6522              		.loc 1 2142 0
 6523 045c 984A     		ldr	r2, .L479+16	@ tmp427,
 6524 045e 9B4B     		ldr	r3, .L479+28	@ tmp428,
 6525 0460 1000     		movs	r0, r2	@ tmp429, tmp427
 6526 0462 1900     		movs	r1, r3	@ tmp430, tmp428
 6527 0464 0A23     		movs	r3, #10	@ tmp431,
 6528 0466 1A00     		movs	r2, r3	@, tmp431
 6529 0468 FFF7FEFF 		bl	memcpy	@
2143:src/sim900_800.c **** 				strcat(&GSMbuffGPRSCommand[0], ptrAPN);
 6530              		.loc 1 2143 0
 6531 046c 029A     		ldr	r2, [sp, #8]	@ tmp434, ptrAPN
 6532 046e 944B     		ldr	r3, .L479+16	@ tmp435,
 6533 0470 1100     		movs	r1, r2	@, tmp434
 6534 0472 1800     		movs	r0, r3	@, tmp435
 6535 0474 FFF7FEFF 		bl	strcat	@
2144:src/sim900_800.c **** 				strcat(&GSMbuffGPRSCommand[0], "\",\"");
 6536              		.loc 1 2144 0
 6537 0478 914B     		ldr	r3, .L479+16	@ tmp436,
 6538 047a 1800     		movs	r0, r3	@, tmp436
 6539 047c FFF7FEFF 		bl	strlen	@
 6540 0480 0300     		movs	r3, r0	@ tmp437,
 6541 0482 1A00     		movs	r2, r3	@ D.8097, tmp438
 6542 0484 8E4B     		ldr	r3, .L479+16	@ tmp439,
 6543 0486 D218     		adds	r2, r2, r3	@ D.8098, D.8097, tmp439
 6544 0488 914B     		ldr	r3, .L479+32	@ tmp440,
 6545 048a 1000     		movs	r0, r2	@ tmp441, D.8098
 6546 048c 1900     		movs	r1, r3	@ tmp442, tmp440
 6547 048e 0423     		movs	r3, #4	@ tmp443,
 6548 0490 1A00     		movs	r2, r3	@, tmp443
 6549 0492 FFF7FEFF 		bl	memcpy	@
2145:src/sim900_800.c **** 				strcat(&GSMbuffGPRSCommand[0], ptrUSER);
 6550              		.loc 1 2145 0
 6551 0496 019A     		ldr	r2, [sp, #4]	@ tmp446, ptrUSER
 6552 0498 894B     		ldr	r3, .L479+16	@ tmp447,
 6553 049a 1100     		movs	r1, r2	@, tmp446
 6554 049c 1800     		movs	r0, r3	@, tmp447
 6555 049e FFF7FEFF 		bl	strcat	@
2146:src/sim900_800.c **** 				strcat(&GSMbuffGPRSCommand[0], "\",\"");
 6556              		.loc 1 2146 0
 6557 04a2 874B     		ldr	r3, .L479+16	@ tmp448,
 6558 04a4 1800     		movs	r0, r3	@, tmp448
 6559 04a6 FFF7FEFF 		bl	strlen	@
 6560 04aa 0300     		movs	r3, r0	@ tmp449,
 6561 04ac 1A00     		movs	r2, r3	@ D.8097, tmp450
 6562 04ae 844B     		ldr	r3, .L479+16	@ tmp451,
 6563 04b0 D218     		adds	r2, r2, r3	@ D.8098, D.8097, tmp451
ARM GAS  /tmp/ccKua49E.s 			page 157


 6564 04b2 874B     		ldr	r3, .L479+32	@ tmp452,
 6565 04b4 1000     		movs	r0, r2	@ tmp453, D.8098
 6566 04b6 1900     		movs	r1, r3	@ tmp454, tmp452
 6567 04b8 0423     		movs	r3, #4	@ tmp455,
 6568 04ba 1A00     		movs	r2, r3	@, tmp455
 6569 04bc FFF7FEFF 		bl	memcpy	@
2147:src/sim900_800.c **** 				strcat(&GSMbuffGPRSCommand[0], ptrKEY);
 6570              		.loc 1 2147 0
 6571 04c0 009A     		ldr	r2, [sp]	@ tmp458, ptrKEY
 6572 04c2 7F4B     		ldr	r3, .L479+16	@ tmp459,
 6573 04c4 1100     		movs	r1, r2	@, tmp458
 6574 04c6 1800     		movs	r0, r3	@, tmp459
 6575 04c8 FFF7FEFF 		bl	strcat	@
2148:src/sim900_800.c **** 				strcat(&GSMbuffGPRSCommand[0], "\"\r\n");
 6576              		.loc 1 2148 0
 6577 04cc 7C4B     		ldr	r3, .L479+16	@ tmp460,
 6578 04ce 1800     		movs	r0, r3	@, tmp460
 6579 04d0 FFF7FEFF 		bl	strlen	@
 6580 04d4 0300     		movs	r3, r0	@ tmp461,
 6581 04d6 1A00     		movs	r2, r3	@ D.8097, tmp462
 6582 04d8 794B     		ldr	r3, .L479+16	@ tmp463,
 6583 04da D218     		adds	r2, r2, r3	@ D.8098, D.8097, tmp463
 6584 04dc 7A4B     		ldr	r3, .L479+24	@ tmp464,
 6585 04de 1000     		movs	r0, r2	@ tmp465, D.8098
 6586 04e0 1900     		movs	r1, r3	@ tmp466, tmp464
 6587 04e2 0423     		movs	r3, #4	@ tmp467,
 6588 04e4 1A00     		movs	r2, r3	@, tmp467
 6589 04e6 FFF7FEFF 		bl	memcpy	@
 6590              	.L449:
2149:src/sim900_800.c **** 			}
2150:src/sim900_800.c **** 
2151:src/sim900_800.c **** 			if (i > 2)
 6591              		.loc 1 2151 0
 6592 04ea 1723     		movs	r3, #23	@ tmp470,
 6593 04ec 6B44     		add	r3, r3, sp	@ tmp470,
 6594 04ee 1B78     		ldrb	r3, [r3]	@ tmp471, i
 6595 04f0 022B     		cmp	r3, #2	@ tmp471,
 6596 04f2 00D8     		bhi	.LCB5553	@
 6597 04f4 C6E0     		b	.L472	@long jump	@
 6598              	.LCB5553:
2152:src/sim900_800.c **** 			{
2153:src/sim900_800.c **** 				GSMConfigGPRSState = 0;
 6599              		.loc 1 2153 0
 6600 04f6 714B     		ldr	r3, .L479+12	@ tmp472,
 6601 04f8 0022     		movs	r2, #0	@ tmp473,
 6602 04fa 1A70     		strb	r2, [r3]	@ tmp474, GSMConfigGPRSState
2154:src/sim900_800.c **** 				return 3;
 6603              		.loc 1 2154 0
 6604 04fc 0323     		movs	r3, #3	@ D.8094,
 6605 04fe D4E0     		b	.L424	@
 6606              	.L414:
2155:src/sim900_800.c **** 			}
2156:src/sim900_800.c **** 			break;
2157:src/sim900_800.c **** 
2158:src/sim900_800.c **** 		case 10:
2159:src/sim900_800.c **** 
2160:src/sim900_800.c **** 			i = GSMSendCommand(&GSMbuffGPRSCommand[0], 50, 0, &GSMbuffRtaCommand[0]);
ARM GAS  /tmp/ccKua49E.s 			page 158


 6607              		.loc 1 2160 0
 6608 0500 1724     		movs	r4, #23	@ tmp475,
 6609 0502 6C44     		add	r4, r4, sp	@ tmp475,
 6610 0504 6A4B     		ldr	r3, .L479	@ tmp476,
 6611 0506 6E48     		ldr	r0, .L479+16	@ tmp477,
 6612 0508 0022     		movs	r2, #0	@,
 6613 050a 3221     		movs	r1, #50	@,
 6614 050c FFF7FEFF 		bl	GSMSendCommand	@
 6615 0510 0300     		movs	r3, r0	@ tmp478,
 6616 0512 2370     		strb	r3, [r4]	@ tmp480, i
2161:src/sim900_800.c **** 
2162:src/sim900_800.c **** 			if (i == 2)
 6617              		.loc 1 2162 0
 6618 0514 1723     		movs	r3, #23	@ tmp481,
 6619 0516 6B44     		add	r3, r3, sp	@ tmp481,
 6620 0518 1B78     		ldrb	r3, [r3]	@ tmp482, i
 6621 051a 022B     		cmp	r3, #2	@ tmp482,
 6622 051c 02D1     		bne	.L451	@,
2163:src/sim900_800.c **** 			{
2164:src/sim900_800.c **** 				GSMConfigGPRSState = 2;
 6623              		.loc 1 2164 0
 6624 051e 674B     		ldr	r3, .L479+12	@ tmp483,
 6625 0520 0222     		movs	r2, #2	@ tmp484,
 6626 0522 1A70     		strb	r2, [r3]	@ tmp485, GSMConfigGPRSState
 6627              	.L451:
2165:src/sim900_800.c **** 			}
2166:src/sim900_800.c **** 
2167:src/sim900_800.c **** 			if (i > 2)
 6628              		.loc 1 2167 0
 6629 0524 1723     		movs	r3, #23	@ tmp486,
 6630 0526 6B44     		add	r3, r3, sp	@ tmp486,
 6631 0528 1B78     		ldrb	r3, [r3]	@ tmp487, i
 6632 052a 022B     		cmp	r3, #2	@ tmp487,
 6633 052c 00D8     		bhi	.LCB5585	@
 6634 052e ABE0     		b	.L473	@long jump	@
 6635              	.LCB5585:
2168:src/sim900_800.c **** 			{
2169:src/sim900_800.c **** 				GSMConfigGPRSState = 0;
 6636              		.loc 1 2169 0
 6637 0530 624B     		ldr	r3, .L479+12	@ tmp488,
 6638 0532 0022     		movs	r2, #0	@ tmp489,
 6639 0534 1A70     		strb	r2, [r3]	@ tmp490, GSMConfigGPRSState
2170:src/sim900_800.c **** 				return 3;
 6640              		.loc 1 2170 0
 6641 0536 0323     		movs	r3, #3	@ D.8094,
 6642 0538 B7E0     		b	.L424	@
 6643              	.L415:
2171:src/sim900_800.c **** 			}
2172:src/sim900_800.c **** 			break;
2173:src/sim900_800.c **** 
2174:src/sim900_800.c **** 		case 11:
2175:src/sim900_800.c **** 			i = GSMSendCommand("AT+CIICR\r\n", 200, 0, &GSMbuffRtaCommand[0]);
 6644              		.loc 1 2175 0
 6645 053a 1724     		movs	r4, #23	@ tmp491,
 6646 053c 6C44     		add	r4, r4, sp	@ tmp491,
 6647 053e 5C4B     		ldr	r3, .L479	@ tmp492,
 6648 0540 6448     		ldr	r0, .L479+36	@ tmp493,
ARM GAS  /tmp/ccKua49E.s 			page 159


 6649 0542 0022     		movs	r2, #0	@,
 6650 0544 C821     		movs	r1, #200	@,
 6651 0546 FFF7FEFF 		bl	GSMSendCommand	@
 6652 054a 0300     		movs	r3, r0	@ tmp494,
 6653 054c 2370     		strb	r3, [r4]	@ tmp496, i
2176:src/sim900_800.c **** 
2177:src/sim900_800.c **** 			if (i == 2)
 6654              		.loc 1 2177 0
 6655 054e 1723     		movs	r3, #23	@ tmp497,
 6656 0550 6B44     		add	r3, r3, sp	@ tmp497,
 6657 0552 1B78     		ldrb	r3, [r3]	@ tmp498, i
 6658 0554 022B     		cmp	r3, #2	@ tmp498,
 6659 0556 02D1     		bne	.L453	@,
2178:src/sim900_800.c **** 			{
2179:src/sim900_800.c **** 				GSMConfigGPRSState = 2;
 6660              		.loc 1 2179 0
 6661 0558 584B     		ldr	r3, .L479+12	@ tmp499,
 6662 055a 0222     		movs	r2, #2	@ tmp500,
 6663 055c 1A70     		strb	r2, [r3]	@ tmp501, GSMConfigGPRSState
 6664              	.L453:
2180:src/sim900_800.c **** 			}
2181:src/sim900_800.c **** 
2182:src/sim900_800.c **** 			if (i > 2)
 6665              		.loc 1 2182 0
 6666 055e 1723     		movs	r3, #23	@ tmp502,
 6667 0560 6B44     		add	r3, r3, sp	@ tmp502,
 6668 0562 1B78     		ldrb	r3, [r3]	@ tmp503, i
 6669 0564 022B     		cmp	r3, #2	@ tmp503,
 6670 0566 00D8     		bhi	.LCB5617	@
 6671 0568 90E0     		b	.L474	@long jump	@
 6672              	.LCB5617:
2183:src/sim900_800.c **** 			{
2184:src/sim900_800.c **** 				GSMConfigGPRSState = 0;
 6673              		.loc 1 2184 0
 6674 056a 544B     		ldr	r3, .L479+12	@ tmp504,
 6675 056c 0022     		movs	r2, #0	@ tmp505,
 6676 056e 1A70     		strb	r2, [r3]	@ tmp506, GSMConfigGPRSState
2185:src/sim900_800.c **** 				return 3;
 6677              		.loc 1 2185 0
 6678 0570 0323     		movs	r3, #3	@ D.8094,
 6679 0572 9AE0     		b	.L424	@
 6680              	.L416:
2186:src/sim900_800.c **** 			}
2187:src/sim900_800.c **** 			break;
2188:src/sim900_800.c **** 
2189:src/sim900_800.c **** 		case 12:
2190:src/sim900_800.c **** 
2191:src/sim900_800.c **** 			GSMConfigGPRSflag = 3;
 6681              		.loc 1 2191 0
 6682 0574 584B     		ldr	r3, .L479+40	@ tmp507,
 6683 0576 0322     		movs	r2, #3	@ tmp508,
 6684 0578 1A70     		strb	r2, [r3]	@ tmp509, GSMConfigGPRSflag
2192:src/sim900_800.c **** 			i = GSMSendCommand("AT+CIFSR\r\n", 50, 0, &GSMbuffRtaCommand[0]);
 6685              		.loc 1 2192 0
 6686 057a 1724     		movs	r4, #23	@ tmp510,
 6687 057c 6C44     		add	r4, r4, sp	@ tmp510,
 6688 057e 4C4B     		ldr	r3, .L479	@ tmp511,
ARM GAS  /tmp/ccKua49E.s 			page 160


 6689 0580 5648     		ldr	r0, .L479+44	@ tmp512,
 6690 0582 0022     		movs	r2, #0	@,
 6691 0584 3221     		movs	r1, #50	@,
 6692 0586 FFF7FEFF 		bl	GSMSendCommand	@
 6693 058a 0300     		movs	r3, r0	@ tmp513,
 6694 058c 2370     		strb	r3, [r4]	@ tmp515, i
2193:src/sim900_800.c **** 
2194:src/sim900_800.c **** 			if (i == 2)
 6695              		.loc 1 2194 0
 6696 058e 1723     		movs	r3, #23	@ tmp516,
 6697 0590 6B44     		add	r3, r3, sp	@ tmp516,
 6698 0592 1B78     		ldrb	r3, [r3]	@ tmp517, i
 6699 0594 022B     		cmp	r3, #2	@ tmp517,
 6700 0596 05D1     		bne	.L455	@,
2195:src/sim900_800.c **** 			{
2196:src/sim900_800.c **** 				GSMConfigGPRSState = 14;
 6701              		.loc 1 2196 0
 6702 0598 484B     		ldr	r3, .L479+12	@ tmp518,
 6703 059a 0E22     		movs	r2, #14	@ tmp519,
 6704 059c 1A70     		strb	r2, [r3]	@ tmp520, GSMConfigGPRSState
2197:src/sim900_800.c **** 				GSMConfigGPRSflag = 1;
 6705              		.loc 1 2197 0
 6706 059e 4E4B     		ldr	r3, .L479+40	@ tmp521,
 6707 05a0 0122     		movs	r2, #1	@ tmp522,
 6708 05a2 1A70     		strb	r2, [r3]	@ tmp523, GSMConfigGPRSflag
 6709              	.L455:
2198:src/sim900_800.c **** 			}
2199:src/sim900_800.c **** 
2200:src/sim900_800.c **** 			if (i > 2)
 6710              		.loc 1 2200 0
 6711 05a4 1723     		movs	r3, #23	@ tmp524,
 6712 05a6 6B44     		add	r3, r3, sp	@ tmp524,
 6713 05a8 1B78     		ldrb	r3, [r3]	@ tmp525, i
 6714 05aa 022B     		cmp	r3, #2	@ tmp525,
 6715 05ac 00D8     		bhi	.LCB5655	@
 6716 05ae 6FE0     		b	.L475	@long jump	@
 6717              	.LCB5655:
2201:src/sim900_800.c **** 			{
2202:src/sim900_800.c **** 				GSMConfigGPRSState = 0;
 6718              		.loc 1 2202 0
 6719 05b0 424B     		ldr	r3, .L479+12	@ tmp526,
 6720 05b2 0022     		movs	r2, #0	@ tmp527,
 6721 05b4 1A70     		strb	r2, [r3]	@ tmp528, GSMConfigGPRSState
2203:src/sim900_800.c **** 				return 3;
 6722              		.loc 1 2203 0
 6723 05b6 0323     		movs	r3, #3	@ D.8094,
 6724 05b8 77E0     		b	.L424	@
 6725              	.L417:
2204:src/sim900_800.c **** 			}
2205:src/sim900_800.c **** 			break;
2206:src/sim900_800.c **** 		case 13:
2207:src/sim900_800.c **** 			GSMConfigGPRSState = 2;
 6726              		.loc 1 2207 0
 6727 05ba 404B     		ldr	r3, .L479+12	@ tmp529,
 6728 05bc 0222     		movs	r2, #2	@ tmp530,
 6729 05be 1A70     		strb	r2, [r3]	@ tmp531, GSMConfigGPRSState
2208:src/sim900_800.c **** /*
ARM GAS  /tmp/ccKua49E.s 			page 161


2209:src/sim900_800.c **** 			i = GSMSendCommand(&GSMbuffGPRSCommand[0], 50, 0, &GSMbuffRtaCommand[0]);
2210:src/sim900_800.c **** 
2211:src/sim900_800.c **** 			if (i == 2)
2212:src/sim900_800.c **** 			{
2213:src/sim900_800.c **** 				GSMConfigGPRSState = 3;
2214:src/sim900_800.c **** 			}
2215:src/sim900_800.c **** 
2216:src/sim900_800.c **** 			if (i > 2)
2217:src/sim900_800.c **** 			{
2218:src/sim900_800.c **** 				GSMConfigGPRSState = 0;
2219:src/sim900_800.c **** 				return 3;
2220:src/sim900_800.c **** 			}
2221:src/sim900_800.c **** */
2222:src/sim900_800.c **** 			break;
 6730              		.loc 1 2222 0
 6731 05c0 69E0     		b	.L421	@
 6732              	.L418:
2223:src/sim900_800.c **** 
2224:src/sim900_800.c **** 		case 14:
2225:src/sim900_800.c **** 			GSMConfigGPRSState = 0;
 6733              		.loc 1 2225 0
 6734 05c2 3E4B     		ldr	r3, .L479+12	@ tmp532,
 6735 05c4 0022     		movs	r2, #0	@ tmp533,
 6736 05c6 1A70     		strb	r2, [r3]	@ tmp534, GSMConfigGPRSState
2226:src/sim900_800.c **** 			return 2;
 6737              		.loc 1 2226 0
 6738 05c8 0223     		movs	r3, #2	@ D.8094,
 6739 05ca 6EE0     		b	.L424	@
 6740              	.L419:
2227:src/sim900_800.c **** 			break;
2228:src/sim900_800.c **** 
2229:src/sim900_800.c **** 		case 15:
2230:src/sim900_800.c **** 			if ((sim == 1) || (sim == 2))
 6741              		.loc 1 2230 0
 6742 05cc 0F23     		movs	r3, #15	@ tmp535,
 6743 05ce 6B44     		add	r3, r3, sp	@ tmp535,
 6744 05d0 1B78     		ldrb	r3, [r3]	@ tmp536, sim
 6745 05d2 012B     		cmp	r3, #1	@ tmp536,
 6746 05d4 04D0     		beq	.L457	@,
 6747              		.loc 1 2230 0 is_stmt 0 discriminator 1
 6748 05d6 0F23     		movs	r3, #15	@ tmp537,
 6749 05d8 6B44     		add	r3, r3, sp	@ tmp537,
 6750 05da 1B78     		ldrb	r3, [r3]	@ tmp538, sim
 6751 05dc 022B     		cmp	r3, #2	@ tmp538,
 6752 05de 1BD1     		bne	.L458	@,
 6753              	.L457:
2231:src/sim900_800.c **** 			{
2232:src/sim900_800.c **** 				i = GSM_SetSIM(sim);
 6754              		.loc 1 2232 0 is_stmt 1
 6755 05e0 1724     		movs	r4, #23	@ tmp539,
 6756 05e2 6C44     		add	r4, r4, sp	@ tmp539,
 6757 05e4 0F23     		movs	r3, #15	@ tmp540,
 6758 05e6 6B44     		add	r3, r3, sp	@ tmp540,
 6759 05e8 1B78     		ldrb	r3, [r3]	@ tmp541, sim
 6760 05ea 1800     		movs	r0, r3	@, tmp541
 6761 05ec FFF7FEFF 		bl	GSM_SetSIM	@
 6762 05f0 0300     		movs	r3, r0	@ tmp542,
ARM GAS  /tmp/ccKua49E.s 			page 162


 6763 05f2 2370     		strb	r3, [r4]	@ tmp544, i
2233:src/sim900_800.c **** 
2234:src/sim900_800.c **** 				if (i == 2)
 6764              		.loc 1 2234 0
 6765 05f4 1723     		movs	r3, #23	@ tmp545,
 6766 05f6 6B44     		add	r3, r3, sp	@ tmp545,
 6767 05f8 1B78     		ldrb	r3, [r3]	@ tmp546, i
 6768 05fa 022B     		cmp	r3, #2	@ tmp546,
 6769 05fc 02D1     		bne	.L459	@,
2235:src/sim900_800.c **** 				{
2236:src/sim900_800.c **** 					GSMConfigGPRSState = 2;
 6770              		.loc 1 2236 0
 6771 05fe 2F4B     		ldr	r3, .L479+12	@ tmp547,
 6772 0600 0222     		movs	r2, #2	@ tmp548,
 6773 0602 1A70     		strb	r2, [r3]	@ tmp549, GSMConfigGPRSState
 6774              	.L459:
2237:src/sim900_800.c **** 				}
2238:src/sim900_800.c **** 
2239:src/sim900_800.c **** 				if (i>2)
 6775              		.loc 1 2239 0
 6776 0604 1723     		movs	r3, #23	@ tmp550,
 6777 0606 6B44     		add	r3, r3, sp	@ tmp550,
 6778 0608 1B78     		ldrb	r3, [r3]	@ tmp551, i
 6779 060a 022B     		cmp	r3, #2	@ tmp551,
 6780 060c 09D9     		bls	.L461	@,
2240:src/sim900_800.c **** 				{
2241:src/sim900_800.c **** 					GSMConfigGPRSState = 0;
 6781              		.loc 1 2241 0
 6782 060e 2B4B     		ldr	r3, .L479+12	@ tmp552,
 6783 0610 0022     		movs	r2, #0	@ tmp553,
 6784 0612 1A70     		strb	r2, [r3]	@ tmp554, GSMConfigGPRSState
2242:src/sim900_800.c **** 					return 3;
 6785              		.loc 1 2242 0
 6786 0614 0323     		movs	r3, #3	@ D.8094,
 6787 0616 48E0     		b	.L424	@
 6788              	.L458:
2243:src/sim900_800.c **** 				}
2244:src/sim900_800.c **** 			}
2245:src/sim900_800.c **** 			else
2246:src/sim900_800.c **** 			{
2247:src/sim900_800.c **** 				GSMConfigGPRSState = 0;
 6789              		.loc 1 2247 0
 6790 0618 284B     		ldr	r3, .L479+12	@ tmp555,
 6791 061a 0022     		movs	r2, #0	@ tmp556,
 6792 061c 1A70     		strb	r2, [r3]	@ tmp557, GSMConfigGPRSState
2248:src/sim900_800.c **** 				return 3;
 6793              		.loc 1 2248 0
 6794 061e 0323     		movs	r3, #3	@ D.8094,
 6795 0620 43E0     		b	.L424	@
 6796              	.L461:
2249:src/sim900_800.c **** 			}
2250:src/sim900_800.c **** 
2251:src/sim900_800.c **** 			break;
 6797              		.loc 1 2251 0 discriminator 1
 6798 0622 38E0     		b	.L421	@
 6799              	.L420:
2252:src/sim900_800.c **** 		case 16:
ARM GAS  /tmp/ccKua49E.s 			page 163


2253:src/sim900_800.c **** 
2254:src/sim900_800.c **** 			i = GSMSendCommand("AT+CIPSHUT\r\n", 50, 0, &GSMbuffRtaCommand[0]);
 6800              		.loc 1 2254 0
 6801 0624 1724     		movs	r4, #23	@ tmp558,
 6802 0626 6C44     		add	r4, r4, sp	@ tmp558,
 6803 0628 214B     		ldr	r3, .L479	@ tmp559,
 6804 062a 2D48     		ldr	r0, .L479+48	@ tmp560,
 6805 062c 0022     		movs	r2, #0	@,
 6806 062e 3221     		movs	r1, #50	@,
 6807 0630 FFF7FEFF 		bl	GSMSendCommand	@
 6808 0634 0300     		movs	r3, r0	@ tmp561,
 6809 0636 2370     		strb	r3, [r4]	@ tmp563, i
2255:src/sim900_800.c **** 
2256:src/sim900_800.c **** 			if (i == 2)
 6810              		.loc 1 2256 0
 6811 0638 1723     		movs	r3, #23	@ tmp564,
 6812 063a 6B44     		add	r3, r3, sp	@ tmp564,
 6813 063c 1B78     		ldrb	r3, [r3]	@ tmp565, i
 6814 063e 022B     		cmp	r3, #2	@ tmp565,
 6815 0640 04D1     		bne	.L462	@,
2257:src/sim900_800.c **** 			{
2258:src/sim900_800.c **** 				GSMConfigGPRSState = 0;
 6816              		.loc 1 2258 0
 6817 0642 1E4B     		ldr	r3, .L479+12	@ tmp566,
 6818 0644 0022     		movs	r2, #0	@ tmp567,
 6819 0646 1A70     		strb	r2, [r3]	@ tmp568, GSMConfigGPRSState
2259:src/sim900_800.c **** 				return 3;
 6820              		.loc 1 2259 0
 6821 0648 0323     		movs	r3, #3	@ D.8094,
 6822 064a 2EE0     		b	.L424	@
 6823              	.L462:
2260:src/sim900_800.c **** 			}
2261:src/sim900_800.c **** 
2262:src/sim900_800.c **** 			if (i > 2)
 6824              		.loc 1 2262 0
 6825 064c 1723     		movs	r3, #23	@ tmp569,
 6826 064e 6B44     		add	r3, r3, sp	@ tmp569,
 6827 0650 1B78     		ldrb	r3, [r3]	@ tmp570, i
 6828 0652 022B     		cmp	r3, #2	@ tmp570,
 6829 0654 1ED9     		bls	.L476	@,
2263:src/sim900_800.c **** 			{
2264:src/sim900_800.c **** 				GSMConfigGPRSState = 0;
 6830              		.loc 1 2264 0
 6831 0656 194B     		ldr	r3, .L479+12	@ tmp571,
 6832 0658 0022     		movs	r2, #0	@ tmp572,
 6833 065a 1A70     		strb	r2, [r3]	@ tmp573, GSMConfigGPRSState
2265:src/sim900_800.c **** 				return 3;
 6834              		.loc 1 2265 0
 6835 065c 0323     		movs	r3, #3	@ D.8094,
 6836 065e 24E0     		b	.L424	@
 6837              	.L402:
2266:src/sim900_800.c **** 			}
2267:src/sim900_800.c **** 			break;
2268:src/sim900_800.c **** 		default:
2269:src/sim900_800.c **** 			GSMConfigGPRSState = 0;
 6838              		.loc 1 2269 0
 6839 0660 164B     		ldr	r3, .L479+12	@ tmp574,
ARM GAS  /tmp/ccKua49E.s 			page 164


 6840 0662 0022     		movs	r2, #0	@ tmp575,
 6841 0664 1A70     		strb	r2, [r3]	@ tmp576, GSMConfigGPRSState
2270:src/sim900_800.c **** 			break;
 6842              		.loc 1 2270 0
 6843 0666 16E0     		b	.L421	@
 6844              	.L465:
1922:src/sim900_800.c **** 		case 3:
 6845              		.loc 1 1922 0
 6846 0668 C046     		nop
 6847 066a 14E0     		b	.L421	@
 6848              	.L466:
2010:src/sim900_800.c **** 
 6849              		.loc 1 2010 0
 6850 066c C046     		nop
 6851 066e 12E0     		b	.L421	@
 6852              	.L467:
2033:src/sim900_800.c **** 
 6853              		.loc 1 2033 0
 6854 0670 C046     		nop
 6855 0672 10E0     		b	.L421	@
 6856              	.L468:
2056:src/sim900_800.c **** 		case 6:
 6857              		.loc 1 2056 0
 6858 0674 C046     		nop
 6859 0676 0EE0     		b	.L421	@
 6860              	.L469:
2086:src/sim900_800.c **** 		case 7:
 6861              		.loc 1 2086 0
 6862 0678 C046     		nop
 6863 067a 0CE0     		b	.L421	@
 6864              	.L470:
2101:src/sim900_800.c **** 
 6865              		.loc 1 2101 0
 6866 067c C046     		nop
 6867 067e 0AE0     		b	.L421	@
 6868              	.L471:
2133:src/sim900_800.c **** 
 6869              		.loc 1 2133 0
 6870 0680 C046     		nop
 6871 0682 08E0     		b	.L421	@
 6872              	.L472:
2156:src/sim900_800.c **** 
 6873              		.loc 1 2156 0
 6874 0684 C046     		nop
 6875 0686 06E0     		b	.L421	@
 6876              	.L473:
2172:src/sim900_800.c **** 
 6877              		.loc 1 2172 0
 6878 0688 C046     		nop
 6879 068a 04E0     		b	.L421	@
 6880              	.L474:
2187:src/sim900_800.c **** 
 6881              		.loc 1 2187 0
 6882 068c C046     		nop
 6883 068e 02E0     		b	.L421	@
 6884              	.L475:
2205:src/sim900_800.c **** 		case 13:
ARM GAS  /tmp/ccKua49E.s 			page 165


 6885              		.loc 1 2205 0
 6886 0690 C046     		nop
 6887 0692 00E0     		b	.L421	@
 6888              	.L476:
2267:src/sim900_800.c **** 		default:
 6889              		.loc 1 2267 0
 6890 0694 C046     		nop
 6891              	.L421:
2271:src/sim900_800.c **** 
2272:src/sim900_800.c **** 	}
2273:src/sim900_800.c **** 
2274:src/sim900_800.c **** 	if (GSMConfigGPRSTimeOut == 0)
 6892              		.loc 1 2274 0
 6893 0696 134B     		ldr	r3, .L479+52	@ tmp577,
 6894 0698 1B88     		ldrh	r3, [r3]	@ D.8099, GSMConfigGPRSTimeOut
 6895 069a 002B     		cmp	r3, #0	@ D.8099,
 6896 069c 04D1     		bne	.L464	@,
2275:src/sim900_800.c **** 	{
2276:src/sim900_800.c **** 		GSMConfigGPRSState = 0;
 6897              		.loc 1 2276 0
 6898 069e 074B     		ldr	r3, .L479+12	@ tmp578,
 6899 06a0 0022     		movs	r2, #0	@ tmp579,
 6900 06a2 1A70     		strb	r2, [r3]	@ tmp580, GSMConfigGPRSState
2277:src/sim900_800.c **** 		return 4;
 6901              		.loc 1 2277 0
 6902 06a4 0423     		movs	r3, #4	@ D.8094,
 6903 06a6 00E0     		b	.L424	@
 6904              	.L464:
2278:src/sim900_800.c **** 	}
2279:src/sim900_800.c **** 
2280:src/sim900_800.c **** 	return 1;
 6905              		.loc 1 2280 0
 6906 06a8 0123     		movs	r3, #1	@ D.8094,
 6907              	.L424:
2281:src/sim900_800.c **** }
 6908              		.loc 1 2281 0
 6909 06aa 1800     		movs	r0, r3	@, <retval>
 6910 06ac 06B0     		add	sp, sp, #24	@,,
 6911              		@ sp needed	@
 6912 06ae 10BD     		pop	{r4, pc}
 6913              	.L480:
 6914              		.align	2
 6915              	.L479:
 6916 06b0 00000000 		.word	GSMbuffRtaCommand
 6917 06b4 BC010000 		.word	.LC149
 6918 06b8 C8010000 		.word	.LC151
 6919 06bc 00000000 		.word	GSMConfigGPRSState
 6920 06c0 00000000 		.word	GSMbuffGPRSCommand
 6921 06c4 D0010000 		.word	.LC153
 6922 06c8 F4000000 		.word	.LC100
 6923 06cc E4010000 		.word	.LC155
 6924 06d0 38010000 		.word	.LC122
 6925 06d4 F0010000 		.word	.LC157
 6926 06d8 00000000 		.word	GSMConfigGPRSflag
 6927 06dc FC010000 		.word	.LC159
 6928 06e0 14000000 		.word	.LC33
 6929 06e4 00000000 		.word	GSMConfigGPRSTimeOut
ARM GAS  /tmp/ccKua49E.s 			page 166


 6930              		.cfi_endproc
 6931              	.LFE36:
 6932              		.size	GSMConfigPDPGPRS, .-GSMConfigPDPGPRS
 6933              		.text
 6934              	.Letext0:
 6935              		.file 2 "/usr/local/sbin/gcc-arm-none-eabi-5_2-2015q4/arm-none-eabi/include/machine/_default_types
 6936              		.file 3 "/usr/local/sbin/gcc-arm-none-eabi-5_2-2015q4/arm-none-eabi/include/sys/_stdint.h"
 6937              		.file 4 "./cmsis_boot/stm32f0xx.h"
 6938              		.section	.debug_info,"",%progbits
 6939              	.Ldebug_info0:
 6940 0000 CC0C0000 		.4byte	0xccc
 6941 0004 0200     		.2byte	0x2
 6942 0006 00000000 		.4byte	.Ldebug_abbrev0
 6943 000a 04       		.byte	0x4
 6944 000b 01       		.uleb128 0x1
 6945 000c 3C070000 		.4byte	.LASF141
 6946 0010 0C       		.byte	0xc
 6947 0011 97050000 		.4byte	.LASF142
 6948 0015 A8050000 		.4byte	.LASF143
 6949 0019 00000000 		.4byte	.Ldebug_ranges0+0
 6950 001d 00000000 		.4byte	0
 6951 0021 00000000 		.4byte	0
 6952 0025 00000000 		.4byte	.Ldebug_line0
 6953 0029 02       		.uleb128 0x2
 6954 002a 01       		.byte	0x1
 6955 002b 08       		.byte	0x8
 6956 002c 1C060000 		.4byte	.LASF0
 6957 0030 02       		.uleb128 0x2
 6958 0031 01       		.byte	0x1
 6959 0032 06       		.byte	0x6
 6960 0033 F8060000 		.4byte	.LASF1
 6961 0037 02       		.uleb128 0x2
 6962 0038 02       		.byte	0x2
 6963 0039 05       		.byte	0x5
 6964 003a 71040000 		.4byte	.LASF2
 6965 003e 03       		.uleb128 0x3
 6966 003f 1F020000 		.4byte	.LASF5
 6967 0043 02       		.byte	0x2
 6968 0044 2B       		.byte	0x2b
 6969 0045 49000000 		.4byte	0x49
 6970 0049 02       		.uleb128 0x2
 6971 004a 02       		.byte	0x2
 6972 004b 07       		.byte	0x7
 6973 004c 29070000 		.4byte	.LASF3
 6974 0050 02       		.uleb128 0x2
 6975 0051 04       		.byte	0x4
 6976 0052 05       		.byte	0x5
 6977 0053 91040000 		.4byte	.LASF4
 6978 0057 03       		.uleb128 0x3
 6979 0058 2A060000 		.4byte	.LASF6
 6980 005c 02       		.byte	0x2
 6981 005d 41       		.byte	0x41
 6982 005e 62000000 		.4byte	0x62
 6983 0062 02       		.uleb128 0x2
 6984 0063 04       		.byte	0x4
 6985 0064 07       		.byte	0x7
 6986 0065 85050000 		.4byte	.LASF7
ARM GAS  /tmp/ccKua49E.s 			page 167


 6987 0069 02       		.uleb128 0x2
 6988 006a 08       		.byte	0x8
 6989 006b 05       		.byte	0x5
 6990 006c 88030000 		.4byte	.LASF8
 6991 0070 02       		.uleb128 0x2
 6992 0071 08       		.byte	0x8
 6993 0072 07       		.byte	0x7
 6994 0073 DA010000 		.4byte	.LASF9
 6995 0077 04       		.uleb128 0x4
 6996 0078 04       		.byte	0x4
 6997 0079 05       		.byte	0x5
 6998 007a 696E7400 		.ascii	"int\000"
 6999 007e 02       		.uleb128 0x2
 7000 007f 04       		.byte	0x4
 7001 0080 07       		.byte	0x7
 7002 0081 9F000000 		.4byte	.LASF10
 7003 0085 03       		.uleb128 0x3
 7004 0086 0B040000 		.4byte	.LASF11
 7005 008a 03       		.byte	0x3
 7006 008b 1A       		.byte	0x1a
 7007 008c 3E000000 		.4byte	0x3e
 7008 0090 03       		.uleb128 0x3
 7009 0091 1A010000 		.4byte	.LASF12
 7010 0095 03       		.byte	0x3
 7011 0096 20       		.byte	0x20
 7012 0097 57000000 		.4byte	0x57
 7013 009b 02       		.uleb128 0x2
 7014 009c 04       		.byte	0x4
 7015 009d 07       		.byte	0x7
 7016 009e 7C050000 		.4byte	.LASF13
 7017 00a2 05       		.uleb128 0x5
 7018 00a3 90000000 		.4byte	0x90
 7019 00a7 06       		.uleb128 0x6
 7020 00a8 90000000 		.4byte	0x90
 7021 00ac B7000000 		.4byte	0xb7
 7022 00b0 07       		.uleb128 0x7
 7023 00b1 9B000000 		.4byte	0x9b
 7024 00b5 01       		.byte	0x1
 7025 00b6 00       		.byte	0
 7026 00b7 05       		.uleb128 0x5
 7027 00b8 85000000 		.4byte	0x85
 7028 00bc 08       		.uleb128 0x8
 7029 00bd 2C       		.byte	0x2c
 7030 00be 04       		.byte	0x4
 7031 00bf 6902     		.2byte	0x269
 7032 00c1 98010000 		.4byte	0x198
 7033 00c5 09       		.uleb128 0x9
 7034 00c6 2A020000 		.4byte	.LASF14
 7035 00ca 04       		.byte	0x4
 7036 00cb 6B02     		.2byte	0x26b
 7037 00cd A2000000 		.4byte	0xa2
 7038 00d1 02       		.byte	0x2
 7039 00d2 23       		.byte	0x23
 7040 00d3 00       		.uleb128 0
 7041 00d4 09       		.uleb128 0x9
 7042 00d5 CE040000 		.4byte	.LASF15
 7043 00d9 04       		.byte	0x4
ARM GAS  /tmp/ccKua49E.s 			page 168


 7044 00da 6C02     		.2byte	0x26c
 7045 00dc B7000000 		.4byte	0xb7
 7046 00e0 02       		.byte	0x2
 7047 00e1 23       		.byte	0x23
 7048 00e2 04       		.uleb128 0x4
 7049 00e3 09       		.uleb128 0x9
 7050 00e4 49040000 		.4byte	.LASF16
 7051 00e8 04       		.byte	0x4
 7052 00e9 6D02     		.2byte	0x26d
 7053 00eb 85000000 		.4byte	0x85
 7054 00ef 02       		.byte	0x2
 7055 00f0 23       		.byte	0x23
 7056 00f1 06       		.uleb128 0x6
 7057 00f2 09       		.uleb128 0x9
 7058 00f3 F7030000 		.4byte	.LASF17
 7059 00f7 04       		.byte	0x4
 7060 00f8 6E02     		.2byte	0x26e
 7061 00fa A2000000 		.4byte	0xa2
 7062 00fe 02       		.byte	0x2
 7063 00ff 23       		.byte	0x23
 7064 0100 08       		.uleb128 0x8
 7065 0101 09       		.uleb128 0x9
 7066 0102 99020000 		.4byte	.LASF18
 7067 0106 04       		.byte	0x4
 7068 0107 6F02     		.2byte	0x26f
 7069 0109 A2000000 		.4byte	0xa2
 7070 010d 02       		.byte	0x2
 7071 010e 23       		.byte	0x23
 7072 010f 0C       		.uleb128 0xc
 7073 0110 0A       		.uleb128 0xa
 7074 0111 49445200 		.ascii	"IDR\000"
 7075 0115 04       		.byte	0x4
 7076 0116 7002     		.2byte	0x270
 7077 0118 B7000000 		.4byte	0xb7
 7078 011c 02       		.byte	0x2
 7079 011d 23       		.byte	0x23
 7080 011e 10       		.uleb128 0x10
 7081 011f 09       		.uleb128 0x9
 7082 0120 53040000 		.4byte	.LASF19
 7083 0124 04       		.byte	0x4
 7084 0125 7102     		.2byte	0x271
 7085 0127 85000000 		.4byte	0x85
 7086 012b 02       		.byte	0x2
 7087 012c 23       		.byte	0x23
 7088 012d 12       		.uleb128 0x12
 7089 012e 0A       		.uleb128 0xa
 7090 012f 4F445200 		.ascii	"ODR\000"
 7091 0133 04       		.byte	0x4
 7092 0134 7202     		.2byte	0x272
 7093 0136 B7000000 		.4byte	0xb7
 7094 013a 02       		.byte	0x2
 7095 013b 23       		.byte	0x23
 7096 013c 14       		.uleb128 0x14
 7097 013d 09       		.uleb128 0x9
 7098 013e 5D040000 		.4byte	.LASF20
 7099 0142 04       		.byte	0x4
 7100 0143 7302     		.2byte	0x273
ARM GAS  /tmp/ccKua49E.s 			page 169


 7101 0145 85000000 		.4byte	0x85
 7102 0149 02       		.byte	0x2
 7103 014a 23       		.byte	0x23
 7104 014b 16       		.uleb128 0x16
 7105 014c 09       		.uleb128 0x9
 7106 014d 42000000 		.4byte	.LASF21
 7107 0151 04       		.byte	0x4
 7108 0152 7402     		.2byte	0x274
 7109 0154 A2000000 		.4byte	0xa2
 7110 0158 02       		.byte	0x2
 7111 0159 23       		.byte	0x23
 7112 015a 18       		.uleb128 0x18
 7113 015b 09       		.uleb128 0x9
 7114 015c 9B080000 		.4byte	.LASF22
 7115 0160 04       		.byte	0x4
 7116 0161 7502     		.2byte	0x275
 7117 0163 A2000000 		.4byte	0xa2
 7118 0167 02       		.byte	0x2
 7119 0168 23       		.byte	0x23
 7120 0169 1C       		.uleb128 0x1c
 7121 016a 0A       		.uleb128 0xa
 7122 016b 41465200 		.ascii	"AFR\000"
 7123 016f 04       		.byte	0x4
 7124 0170 7602     		.2byte	0x276
 7125 0172 98010000 		.4byte	0x198
 7126 0176 02       		.byte	0x2
 7127 0177 23       		.byte	0x23
 7128 0178 20       		.uleb128 0x20
 7129 0179 0A       		.uleb128 0xa
 7130 017a 42525200 		.ascii	"BRR\000"
 7131 017e 04       		.byte	0x4
 7132 017f 7702     		.2byte	0x277
 7133 0181 B7000000 		.4byte	0xb7
 7134 0185 02       		.byte	0x2
 7135 0186 23       		.byte	0x23
 7136 0187 28       		.uleb128 0x28
 7137 0188 09       		.uleb128 0x9
 7138 0189 67040000 		.4byte	.LASF23
 7139 018d 04       		.byte	0x4
 7140 018e 7802     		.2byte	0x278
 7141 0190 85000000 		.4byte	0x85
 7142 0194 02       		.byte	0x2
 7143 0195 23       		.byte	0x23
 7144 0196 2A       		.uleb128 0x2a
 7145 0197 00       		.byte	0
 7146 0198 05       		.uleb128 0x5
 7147 0199 A7000000 		.4byte	0xa7
 7148 019d 0B       		.uleb128 0xb
 7149 019e 51050000 		.4byte	.LASF24
 7150 01a2 04       		.byte	0x4
 7151 01a3 7902     		.2byte	0x279
 7152 01a5 BC000000 		.4byte	0xbc
 7153 01a9 02       		.uleb128 0x2
 7154 01aa 08       		.byte	0x8
 7155 01ab 04       		.byte	0x4
 7156 01ac FF030000 		.4byte	.LASF25
 7157 01b0 0C       		.uleb128 0xc
ARM GAS  /tmp/ccKua49E.s 			page 170


 7158 01b1 04       		.byte	0x4
 7159 01b2 29000000 		.4byte	0x29
 7160 01b6 0C       		.uleb128 0xc
 7161 01b7 04       		.byte	0x4
 7162 01b8 BC010000 		.4byte	0x1bc
 7163 01bc 02       		.uleb128 0x2
 7164 01bd 01       		.byte	0x1
 7165 01be 08       		.byte	0x8
 7166 01bf CD020000 		.4byte	.LASF26
 7167 01c3 0D       		.uleb128 0xd
 7168 01c4 BC010000 		.4byte	0x1bc
 7169 01c8 06       		.uleb128 0x6
 7170 01c9 BC010000 		.4byte	0x1bc
 7171 01cd D8010000 		.4byte	0x1d8
 7172 01d1 07       		.uleb128 0x7
 7173 01d2 9B000000 		.4byte	0x9b
 7174 01d6 07       		.byte	0x7
 7175 01d7 00       		.byte	0
 7176 01d8 0E       		.uleb128 0xe
 7177 01d9 01       		.byte	0x1
 7178 01da 7B040000 		.4byte	.LASF27
 7179 01de 01       		.byte	0x1
 7180 01df 7F       		.byte	0x7f
 7181 01e0 01       		.byte	0x1
 7182 01e1 00000000 		.4byte	.LFB20
 7183 01e5 5C000000 		.4byte	.LFE20
 7184 01e9 00000000 		.4byte	.LLST0
 7185 01ed 01       		.byte	0x1
 7186 01ee 0F       		.uleb128 0xf
 7187 01ef 01       		.byte	0x1
 7188 01f0 95000000 		.4byte	.LASF144
 7189 01f4 01       		.byte	0x1
 7190 01f5 DB       		.byte	0xdb
 7191 01f6 01       		.byte	0x1
 7192 01f7 29000000 		.4byte	0x29
 7193 01fb 00000000 		.4byte	.LFB21
 7194 01ff FC000000 		.4byte	.LFE21
 7195 0203 02       		.byte	0x2
 7196 0204 7D       		.byte	0x7d
 7197 0205 00       		.sleb128 0
 7198 0206 01       		.byte	0x1
 7199 0207 10       		.uleb128 0x10
 7200 0208 01       		.byte	0x1
 7201 0209 71020000 		.4byte	.LASF28
 7202 020d 01       		.byte	0x1
 7203 020e 1201     		.2byte	0x112
 7204 0210 01       		.byte	0x1
 7205 0211 00000000 		.4byte	.LFB22
 7206 0215 10000000 		.4byte	.LFE22
 7207 0219 02       		.byte	0x2
 7208 021a 7D       		.byte	0x7d
 7209 021b 00       		.sleb128 0
 7210 021c 01       		.byte	0x1
 7211 021d 11       		.uleb128 0x11
 7212 021e 01       		.byte	0x1
 7213 021f 68020000 		.4byte	.LASF29
 7214 0223 01       		.byte	0x1
ARM GAS  /tmp/ccKua49E.s 			page 171


 7215 0224 1C01     		.2byte	0x11c
 7216 0226 01       		.byte	0x1
 7217 0227 29000000 		.4byte	0x29
 7218 022b 00000000 		.4byte	.LFB23
 7219 022f BC000000 		.4byte	.LFE23
 7220 0233 20000000 		.4byte	.LLST1
 7221 0237 01       		.byte	0x1
 7222 0238 4C020000 		.4byte	0x24c
 7223 023c 12       		.uleb128 0x12
 7224 023d 45080000 		.4byte	.LASF31
 7225 0241 01       		.byte	0x1
 7226 0242 1E01     		.2byte	0x11e
 7227 0244 29000000 		.4byte	0x29
 7228 0248 02       		.byte	0x2
 7229 0249 91       		.byte	0x91
 7230 024a 7F       		.sleb128 -1
 7231 024b 00       		.byte	0
 7232 024c 11       		.uleb128 0x11
 7233 024d 01       		.byte	0x1
 7234 024e CA060000 		.4byte	.LASF30
 7235 0252 01       		.byte	0x1
 7236 0253 4401     		.2byte	0x144
 7237 0255 01       		.byte	0x1
 7238 0256 29000000 		.4byte	0x29
 7239 025a 00000000 		.4byte	.LFB24
 7240 025e 70000000 		.4byte	.LFE24
 7241 0262 40000000 		.4byte	.LLST2
 7242 0266 01       		.byte	0x1
 7243 0267 8A020000 		.4byte	0x28a
 7244 026b 13       		.uleb128 0x13
 7245 026c 74696D00 		.ascii	"tim\000"
 7246 0270 01       		.byte	0x1
 7247 0271 4401     		.2byte	0x144
 7248 0273 49000000 		.4byte	0x49
 7249 0277 02       		.byte	0x2
 7250 0278 91       		.byte	0x91
 7251 0279 76       		.sleb128 -10
 7252 027a 12       		.uleb128 0x12
 7253 027b 45080000 		.4byte	.LASF31
 7254 027f 01       		.byte	0x1
 7255 0280 4601     		.2byte	0x146
 7256 0282 29000000 		.4byte	0x29
 7257 0286 02       		.byte	0x2
 7258 0287 91       		.byte	0x91
 7259 0288 7F       		.sleb128 -1
 7260 0289 00       		.byte	0
 7261 028a 14       		.uleb128 0x14
 7262 028b 01       		.byte	0x1
 7263 028c 55060000 		.4byte	.LASF65
 7264 0290 01       		.byte	0x1
 7265 0291 5F01     		.2byte	0x15f
 7266 0293 01       		.byte	0x1
 7267 0294 00000000 		.4byte	.LFB25
 7268 0298 CC030000 		.4byte	.LFE25
 7269 029c 60000000 		.4byte	.LLST3
 7270 02a0 01       		.byte	0x1
 7271 02a1 76030000 		.4byte	0x376
ARM GAS  /tmp/ccKua49E.s 			page 172


 7272 02a5 15       		.uleb128 0x15
 7273 02a6 23040000 		.4byte	.LASF32
 7274 02aa 01       		.byte	0x1
 7275 02ab 5F01     		.2byte	0x15f
 7276 02ad B0010000 		.4byte	0x1b0
 7277 02b1 02       		.byte	0x2
 7278 02b2 91       		.byte	0x91
 7279 02b3 6C       		.sleb128 -20
 7280 02b4 15       		.uleb128 0x15
 7281 02b5 9D060000 		.4byte	.LASF33
 7282 02b9 01       		.byte	0x1
 7283 02ba 5F01     		.2byte	0x15f
 7284 02bc B0010000 		.4byte	0x1b0
 7285 02c0 02       		.byte	0x2
 7286 02c1 91       		.byte	0x91
 7287 02c2 68       		.sleb128 -24
 7288 02c3 15       		.uleb128 0x15
 7289 02c4 AB060000 		.4byte	.LASF34
 7290 02c8 01       		.byte	0x1
 7291 02c9 5F01     		.2byte	0x15f
 7292 02cb B0010000 		.4byte	0x1b0
 7293 02cf 02       		.byte	0x2
 7294 02d0 91       		.byte	0x91
 7295 02d1 64       		.sleb128 -28
 7296 02d2 15       		.uleb128 0x15
 7297 02d3 23050000 		.4byte	.LASF35
 7298 02d7 01       		.byte	0x1
 7299 02d8 5F01     		.2byte	0x15f
 7300 02da B6010000 		.4byte	0x1b6
 7301 02de 02       		.byte	0x2
 7302 02df 91       		.byte	0x91
 7303 02e0 60       		.sleb128 -32
 7304 02e1 15       		.uleb128 0x15
 7305 02e2 23010000 		.4byte	.LASF36
 7306 02e6 01       		.byte	0x1
 7307 02e7 5F01     		.2byte	0x15f
 7308 02e9 B6010000 		.4byte	0x1b6
 7309 02ed 02       		.byte	0x2
 7310 02ee 91       		.byte	0x91
 7311 02ef 00       		.sleb128 0
 7312 02f0 15       		.uleb128 0x15
 7313 02f1 69010000 		.4byte	.LASF37
 7314 02f5 01       		.byte	0x1
 7315 02f6 5F01     		.2byte	0x15f
 7316 02f8 B6010000 		.4byte	0x1b6
 7317 02fc 02       		.byte	0x2
 7318 02fd 91       		.byte	0x91
 7319 02fe 04       		.sleb128 4
 7320 02ff 15       		.uleb128 0x15
 7321 0300 F4070000 		.4byte	.LASF38
 7322 0304 01       		.byte	0x1
 7323 0305 5F01     		.2byte	0x15f
 7324 0307 B6010000 		.4byte	0x1b6
 7325 030b 02       		.byte	0x2
 7326 030c 91       		.byte	0x91
 7327 030d 08       		.sleb128 8
 7328 030e 15       		.uleb128 0x15
ARM GAS  /tmp/ccKua49E.s 			page 173


 7329 030f 3A050000 		.4byte	.LASF39
 7330 0313 01       		.byte	0x1
 7331 0314 5F01     		.2byte	0x15f
 7332 0316 B6010000 		.4byte	0x1b6
 7333 031a 02       		.byte	0x2
 7334 031b 91       		.byte	0x91
 7335 031c 0C       		.sleb128 12
 7336 031d 15       		.uleb128 0x15
 7337 031e 3E010000 		.4byte	.LASF40
 7338 0322 01       		.byte	0x1
 7339 0323 5F01     		.2byte	0x15f
 7340 0325 B6010000 		.4byte	0x1b6
 7341 0329 02       		.byte	0x2
 7342 032a 91       		.byte	0x91
 7343 032b 10       		.sleb128 16
 7344 032c 15       		.uleb128 0x15
 7345 032d 82010000 		.4byte	.LASF41
 7346 0331 01       		.byte	0x1
 7347 0332 5F01     		.2byte	0x15f
 7348 0334 B6010000 		.4byte	0x1b6
 7349 0338 02       		.byte	0x2
 7350 0339 91       		.byte	0x91
 7351 033a 14       		.sleb128 20
 7352 033b 15       		.uleb128 0x15
 7353 033c 11080000 		.4byte	.LASF42
 7354 0340 01       		.byte	0x1
 7355 0341 5F01     		.2byte	0x15f
 7356 0343 B6010000 		.4byte	0x1b6
 7357 0347 02       		.byte	0x2
 7358 0348 91       		.byte	0x91
 7359 0349 18       		.sleb128 24
 7360 034a 15       		.uleb128 0x15
 7361 034b CC030000 		.4byte	.LASF43
 7362 034f 01       		.byte	0x1
 7363 0350 5F01     		.2byte	0x15f
 7364 0352 B6010000 		.4byte	0x1b6
 7365 0356 02       		.byte	0x2
 7366 0357 91       		.byte	0x91
 7367 0358 1C       		.sleb128 28
 7368 0359 15       		.uleb128 0x15
 7369 035a 66080000 		.4byte	.LASF44
 7370 035e 01       		.byte	0x1
 7371 035f 5F01     		.2byte	0x15f
 7372 0361 B6010000 		.4byte	0x1b6
 7373 0365 02       		.byte	0x2
 7374 0366 91       		.byte	0x91
 7375 0367 20       		.sleb128 32
 7376 0368 16       		.uleb128 0x16
 7377 0369 6900     		.ascii	"i\000"
 7378 036b 01       		.byte	0x1
 7379 036c 6101     		.2byte	0x161
 7380 036e 29000000 		.4byte	0x29
 7381 0372 02       		.byte	0x2
 7382 0373 91       		.byte	0x91
 7383 0374 77       		.sleb128 -9
 7384 0375 00       		.byte	0
 7385 0376 17       		.uleb128 0x17
ARM GAS  /tmp/ccKua49E.s 			page 174


 7386 0377 01       		.byte	0x1
 7387 0378 F1010000 		.4byte	.LASF45
 7388 037c 01       		.byte	0x1
 7389 037d 2D02     		.2byte	0x22d
 7390 037f 01       		.byte	0x1
 7391 0380 BC010000 		.4byte	0x1bc
 7392 0384 00000000 		.4byte	.LFB26
 7393 0388 70000000 		.4byte	.LFE26
 7394 038c 8C000000 		.4byte	.LLST4
 7395 0390 01       		.byte	0x1
 7396 0391 A3030000 		.4byte	0x3a3
 7397 0395 16       		.uleb128 0x16
 7398 0396 6900     		.ascii	"i\000"
 7399 0398 01       		.byte	0x1
 7400 0399 2F02     		.2byte	0x22f
 7401 039b 29000000 		.4byte	0x29
 7402 039f 02       		.byte	0x2
 7403 03a0 91       		.byte	0x91
 7404 03a1 77       		.sleb128 -9
 7405 03a2 00       		.byte	0
 7406 03a3 18       		.uleb128 0x18
 7407 03a4 01       		.byte	0x1
 7408 03a5 4F000000 		.4byte	.LASF46
 7409 03a9 01       		.byte	0x1
 7410 03aa 4A02     		.2byte	0x24a
 7411 03ac 01       		.byte	0x1
 7412 03ad 00000000 		.4byte	.LFB27
 7413 03b1 FC020000 		.4byte	.LFE27
 7414 03b5 B8000000 		.4byte	.LLST5
 7415 03b9 01       		.byte	0x1
 7416 03ba 17       		.uleb128 0x17
 7417 03bb 01       		.byte	0x1
 7418 03bc 35060000 		.4byte	.LASF47
 7419 03c0 01       		.byte	0x1
 7420 03c1 EA02     		.2byte	0x2ea
 7421 03c3 01       		.byte	0x1
 7422 03c4 BC010000 		.4byte	0x1bc
 7423 03c8 00000000 		.4byte	.LFB28
 7424 03cc 50010000 		.4byte	.LFE28
 7425 03d0 D8000000 		.4byte	.LLST6
 7426 03d4 01       		.byte	0x1
 7427 03d5 16040000 		.4byte	0x416
 7428 03d9 15       		.uleb128 0x15
 7429 03da FB040000 		.4byte	.LASF48
 7430 03de 01       		.byte	0x1
 7431 03df EA02     		.2byte	0x2ea
 7432 03e1 B6010000 		.4byte	0x1b6
 7433 03e5 02       		.byte	0x2
 7434 03e6 91       		.byte	0x91
 7435 03e7 74       		.sleb128 -12
 7436 03e8 15       		.uleb128 0x15
 7437 03e9 E5000000 		.4byte	.LASF49
 7438 03ed 01       		.byte	0x1
 7439 03ee EA02     		.2byte	0x2ea
 7440 03f0 49000000 		.4byte	0x49
 7441 03f4 02       		.byte	0x2
 7442 03f5 91       		.byte	0x91
ARM GAS  /tmp/ccKua49E.s 			page 175


 7443 03f6 72       		.sleb128 -14
 7444 03f7 13       		.uleb128 0x13
 7445 03f8 72746100 		.ascii	"rta\000"
 7446 03fc 01       		.byte	0x1
 7447 03fd EA02     		.2byte	0x2ea
 7448 03ff 29000000 		.4byte	0x29
 7449 0403 02       		.byte	0x2
 7450 0404 91       		.byte	0x91
 7451 0405 71       		.sleb128 -15
 7452 0406 15       		.uleb128 0x15
 7453 0407 84060000 		.4byte	.LASF50
 7454 040b 01       		.byte	0x1
 7455 040c EA02     		.2byte	0x2ea
 7456 040e B6010000 		.4byte	0x1b6
 7457 0412 02       		.byte	0x2
 7458 0413 91       		.byte	0x91
 7459 0414 6C       		.sleb128 -20
 7460 0415 00       		.byte	0
 7461 0416 17       		.uleb128 0x17
 7462 0417 01       		.byte	0x1
 7463 0418 86040000 		.4byte	.LASF51
 7464 041c 01       		.byte	0x1
 7465 041d 4103     		.2byte	0x341
 7466 041f 01       		.byte	0x1
 7467 0420 BC010000 		.4byte	0x1bc
 7468 0424 00000000 		.4byte	.LFB29
 7469 0428 F4020000 		.4byte	.LFE29
 7470 042c 04010000 		.4byte	.LLST7
 7471 0430 01       		.byte	0x1
 7472 0431 52040000 		.4byte	0x452
 7473 0435 15       		.uleb128 0x15
 7474 0436 E5000000 		.4byte	.LASF49
 7475 043a 01       		.byte	0x1
 7476 043b 4103     		.2byte	0x341
 7477 043d 49000000 		.4byte	0x49
 7478 0441 02       		.byte	0x2
 7479 0442 91       		.byte	0x91
 7480 0443 6E       		.sleb128 -18
 7481 0444 16       		.uleb128 0x16
 7482 0445 6900     		.ascii	"i\000"
 7483 0447 01       		.byte	0x1
 7484 0448 4303     		.2byte	0x343
 7485 044a 29000000 		.4byte	0x29
 7486 044e 02       		.byte	0x2
 7487 044f 91       		.byte	0x91
 7488 0450 77       		.sleb128 -9
 7489 0451 00       		.byte	0
 7490 0452 17       		.uleb128 0x17
 7491 0453 01       		.byte	0x1
 7492 0454 06050000 		.4byte	.LASF52
 7493 0458 01       		.byte	0x1
 7494 0459 F603     		.2byte	0x3f6
 7495 045b 01       		.byte	0x1
 7496 045c BC010000 		.4byte	0x1bc
 7497 0460 00000000 		.4byte	.LFB30
 7498 0464 70010000 		.4byte	.LFE30
 7499 0468 30010000 		.4byte	.LLST8
ARM GAS  /tmp/ccKua49E.s 			page 176


 7500 046c 01       		.byte	0x1
 7501 046d AC040000 		.4byte	0x4ac
 7502 0471 15       		.uleb128 0x15
 7503 0472 C7040000 		.4byte	.LASF53
 7504 0476 01       		.byte	0x1
 7505 0477 F603     		.2byte	0x3f6
 7506 0479 B6010000 		.4byte	0x1b6
 7507 047d 02       		.byte	0x2
 7508 047e 91       		.byte	0x91
 7509 047f 6C       		.sleb128 -20
 7510 0480 15       		.uleb128 0x15
 7511 0481 D3010000 		.4byte	.LASF54
 7512 0485 01       		.byte	0x1
 7513 0486 F603     		.2byte	0x3f6
 7514 0488 B6010000 		.4byte	0x1b6
 7515 048c 02       		.byte	0x2
 7516 048d 91       		.byte	0x91
 7517 048e 68       		.sleb128 -24
 7518 048f 15       		.uleb128 0x15
 7519 0490 E5000000 		.4byte	.LASF49
 7520 0494 01       		.byte	0x1
 7521 0495 F603     		.2byte	0x3f6
 7522 0497 49000000 		.4byte	0x49
 7523 049b 02       		.byte	0x2
 7524 049c 91       		.byte	0x91
 7525 049d 66       		.sleb128 -26
 7526 049e 16       		.uleb128 0x16
 7527 049f 6900     		.ascii	"i\000"
 7528 04a1 01       		.byte	0x1
 7529 04a2 F803     		.2byte	0x3f8
 7530 04a4 29000000 		.4byte	0x29
 7531 04a8 02       		.byte	0x2
 7532 04a9 91       		.byte	0x91
 7533 04aa 77       		.sleb128 -9
 7534 04ab 00       		.byte	0
 7535 04ac 17       		.uleb128 0x17
 7536 04ad 01       		.byte	0x1
 7537 04ae B9040000 		.4byte	.LASF55
 7538 04b2 01       		.byte	0x1
 7539 04b3 4604     		.2byte	0x446
 7540 04b5 01       		.byte	0x1
 7541 04b6 BC010000 		.4byte	0x1bc
 7542 04ba 00000000 		.4byte	.LFB31
 7543 04be 80080000 		.4byte	.LFE31
 7544 04c2 5C010000 		.4byte	.LLST9
 7545 04c6 01       		.byte	0x1
 7546 04c7 51050000 		.4byte	0x551
 7547 04cb 13       		.uleb128 0x13
 7548 04cc 73696D00 		.ascii	"sim\000"
 7549 04d0 01       		.byte	0x1
 7550 04d1 4604     		.2byte	0x446
 7551 04d3 BC010000 		.4byte	0x1bc
 7552 04d7 02       		.byte	0x2
 7553 04d8 91       		.byte	0x91
 7554 04d9 6F       		.sleb128 -17
 7555 04da 15       		.uleb128 0x15
 7556 04db 62060000 		.4byte	.LASF56
ARM GAS  /tmp/ccKua49E.s 			page 177


 7557 04df 01       		.byte	0x1
 7558 04e0 4604     		.2byte	0x446
 7559 04e2 B6010000 		.4byte	0x1b6
 7560 04e6 02       		.byte	0x2
 7561 04e7 91       		.byte	0x91
 7562 04e8 68       		.sleb128 -24
 7563 04e9 15       		.uleb128 0x15
 7564 04ea 47000000 		.4byte	.LASF57
 7565 04ee 01       		.byte	0x1
 7566 04ef 4604     		.2byte	0x446
 7567 04f1 B6010000 		.4byte	0x1b6
 7568 04f5 02       		.byte	0x2
 7569 04f6 91       		.byte	0x91
 7570 04f7 64       		.sleb128 -28
 7571 04f8 15       		.uleb128 0x15
 7572 04f9 09000000 		.4byte	.LASF58
 7573 04fd 01       		.byte	0x1
 7574 04fe 4604     		.2byte	0x446
 7575 0500 B6010000 		.4byte	0x1b6
 7576 0504 02       		.byte	0x2
 7577 0505 91       		.byte	0x91
 7578 0506 60       		.sleb128 -32
 7579 0507 15       		.uleb128 0x15
 7580 0508 5D080000 		.4byte	.LASF59
 7581 050c 01       		.byte	0x1
 7582 050d 4604     		.2byte	0x446
 7583 050f B6010000 		.4byte	0x1b6
 7584 0513 02       		.byte	0x2
 7585 0514 91       		.byte	0x91
 7586 0515 00       		.sleb128 0
 7587 0516 15       		.uleb128 0x15
 7588 0517 C7010000 		.4byte	.LASF60
 7589 051b 01       		.byte	0x1
 7590 051c 4604     		.2byte	0x446
 7591 051e B6010000 		.4byte	0x1b6
 7592 0522 02       		.byte	0x2
 7593 0523 91       		.byte	0x91
 7594 0524 04       		.sleb128 4
 7595 0525 15       		.uleb128 0x15
 7596 0526 BF020000 		.4byte	.LASF61
 7597 052a 01       		.byte	0x1
 7598 052b 4604     		.2byte	0x446
 7599 052d B6010000 		.4byte	0x1b6
 7600 0531 02       		.byte	0x2
 7601 0532 91       		.byte	0x91
 7602 0533 08       		.sleb128 8
 7603 0534 15       		.uleb128 0x15
 7604 0535 E5000000 		.4byte	.LASF49
 7605 0539 01       		.byte	0x1
 7606 053a 4604     		.2byte	0x446
 7607 053c 49000000 		.4byte	0x49
 7608 0540 02       		.byte	0x2
 7609 0541 91       		.byte	0x91
 7610 0542 0C       		.sleb128 12
 7611 0543 16       		.uleb128 0x16
 7612 0544 6900     		.ascii	"i\000"
 7613 0546 01       		.byte	0x1
ARM GAS  /tmp/ccKua49E.s 			page 178


 7614 0547 4804     		.2byte	0x448
 7615 0549 29000000 		.4byte	0x29
 7616 054d 02       		.byte	0x2
 7617 054e 91       		.byte	0x91
 7618 054f 77       		.sleb128 -9
 7619 0550 00       		.byte	0
 7620 0551 17       		.uleb128 0x17
 7621 0552 01       		.byte	0x1
 7622 0553 30040000 		.4byte	.LASF62
 7623 0557 01       		.byte	0x1
 7624 0558 D005     		.2byte	0x5d0
 7625 055a 01       		.byte	0x1
 7626 055b BC010000 		.4byte	0x1bc
 7627 055f 00000000 		.4byte	.LFB32
 7628 0563 84000000 		.4byte	.LFE32
 7629 0567 88010000 		.4byte	.LLST10
 7630 056b 01       		.byte	0x1
 7631 056c 8D050000 		.4byte	0x58d
 7632 0570 13       		.uleb128 0x13
 7633 0571 73696D00 		.ascii	"sim\000"
 7634 0575 01       		.byte	0x1
 7635 0576 D005     		.2byte	0x5d0
 7636 0578 29000000 		.4byte	0x29
 7637 057c 02       		.byte	0x2
 7638 057d 91       		.byte	0x91
 7639 057e 6F       		.sleb128 -17
 7640 057f 16       		.uleb128 0x16
 7641 0580 6900     		.ascii	"i\000"
 7642 0582 01       		.byte	0x1
 7643 0583 D305     		.2byte	0x5d3
 7644 0585 29000000 		.4byte	0x29
 7645 0589 02       		.byte	0x2
 7646 058a 91       		.byte	0x91
 7647 058b 77       		.sleb128 -9
 7648 058c 00       		.byte	0
 7649 058d 17       		.uleb128 0x17
 7650 058e 01       		.byte	0x1
 7651 058f C2030000 		.4byte	.LASF63
 7652 0593 01       		.byte	0x1
 7653 0594 E805     		.2byte	0x5e8
 7654 0596 01       		.byte	0x1
 7655 0597 BC010000 		.4byte	0x1bc
 7656 059b 00000000 		.4byte	.LFB33
 7657 059f 2C010000 		.4byte	.LFE33
 7658 05a3 B4010000 		.4byte	.LLST11
 7659 05a7 01       		.byte	0x1
 7660 05a8 D8050000 		.4byte	0x5d8
 7661 05ac 15       		.uleb128 0x15
 7662 05ad C7040000 		.4byte	.LASF53
 7663 05b1 01       		.byte	0x1
 7664 05b2 E805     		.2byte	0x5e8
 7665 05b4 B6010000 		.4byte	0x1b6
 7666 05b8 02       		.byte	0x2
 7667 05b9 91       		.byte	0x91
 7668 05ba 6C       		.sleb128 -20
 7669 05bb 15       		.uleb128 0x15
 7670 05bc E5000000 		.4byte	.LASF49
ARM GAS  /tmp/ccKua49E.s 			page 179


 7671 05c0 01       		.byte	0x1
 7672 05c1 E805     		.2byte	0x5e8
 7673 05c3 49000000 		.4byte	0x49
 7674 05c7 02       		.byte	0x2
 7675 05c8 91       		.byte	0x91
 7676 05c9 6A       		.sleb128 -22
 7677 05ca 16       		.uleb128 0x16
 7678 05cb 6900     		.ascii	"i\000"
 7679 05cd 01       		.byte	0x1
 7680 05ce EA05     		.2byte	0x5ea
 7681 05d0 29000000 		.4byte	0x29
 7682 05d4 02       		.byte	0x2
 7683 05d5 91       		.byte	0x91
 7684 05d6 77       		.sleb128 -9
 7685 05d7 00       		.byte	0
 7686 05d8 10       		.uleb128 0x10
 7687 05d9 01       		.byte	0x1
 7688 05da 40030000 		.4byte	.LASF64
 7689 05de 01       		.byte	0x1
 7690 05df 2706     		.2byte	0x627
 7691 05e1 01       		.byte	0x1
 7692 05e2 00000000 		.4byte	.LFB34
 7693 05e6 F8000000 		.4byte	.LFE34
 7694 05ea 02       		.byte	0x2
 7695 05eb 7D       		.byte	0x7d
 7696 05ec 00       		.sleb128 0
 7697 05ed 01       		.byte	0x1
 7698 05ee 14       		.uleb128 0x14
 7699 05ef 01       		.byte	0x1
 7700 05f0 28030000 		.4byte	.LASF66
 7701 05f4 01       		.byte	0x1
 7702 05f5 4A06     		.2byte	0x64a
 7703 05f7 01       		.byte	0x1
 7704 05f8 00000000 		.4byte	.LFB35
 7705 05fc 30060000 		.4byte	.LFE35
 7706 0600 E0010000 		.4byte	.LLST12
 7707 0604 01       		.byte	0x1
 7708 0605 71060000 		.4byte	0x671
 7709 0609 15       		.uleb128 0x15
 7710 060a A5010000 		.4byte	.LASF67
 7711 060e 01       		.byte	0x1
 7712 060f 4A06     		.2byte	0x64a
 7713 0611 B0010000 		.4byte	0x1b0
 7714 0615 02       		.byte	0x2
 7715 0616 91       		.byte	0x91
 7716 0617 6C       		.sleb128 -20
 7717 0618 15       		.uleb128 0x15
 7718 0619 F9020000 		.4byte	.LASF68
 7719 061d 01       		.byte	0x1
 7720 061e 4A06     		.2byte	0x64a
 7721 0620 B6010000 		.4byte	0x1b6
 7722 0624 02       		.byte	0x2
 7723 0625 91       		.byte	0x91
 7724 0626 68       		.sleb128 -24
 7725 0627 15       		.uleb128 0x15
 7726 0628 B8030000 		.4byte	.LASF69
 7727 062c 01       		.byte	0x1
ARM GAS  /tmp/ccKua49E.s 			page 180


 7728 062d 4A06     		.2byte	0x64a
 7729 062f B0010000 		.4byte	0x1b0
 7730 0633 02       		.byte	0x2
 7731 0634 91       		.byte	0x91
 7732 0635 64       		.sleb128 -28
 7733 0636 15       		.uleb128 0x15
 7734 0637 02010000 		.4byte	.LASF70
 7735 063b 01       		.byte	0x1
 7736 063c 4A06     		.2byte	0x64a
 7737 063e B0010000 		.4byte	0x1b0
 7738 0642 02       		.byte	0x2
 7739 0643 91       		.byte	0x91
 7740 0644 60       		.sleb128 -32
 7741 0645 15       		.uleb128 0x15
 7742 0646 0D060000 		.4byte	.LASF71
 7743 064a 01       		.byte	0x1
 7744 064b 4A06     		.2byte	0x64a
 7745 064d B6010000 		.4byte	0x1b6
 7746 0651 02       		.byte	0x2
 7747 0652 91       		.byte	0x91
 7748 0653 00       		.sleb128 0
 7749 0654 16       		.uleb128 0x16
 7750 0655 6900     		.ascii	"i\000"
 7751 0657 01       		.byte	0x1
 7752 0658 4C06     		.2byte	0x64c
 7753 065a 29000000 		.4byte	0x29
 7754 065e 02       		.byte	0x2
 7755 065f 91       		.byte	0x91
 7756 0660 77       		.sleb128 -9
 7757 0661 12       		.uleb128 0x12
 7758 0662 D5040000 		.4byte	.LASF72
 7759 0666 01       		.byte	0x1
 7760 0667 4D06     		.2byte	0x64d
 7761 0669 29000000 		.4byte	0x29
 7762 066d 02       		.byte	0x2
 7763 066e 91       		.byte	0x91
 7764 066f 76       		.sleb128 -10
 7765 0670 00       		.byte	0
 7766 0671 17       		.uleb128 0x17
 7767 0672 01       		.byte	0x1
 7768 0673 FC010000 		.4byte	.LASF73
 7769 0677 01       		.byte	0x1
 7770 0678 5207     		.2byte	0x752
 7771 067a 01       		.byte	0x1
 7772 067b BC010000 		.4byte	0x1bc
 7773 067f 00000000 		.4byte	.LFB36
 7774 0683 E8060000 		.4byte	.LFE36
 7775 0687 0C020000 		.4byte	.LLST13
 7776 068b 01       		.byte	0x1
 7777 068c 16070000 		.4byte	0x716
 7778 0690 13       		.uleb128 0x13
 7779 0691 73696D00 		.ascii	"sim\000"
 7780 0695 01       		.byte	0x1
 7781 0696 5207     		.2byte	0x752
 7782 0698 BC010000 		.4byte	0x1bc
 7783 069c 02       		.byte	0x2
 7784 069d 91       		.byte	0x91
ARM GAS  /tmp/ccKua49E.s 			page 181


 7785 069e 6F       		.sleb128 -17
 7786 069f 15       		.uleb128 0x15
 7787 06a0 62060000 		.4byte	.LASF56
 7788 06a4 01       		.byte	0x1
 7789 06a5 5207     		.2byte	0x752
 7790 06a7 B6010000 		.4byte	0x1b6
 7791 06ab 02       		.byte	0x2
 7792 06ac 91       		.byte	0x91
 7793 06ad 68       		.sleb128 -24
 7794 06ae 15       		.uleb128 0x15
 7795 06af 47000000 		.4byte	.LASF57
 7796 06b3 01       		.byte	0x1
 7797 06b4 5207     		.2byte	0x752
 7798 06b6 B6010000 		.4byte	0x1b6
 7799 06ba 02       		.byte	0x2
 7800 06bb 91       		.byte	0x91
 7801 06bc 64       		.sleb128 -28
 7802 06bd 15       		.uleb128 0x15
 7803 06be 09000000 		.4byte	.LASF58
 7804 06c2 01       		.byte	0x1
 7805 06c3 5207     		.2byte	0x752
 7806 06c5 B6010000 		.4byte	0x1b6
 7807 06c9 02       		.byte	0x2
 7808 06ca 91       		.byte	0x91
 7809 06cb 60       		.sleb128 -32
 7810 06cc 15       		.uleb128 0x15
 7811 06cd 5D080000 		.4byte	.LASF59
 7812 06d1 01       		.byte	0x1
 7813 06d2 5207     		.2byte	0x752
 7814 06d4 B6010000 		.4byte	0x1b6
 7815 06d8 02       		.byte	0x2
 7816 06d9 91       		.byte	0x91
 7817 06da 00       		.sleb128 0
 7818 06db 15       		.uleb128 0x15
 7819 06dc C7010000 		.4byte	.LASF60
 7820 06e0 01       		.byte	0x1
 7821 06e1 5207     		.2byte	0x752
 7822 06e3 B6010000 		.4byte	0x1b6
 7823 06e7 02       		.byte	0x2
 7824 06e8 91       		.byte	0x91
 7825 06e9 04       		.sleb128 4
 7826 06ea 15       		.uleb128 0x15
 7827 06eb BF020000 		.4byte	.LASF61
 7828 06ef 01       		.byte	0x1
 7829 06f0 5207     		.2byte	0x752
 7830 06f2 B6010000 		.4byte	0x1b6
 7831 06f6 02       		.byte	0x2
 7832 06f7 91       		.byte	0x91
 7833 06f8 08       		.sleb128 8
 7834 06f9 15       		.uleb128 0x15
 7835 06fa E5000000 		.4byte	.LASF49
 7836 06fe 01       		.byte	0x1
 7837 06ff 5207     		.2byte	0x752
 7838 0701 49000000 		.4byte	0x49
 7839 0705 02       		.byte	0x2
 7840 0706 91       		.byte	0x91
 7841 0707 0C       		.sleb128 12
ARM GAS  /tmp/ccKua49E.s 			page 182


 7842 0708 16       		.uleb128 0x16
 7843 0709 6900     		.ascii	"i\000"
 7844 070b 01       		.byte	0x1
 7845 070c 5407     		.2byte	0x754
 7846 070e 29000000 		.4byte	0x29
 7847 0712 02       		.byte	0x2
 7848 0713 91       		.byte	0x91
 7849 0714 77       		.sleb128 -9
 7850 0715 00       		.byte	0
 7851 0716 06       		.uleb128 0x6
 7852 0717 BC010000 		.4byte	0x1bc
 7853 071b 26070000 		.4byte	0x726
 7854 071f 07       		.uleb128 0x7
 7855 0720 9B000000 		.4byte	0x9b
 7856 0724 FF       		.byte	0xff
 7857 0725 00       		.byte	0
 7858 0726 19       		.uleb128 0x19
 7859 0727 14040000 		.4byte	.LASF74
 7860 072b 01       		.byte	0x1
 7861 072c 0F       		.byte	0xf
 7862 072d 38070000 		.4byte	0x738
 7863 0731 01       		.byte	0x1
 7864 0732 05       		.byte	0x5
 7865 0733 03       		.byte	0x3
 7866 0734 00000000 		.4byte	buffUARTGSMrx2
 7867 0738 05       		.uleb128 0x5
 7868 0739 16070000 		.4byte	0x716
 7869 073d 19       		.uleb128 0x19
 7870 073e 53030000 		.4byte	.LASF75
 7871 0742 01       		.byte	0x1
 7872 0743 10       		.byte	0x10
 7873 0744 4F070000 		.4byte	0x74f
 7874 0748 01       		.byte	0x1
 7875 0749 05       		.byte	0x5
 7876 074a 03       		.byte	0x3
 7877 074b 00000000 		.4byte	PacketReadyUARTGSM
 7878 074f 05       		.uleb128 0x5
 7879 0750 BC010000 		.4byte	0x1bc
 7880 0754 19       		.uleb128 0x19
 7881 0755 AA030000 		.4byte	.LASF76
 7882 0759 01       		.byte	0x1
 7883 075a 14       		.byte	0x14
 7884 075b 29000000 		.4byte	0x29
 7885 075f 01       		.byte	0x1
 7886 0760 05       		.byte	0x5
 7887 0761 03       		.byte	0x3
 7888 0762 00000000 		.4byte	GSMStartState
 7889 0766 19       		.uleb128 0x19
 7890 0767 E7070000 		.4byte	.LASF77
 7891 076b 01       		.byte	0x1
 7892 076c 15       		.byte	0x15
 7893 076d 78070000 		.4byte	0x778
 7894 0771 01       		.byte	0x1
 7895 0772 05       		.byte	0x5
 7896 0773 03       		.byte	0x3
 7897 0774 00000000 		.4byte	GSMStartTime
 7898 0778 05       		.uleb128 0x5
ARM GAS  /tmp/ccKua49E.s 			page 183


 7899 0779 49000000 		.4byte	0x49
 7900 077d 19       		.uleb128 0x19
 7901 077e D3000000 		.4byte	.LASF78
 7902 0782 01       		.byte	0x1
 7903 0783 16       		.byte	0x16
 7904 0784 78070000 		.4byte	0x778
 7905 0788 01       		.byte	0x1
 7906 0789 05       		.byte	0x5
 7907 078a 03       		.byte	0x3
 7908 078b 00000000 		.4byte	GSMGeneralTimeOut
 7909 078f 19       		.uleb128 0x19
 7910 0790 DD050000 		.4byte	.LASF79
 7911 0794 01       		.byte	0x1
 7912 0795 19       		.byte	0x19
 7913 0796 BC010000 		.4byte	0x1bc
 7914 079a 01       		.byte	0x1
 7915 079b 05       		.byte	0x5
 7916 079c 03       		.byte	0x3
 7917 079d 00000000 		.4byte	GSMSendCommandState
 7918 07a1 19       		.uleb128 0x19
 7919 07a2 DA040000 		.4byte	.LASF80
 7920 07a6 01       		.byte	0x1
 7921 07a7 1A       		.byte	0x1a
 7922 07a8 BC010000 		.4byte	0x1bc
 7923 07ac 01       		.byte	0x1
 7924 07ad 05       		.byte	0x5
 7925 07ae 03       		.byte	0x3
 7926 07af 00000000 		.4byte	GSMSendCommandFlag
 7927 07b3 19       		.uleb128 0x19
 7928 07b4 BD000000 		.4byte	.LASF81
 7929 07b8 01       		.byte	0x1
 7930 07b9 1B       		.byte	0x1b
 7931 07ba 78070000 		.4byte	0x778
 7932 07be 01       		.byte	0x1
 7933 07bf 05       		.byte	0x5
 7934 07c0 03       		.byte	0x3
 7935 07c1 00000000 		.4byte	GSMSendCommandTimeOut
 7936 07c5 19       		.uleb128 0x19
 7937 07c6 D4060000 		.4byte	.LASF82
 7938 07ca 01       		.byte	0x1
 7939 07cb 1C       		.byte	0x1c
 7940 07cc BC010000 		.4byte	0x1bc
 7941 07d0 01       		.byte	0x1
 7942 07d1 05       		.byte	0x5
 7943 07d2 03       		.byte	0x3
 7944 07d3 00000000 		.4byte	GSMSendCommandIntento
 7945 07d7 19       		.uleb128 0x19
 7946 07d8 59010000 		.4byte	.LASF83
 7947 07dc 01       		.byte	0x1
 7948 07dd 1F       		.byte	0x1f
 7949 07de BC010000 		.4byte	0x1bc
 7950 07e2 01       		.byte	0x1
 7951 07e3 05       		.byte	0x5
 7952 07e4 03       		.byte	0x3
 7953 07e5 00000000 		.4byte	GSMSendSMSState
 7954 07e9 19       		.uleb128 0x19
 7955 07ea 0B010000 		.4byte	.LASF84
ARM GAS  /tmp/ccKua49E.s 			page 184


 7956 07ee 01       		.byte	0x1
 7957 07ef 20       		.byte	0x20
 7958 07f0 BC010000 		.4byte	0x1bc
 7959 07f4 01       		.byte	0x1
 7960 07f5 05       		.byte	0x5
 7961 07f6 03       		.byte	0x3
 7962 07f7 00000000 		.4byte	GSMSendSMSFlag
 7963 07fb 19       		.uleb128 0x19
 7964 07fc 6A050000 		.4byte	.LASF85
 7965 0800 01       		.byte	0x1
 7966 0801 21       		.byte	0x21
 7967 0802 78070000 		.4byte	0x778
 7968 0806 01       		.byte	0x1
 7969 0807 05       		.byte	0x5
 7970 0808 03       		.byte	0x3
 7971 0809 00000000 		.4byte	GSMSendSMSTimeOut
 7972 080d 06       		.uleb128 0x6
 7973 080e BC010000 		.4byte	0x1bc
 7974 0812 1D080000 		.4byte	0x81d
 7975 0816 07       		.uleb128 0x7
 7976 0817 9B000000 		.4byte	0x9b
 7977 081b 1F       		.byte	0x1f
 7978 081c 00       		.byte	0
 7979 081d 19       		.uleb128 0x19
 7980 081e 66030000 		.4byte	.LASF86
 7981 0822 01       		.byte	0x1
 7982 0823 22       		.byte	0x22
 7983 0824 0D080000 		.4byte	0x80d
 7984 0828 01       		.byte	0x1
 7985 0829 05       		.byte	0x5
 7986 082a 03       		.byte	0x3
 7987 082b 00000000 		.4byte	GSMSendSMSbuffAux
 7988 082f 19       		.uleb128 0x19
 7989 0830 31030000 		.4byte	.LASF87
 7990 0834 01       		.byte	0x1
 7991 0835 25       		.byte	0x25
 7992 0836 BC010000 		.4byte	0x1bc
 7993 083a 01       		.byte	0x1
 7994 083b 05       		.byte	0x5
 7995 083c 03       		.byte	0x3
 7996 083d 00000000 		.4byte	GSMConfigState
 7997 0841 19       		.uleb128 0x19
 7998 0842 A0080000 		.4byte	.LASF88
 7999 0846 01       		.byte	0x1
 8000 0847 26       		.byte	0x26
 8001 0848 78070000 		.4byte	0x778
 8002 084c 01       		.byte	0x1
 8003 084d 05       		.byte	0x5
 8004 084e 03       		.byte	0x3
 8005 084f 00000000 		.4byte	GSMConfigTimeOut
 8006 0853 19       		.uleb128 0x19
 8007 0854 EA060000 		.4byte	.LASF89
 8008 0858 01       		.byte	0x1
 8009 0859 27       		.byte	0x27
 8010 085a 78070000 		.4byte	0x778
 8011 085e 01       		.byte	0x1
 8012 085f 05       		.byte	0x5
ARM GAS  /tmp/ccKua49E.s 			page 185


 8013 0860 03       		.byte	0x3
 8014 0861 00000000 		.4byte	GSMConfigTime
 8015 0865 19       		.uleb128 0x19
 8016 0866 E4020000 		.4byte	.LASF90
 8017 086a 01       		.byte	0x1
 8018 086b 2A       		.byte	0x2a
 8019 086c 49000000 		.4byte	0x49
 8020 0870 01       		.byte	0x1
 8021 0871 05       		.byte	0x5
 8022 0872 03       		.byte	0x3
 8023 0873 00000000 		.4byte	GSMConfigGPRSTimeOut
 8024 0877 19       		.uleb128 0x19
 8025 0878 4A080000 		.4byte	.LASF91
 8026 087c 01       		.byte	0x1
 8027 087d 2B       		.byte	0x2b
 8028 087e BC010000 		.4byte	0x1bc
 8029 0882 01       		.byte	0x1
 8030 0883 05       		.byte	0x5
 8031 0884 03       		.byte	0x3
 8032 0885 00000000 		.4byte	GSMConfigGPRSState
 8033 0889 19       		.uleb128 0x19
 8034 088a 11050000 		.4byte	.LASF92
 8035 088e 01       		.byte	0x1
 8036 088f 2C       		.byte	0x2c
 8037 0890 BC010000 		.4byte	0x1bc
 8038 0894 01       		.byte	0x1
 8039 0895 05       		.byte	0x5
 8040 0896 03       		.byte	0x3
 8041 0897 00000000 		.4byte	GSMConfigGPRSflag
 8042 089b 19       		.uleb128 0x19
 8043 089c 3B040000 		.4byte	.LASF93
 8044 08a0 01       		.byte	0x1
 8045 08a1 2D       		.byte	0x2d
 8046 08a2 0D080000 		.4byte	0x80d
 8047 08a6 01       		.byte	0x1
 8048 08a7 05       		.byte	0x5
 8049 08a8 03       		.byte	0x3
 8050 08a9 00000000 		.4byte	GSMbuffStatus
 8051 08ad 06       		.uleb128 0x6
 8052 08ae BC010000 		.4byte	0x1bc
 8053 08b2 BD080000 		.4byte	0x8bd
 8054 08b6 07       		.uleb128 0x7
 8055 08b7 9B000000 		.4byte	0x9b
 8056 08bb 3F       		.byte	0x3f
 8057 08bc 00       		.byte	0
 8058 08bd 19       		.uleb128 0x19
 8059 08be 04070000 		.4byte	.LASF94
 8060 08c2 01       		.byte	0x1
 8061 08c3 2E       		.byte	0x2e
 8062 08c4 AD080000 		.4byte	0x8ad
 8063 08c8 01       		.byte	0x1
 8064 08c9 05       		.byte	0x5
 8065 08ca 03       		.byte	0x3
 8066 08cb 00000000 		.4byte	GSMbuffGPRSCommand
 8067 08cf 06       		.uleb128 0x6
 8068 08d0 BC010000 		.4byte	0x1bc
 8069 08d4 DF080000 		.4byte	0x8df
ARM GAS  /tmp/ccKua49E.s 			page 186


 8070 08d8 07       		.uleb128 0x7
 8071 08d9 9B000000 		.4byte	0x9b
 8072 08dd 0F       		.byte	0xf
 8073 08de 00       		.byte	0
 8074 08df 19       		.uleb128 0x19
 8075 08e0 5A000000 		.4byte	.LASF95
 8076 08e4 01       		.byte	0x1
 8077 08e5 2F       		.byte	0x2f
 8078 08e6 CF080000 		.4byte	0x8cf
 8079 08ea 01       		.byte	0x1
 8080 08eb 05       		.byte	0x5
 8081 08ec 03       		.byte	0x3
 8082 08ed 00000000 		.4byte	GSMIPadd
 8083 08f1 19       		.uleb128 0x19
 8084 08f2 E3030000 		.4byte	.LASF96
 8085 08f6 01       		.byte	0x1
 8086 08f7 30       		.byte	0x30
 8087 08f8 29000000 		.4byte	0x29
 8088 08fc 01       		.byte	0x1
 8089 08fd 05       		.byte	0x5
 8090 08fe 03       		.byte	0x3
 8091 08ff 00000000 		.4byte	GPRSrssi
 8092 0903 19       		.uleb128 0x19
 8093 0904 75060000 		.4byte	.LASF97
 8094 0908 01       		.byte	0x1
 8095 0909 33       		.byte	0x33
 8096 090a BC010000 		.4byte	0x1bc
 8097 090e 01       		.byte	0x1
 8098 090f 05       		.byte	0x5
 8099 0910 03       		.byte	0x3
 8100 0911 00000000 		.4byte	GSMSendIPState
 8101 0915 19       		.uleb128 0x19
 8102 0916 ED040000 		.4byte	.LASF98
 8103 091a 01       		.byte	0x1
 8104 091b 34       		.byte	0x34
 8105 091c BC010000 		.4byte	0x1bc
 8106 0920 01       		.byte	0x1
 8107 0921 05       		.byte	0x5
 8108 0922 03       		.byte	0x3
 8109 0923 00000000 		.4byte	GSMSendIPFlag
 8110 0927 19       		.uleb128 0x19
 8111 0928 9F020000 		.4byte	.LASF99
 8112 092c 01       		.byte	0x1
 8113 092d 35       		.byte	0x35
 8114 092e 78070000 		.4byte	0x778
 8115 0932 01       		.byte	0x1
 8116 0933 05       		.byte	0x5
 8117 0934 03       		.byte	0x3
 8118 0935 00000000 		.4byte	GSMSendIPTimeOut
 8119 0939 19       		.uleb128 0x19
 8120 093a B9060000 		.4byte	.LASF100
 8121 093e 01       		.byte	0x1
 8122 093f 36       		.byte	0x36
 8123 0940 0D080000 		.4byte	0x80d
 8124 0944 01       		.byte	0x1
 8125 0945 05       		.byte	0x5
 8126 0946 03       		.byte	0x3
ARM GAS  /tmp/ccKua49E.s 			page 187


 8127 0947 00000000 		.4byte	GSMSendIPbuffAux
 8128 094b 19       		.uleb128 0x19
 8129 094c 8B060000 		.4byte	.LASF101
 8130 0950 01       		.byte	0x1
 8131 0951 38       		.byte	0x38
 8132 0952 16070000 		.4byte	0x716
 8133 0956 01       		.byte	0x1
 8134 0957 05       		.byte	0x5
 8135 0958 03       		.byte	0x3
 8136 0959 00000000 		.4byte	GSMbuffRtaCommand
 8137 095d 06       		.uleb128 0x6
 8138 095e BC010000 		.4byte	0x1bc
 8139 0962 6D090000 		.4byte	0x96d
 8140 0966 07       		.uleb128 0x7
 8141 0967 9B000000 		.4byte	0x9b
 8142 096b 02       		.byte	0x2
 8143 096c 00       		.byte	0
 8144 096d 19       		.uleb128 0x19
 8145 096e 3E080000 		.4byte	.LASF102
 8146 0972 01       		.byte	0x1
 8147 0973 3B       		.byte	0x3b
 8148 0974 7F090000 		.4byte	0x97f
 8149 0978 01       		.byte	0x1
 8150 0979 05       		.byte	0x5
 8151 097a 03       		.byte	0x3
 8152 097b 00000000 		.4byte	GSM_OK
 8153 097f 0D       		.uleb128 0xd
 8154 0980 5D090000 		.4byte	0x95d
 8155 0984 06       		.uleb128 0x6
 8156 0985 BC010000 		.4byte	0x1bc
 8157 0989 94090000 		.4byte	0x994
 8158 098d 07       		.uleb128 0x7
 8159 098e 9B000000 		.4byte	0x9b
 8160 0992 05       		.byte	0x5
 8161 0993 00       		.byte	0
 8162 0994 19       		.uleb128 0x19
 8163 0995 FA000000 		.4byte	.LASF103
 8164 0999 01       		.byte	0x1
 8165 099a 3C       		.byte	0x3c
 8166 099b A6090000 		.4byte	0x9a6
 8167 099f 01       		.byte	0x1
 8168 09a0 05       		.byte	0x5
 8169 09a1 03       		.byte	0x3
 8170 09a2 00000000 		.4byte	GSM_ERR
 8171 09a6 0D       		.uleb128 0xd
 8172 09a7 84090000 		.4byte	0x984
 8173 09ab 19       		.uleb128 0x19
 8174 09ac 03030000 		.4byte	.LASF104
 8175 09b0 01       		.byte	0x1
 8176 09b1 3E       		.byte	0x3e
 8177 09b2 C3010000 		.4byte	0x1c3
 8178 09b6 01       		.byte	0x1
 8179 09b7 05       		.byte	0x5
 8180 09b8 03       		.byte	0x3
 8181 09b9 00000000 		.4byte	GSM_RTA
 8182 09bd 06       		.uleb128 0x6
 8183 09be BC010000 		.4byte	0x1bc
ARM GAS  /tmp/ccKua49E.s 			page 188


 8184 09c2 CD090000 		.4byte	0x9cd
 8185 09c6 07       		.uleb128 0x7
 8186 09c7 9B000000 		.4byte	0x9b
 8187 09cb 06       		.byte	0x6
 8188 09cc 00       		.byte	0
 8189 09cd 19       		.uleb128 0x19
 8190 09ce 00000000 		.4byte	.LASF105
 8191 09d2 01       		.byte	0x1
 8192 09d3 40       		.byte	0x40
 8193 09d4 DF090000 		.4byte	0x9df
 8194 09d8 01       		.byte	0x1
 8195 09d9 05       		.byte	0x5
 8196 09da 03       		.byte	0x3
 8197 09db 00000000 		.4byte	GSM_CMGF
 8198 09df 0D       		.uleb128 0xd
 8199 09e0 BD090000 		.4byte	0x9bd
 8200 09e4 19       		.uleb128 0x19
 8201 09e5 69060000 		.4byte	.LASF106
 8202 09e9 01       		.byte	0x1
 8203 09ea 41       		.byte	0x41
 8204 09eb F6090000 		.4byte	0x9f6
 8205 09ef 01       		.byte	0x1
 8206 09f0 05       		.byte	0x5
 8207 09f1 03       		.byte	0x3
 8208 09f2 00000000 		.4byte	GSM_IPSTATE
 8209 09f6 0D       		.uleb128 0xd
 8210 09f7 BD090000 		.4byte	0x9bd
 8211 09fb 06       		.uleb128 0x6
 8212 09fc BC010000 		.4byte	0x1bc
 8213 0a00 0B0A0000 		.4byte	0xa0b
 8214 0a04 07       		.uleb128 0x7
 8215 0a05 9B000000 		.4byte	0x9b
 8216 0a09 0A       		.byte	0xa
 8217 0a0a 00       		.byte	0
 8218 0a0b 19       		.uleb128 0x19
 8219 0a0c 87000000 		.4byte	.LASF107
 8220 0a10 01       		.byte	0x1
 8221 0a11 44       		.byte	0x44
 8222 0a12 1D0A0000 		.4byte	0xa1d
 8223 0a16 01       		.byte	0x1
 8224 0a17 05       		.byte	0x5
 8225 0a18 03       		.byte	0x3
 8226 0a19 00000000 		.4byte	GSM_IPINITIAL
 8227 0a1d 0D       		.uleb128 0xd
 8228 0a1e FB090000 		.4byte	0x9fb
 8229 0a22 06       		.uleb128 0x6
 8230 0a23 BC010000 		.4byte	0x1bc
 8231 0a27 320A0000 		.4byte	0xa32
 8232 0a2b 07       		.uleb128 0x7
 8233 0a2c 9B000000 		.4byte	0x9b
 8234 0a30 08       		.byte	0x8
 8235 0a31 00       		.byte	0
 8236 0a32 19       		.uleb128 0x19
 8237 0a33 5E050000 		.4byte	.LASF108
 8238 0a37 01       		.byte	0x1
 8239 0a38 45       		.byte	0x45
 8240 0a39 440A0000 		.4byte	0xa44
ARM GAS  /tmp/ccKua49E.s 			page 189


 8241 0a3d 01       		.byte	0x1
 8242 0a3e 05       		.byte	0x5
 8243 0a3f 03       		.byte	0x3
 8244 0a40 00000000 		.4byte	GSM_IPSTART
 8245 0a44 0D       		.uleb128 0xd
 8246 0a45 220A0000 		.4byte	0xa22
 8247 0a49 19       		.uleb128 0x19
 8248 0a4a 1A030000 		.4byte	.LASF109
 8249 0a4e 01       		.byte	0x1
 8250 0a4f 46       		.byte	0x46
 8251 0a50 5B0A0000 		.4byte	0xa5b
 8252 0a54 01       		.byte	0x1
 8253 0a55 05       		.byte	0x5
 8254 0a56 03       		.byte	0x3
 8255 0a57 00000000 		.4byte	GSM_IPGPRSACT
 8256 0a5b 0D       		.uleb128 0xd
 8257 0a5c FB090000 		.4byte	0x9fb
 8258 0a60 06       		.uleb128 0x6
 8259 0a61 BC010000 		.4byte	0x1bc
 8260 0a65 700A0000 		.4byte	0xa70
 8261 0a69 07       		.uleb128 0x7
 8262 0a6a 9B000000 		.4byte	0x9b
 8263 0a6e 09       		.byte	0x9
 8264 0a6f 00       		.byte	0
 8265 0a70 19       		.uleb128 0x19
 8266 0a71 ED000000 		.4byte	.LASF110
 8267 0a75 01       		.byte	0x1
 8268 0a76 47       		.byte	0x47
 8269 0a77 820A0000 		.4byte	0xa82
 8270 0a7b 01       		.byte	0x1
 8271 0a7c 05       		.byte	0x5
 8272 0a7d 03       		.byte	0x3
 8273 0a7e 00000000 		.4byte	GSM_IPSTATUS
 8274 0a82 0D       		.uleb128 0xd
 8275 0a83 600A0000 		.4byte	0xa60
 8276 0a87 06       		.uleb128 0x6
 8277 0a88 BC010000 		.4byte	0x1bc
 8278 0a8c 970A0000 		.4byte	0xa97
 8279 0a90 07       		.uleb128 0x7
 8280 0a91 9B000000 		.4byte	0x9b
 8281 0a95 0E       		.byte	0xe
 8282 0a96 00       		.byte	0
 8283 0a97 19       		.uleb128 0x19
 8284 0a98 44060000 		.4byte	.LASF111
 8285 0a9c 01       		.byte	0x1
 8286 0a9d 48       		.byte	0x48
 8287 0a9e A90A0000 		.4byte	0xaa9
 8288 0aa2 01       		.byte	0x1
 8289 0aa3 05       		.byte	0x5
 8290 0aa4 03       		.byte	0x3
 8291 0aa5 00000000 		.4byte	GSM_IPCONNECTING
 8292 0aa9 0D       		.uleb128 0xd
 8293 0aaa 870A0000 		.4byte	0xa87
 8294 0aae 19       		.uleb128 0x19
 8295 0aaf AC040000 		.4byte	.LASF112
 8296 0ab3 01       		.byte	0x1
 8297 0ab4 49       		.byte	0x49
ARM GAS  /tmp/ccKua49E.s 			page 190


 8298 0ab5 C00A0000 		.4byte	0xac0
 8299 0ab9 01       		.byte	0x1
 8300 0aba 05       		.byte	0x5
 8301 0abb 03       		.byte	0x3
 8302 0abc 00000000 		.4byte	GSM_IPCONNOK
 8303 0ac0 0D       		.uleb128 0xd
 8304 0ac1 FB090000 		.4byte	0x9fb
 8305 0ac5 06       		.uleb128 0x6
 8306 0ac6 BC010000 		.4byte	0x1bc
 8307 0aca D50A0000 		.4byte	0xad5
 8308 0ace 07       		.uleb128 0x7
 8309 0acf 9B000000 		.4byte	0x9b
 8310 0ad3 0C       		.byte	0xc
 8311 0ad4 00       		.byte	0
 8312 0ad5 19       		.uleb128 0x19
 8313 0ad6 B0020000 		.4byte	.LASF113
 8314 0ada 01       		.byte	0x1
 8315 0adb 4A       		.byte	0x4a
 8316 0adc E70A0000 		.4byte	0xae7
 8317 0ae0 01       		.byte	0x1
 8318 0ae1 05       		.byte	0x5
 8319 0ae2 03       		.byte	0x3
 8320 0ae3 00000000 		.4byte	GSM_IPCONNFAIL
 8321 0ae7 0D       		.uleb128 0xd
 8322 0ae8 C50A0000 		.4byte	0xac5
 8323 0aec 19       		.uleb128 0x19
 8324 0aed 10000000 		.4byte	.LASF114
 8325 0af1 01       		.byte	0x1
 8326 0af2 4B       		.byte	0x4b
 8327 0af3 FE0A0000 		.4byte	0xafe
 8328 0af7 01       		.byte	0x1
 8329 0af8 05       		.byte	0x5
 8330 0af9 03       		.byte	0x3
 8331 0afa 00000000 		.4byte	GSM_IPCONNCLOSE
 8332 0afe 0D       		.uleb128 0xd
 8333 0aff FB090000 		.4byte	0x9fb
 8334 0b03 06       		.uleb128 0x6
 8335 0b04 BC010000 		.4byte	0x1bc
 8336 0b08 130B0000 		.4byte	0xb13
 8337 0b0c 07       		.uleb128 0x7
 8338 0b0d 9B000000 		.4byte	0x9b
 8339 0b11 04       		.byte	0x4
 8340 0b12 00       		.byte	0
 8341 0b13 19       		.uleb128 0x19
 8342 0b14 20000000 		.4byte	.LASF115
 8343 0b18 01       		.byte	0x1
 8344 0b19 4D       		.byte	0x4d
 8345 0b1a 250B0000 		.4byte	0xb25
 8346 0b1e 01       		.byte	0x1
 8347 0b1f 05       		.byte	0x5
 8348 0b20 03       		.byte	0x3
 8349 0b21 00000000 		.4byte	GSM_SIM1
 8350 0b25 0D       		.uleb128 0xd
 8351 0b26 030B0000 		.4byte	0xb03
 8352 0b2a 19       		.uleb128 0x19
 8353 0b2b 29000000 		.4byte	.LASF116
 8354 0b2f 01       		.byte	0x1
ARM GAS  /tmp/ccKua49E.s 			page 191


 8355 0b30 4E       		.byte	0x4e
 8356 0b31 3C0B0000 		.4byte	0xb3c
 8357 0b35 01       		.byte	0x1
 8358 0b36 05       		.byte	0x5
 8359 0b37 03       		.byte	0x3
 8360 0b38 00000000 		.4byte	GSM_SIM2
 8361 0b3c 0D       		.uleb128 0xd
 8362 0b3d 030B0000 		.4byte	0xb03
 8363 0b41 19       		.uleb128 0x19
 8364 0b42 5D020000 		.4byte	.LASF117
 8365 0b46 01       		.byte	0x1
 8366 0b47 4F       		.byte	0x4f
 8367 0b48 530B0000 		.4byte	0xb53
 8368 0b4c 01       		.byte	0x1
 8369 0b4d 05       		.byte	0x5
 8370 0b4e 03       		.byte	0x3
 8371 0b4f 00000000 		.4byte	GSM_SENDOK
 8372 0b53 0D       		.uleb128 0xd
 8373 0b54 C8010000 		.4byte	0x1c8
 8374 0b58 19       		.uleb128 0x19
 8375 0b59 17070000 		.4byte	.LASF118
 8376 0b5d 01       		.byte	0x1
 8377 0b5e 51       		.byte	0x51
 8378 0b5f 29000000 		.4byte	0x29
 8379 0b63 01       		.byte	0x1
 8380 0b64 05       		.byte	0x5
 8381 0b65 03       		.byte	0x3
 8382 0b66 00000000 		.4byte	prestadorSimState
 8383 0b6a 19       		.uleb128 0x19
 8384 0b6b AC000000 		.4byte	.LASF119
 8385 0b6f 01       		.byte	0x1
 8386 0b70 52       		.byte	0x52
 8387 0b71 29000000 		.4byte	0x29
 8388 0b75 01       		.byte	0x1
 8389 0b76 05       		.byte	0x5
 8390 0b77 03       		.byte	0x3
 8391 0b78 00000000 		.4byte	prestadorSimTime
 8392 0b7c 19       		.uleb128 0x19
 8393 0b7d EC030000 		.4byte	.LASF120
 8394 0b81 01       		.byte	0x1
 8395 0b82 56       		.byte	0x56
 8396 0b83 29000000 		.4byte	0x29
 8397 0b87 01       		.byte	0x1
 8398 0b88 05       		.byte	0x5
 8399 0b89 03       		.byte	0x3
 8400 0b8a 00000000 		.4byte	GSMCantSMS
 8401 0b8e 19       		.uleb128 0x19
 8402 0b8f 01060000 		.4byte	.LASF121
 8403 0b93 01       		.byte	0x1
 8404 0b94 57       		.byte	0x57
 8405 0b95 29000000 		.4byte	0x29
 8406 0b99 01       		.byte	0x1
 8407 0b9a 05       		.byte	0x5
 8408 0b9b 03       		.byte	0x3
 8409 0b9c 00000000 		.4byte	GSMCantSMS2
 8410 0ba0 19       		.uleb128 0x19
 8411 0ba1 9B010000 		.4byte	.LASF122
ARM GAS  /tmp/ccKua49E.s 			page 192


 8412 0ba5 01       		.byte	0x1
 8413 0ba6 58       		.byte	0x58
 8414 0ba7 29000000 		.4byte	0x29
 8415 0bab 01       		.byte	0x1
 8416 0bac 05       		.byte	0x5
 8417 0bad 03       		.byte	0x3
 8418 0bae 00000000 		.4byte	GSMnumSMS
 8419 0bb2 19       		.uleb128 0x19
 8420 0bb3 F1050000 		.4byte	.LASF123
 8421 0bb7 01       		.byte	0x1
 8422 0bb8 59       		.byte	0x59
 8423 0bb9 BC010000 		.4byte	0x1bc
 8424 0bbd 01       		.byte	0x1
 8425 0bbe 05       		.byte	0x5
 8426 0bbf 03       		.byte	0x3
 8427 0bc0 00000000 		.4byte	GSMReadSMSState
 8428 0bc4 19       		.uleb128 0x19
 8429 0bc5 9A040000 		.4byte	.LASF124
 8430 0bc9 01       		.byte	0x1
 8431 0bca 5A       		.byte	0x5a
 8432 0bcb 0D080000 		.4byte	0x80d
 8433 0bcf 01       		.byte	0x1
 8434 0bd0 05       		.byte	0x5
 8435 0bd1 03       		.byte	0x3
 8436 0bd2 00000000 		.4byte	GSMReadSMScommand
 8437 0bd6 19       		.uleb128 0x19
 8438 0bd7 78030000 		.4byte	.LASF125
 8439 0bdb 01       		.byte	0x1
 8440 0bdc 5B       		.byte	0x5b
 8441 0bdd 0D080000 		.4byte	0x80d
 8442 0be1 01       		.byte	0x1
 8443 0be2 05       		.byte	0x5
 8444 0be3 03       		.byte	0x3
 8445 0be4 00000000 		.4byte	GSMReadSMSrepIn
 8446 0be8 19       		.uleb128 0x19
 8447 0be9 43020000 		.4byte	.LASF126
 8448 0bed 01       		.byte	0x1
 8449 0bee 5C       		.byte	0x5c
 8450 0bef 29000000 		.4byte	0x29
 8451 0bf3 01       		.byte	0x1
 8452 0bf4 05       		.byte	0x5
 8453 0bf5 03       		.byte	0x3
 8454 0bf6 00000000 		.4byte	GSMrxSMSState
 8455 0bfa 19       		.uleb128 0x19
 8456 0bfb 30020000 		.4byte	.LASF127
 8457 0bff 01       		.byte	0x1
 8458 0c00 5D       		.byte	0x5d
 8459 0c01 29000000 		.4byte	0x29
 8460 0c05 01       		.byte	0x1
 8461 0c06 05       		.byte	0x5
 8462 0c07 03       		.byte	0x3
 8463 0c08 00000000 		.4byte	prestadorSimSelect
 8464 0c0c 19       		.uleb128 0x19
 8465 0c0d 51020000 		.4byte	.LASF128
 8466 0c11 01       		.byte	0x1
 8467 0c12 5E       		.byte	0x5e
 8468 0c13 29000000 		.4byte	0x29
ARM GAS  /tmp/ccKua49E.s 			page 193


 8469 0c17 01       		.byte	0x1
 8470 0c18 05       		.byte	0x5
 8471 0c19 03       		.byte	0x3
 8472 0c1a 00000000 		.4byte	flagCloseIP
 8473 0c1e 1A       		.uleb128 0x1a
 8474 0c1f 7F080000 		.4byte	.LASF129
 8475 0c23 01       		.byte	0x1
 8476 0c24 61       		.byte	0x61
 8477 0c25 AD080000 		.4byte	0x8ad
 8478 0c29 01       		.byte	0x1
 8479 0c2a 01       		.byte	0x1
 8480 0c2b 06       		.uleb128 0x6
 8481 0c2c BC010000 		.4byte	0x1bc
 8482 0c30 3B0C0000 		.4byte	0xc3b
 8483 0c34 07       		.uleb128 0x7
 8484 0c35 9B000000 		.4byte	0x9b
 8485 0c39 13       		.byte	0x13
 8486 0c3a 00       		.byte	0
 8487 0c3b 1A       		.uleb128 0x1a
 8488 0c3c 63000000 		.4byte	.LASF130
 8489 0c40 01       		.byte	0x1
 8490 0c41 62       		.byte	0x62
 8491 0c42 2B0C0000 		.4byte	0xc2b
 8492 0c46 01       		.byte	0x1
 8493 0c47 01       		.byte	0x1
 8494 0c48 1A       		.uleb128 0x1a
 8495 0c49 2E080000 		.4byte	.LASF131
 8496 0c4d 01       		.byte	0x1
 8497 0c4e 63       		.byte	0x63
 8498 0c4f 2B0C0000 		.4byte	0xc2b
 8499 0c53 01       		.byte	0x1
 8500 0c54 01       		.byte	0x1
 8501 0c55 1A       		.uleb128 0x1a
 8502 0c56 8D080000 		.4byte	.LASF132
 8503 0c5a 01       		.byte	0x1
 8504 0c5b 65       		.byte	0x65
 8505 0c5c AD080000 		.4byte	0x8ad
 8506 0c60 01       		.byte	0x1
 8507 0c61 01       		.byte	0x1
 8508 0c62 1A       		.uleb128 0x1a
 8509 0c63 75000000 		.4byte	.LASF133
 8510 0c67 01       		.byte	0x1
 8511 0c68 66       		.byte	0x66
 8512 0c69 2B0C0000 		.4byte	0xc2b
 8513 0c6d 01       		.byte	0x1
 8514 0c6e 01       		.byte	0x1
 8515 0c6f 1A       		.uleb128 0x1a
 8516 0c70 32000000 		.4byte	.LASF134
 8517 0c74 01       		.byte	0x1
 8518 0c75 67       		.byte	0x67
 8519 0c76 2B0C0000 		.4byte	0xc2b
 8520 0c7a 01       		.byte	0x1
 8521 0c7b 01       		.byte	0x1
 8522 0c7c 1A       		.uleb128 0x1a
 8523 0c7d 0B030000 		.4byte	.LASF135
 8524 0c81 01       		.byte	0x1
 8525 0c82 68       		.byte	0x68
ARM GAS  /tmp/ccKua49E.s 			page 194


 8526 0c83 2B0C0000 		.4byte	0xc2b
 8527 0c87 01       		.byte	0x1
 8528 0c88 01       		.byte	0x1
 8529 0c89 1A       		.uleb128 0x1a
 8530 0c8a B6010000 		.4byte	.LASF136
 8531 0c8e 01       		.byte	0x1
 8532 0c8f 69       		.byte	0x69
 8533 0c90 2B0C0000 		.4byte	0xc2b
 8534 0c94 01       		.byte	0x1
 8535 0c95 01       		.byte	0x1
 8536 0c96 1A       		.uleb128 0x1a
 8537 0c97 96030000 		.4byte	.LASF137
 8538 0c9b 01       		.byte	0x1
 8539 0c9c 6C       		.byte	0x6c
 8540 0c9d A30C0000 		.4byte	0xca3
 8541 0ca1 01       		.byte	0x1
 8542 0ca2 01       		.byte	0x1
 8543 0ca3 05       		.uleb128 0x5
 8544 0ca4 29000000 		.4byte	0x29
 8545 0ca8 1A       		.uleb128 0x1a
 8546 0ca9 D2020000 		.4byte	.LASF138
 8547 0cad 01       		.byte	0x1
 8548 0cae 6D       		.byte	0x6d
 8549 0caf A30C0000 		.4byte	0xca3
 8550 0cb3 01       		.byte	0x1
 8551 0cb4 01       		.byte	0x1
 8552 0cb5 1A       		.uleb128 0x1a
 8553 0cb6 88020000 		.4byte	.LASF139
 8554 0cba 01       		.byte	0x1
 8555 0cbb 6E       		.byte	0x6e
 8556 0cbc A30C0000 		.4byte	0xca3
 8557 0cc0 01       		.byte	0x1
 8558 0cc1 01       		.byte	0x1
 8559 0cc2 1A       		.uleb128 0x1a
 8560 0cc3 0D020000 		.4byte	.LASF140
 8561 0cc7 01       		.byte	0x1
 8562 0cc8 6F       		.byte	0x6f
 8563 0cc9 29000000 		.4byte	0x29
 8564 0ccd 01       		.byte	0x1
 8565 0cce 01       		.byte	0x1
 8566 0ccf 00       		.byte	0
 8567              		.section	.debug_abbrev,"",%progbits
 8568              	.Ldebug_abbrev0:
 8569 0000 01       		.uleb128 0x1
 8570 0001 11       		.uleb128 0x11
 8571 0002 01       		.byte	0x1
 8572 0003 25       		.uleb128 0x25
 8573 0004 0E       		.uleb128 0xe
 8574 0005 13       		.uleb128 0x13
 8575 0006 0B       		.uleb128 0xb
 8576 0007 03       		.uleb128 0x3
 8577 0008 0E       		.uleb128 0xe
 8578 0009 1B       		.uleb128 0x1b
 8579 000a 0E       		.uleb128 0xe
 8580 000b 55       		.uleb128 0x55
 8581 000c 06       		.uleb128 0x6
 8582 000d 11       		.uleb128 0x11
ARM GAS  /tmp/ccKua49E.s 			page 195


 8583 000e 01       		.uleb128 0x1
 8584 000f 52       		.uleb128 0x52
 8585 0010 01       		.uleb128 0x1
 8586 0011 10       		.uleb128 0x10
 8587 0012 06       		.uleb128 0x6
 8588 0013 00       		.byte	0
 8589 0014 00       		.byte	0
 8590 0015 02       		.uleb128 0x2
 8591 0016 24       		.uleb128 0x24
 8592 0017 00       		.byte	0
 8593 0018 0B       		.uleb128 0xb
 8594 0019 0B       		.uleb128 0xb
 8595 001a 3E       		.uleb128 0x3e
 8596 001b 0B       		.uleb128 0xb
 8597 001c 03       		.uleb128 0x3
 8598 001d 0E       		.uleb128 0xe
 8599 001e 00       		.byte	0
 8600 001f 00       		.byte	0
 8601 0020 03       		.uleb128 0x3
 8602 0021 16       		.uleb128 0x16
 8603 0022 00       		.byte	0
 8604 0023 03       		.uleb128 0x3
 8605 0024 0E       		.uleb128 0xe
 8606 0025 3A       		.uleb128 0x3a
 8607 0026 0B       		.uleb128 0xb
 8608 0027 3B       		.uleb128 0x3b
 8609 0028 0B       		.uleb128 0xb
 8610 0029 49       		.uleb128 0x49
 8611 002a 13       		.uleb128 0x13
 8612 002b 00       		.byte	0
 8613 002c 00       		.byte	0
 8614 002d 04       		.uleb128 0x4
 8615 002e 24       		.uleb128 0x24
 8616 002f 00       		.byte	0
 8617 0030 0B       		.uleb128 0xb
 8618 0031 0B       		.uleb128 0xb
 8619 0032 3E       		.uleb128 0x3e
 8620 0033 0B       		.uleb128 0xb
 8621 0034 03       		.uleb128 0x3
 8622 0035 08       		.uleb128 0x8
 8623 0036 00       		.byte	0
 8624 0037 00       		.byte	0
 8625 0038 05       		.uleb128 0x5
 8626 0039 35       		.uleb128 0x35
 8627 003a 00       		.byte	0
 8628 003b 49       		.uleb128 0x49
 8629 003c 13       		.uleb128 0x13
 8630 003d 00       		.byte	0
 8631 003e 00       		.byte	0
 8632 003f 06       		.uleb128 0x6
 8633 0040 01       		.uleb128 0x1
 8634 0041 01       		.byte	0x1
 8635 0042 49       		.uleb128 0x49
 8636 0043 13       		.uleb128 0x13
 8637 0044 01       		.uleb128 0x1
 8638 0045 13       		.uleb128 0x13
 8639 0046 00       		.byte	0
ARM GAS  /tmp/ccKua49E.s 			page 196


 8640 0047 00       		.byte	0
 8641 0048 07       		.uleb128 0x7
 8642 0049 21       		.uleb128 0x21
 8643 004a 00       		.byte	0
 8644 004b 49       		.uleb128 0x49
 8645 004c 13       		.uleb128 0x13
 8646 004d 2F       		.uleb128 0x2f
 8647 004e 0B       		.uleb128 0xb
 8648 004f 00       		.byte	0
 8649 0050 00       		.byte	0
 8650 0051 08       		.uleb128 0x8
 8651 0052 13       		.uleb128 0x13
 8652 0053 01       		.byte	0x1
 8653 0054 0B       		.uleb128 0xb
 8654 0055 0B       		.uleb128 0xb
 8655 0056 3A       		.uleb128 0x3a
 8656 0057 0B       		.uleb128 0xb
 8657 0058 3B       		.uleb128 0x3b
 8658 0059 05       		.uleb128 0x5
 8659 005a 01       		.uleb128 0x1
 8660 005b 13       		.uleb128 0x13
 8661 005c 00       		.byte	0
 8662 005d 00       		.byte	0
 8663 005e 09       		.uleb128 0x9
 8664 005f 0D       		.uleb128 0xd
 8665 0060 00       		.byte	0
 8666 0061 03       		.uleb128 0x3
 8667 0062 0E       		.uleb128 0xe
 8668 0063 3A       		.uleb128 0x3a
 8669 0064 0B       		.uleb128 0xb
 8670 0065 3B       		.uleb128 0x3b
 8671 0066 05       		.uleb128 0x5
 8672 0067 49       		.uleb128 0x49
 8673 0068 13       		.uleb128 0x13
 8674 0069 38       		.uleb128 0x38
 8675 006a 0A       		.uleb128 0xa
 8676 006b 00       		.byte	0
 8677 006c 00       		.byte	0
 8678 006d 0A       		.uleb128 0xa
 8679 006e 0D       		.uleb128 0xd
 8680 006f 00       		.byte	0
 8681 0070 03       		.uleb128 0x3
 8682 0071 08       		.uleb128 0x8
 8683 0072 3A       		.uleb128 0x3a
 8684 0073 0B       		.uleb128 0xb
 8685 0074 3B       		.uleb128 0x3b
 8686 0075 05       		.uleb128 0x5
 8687 0076 49       		.uleb128 0x49
 8688 0077 13       		.uleb128 0x13
 8689 0078 38       		.uleb128 0x38
 8690 0079 0A       		.uleb128 0xa
 8691 007a 00       		.byte	0
 8692 007b 00       		.byte	0
 8693 007c 0B       		.uleb128 0xb
 8694 007d 16       		.uleb128 0x16
 8695 007e 00       		.byte	0
 8696 007f 03       		.uleb128 0x3
ARM GAS  /tmp/ccKua49E.s 			page 197


 8697 0080 0E       		.uleb128 0xe
 8698 0081 3A       		.uleb128 0x3a
 8699 0082 0B       		.uleb128 0xb
 8700 0083 3B       		.uleb128 0x3b
 8701 0084 05       		.uleb128 0x5
 8702 0085 49       		.uleb128 0x49
 8703 0086 13       		.uleb128 0x13
 8704 0087 00       		.byte	0
 8705 0088 00       		.byte	0
 8706 0089 0C       		.uleb128 0xc
 8707 008a 0F       		.uleb128 0xf
 8708 008b 00       		.byte	0
 8709 008c 0B       		.uleb128 0xb
 8710 008d 0B       		.uleb128 0xb
 8711 008e 49       		.uleb128 0x49
 8712 008f 13       		.uleb128 0x13
 8713 0090 00       		.byte	0
 8714 0091 00       		.byte	0
 8715 0092 0D       		.uleb128 0xd
 8716 0093 26       		.uleb128 0x26
 8717 0094 00       		.byte	0
 8718 0095 49       		.uleb128 0x49
 8719 0096 13       		.uleb128 0x13
 8720 0097 00       		.byte	0
 8721 0098 00       		.byte	0
 8722 0099 0E       		.uleb128 0xe
 8723 009a 2E       		.uleb128 0x2e
 8724 009b 00       		.byte	0
 8725 009c 3F       		.uleb128 0x3f
 8726 009d 0C       		.uleb128 0xc
 8727 009e 03       		.uleb128 0x3
 8728 009f 0E       		.uleb128 0xe
 8729 00a0 3A       		.uleb128 0x3a
 8730 00a1 0B       		.uleb128 0xb
 8731 00a2 3B       		.uleb128 0x3b
 8732 00a3 0B       		.uleb128 0xb
 8733 00a4 27       		.uleb128 0x27
 8734 00a5 0C       		.uleb128 0xc
 8735 00a6 11       		.uleb128 0x11
 8736 00a7 01       		.uleb128 0x1
 8737 00a8 12       		.uleb128 0x12
 8738 00a9 01       		.uleb128 0x1
 8739 00aa 40       		.uleb128 0x40
 8740 00ab 06       		.uleb128 0x6
 8741 00ac 9642     		.uleb128 0x2116
 8742 00ae 0C       		.uleb128 0xc
 8743 00af 00       		.byte	0
 8744 00b0 00       		.byte	0
 8745 00b1 0F       		.uleb128 0xf
 8746 00b2 2E       		.uleb128 0x2e
 8747 00b3 00       		.byte	0
 8748 00b4 3F       		.uleb128 0x3f
 8749 00b5 0C       		.uleb128 0xc
 8750 00b6 03       		.uleb128 0x3
 8751 00b7 0E       		.uleb128 0xe
 8752 00b8 3A       		.uleb128 0x3a
 8753 00b9 0B       		.uleb128 0xb
ARM GAS  /tmp/ccKua49E.s 			page 198


 8754 00ba 3B       		.uleb128 0x3b
 8755 00bb 0B       		.uleb128 0xb
 8756 00bc 27       		.uleb128 0x27
 8757 00bd 0C       		.uleb128 0xc
 8758 00be 49       		.uleb128 0x49
 8759 00bf 13       		.uleb128 0x13
 8760 00c0 11       		.uleb128 0x11
 8761 00c1 01       		.uleb128 0x1
 8762 00c2 12       		.uleb128 0x12
 8763 00c3 01       		.uleb128 0x1
 8764 00c4 40       		.uleb128 0x40
 8765 00c5 0A       		.uleb128 0xa
 8766 00c6 9742     		.uleb128 0x2117
 8767 00c8 0C       		.uleb128 0xc
 8768 00c9 00       		.byte	0
 8769 00ca 00       		.byte	0
 8770 00cb 10       		.uleb128 0x10
 8771 00cc 2E       		.uleb128 0x2e
 8772 00cd 00       		.byte	0
 8773 00ce 3F       		.uleb128 0x3f
 8774 00cf 0C       		.uleb128 0xc
 8775 00d0 03       		.uleb128 0x3
 8776 00d1 0E       		.uleb128 0xe
 8777 00d2 3A       		.uleb128 0x3a
 8778 00d3 0B       		.uleb128 0xb
 8779 00d4 3B       		.uleb128 0x3b
 8780 00d5 05       		.uleb128 0x5
 8781 00d6 27       		.uleb128 0x27
 8782 00d7 0C       		.uleb128 0xc
 8783 00d8 11       		.uleb128 0x11
 8784 00d9 01       		.uleb128 0x1
 8785 00da 12       		.uleb128 0x12
 8786 00db 01       		.uleb128 0x1
 8787 00dc 40       		.uleb128 0x40
 8788 00dd 0A       		.uleb128 0xa
 8789 00de 9742     		.uleb128 0x2117
 8790 00e0 0C       		.uleb128 0xc
 8791 00e1 00       		.byte	0
 8792 00e2 00       		.byte	0
 8793 00e3 11       		.uleb128 0x11
 8794 00e4 2E       		.uleb128 0x2e
 8795 00e5 01       		.byte	0x1
 8796 00e6 3F       		.uleb128 0x3f
 8797 00e7 0C       		.uleb128 0xc
 8798 00e8 03       		.uleb128 0x3
 8799 00e9 0E       		.uleb128 0xe
 8800 00ea 3A       		.uleb128 0x3a
 8801 00eb 0B       		.uleb128 0xb
 8802 00ec 3B       		.uleb128 0x3b
 8803 00ed 05       		.uleb128 0x5
 8804 00ee 27       		.uleb128 0x27
 8805 00ef 0C       		.uleb128 0xc
 8806 00f0 49       		.uleb128 0x49
 8807 00f1 13       		.uleb128 0x13
 8808 00f2 11       		.uleb128 0x11
 8809 00f3 01       		.uleb128 0x1
 8810 00f4 12       		.uleb128 0x12
ARM GAS  /tmp/ccKua49E.s 			page 199


 8811 00f5 01       		.uleb128 0x1
 8812 00f6 40       		.uleb128 0x40
 8813 00f7 06       		.uleb128 0x6
 8814 00f8 9742     		.uleb128 0x2117
 8815 00fa 0C       		.uleb128 0xc
 8816 00fb 01       		.uleb128 0x1
 8817 00fc 13       		.uleb128 0x13
 8818 00fd 00       		.byte	0
 8819 00fe 00       		.byte	0
 8820 00ff 12       		.uleb128 0x12
 8821 0100 34       		.uleb128 0x34
 8822 0101 00       		.byte	0
 8823 0102 03       		.uleb128 0x3
 8824 0103 0E       		.uleb128 0xe
 8825 0104 3A       		.uleb128 0x3a
 8826 0105 0B       		.uleb128 0xb
 8827 0106 3B       		.uleb128 0x3b
 8828 0107 05       		.uleb128 0x5
 8829 0108 49       		.uleb128 0x49
 8830 0109 13       		.uleb128 0x13
 8831 010a 02       		.uleb128 0x2
 8832 010b 0A       		.uleb128 0xa
 8833 010c 00       		.byte	0
 8834 010d 00       		.byte	0
 8835 010e 13       		.uleb128 0x13
 8836 010f 05       		.uleb128 0x5
 8837 0110 00       		.byte	0
 8838 0111 03       		.uleb128 0x3
 8839 0112 08       		.uleb128 0x8
 8840 0113 3A       		.uleb128 0x3a
 8841 0114 0B       		.uleb128 0xb
 8842 0115 3B       		.uleb128 0x3b
 8843 0116 05       		.uleb128 0x5
 8844 0117 49       		.uleb128 0x49
 8845 0118 13       		.uleb128 0x13
 8846 0119 02       		.uleb128 0x2
 8847 011a 0A       		.uleb128 0xa
 8848 011b 00       		.byte	0
 8849 011c 00       		.byte	0
 8850 011d 14       		.uleb128 0x14
 8851 011e 2E       		.uleb128 0x2e
 8852 011f 01       		.byte	0x1
 8853 0120 3F       		.uleb128 0x3f
 8854 0121 0C       		.uleb128 0xc
 8855 0122 03       		.uleb128 0x3
 8856 0123 0E       		.uleb128 0xe
 8857 0124 3A       		.uleb128 0x3a
 8858 0125 0B       		.uleb128 0xb
 8859 0126 3B       		.uleb128 0x3b
 8860 0127 05       		.uleb128 0x5
 8861 0128 27       		.uleb128 0x27
 8862 0129 0C       		.uleb128 0xc
 8863 012a 11       		.uleb128 0x11
 8864 012b 01       		.uleb128 0x1
 8865 012c 12       		.uleb128 0x12
 8866 012d 01       		.uleb128 0x1
 8867 012e 40       		.uleb128 0x40
ARM GAS  /tmp/ccKua49E.s 			page 200


 8868 012f 06       		.uleb128 0x6
 8869 0130 9642     		.uleb128 0x2116
 8870 0132 0C       		.uleb128 0xc
 8871 0133 01       		.uleb128 0x1
 8872 0134 13       		.uleb128 0x13
 8873 0135 00       		.byte	0
 8874 0136 00       		.byte	0
 8875 0137 15       		.uleb128 0x15
 8876 0138 05       		.uleb128 0x5
 8877 0139 00       		.byte	0
 8878 013a 03       		.uleb128 0x3
 8879 013b 0E       		.uleb128 0xe
 8880 013c 3A       		.uleb128 0x3a
 8881 013d 0B       		.uleb128 0xb
 8882 013e 3B       		.uleb128 0x3b
 8883 013f 05       		.uleb128 0x5
 8884 0140 49       		.uleb128 0x49
 8885 0141 13       		.uleb128 0x13
 8886 0142 02       		.uleb128 0x2
 8887 0143 0A       		.uleb128 0xa
 8888 0144 00       		.byte	0
 8889 0145 00       		.byte	0
 8890 0146 16       		.uleb128 0x16
 8891 0147 34       		.uleb128 0x34
 8892 0148 00       		.byte	0
 8893 0149 03       		.uleb128 0x3
 8894 014a 08       		.uleb128 0x8
 8895 014b 3A       		.uleb128 0x3a
 8896 014c 0B       		.uleb128 0xb
 8897 014d 3B       		.uleb128 0x3b
 8898 014e 05       		.uleb128 0x5
 8899 014f 49       		.uleb128 0x49
 8900 0150 13       		.uleb128 0x13
 8901 0151 02       		.uleb128 0x2
 8902 0152 0A       		.uleb128 0xa
 8903 0153 00       		.byte	0
 8904 0154 00       		.byte	0
 8905 0155 17       		.uleb128 0x17
 8906 0156 2E       		.uleb128 0x2e
 8907 0157 01       		.byte	0x1
 8908 0158 3F       		.uleb128 0x3f
 8909 0159 0C       		.uleb128 0xc
 8910 015a 03       		.uleb128 0x3
 8911 015b 0E       		.uleb128 0xe
 8912 015c 3A       		.uleb128 0x3a
 8913 015d 0B       		.uleb128 0xb
 8914 015e 3B       		.uleb128 0x3b
 8915 015f 05       		.uleb128 0x5
 8916 0160 27       		.uleb128 0x27
 8917 0161 0C       		.uleb128 0xc
 8918 0162 49       		.uleb128 0x49
 8919 0163 13       		.uleb128 0x13
 8920 0164 11       		.uleb128 0x11
 8921 0165 01       		.uleb128 0x1
 8922 0166 12       		.uleb128 0x12
 8923 0167 01       		.uleb128 0x1
 8924 0168 40       		.uleb128 0x40
ARM GAS  /tmp/ccKua49E.s 			page 201


 8925 0169 06       		.uleb128 0x6
 8926 016a 9642     		.uleb128 0x2116
 8927 016c 0C       		.uleb128 0xc
 8928 016d 01       		.uleb128 0x1
 8929 016e 13       		.uleb128 0x13
 8930 016f 00       		.byte	0
 8931 0170 00       		.byte	0
 8932 0171 18       		.uleb128 0x18
 8933 0172 2E       		.uleb128 0x2e
 8934 0173 00       		.byte	0
 8935 0174 3F       		.uleb128 0x3f
 8936 0175 0C       		.uleb128 0xc
 8937 0176 03       		.uleb128 0x3
 8938 0177 0E       		.uleb128 0xe
 8939 0178 3A       		.uleb128 0x3a
 8940 0179 0B       		.uleb128 0xb
 8941 017a 3B       		.uleb128 0x3b
 8942 017b 05       		.uleb128 0x5
 8943 017c 27       		.uleb128 0x27
 8944 017d 0C       		.uleb128 0xc
 8945 017e 11       		.uleb128 0x11
 8946 017f 01       		.uleb128 0x1
 8947 0180 12       		.uleb128 0x12
 8948 0181 01       		.uleb128 0x1
 8949 0182 40       		.uleb128 0x40
 8950 0183 06       		.uleb128 0x6
 8951 0184 9642     		.uleb128 0x2116
 8952 0186 0C       		.uleb128 0xc
 8953 0187 00       		.byte	0
 8954 0188 00       		.byte	0
 8955 0189 19       		.uleb128 0x19
 8956 018a 34       		.uleb128 0x34
 8957 018b 00       		.byte	0
 8958 018c 03       		.uleb128 0x3
 8959 018d 0E       		.uleb128 0xe
 8960 018e 3A       		.uleb128 0x3a
 8961 018f 0B       		.uleb128 0xb
 8962 0190 3B       		.uleb128 0x3b
 8963 0191 0B       		.uleb128 0xb
 8964 0192 49       		.uleb128 0x49
 8965 0193 13       		.uleb128 0x13
 8966 0194 3F       		.uleb128 0x3f
 8967 0195 0C       		.uleb128 0xc
 8968 0196 02       		.uleb128 0x2
 8969 0197 0A       		.uleb128 0xa
 8970 0198 00       		.byte	0
 8971 0199 00       		.byte	0
 8972 019a 1A       		.uleb128 0x1a
 8973 019b 34       		.uleb128 0x34
 8974 019c 00       		.byte	0
 8975 019d 03       		.uleb128 0x3
 8976 019e 0E       		.uleb128 0xe
 8977 019f 3A       		.uleb128 0x3a
 8978 01a0 0B       		.uleb128 0xb
 8979 01a1 3B       		.uleb128 0x3b
 8980 01a2 0B       		.uleb128 0xb
 8981 01a3 49       		.uleb128 0x49
ARM GAS  /tmp/ccKua49E.s 			page 202


 8982 01a4 13       		.uleb128 0x13
 8983 01a5 3F       		.uleb128 0x3f
 8984 01a6 0C       		.uleb128 0xc
 8985 01a7 3C       		.uleb128 0x3c
 8986 01a8 0C       		.uleb128 0xc
 8987 01a9 00       		.byte	0
 8988 01aa 00       		.byte	0
 8989 01ab 00       		.byte	0
 8990              		.section	.debug_loc,"",%progbits
 8991              	.Ldebug_loc0:
 8992              	.LLST0:
 8993 0000 00000000 		.4byte	.LFB20
 8994 0004 02000000 		.4byte	.LCFI0
 8995 0008 0200     		.2byte	0x2
 8996 000a 7D       		.byte	0x7d
 8997 000b 00       		.sleb128 0
 8998 000c 02000000 		.4byte	.LCFI0
 8999 0010 5C000000 		.4byte	.LFE20
 9000 0014 0200     		.2byte	0x2
 9001 0016 7D       		.byte	0x7d
 9002 0017 08       		.sleb128 8
 9003 0018 00000000 		.4byte	0
 9004 001c 00000000 		.4byte	0
 9005              	.LLST1:
 9006 0020 00000000 		.4byte	.LFB23
 9007 0024 02000000 		.4byte	.LCFI1
 9008 0028 0200     		.2byte	0x2
 9009 002a 7D       		.byte	0x7d
 9010 002b 00       		.sleb128 0
 9011 002c 02000000 		.4byte	.LCFI1
 9012 0030 BC000000 		.4byte	.LFE23
 9013 0034 0200     		.2byte	0x2
 9014 0036 7D       		.byte	0x7d
 9015 0037 08       		.sleb128 8
 9016 0038 00000000 		.4byte	0
 9017 003c 00000000 		.4byte	0
 9018              	.LLST2:
 9019 0040 00000000 		.4byte	.LFB24
 9020 0044 02000000 		.4byte	.LCFI2
 9021 0048 0200     		.2byte	0x2
 9022 004a 7D       		.byte	0x7d
 9023 004b 00       		.sleb128 0
 9024 004c 02000000 		.4byte	.LCFI2
 9025 0050 70000000 		.4byte	.LFE24
 9026 0054 0200     		.2byte	0x2
 9027 0056 7D       		.byte	0x7d
 9028 0057 10       		.sleb128 16
 9029 0058 00000000 		.4byte	0
 9030 005c 00000000 		.4byte	0
 9031              	.LLST3:
 9032 0060 00000000 		.4byte	.LFB25
 9033 0064 02000000 		.4byte	.LCFI3
 9034 0068 0200     		.2byte	0x2
 9035 006a 7D       		.byte	0x7d
 9036 006b 00       		.sleb128 0
 9037 006c 02000000 		.4byte	.LCFI3
 9038 0070 04000000 		.4byte	.LCFI4
ARM GAS  /tmp/ccKua49E.s 			page 203


 9039 0074 0200     		.2byte	0x2
 9040 0076 7D       		.byte	0x7d
 9041 0077 08       		.sleb128 8
 9042 0078 04000000 		.4byte	.LCFI4
 9043 007c CC030000 		.4byte	.LFE25
 9044 0080 0200     		.2byte	0x2
 9045 0082 7D       		.byte	0x7d
 9046 0083 20       		.sleb128 32
 9047 0084 00000000 		.4byte	0
 9048 0088 00000000 		.4byte	0
 9049              	.LLST4:
 9050 008c 00000000 		.4byte	.LFB26
 9051 0090 02000000 		.4byte	.LCFI5
 9052 0094 0200     		.2byte	0x2
 9053 0096 7D       		.byte	0x7d
 9054 0097 00       		.sleb128 0
 9055 0098 02000000 		.4byte	.LCFI5
 9056 009c 04000000 		.4byte	.LCFI6
 9057 00a0 0200     		.2byte	0x2
 9058 00a2 7D       		.byte	0x7d
 9059 00a3 08       		.sleb128 8
 9060 00a4 04000000 		.4byte	.LCFI6
 9061 00a8 70000000 		.4byte	.LFE26
 9062 00ac 0200     		.2byte	0x2
 9063 00ae 7D       		.byte	0x7d
 9064 00af 10       		.sleb128 16
 9065 00b0 00000000 		.4byte	0
 9066 00b4 00000000 		.4byte	0
 9067              	.LLST5:
 9068 00b8 00000000 		.4byte	.LFB27
 9069 00bc 02000000 		.4byte	.LCFI7
 9070 00c0 0200     		.2byte	0x2
 9071 00c2 7D       		.byte	0x7d
 9072 00c3 00       		.sleb128 0
 9073 00c4 02000000 		.4byte	.LCFI7
 9074 00c8 FC020000 		.4byte	.LFE27
 9075 00cc 0200     		.2byte	0x2
 9076 00ce 7D       		.byte	0x7d
 9077 00cf 08       		.sleb128 8
 9078 00d0 00000000 		.4byte	0
 9079 00d4 00000000 		.4byte	0
 9080              	.LLST6:
 9081 00d8 00000000 		.4byte	.LFB28
 9082 00dc 02000000 		.4byte	.LCFI8
 9083 00e0 0200     		.2byte	0x2
 9084 00e2 7D       		.byte	0x7d
 9085 00e3 00       		.sleb128 0
 9086 00e4 02000000 		.4byte	.LCFI8
 9087 00e8 04000000 		.4byte	.LCFI9
 9088 00ec 0200     		.2byte	0x2
 9089 00ee 7D       		.byte	0x7d
 9090 00ef 04       		.sleb128 4
 9091 00f0 04000000 		.4byte	.LCFI9
 9092 00f4 50010000 		.4byte	.LFE28
 9093 00f8 0200     		.2byte	0x2
 9094 00fa 7D       		.byte	0x7d
 9095 00fb 18       		.sleb128 24
ARM GAS  /tmp/ccKua49E.s 			page 204


 9096 00fc 00000000 		.4byte	0
 9097 0100 00000000 		.4byte	0
 9098              	.LLST7:
 9099 0104 00000000 		.4byte	.LFB29
 9100 0108 02000000 		.4byte	.LCFI10
 9101 010c 0200     		.2byte	0x2
 9102 010e 7D       		.byte	0x7d
 9103 010f 00       		.sleb128 0
 9104 0110 02000000 		.4byte	.LCFI10
 9105 0114 04000000 		.4byte	.LCFI11
 9106 0118 0200     		.2byte	0x2
 9107 011a 7D       		.byte	0x7d
 9108 011b 08       		.sleb128 8
 9109 011c 04000000 		.4byte	.LCFI11
 9110 0120 F4020000 		.4byte	.LFE29
 9111 0124 0200     		.2byte	0x2
 9112 0126 7D       		.byte	0x7d
 9113 0127 18       		.sleb128 24
 9114 0128 00000000 		.4byte	0
 9115 012c 00000000 		.4byte	0
 9116              	.LLST8:
 9117 0130 00000000 		.4byte	.LFB30
 9118 0134 02000000 		.4byte	.LCFI12
 9119 0138 0200     		.2byte	0x2
 9120 013a 7D       		.byte	0x7d
 9121 013b 00       		.sleb128 0
 9122 013c 02000000 		.4byte	.LCFI12
 9123 0140 04000000 		.4byte	.LCFI13
 9124 0144 0200     		.2byte	0x2
 9125 0146 7D       		.byte	0x7d
 9126 0147 08       		.sleb128 8
 9127 0148 04000000 		.4byte	.LCFI13
 9128 014c 70010000 		.4byte	.LFE30
 9129 0150 0200     		.2byte	0x2
 9130 0152 7D       		.byte	0x7d
 9131 0153 20       		.sleb128 32
 9132 0154 00000000 		.4byte	0
 9133 0158 00000000 		.4byte	0
 9134              	.LLST9:
 9135 015c 00000000 		.4byte	.LFB31
 9136 0160 02000000 		.4byte	.LCFI14
 9137 0164 0200     		.2byte	0x2
 9138 0166 7D       		.byte	0x7d
 9139 0167 00       		.sleb128 0
 9140 0168 02000000 		.4byte	.LCFI14
 9141 016c 04000000 		.4byte	.LCFI15
 9142 0170 0200     		.2byte	0x2
 9143 0172 7D       		.byte	0x7d
 9144 0173 08       		.sleb128 8
 9145 0174 04000000 		.4byte	.LCFI15
 9146 0178 80080000 		.4byte	.LFE31
 9147 017c 0200     		.2byte	0x2
 9148 017e 7D       		.byte	0x7d
 9149 017f 20       		.sleb128 32
 9150 0180 00000000 		.4byte	0
 9151 0184 00000000 		.4byte	0
 9152              	.LLST10:
ARM GAS  /tmp/ccKua49E.s 			page 205


 9153 0188 00000000 		.4byte	.LFB32
 9154 018c 02000000 		.4byte	.LCFI16
 9155 0190 0200     		.2byte	0x2
 9156 0192 7D       		.byte	0x7d
 9157 0193 00       		.sleb128 0
 9158 0194 02000000 		.4byte	.LCFI16
 9159 0198 04000000 		.4byte	.LCFI17
 9160 019c 0200     		.2byte	0x2
 9161 019e 7D       		.byte	0x7d
 9162 019f 08       		.sleb128 8
 9163 01a0 04000000 		.4byte	.LCFI17
 9164 01a4 84000000 		.4byte	.LFE32
 9165 01a8 0200     		.2byte	0x2
 9166 01aa 7D       		.byte	0x7d
 9167 01ab 18       		.sleb128 24
 9168 01ac 00000000 		.4byte	0
 9169 01b0 00000000 		.4byte	0
 9170              	.LLST11:
 9171 01b4 00000000 		.4byte	.LFB33
 9172 01b8 02000000 		.4byte	.LCFI18
 9173 01bc 0200     		.2byte	0x2
 9174 01be 7D       		.byte	0x7d
 9175 01bf 00       		.sleb128 0
 9176 01c0 02000000 		.4byte	.LCFI18
 9177 01c4 04000000 		.4byte	.LCFI19
 9178 01c8 0200     		.2byte	0x2
 9179 01ca 7D       		.byte	0x7d
 9180 01cb 08       		.sleb128 8
 9181 01cc 04000000 		.4byte	.LCFI19
 9182 01d0 2C010000 		.4byte	.LFE33
 9183 01d4 0200     		.2byte	0x2
 9184 01d6 7D       		.byte	0x7d
 9185 01d7 18       		.sleb128 24
 9186 01d8 00000000 		.4byte	0
 9187 01dc 00000000 		.4byte	0
 9188              	.LLST12:
 9189 01e0 00000000 		.4byte	.LFB35
 9190 01e4 02000000 		.4byte	.LCFI20
 9191 01e8 0200     		.2byte	0x2
 9192 01ea 7D       		.byte	0x7d
 9193 01eb 00       		.sleb128 0
 9194 01ec 02000000 		.4byte	.LCFI20
 9195 01f0 04000000 		.4byte	.LCFI21
 9196 01f4 0200     		.2byte	0x2
 9197 01f6 7D       		.byte	0x7d
 9198 01f7 08       		.sleb128 8
 9199 01f8 04000000 		.4byte	.LCFI21
 9200 01fc 30060000 		.4byte	.LFE35
 9201 0200 0200     		.2byte	0x2
 9202 0202 7D       		.byte	0x7d
 9203 0203 20       		.sleb128 32
 9204 0204 00000000 		.4byte	0
 9205 0208 00000000 		.4byte	0
 9206              	.LLST13:
 9207 020c 00000000 		.4byte	.LFB36
 9208 0210 02000000 		.4byte	.LCFI22
 9209 0214 0200     		.2byte	0x2
ARM GAS  /tmp/ccKua49E.s 			page 206


 9210 0216 7D       		.byte	0x7d
 9211 0217 00       		.sleb128 0
 9212 0218 02000000 		.4byte	.LCFI22
 9213 021c 04000000 		.4byte	.LCFI23
 9214 0220 0200     		.2byte	0x2
 9215 0222 7D       		.byte	0x7d
 9216 0223 08       		.sleb128 8
 9217 0224 04000000 		.4byte	.LCFI23
 9218 0228 E8060000 		.4byte	.LFE36
 9219 022c 0200     		.2byte	0x2
 9220 022e 7D       		.byte	0x7d
 9221 022f 20       		.sleb128 32
 9222 0230 00000000 		.4byte	0
 9223 0234 00000000 		.4byte	0
 9224              		.section	.debug_aranges,"",%progbits
 9225 0000 9C000000 		.4byte	0x9c
 9226 0004 0200     		.2byte	0x2
 9227 0006 00000000 		.4byte	.Ldebug_info0
 9228 000a 04       		.byte	0x4
 9229 000b 00       		.byte	0
 9230 000c 0000     		.2byte	0
 9231 000e 0000     		.2byte	0
 9232 0010 00000000 		.4byte	.LFB20
 9233 0014 5C000000 		.4byte	.LFE20-.LFB20
 9234 0018 00000000 		.4byte	.LFB21
 9235 001c FC000000 		.4byte	.LFE21-.LFB21
 9236 0020 00000000 		.4byte	.LFB22
 9237 0024 10000000 		.4byte	.LFE22-.LFB22
 9238 0028 00000000 		.4byte	.LFB23
 9239 002c BC000000 		.4byte	.LFE23-.LFB23
 9240 0030 00000000 		.4byte	.LFB24
 9241 0034 70000000 		.4byte	.LFE24-.LFB24
 9242 0038 00000000 		.4byte	.LFB25
 9243 003c CC030000 		.4byte	.LFE25-.LFB25
 9244 0040 00000000 		.4byte	.LFB26
 9245 0044 70000000 		.4byte	.LFE26-.LFB26
 9246 0048 00000000 		.4byte	.LFB27
 9247 004c FC020000 		.4byte	.LFE27-.LFB27
 9248 0050 00000000 		.4byte	.LFB28
 9249 0054 50010000 		.4byte	.LFE28-.LFB28
 9250 0058 00000000 		.4byte	.LFB29
 9251 005c F4020000 		.4byte	.LFE29-.LFB29
 9252 0060 00000000 		.4byte	.LFB30
 9253 0064 70010000 		.4byte	.LFE30-.LFB30
 9254 0068 00000000 		.4byte	.LFB31
 9255 006c 80080000 		.4byte	.LFE31-.LFB31
 9256 0070 00000000 		.4byte	.LFB32
 9257 0074 84000000 		.4byte	.LFE32-.LFB32
 9258 0078 00000000 		.4byte	.LFB33
 9259 007c 2C010000 		.4byte	.LFE33-.LFB33
 9260 0080 00000000 		.4byte	.LFB34
 9261 0084 F8000000 		.4byte	.LFE34-.LFB34
 9262 0088 00000000 		.4byte	.LFB35
 9263 008c 30060000 		.4byte	.LFE35-.LFB35
 9264 0090 00000000 		.4byte	.LFB36
 9265 0094 E8060000 		.4byte	.LFE36-.LFB36
 9266 0098 00000000 		.4byte	0
ARM GAS  /tmp/ccKua49E.s 			page 207


 9267 009c 00000000 		.4byte	0
 9268              		.section	.debug_ranges,"",%progbits
 9269              	.Ldebug_ranges0:
 9270 0000 00000000 		.4byte	.LFB20
 9271 0004 5C000000 		.4byte	.LFE20
 9272 0008 00000000 		.4byte	.LFB21
 9273 000c FC000000 		.4byte	.LFE21
 9274 0010 00000000 		.4byte	.LFB22
 9275 0014 10000000 		.4byte	.LFE22
 9276 0018 00000000 		.4byte	.LFB23
 9277 001c BC000000 		.4byte	.LFE23
 9278 0020 00000000 		.4byte	.LFB24
 9279 0024 70000000 		.4byte	.LFE24
 9280 0028 00000000 		.4byte	.LFB25
 9281 002c CC030000 		.4byte	.LFE25
 9282 0030 00000000 		.4byte	.LFB26
 9283 0034 70000000 		.4byte	.LFE26
 9284 0038 00000000 		.4byte	.LFB27
 9285 003c FC020000 		.4byte	.LFE27
 9286 0040 00000000 		.4byte	.LFB28
 9287 0044 50010000 		.4byte	.LFE28
 9288 0048 00000000 		.4byte	.LFB29
 9289 004c F4020000 		.4byte	.LFE29
 9290 0050 00000000 		.4byte	.LFB30
 9291 0054 70010000 		.4byte	.LFE30
 9292 0058 00000000 		.4byte	.LFB31
 9293 005c 80080000 		.4byte	.LFE31
 9294 0060 00000000 		.4byte	.LFB32
 9295 0064 84000000 		.4byte	.LFE32
 9296 0068 00000000 		.4byte	.LFB33
 9297 006c 2C010000 		.4byte	.LFE33
 9298 0070 00000000 		.4byte	.LFB34
 9299 0074 F8000000 		.4byte	.LFE34
 9300 0078 00000000 		.4byte	.LFB35
 9301 007c 30060000 		.4byte	.LFE35
 9302 0080 00000000 		.4byte	.LFB36
 9303 0084 E8060000 		.4byte	.LFE36
 9304 0088 00000000 		.4byte	0
 9305 008c 00000000 		.4byte	0
 9306              		.section	.debug_line,"",%progbits
 9307              	.Ldebug_line0:
 9308 0000 F2060000 		.section	.debug_str,"MS",%progbits,1
 9308      0200F600 
 9308      00000201 
 9308      FB0E0D00 
 9308      01010101 
 9309              	.LASF105:
 9310 0000 47534D5F 		.ascii	"GSM_CMGF\000"
 9310      434D4746 
 9310      00
 9311              	.LASF58:
 9312 0009 7074724B 		.ascii	"ptrKEY\000"
 9312      455900
 9313              	.LASF114:
 9314 0010 47534D5F 		.ascii	"GSM_IPCONNCLOSE\000"
 9314      4950434F 
 9314      4E4E434C 
ARM GAS  /tmp/ccKua49E.s 			page 208


 9314      4F534500 
 9315              	.LASF115:
 9316 0020 47534D5F 		.ascii	"GSM_SIM1\000"
 9316      53494D31 
 9316      00
 9317              	.LASF116:
 9318 0029 47534D5F 		.ascii	"GSM_SIM2\000"
 9318      53494D32 
 9318      00
 9319              	.LASF134:
 9320 0032 53494D39 		.ascii	"SIM900CLAVESIM2\000"
 9320      3030434C 
 9320      41564553 
 9320      494D3200 
 9321              	.LASF21:
 9322 0042 42535252 		.ascii	"BSRR\000"
 9322      00
 9323              	.LASF57:
 9324 0047 70747255 		.ascii	"ptrUSER\000"
 9324      53455200 
 9325              	.LASF46:
 9326 004f 47534D52 		.ascii	"GSMReceive\000"
 9326      65636569 
 9326      766500
 9327              	.LASF95:
 9328 005a 47534D49 		.ascii	"GSMIPadd\000"
 9328      50616464 
 9328      00
 9329              	.LASF130:
 9330 0063 53494D39 		.ascii	"SIM900USUARIOSIM1\000"
 9330      30305553 
 9330      55415249 
 9330      4F53494D 
 9330      3100
 9331              	.LASF133:
 9332 0075 53494D39 		.ascii	"SIM900USUARIOSIM2\000"
 9332      30305553 
 9332      55415249 
 9332      4F53494D 
 9332      3200
 9333              	.LASF107:
 9334 0087 47534D5F 		.ascii	"GSM_IPINITIAL\000"
 9334      4950494E 
 9334      49544941 
 9334      4C00
 9335              	.LASF144:
 9336 0095 47534D5F 		.ascii	"GSM_Start\000"
 9336      53746172 
 9336      7400
 9337              	.LASF10:
 9338 009f 756E7369 		.ascii	"unsigned int\000"
 9338      676E6564 
 9338      20696E74 
 9338      00
 9339              	.LASF119:
 9340 00ac 70726573 		.ascii	"prestadorSimTime\000"
 9340      7461646F 
ARM GAS  /tmp/ccKua49E.s 			page 209


 9340      7253696D 
 9340      54696D65 
 9340      00
 9341              	.LASF81:
 9342 00bd 47534D53 		.ascii	"GSMSendCommandTimeOut\000"
 9342      656E6443 
 9342      6F6D6D61 
 9342      6E645469 
 9342      6D654F75 
 9343              	.LASF78:
 9344 00d3 47534D47 		.ascii	"GSMGeneralTimeOut\000"
 9344      656E6572 
 9344      616C5469 
 9344      6D654F75 
 9344      7400
 9345              	.LASF49:
 9346 00e5 74696D65 		.ascii	"timeOut\000"
 9346      4F757400 
 9347              	.LASF110:
 9348 00ed 47534D5F 		.ascii	"GSM_IPSTATUS\000"
 9348      49505354 
 9348      41545553 
 9348      00
 9349              	.LASF103:
 9350 00fa 47534D5F 		.ascii	"GSM_ERR\000"
 9350      45525200 
 9351              	.LASF70:
 9352 0102 70416374 		.ascii	"pActDact\000"
 9352      44616374 
 9352      00
 9353              	.LASF84:
 9354 010b 47534D53 		.ascii	"GSMSendSMSFlag\000"
 9354      656E6453 
 9354      4D53466C 
 9354      616700
 9355              	.LASF12:
 9356 011a 75696E74 		.ascii	"uint32_t\000"
 9356      33325F74 
 9356      00
 9357              	.LASF36:
 9358 0123 70434F4E 		.ascii	"pCONFIGURACIONgprsUsuario1\000"
 9358      46494755 
 9358      52414349 
 9358      4F4E6770 
 9358      72735573 
 9359              	.LASF40:
 9360 013e 70434F4E 		.ascii	"pCONFIGURACIONgprsUsuario2\000"
 9360      46494755 
 9360      52414349 
 9360      4F4E6770 
 9360      72735573 
 9361              	.LASF83:
 9362 0159 47534D53 		.ascii	"GSMSendSMSState\000"
 9362      656E6453 
 9362      4D535374 
 9362      61746500 
 9363              	.LASF37:
ARM GAS  /tmp/ccKua49E.s 			page 210


 9364 0169 70434F4E 		.ascii	"pCONFIGURACIONgprsClave1\000"
 9364      46494755 
 9364      52414349 
 9364      4F4E6770 
 9364      7273436C 
 9365              	.LASF41:
 9366 0182 70434F4E 		.ascii	"pCONFIGURACIONgprsClave2\000"
 9366      46494755 
 9366      52414349 
 9366      4F4E6770 
 9366      7273436C 
 9367              	.LASF122:
 9368 019b 47534D6E 		.ascii	"GSMnumSMS\000"
 9368      756D534D 
 9368      5300
 9369              	.LASF67:
 9370 01a5 70416C65 		.ascii	"pAlertasReportar\000"
 9370      72746173 
 9370      5265706F 
 9370      72746172 
 9370      00
 9371              	.LASF136:
 9372 01b6 53494D39 		.ascii	"SIM900PORTREMOTE\000"
 9372      3030504F 
 9372      52545245 
 9372      4D4F5445 
 9372      00
 9373              	.LASF60:
 9374 01c7 70747249 		.ascii	"ptrIPremote\000"
 9374      5072656D 
 9374      6F746500 
 9375              	.LASF54:
 9376 01d3 7074724E 		.ascii	"ptrNUM\000"
 9376      554D00
 9377              	.LASF9:
 9378 01da 6C6F6E67 		.ascii	"long long unsigned int\000"
 9378      206C6F6E 
 9378      6720756E 
 9378      7369676E 
 9378      65642069 
 9379              	.LASF45:
 9380 01f1 47534D43 		.ascii	"GSMCloseIP\000"
 9380      6C6F7365 
 9380      495000
 9381              	.LASF73:
 9382 01fc 47534D43 		.ascii	"GSMConfigPDPGPRS\000"
 9382      6F6E6669 
 9382      67504450 
 9382      47505253 
 9382      00
 9383              	.LASF140:
 9384 020d 75736172 		.ascii	"usart1_pckt_bytes\000"
 9384      74315F70 
 9384      636B745F 
 9384      62797465 
 9384      7300
 9385              	.LASF5:
ARM GAS  /tmp/ccKua49E.s 			page 211


 9386 021f 5F5F7569 		.ascii	"__uint16_t\000"
 9386      6E743136 
 9386      5F7400
 9387              	.LASF14:
 9388 022a 4D4F4445 		.ascii	"MODER\000"
 9388      5200
 9389              	.LASF127:
 9390 0230 70726573 		.ascii	"prestadorSimSelect\000"
 9390      7461646F 
 9390      7253696D 
 9390      53656C65 
 9390      637400
 9391              	.LASF126:
 9392 0243 47534D72 		.ascii	"GSMrxSMSState\000"
 9392      78534D53 
 9392      53746174 
 9392      6500
 9393              	.LASF128:
 9394 0251 666C6167 		.ascii	"flagCloseIP\000"
 9394      436C6F73 
 9394      65495000 
 9395              	.LASF117:
 9396 025d 47534D5F 		.ascii	"GSM_SENDOK\000"
 9396      53454E44 
 9396      4F4B00
 9397              	.LASF29:
 9398 0268 47534D5F 		.ascii	"GSM_Stop\000"
 9398      53746F70 
 9398      00
 9399              	.LASF28:
 9400 0271 47534D5F 		.ascii	"GSM_Start_Stop_ResetSM\000"
 9400      53746172 
 9400      745F5374 
 9400      6F705F52 
 9400      65736574 
 9401              	.LASF139:
 9402 0288 75736172 		.ascii	"usart1_have_data\000"
 9402      74315F68 
 9402      6176655F 
 9402      64617461 
 9402      00
 9403              	.LASF18:
 9404 0299 50555044 		.ascii	"PUPDR\000"
 9404      5200
 9405              	.LASF99:
 9406 029f 47534D53 		.ascii	"GSMSendIPTimeOut\000"
 9406      656E6449 
 9406      5054696D 
 9406      654F7574 
 9406      00
 9407              	.LASF113:
 9408 02b0 47534D5F 		.ascii	"GSM_IPCONNFAIL\000"
 9408      4950434F 
 9408      4E4E4641 
 9408      494C00
 9409              	.LASF61:
 9410 02bf 70747250 		.ascii	"ptrPORTremote\000"
ARM GAS  /tmp/ccKua49E.s 			page 212


 9410      4F525472 
 9410      656D6F74 
 9410      6500
 9411              	.LASF26:
 9412 02cd 63686172 		.ascii	"char\000"
 9412      00
 9413              	.LASF138:
 9414 02d2 75736172 		.ascii	"usart1_pckt_ready\000"
 9414      74315F70 
 9414      636B745F 
 9414      72656164 
 9414      7900
 9415              	.LASF90:
 9416 02e4 47534D43 		.ascii	"GSMConfigGPRSTimeOut\000"
 9416      6F6E6669 
 9416      67475052 
 9416      5354696D 
 9416      654F7574 
 9417              	.LASF68:
 9418 02f9 70757365 		.ascii	"puserCode\000"
 9418      72436F64 
 9418      6500
 9419              	.LASF104:
 9420 0303 47534D5F 		.ascii	"GSM_RTA\000"
 9420      52544100 
 9421              	.LASF135:
 9422 030b 53494D39 		.ascii	"SIM900IPREMOTE\000"
 9422      30304950 
 9422      52454D4F 
 9422      544500
 9423              	.LASF109:
 9424 031a 47534D5F 		.ascii	"GSM_IPGPRSACT\000"
 9424      49504750 
 9424      52534143 
 9424      5400
 9425              	.LASF66:
 9426 0328 47534D72 		.ascii	"GSMrxSMS\000"
 9426      78534D53 
 9426      00
 9427              	.LASF87:
 9428 0331 47534D43 		.ascii	"GSMConfigState\000"
 9428      6F6E6669 
 9428      67537461 
 9428      746500
 9429              	.LASF64:
 9430 0340 47534D54 		.ascii	"GSMTimeoutCounters\000"
 9430      696D656F 
 9430      7574436F 
 9430      756E7465 
 9430      727300
 9431              	.LASF75:
 9432 0353 5061636B 		.ascii	"PacketReadyUARTGSM\000"
 9432      65745265 
 9432      61647955 
 9432      41525447 
 9432      534D00
 9433              	.LASF86:
ARM GAS  /tmp/ccKua49E.s 			page 213


 9434 0366 47534D53 		.ascii	"GSMSendSMSbuffAux\000"
 9434      656E6453 
 9434      4D536275 
 9434      66664175 
 9434      7800
 9435              	.LASF125:
 9436 0378 47534D52 		.ascii	"GSMReadSMSrepIn\000"
 9436      65616453 
 9436      4D537265 
 9436      70496E00 
 9437              	.LASF8:
 9438 0388 6C6F6E67 		.ascii	"long long int\000"
 9438      206C6F6E 
 9438      6720696E 
 9438      7400
 9439              	.LASF137:
 9440 0396 75736172 		.ascii	"usart1_mini_timeout\000"
 9440      74315F6D 
 9440      696E695F 
 9440      74696D65 
 9440      6F757400 
 9441              	.LASF76:
 9442 03aa 47534D53 		.ascii	"GSMStartState\000"
 9442      74617274 
 9442      53746174 
 9442      6500
 9443              	.LASF69:
 9444 03b8 70636C61 		.ascii	"pclaveAct\000"
 9444      76654163 
 9444      7400
 9445              	.LASF63:
 9446 03c2 47534D53 		.ascii	"GSMSendIP\000"
 9446      656E6449 
 9446      5000
 9447              	.LASF43:
 9448 03cc 70434F4E 		.ascii	"pCONFIGURACIONIPREMOTE\000"
 9448      46494755 
 9448      52414349 
 9448      4F4E4950 
 9448      52454D4F 
 9449              	.LASF96:
 9450 03e3 47505253 		.ascii	"GPRSrssi\000"
 9450      72737369 
 9450      00
 9451              	.LASF120:
 9452 03ec 47534D43 		.ascii	"GSMCantSMS\000"
 9452      616E7453 
 9452      4D5300
 9453              	.LASF17:
 9454 03f7 4F535045 		.ascii	"OSPEEDR\000"
 9454      45445200 
 9455              	.LASF25:
 9456 03ff 6C6F6E67 		.ascii	"long double\000"
 9456      20646F75 
 9456      626C6500 
 9457              	.LASF11:
 9458 040b 75696E74 		.ascii	"uint16_t\000"
ARM GAS  /tmp/ccKua49E.s 			page 214


 9458      31365F74 
 9458      00
 9459              	.LASF74:
 9460 0414 62756666 		.ascii	"buffUARTGSMrx2\000"
 9460      55415254 
 9460      47534D72 
 9460      783200
 9461              	.LASF32:
 9462 0423 7047534D 		.ascii	"pGSMHWstatus\000"
 9462      48577374 
 9462      61747573 
 9462      00
 9463              	.LASF62:
 9464 0430 47534D5F 		.ascii	"GSM_SetSIM\000"
 9464      53657453 
 9464      494D00
 9465              	.LASF93:
 9466 043b 47534D62 		.ascii	"GSMbuffStatus\000"
 9466      75666653 
 9466      74617475 
 9466      7300
 9467              	.LASF16:
 9468 0449 52455345 		.ascii	"RESERVED0\000"
 9468      52564544 
 9468      3000
 9469              	.LASF19:
 9470 0453 52455345 		.ascii	"RESERVED1\000"
 9470      52564544 
 9470      3100
 9471              	.LASF20:
 9472 045d 52455345 		.ascii	"RESERVED2\000"
 9472      52564544 
 9472      3200
 9473              	.LASF23:
 9474 0467 52455345 		.ascii	"RESERVED3\000"
 9474      52564544 
 9474      3300
 9475              	.LASF2:
 9476 0471 73686F72 		.ascii	"short int\000"
 9476      7420696E 
 9476      7400
 9477              	.LASF27:
 9478 047b 47534D50 		.ascii	"GSMProcess\000"
 9478      726F6365 
 9478      737300
 9479              	.LASF51:
 9480 0486 47534D5F 		.ascii	"GSM_Config\000"
 9480      436F6E66 
 9480      696700
 9481              	.LASF4:
 9482 0491 6C6F6E67 		.ascii	"long int\000"
 9482      20696E74 
 9482      00
 9483              	.LASF124:
 9484 049a 47534D52 		.ascii	"GSMReadSMScommand\000"
 9484      65616453 
 9484      4D53636F 
ARM GAS  /tmp/ccKua49E.s 			page 215


 9484      6D6D616E 
 9484      6400
 9485              	.LASF112:
 9486 04ac 47534D5F 		.ascii	"GSM_IPCONNOK\000"
 9486      4950434F 
 9486      4E4E4F4B 
 9486      00
 9487              	.LASF55:
 9488 04b9 47534D43 		.ascii	"GSMConfigGPRS\000"
 9488      6F6E6669 
 9488      67475052 
 9488      5300
 9489              	.LASF53:
 9490 04c7 7074724D 		.ascii	"ptrMSG\000"
 9490      534700
 9491              	.LASF15:
 9492 04ce 4F545950 		.ascii	"OTYPER\000"
 9492      455200
 9493              	.LASF72:
 9494 04d5 666C6167 		.ascii	"flag\000"
 9494      00
 9495              	.LASF80:
 9496 04da 47534D53 		.ascii	"GSMSendCommandFlag\000"
 9496      656E6443 
 9496      6F6D6D61 
 9496      6E64466C 
 9496      616700
 9497              	.LASF98:
 9498 04ed 47534D53 		.ascii	"GSMSendIPFlag\000"
 9498      656E6449 
 9498      50466C61 
 9498      6700
 9499              	.LASF48:
 9500 04fb 70747243 		.ascii	"ptrCommand\000"
 9500      6F6D6D61 
 9500      6E6400
 9501              	.LASF52:
 9502 0506 47534D53 		.ascii	"GSMSendSMS\000"
 9502      656E6453 
 9502      4D5300
 9503              	.LASF92:
 9504 0511 47534D43 		.ascii	"GSMConfigGPRSflag\000"
 9504      6F6E6669 
 9504      67475052 
 9504      53666C61 
 9504      6700
 9505              	.LASF35:
 9506 0523 70434F4E 		.ascii	"pCONFIGURACIONgprsAPN1\000"
 9506      46494755 
 9506      52414349 
 9506      4F4E6770 
 9506      72734150 
 9507              	.LASF39:
 9508 053a 70434F4E 		.ascii	"pCONFIGURACIONgprsAPN2\000"
 9508      46494755 
 9508      52414349 
 9508      4F4E6770 
ARM GAS  /tmp/ccKua49E.s 			page 216


 9508      72734150 
 9509              	.LASF24:
 9510 0551 4750494F 		.ascii	"GPIO_TypeDef\000"
 9510      5F547970 
 9510      65446566 
 9510      00
 9511              	.LASF108:
 9512 055e 47534D5F 		.ascii	"GSM_IPSTART\000"
 9512      49505354 
 9512      41525400 
 9513              	.LASF85:
 9514 056a 47534D53 		.ascii	"GSMSendSMSTimeOut\000"
 9514      656E6453 
 9514      4D535469 
 9514      6D654F75 
 9514      7400
 9515              	.LASF13:
 9516 057c 73697A65 		.ascii	"sizetype\000"
 9516      74797065 
 9516      00
 9517              	.LASF7:
 9518 0585 6C6F6E67 		.ascii	"long unsigned int\000"
 9518      20756E73 
 9518      69676E65 
 9518      6420696E 
 9518      7400
 9519              	.LASF142:
 9520 0597 7372632F 		.ascii	"src/sim900_800.c\000"
 9520      73696D39 
 9520      30305F38 
 9520      30302E63 
 9520      00
 9521              	.LASF143:
 9522 05a8 2F686F6D 		.ascii	"/home/med/Documents/stm32_proj/atom_planolux_redond"
 9522      652F6D65 
 9522      642F446F 
 9522      63756D65 
 9522      6E74732F 
 9523 05db 6100     		.ascii	"a\000"
 9524              	.LASF79:
 9525 05dd 47534D53 		.ascii	"GSMSendCommandState\000"
 9525      656E6443 
 9525      6F6D6D61 
 9525      6E645374 
 9525      61746500 
 9526              	.LASF123:
 9527 05f1 47534D52 		.ascii	"GSMReadSMSState\000"
 9527      65616453 
 9527      4D535374 
 9527      61746500 
 9528              	.LASF121:
 9529 0601 47534D43 		.ascii	"GSMCantSMS2\000"
 9529      616E7453 
 9529      4D533200 
 9530              	.LASF71:
 9531 060d 7047534D 		.ascii	"pGSMReadSMStel\000"
 9531      52656164 
ARM GAS  /tmp/ccKua49E.s 			page 217


 9531      534D5374 
 9531      656C00
 9532              	.LASF0:
 9533 061c 756E7369 		.ascii	"unsigned char\000"
 9533      676E6564 
 9533      20636861 
 9533      7200
 9534              	.LASF6:
 9535 062a 5F5F7569 		.ascii	"__uint32_t\000"
 9535      6E743332 
 9535      5F7400
 9536              	.LASF47:
 9537 0635 47534D53 		.ascii	"GSMSendCommand\000"
 9537      656E6443 
 9537      6F6D6D61 
 9537      6E6400
 9538              	.LASF111:
 9539 0644 47534D5F 		.ascii	"GSM_IPCONNECTING\000"
 9539      4950434F 
 9539      4E4E4543 
 9539      54494E47 
 9539      00
 9540              	.LASF65:
 9541 0655 47534D50 		.ascii	"GSMPrestador\000"
 9541      72657374 
 9541      61646F72 
 9541      00
 9542              	.LASF56:
 9543 0662 70747241 		.ascii	"ptrAPN\000"
 9543      504E00
 9544              	.LASF106:
 9545 0669 47534D5F 		.ascii	"GSM_IPSTATE\000"
 9545      49505354 
 9545      41544500 
 9546              	.LASF97:
 9547 0675 47534D53 		.ascii	"GSMSendIPState\000"
 9547      656E6449 
 9547      50537461 
 9547      746500
 9548              	.LASF50:
 9549 0684 70747252 		.ascii	"ptrRta\000"
 9549      746100
 9550              	.LASF101:
 9551 068b 47534D62 		.ascii	"GSMbuffRtaCommand\000"
 9551      75666652 
 9551      7461436F 
 9551      6D6D616E 
 9551      6400
 9552              	.LASF33:
 9553 069d 70726573 		.ascii	"prestadorSim1\000"
 9553      7461646F 
 9553      7253696D 
 9553      3100
 9554              	.LASF34:
 9555 06ab 70726573 		.ascii	"prestadorSim2\000"
 9555      7461646F 
 9555      7253696D 
ARM GAS  /tmp/ccKua49E.s 			page 218


 9555      3200
 9556              	.LASF100:
 9557 06b9 47534D53 		.ascii	"GSMSendIPbuffAux\000"
 9557      656E6449 
 9557      50627566 
 9557      66417578 
 9557      00
 9558              	.LASF30:
 9559 06ca 47534D5F 		.ascii	"GSM_Delay\000"
 9559      44656C61 
 9559      7900
 9560              	.LASF82:
 9561 06d4 47534D53 		.ascii	"GSMSendCommandIntento\000"
 9561      656E6443 
 9561      6F6D6D61 
 9561      6E64496E 
 9561      74656E74 
 9562              	.LASF89:
 9563 06ea 47534D43 		.ascii	"GSMConfigTime\000"
 9563      6F6E6669 
 9563      6754696D 
 9563      6500
 9564              	.LASF1:
 9565 06f8 7369676E 		.ascii	"signed char\000"
 9565      65642063 
 9565      68617200 
 9566              	.LASF94:
 9567 0704 47534D62 		.ascii	"GSMbuffGPRSCommand\000"
 9567      75666647 
 9567      50525343 
 9567      6F6D6D61 
 9567      6E6400
 9568              	.LASF118:
 9569 0717 70726573 		.ascii	"prestadorSimState\000"
 9569      7461646F 
 9569      7253696D 
 9569      53746174 
 9569      6500
 9570              	.LASF3:
 9571 0729 73686F72 		.ascii	"short unsigned int\000"
 9571      7420756E 
 9571      7369676E 
 9571      65642069 
 9571      6E7400
 9572              	.LASF141:
 9573 073c 474E5520 		.ascii	"GNU C11 5.2.1 20151202 (release) [ARM/embedded-5-br"
 9573      43313120 
 9573      352E322E 
 9573      31203230 
 9573      31353132 
 9574 076f 616E6368 		.ascii	"anch revision 231848] -mcpu=cortex-m0 -mthumb -g -g"
 9574      20726576 
 9574      6973696F 
 9574      6E203233 
 9574      31383438 
 9575 07a2 64776172 		.ascii	"dwarf-2 -O0 -fomit-frame-pointer -fdata-sections -f"
 9575      662D3220 
ARM GAS  /tmp/ccKua49E.s 			page 219


 9575      2D4F3020 
 9575      2D666F6D 
 9575      69742D66 
 9576 07d5 66756E63 		.ascii	"function-sections\000"
 9576      74696F6E 
 9576      2D736563 
 9576      74696F6E 
 9576      7300
 9577              	.LASF77:
 9578 07e7 47534D53 		.ascii	"GSMStartTime\000"
 9578      74617274 
 9578      54696D65 
 9578      00
 9579              	.LASF38:
 9580 07f4 70434F4E 		.ascii	"pCONFIGURACIONgprsProveedor1\000"
 9580      46494755 
 9580      52414349 
 9580      4F4E6770 
 9580      72735072 
 9581              	.LASF42:
 9582 0811 70434F4E 		.ascii	"pCONFIGURACIONgprsProveedor2\000"
 9582      46494755 
 9582      52414349 
 9582      4F4E6770 
 9582      72735072 
 9583              	.LASF131:
 9584 082e 53494D39 		.ascii	"SIM900CLAVESIM1\000"
 9584      3030434C 
 9584      41564553 
 9584      494D3100 
 9585              	.LASF102:
 9586 083e 47534D5F 		.ascii	"GSM_OK\000"
 9586      4F4B00
 9587              	.LASF31:
 9588 0845 72657370 		.ascii	"resp\000"
 9588      00
 9589              	.LASF91:
 9590 084a 47534D43 		.ascii	"GSMConfigGPRSState\000"
 9590      6F6E6669 
 9590      67475052 
 9590      53537461 
 9590      746500
 9591              	.LASF59:
 9592 085d 70747249 		.ascii	"ptrIPAdd\000"
 9592      50416464 
 9592      00
 9593              	.LASF44:
 9594 0866 70434F4E 		.ascii	"pCONFIGURACIONPORTREMOTE\000"
 9594      46494755 
 9594      52414349 
 9594      4F4E504F 
 9594      52545245 
 9595              	.LASF129:
 9596 087f 53494D39 		.ascii	"SIM900APNSIM1\000"
 9596      30304150 
 9596      4E53494D 
 9596      3100
ARM GAS  /tmp/ccKua49E.s 			page 220


 9597              	.LASF132:
 9598 088d 53494D39 		.ascii	"SIM900APNSIM2\000"
 9598      30304150 
 9598      4E53494D 
 9598      3200
 9599              	.LASF22:
 9600 089b 4C434B52 		.ascii	"LCKR\000"
 9600      00
 9601              	.LASF88:
 9602 08a0 47534D43 		.ascii	"GSMConfigTimeOut\000"
 9602      6F6E6669 
 9602      6754696D 
 9602      654F7574 
 9602      00
 9603              		.ident	"GCC: (GNU Tools for ARM Embedded Processors) 5.2.1 20151202 (release) [ARM/embedded-5-bran
ARM GAS  /tmp/ccKua49E.s 			page 221


DEFINED SYMBOLS
                            *ABS*:00000000 sim900_800.c
                            *COM*:00000100 buffUARTGSMrx2
                            *COM*:00000001 PacketReadyUARTGSM
     /tmp/ccKua49E.s:60     .bss.GSMStartState:00000000 GSMStartState
     /tmp/ccKua49E.s:61     .bss.GSMStartState:00000000 $d
                            *COM*:00000002 GSMStartTime
                            *COM*:00000002 GSMGeneralTimeOut
     /tmp/ccKua49E.s:68     .bss.GSMSendCommandState:00000000 GSMSendCommandState
     /tmp/ccKua49E.s:69     .bss.GSMSendCommandState:00000000 $d
     /tmp/ccKua49E.s:74     .bss.GSMSendCommandFlag:00000000 GSMSendCommandFlag
     /tmp/ccKua49E.s:75     .bss.GSMSendCommandFlag:00000000 $d
                            *COM*:00000002 GSMSendCommandTimeOut
     /tmp/ccKua49E.s:81     .bss.GSMSendCommandIntento:00000000 GSMSendCommandIntento
     /tmp/ccKua49E.s:82     .bss.GSMSendCommandIntento:00000000 $d
     /tmp/ccKua49E.s:87     .bss.GSMSendSMSState:00000000 GSMSendSMSState
     /tmp/ccKua49E.s:88     .bss.GSMSendSMSState:00000000 $d
     /tmp/ccKua49E.s:93     .bss.GSMSendSMSFlag:00000000 GSMSendSMSFlag
     /tmp/ccKua49E.s:94     .bss.GSMSendSMSFlag:00000000 $d
                            *COM*:00000002 GSMSendSMSTimeOut
                            *COM*:00000020 GSMSendSMSbuffAux
     /tmp/ccKua49E.s:101    .bss.GSMConfigState:00000000 GSMConfigState
     /tmp/ccKua49E.s:102    .bss.GSMConfigState:00000000 $d
                            *COM*:00000002 GSMConfigTimeOut
                            *COM*:00000002 GSMConfigTime
                            *COM*:00000002 GSMConfigGPRSTimeOut
     /tmp/ccKua49E.s:110    .bss.GSMConfigGPRSState:00000000 GSMConfigGPRSState
     /tmp/ccKua49E.s:111    .bss.GSMConfigGPRSState:00000000 $d
     /tmp/ccKua49E.s:116    .bss.GSMConfigGPRSflag:00000000 GSMConfigGPRSflag
     /tmp/ccKua49E.s:117    .bss.GSMConfigGPRSflag:00000000 $d
                            *COM*:00000020 GSMbuffStatus
                            *COM*:00000040 GSMbuffGPRSCommand
                            *COM*:00000010 GSMIPadd
     /tmp/ccKua49E.s:125    .data.GPRSrssi:00000000 GPRSrssi
     /tmp/ccKua49E.s:131    .bss.GSMSendIPState:00000000 GSMSendIPState
     /tmp/ccKua49E.s:132    .bss.GSMSendIPState:00000000 $d
     /tmp/ccKua49E.s:137    .bss.GSMSendIPFlag:00000000 GSMSendIPFlag
     /tmp/ccKua49E.s:138    .bss.GSMSendIPFlag:00000000 $d
                            *COM*:00000002 GSMSendIPTimeOut
                            *COM*:00000020 GSMSendIPbuffAux
                            *COM*:00000100 GSMbuffRtaCommand
     /tmp/ccKua49E.s:147    .rodata.GSM_OK:00000000 GSM_OK
     /tmp/ccKua49E.s:144    .rodata.GSM_OK:00000000 $d
     /tmp/ccKua49E.s:154    .rodata.GSM_ERR:00000000 GSM_ERR
     /tmp/ccKua49E.s:151    .rodata.GSM_ERR:00000000 $d
     /tmp/ccKua49E.s:160    .rodata.GSM_RTA:00000000 GSM_RTA
     /tmp/ccKua49E.s:167    .rodata.GSM_CMGF:00000000 GSM_CMGF
     /tmp/ccKua49E.s:164    .rodata.GSM_CMGF:00000000 $d
     /tmp/ccKua49E.s:174    .rodata.GSM_IPSTATE:00000000 GSM_IPSTATE
     /tmp/ccKua49E.s:171    .rodata.GSM_IPSTATE:00000000 $d
     /tmp/ccKua49E.s:181    .rodata.GSM_IPINITIAL:00000000 GSM_IPINITIAL
     /tmp/ccKua49E.s:178    .rodata.GSM_IPINITIAL:00000000 $d
     /tmp/ccKua49E.s:188    .rodata.GSM_IPSTART:00000000 GSM_IPSTART
     /tmp/ccKua49E.s:185    .rodata.GSM_IPSTART:00000000 $d
     /tmp/ccKua49E.s:195    .rodata.GSM_IPGPRSACT:00000000 GSM_IPGPRSACT
     /tmp/ccKua49E.s:192    .rodata.GSM_IPGPRSACT:00000000 $d
     /tmp/ccKua49E.s:202    .rodata.GSM_IPSTATUS:00000000 GSM_IPSTATUS
ARM GAS  /tmp/ccKua49E.s 			page 222


     /tmp/ccKua49E.s:199    .rodata.GSM_IPSTATUS:00000000 $d
     /tmp/ccKua49E.s:209    .rodata.GSM_IPCONNECTING:00000000 GSM_IPCONNECTING
     /tmp/ccKua49E.s:206    .rodata.GSM_IPCONNECTING:00000000 $d
     /tmp/ccKua49E.s:216    .rodata.GSM_IPCONNOK:00000000 GSM_IPCONNOK
     /tmp/ccKua49E.s:213    .rodata.GSM_IPCONNOK:00000000 $d
     /tmp/ccKua49E.s:223    .rodata.GSM_IPCONNFAIL:00000000 GSM_IPCONNFAIL
     /tmp/ccKua49E.s:220    .rodata.GSM_IPCONNFAIL:00000000 $d
     /tmp/ccKua49E.s:230    .rodata.GSM_IPCONNCLOSE:00000000 GSM_IPCONNCLOSE
     /tmp/ccKua49E.s:227    .rodata.GSM_IPCONNCLOSE:00000000 $d
     /tmp/ccKua49E.s:237    .rodata.GSM_SIM1:00000000 GSM_SIM1
     /tmp/ccKua49E.s:234    .rodata.GSM_SIM1:00000000 $d
     /tmp/ccKua49E.s:244    .rodata.GSM_SIM2:00000000 GSM_SIM2
     /tmp/ccKua49E.s:241    .rodata.GSM_SIM2:00000000 $d
     /tmp/ccKua49E.s:251    .rodata.GSM_SENDOK:00000000 GSM_SENDOK
     /tmp/ccKua49E.s:248    .rodata.GSM_SENDOK:00000000 $d
     /tmp/ccKua49E.s:257    .bss.prestadorSimState:00000000 prestadorSimState
     /tmp/ccKua49E.s:258    .bss.prestadorSimState:00000000 $d
     /tmp/ccKua49E.s:263    .data.prestadorSimTime:00000000 prestadorSimTime
     /tmp/ccKua49E.s:269    .bss.GSMCantSMS:00000000 GSMCantSMS
     /tmp/ccKua49E.s:270    .bss.GSMCantSMS:00000000 $d
     /tmp/ccKua49E.s:275    .bss.GSMCantSMS2:00000000 GSMCantSMS2
     /tmp/ccKua49E.s:276    .bss.GSMCantSMS2:00000000 $d
     /tmp/ccKua49E.s:281    .data.GSMnumSMS:00000000 GSMnumSMS
     /tmp/ccKua49E.s:287    .bss.GSMReadSMSState:00000000 GSMReadSMSState
     /tmp/ccKua49E.s:288    .bss.GSMReadSMSState:00000000 $d
                            *COM*:00000020 GSMReadSMScommand
                            *COM*:00000020 GSMReadSMSrepIn
     /tmp/ccKua49E.s:295    .bss.GSMrxSMSState:00000000 GSMrxSMSState
     /tmp/ccKua49E.s:296    .bss.GSMrxSMSState:00000000 $d
     /tmp/ccKua49E.s:301    .bss.prestadorSimSelect:00000000 prestadorSimSelect
     /tmp/ccKua49E.s:302    .bss.prestadorSimSelect:00000000 $d
     /tmp/ccKua49E.s:307    .bss.flagCloseIP:00000000 flagCloseIP
     /tmp/ccKua49E.s:308    .bss.flagCloseIP:00000000 $d
     /tmp/ccKua49E.s:310    .text.GSMProcess:00000000 $t
     /tmp/ccKua49E.s:315    .text.GSMProcess:00000000 GSMProcess
     /tmp/ccKua49E.s:368    .text.GSMProcess:00000044 $d
     /tmp/ccKua49E.s:378    .text.GSM_Start:00000000 $t
     /tmp/ccKua49E.s:383    .text.GSM_Start:00000000 GSM_Start
     /tmp/ccKua49E.s:557    .text.GSM_Start:000000f4 $d
     /tmp/ccKua49E.s:563    .text.GSM_Start_Stop_ResetSM:00000000 $t
     /tmp/ccKua49E.s:568    .text.GSM_Start_Stop_ResetSM:00000000 GSM_Start_Stop_ResetSM
     /tmp/ccKua49E.s:583    .text.GSM_Start_Stop_ResetSM:0000000c $d
     /tmp/ccKua49E.s:588    .text.GSM_Stop:00000000 $t
     /tmp/ccKua49E.s:593    .text.GSM_Stop:00000000 GSM_Stop
     /tmp/ccKua49E.s:719    .text.GSM_Stop:000000b0 $d
     /tmp/ccKua49E.s:726    .text.GSM_Delay:00000000 $t
     /tmp/ccKua49E.s:731    .text.GSM_Delay:00000000 GSM_Delay
     /tmp/ccKua49E.s:812    .text.GSM_Delay:00000068 $d
     /tmp/ccKua49E.s:818    .rodata:00000000 $d
     /tmp/ccKua49E.s:825    .text.GSMPrestador:00000000 $t
     /tmp/ccKua49E.s:830    .text.GSMPrestador:00000000 GSMPrestador
     /tmp/ccKua49E.s:4411   .text.GSM_SetSIM:00000000 GSM_SetSIM
     /tmp/ccKua49E.s:1996   .text.GSMSendCommand:00000000 GSMSendCommand
     /tmp/ccKua49E.s:1381   .text.GSMPrestador:00000378 $d
     /tmp/ccKua49E.s:1398   .text.GSMPrestador:000003b4 $t
     /tmp/ccKua49E.s:1420   .text.GSMPrestador:000003c8 $d
     /tmp/ccKua49E.s:1429   .text.GSMCloseIP:00000000 $t
ARM GAS  /tmp/ccKua49E.s 			page 223


     /tmp/ccKua49E.s:1434   .text.GSMCloseIP:00000000 GSMCloseIP
     /tmp/ccKua49E.s:1513   .text.GSMCloseIP:00000064 $d
     /tmp/ccKua49E.s:1557   .text.GSMReceive:00000000 $t
     /tmp/ccKua49E.s:1562   .text.GSMReceive:00000000 GSMReceive
     /tmp/ccKua49E.s:1962   .text.GSMReceive:00000298 $d
     /tmp/ccKua49E.s:1991   .text.GSMSendCommand:00000000 $t
     /tmp/ccKua49E.s:2218   .text.GSMSendCommand:0000013c $d
     /tmp/ccKua49E.s:2246   .text.GSM_Config:00000000 $t
     /tmp/ccKua49E.s:2251   .text.GSM_Config:00000000 GSM_Config
     /tmp/ccKua49E.s:2280   .rodata.GSM_Config:00000000 $d
     /tmp/ccKua49E.s:2784   .text.GSM_Config:000002c8 $d
     /tmp/ccKua49E.s:2809   .text.GSMSendSMS:00000000 $t
     /tmp/ccKua49E.s:2814   .text.GSMSendSMS:00000000 GSMSendSMS
     /tmp/ccKua49E.s:3030   .text.GSMSendSMS:00000150 $d
     /tmp/ccKua49E.s:3103   .text.GSMConfigGPRS:00000000 $t
     /tmp/ccKua49E.s:3108   .text.GSMConfigGPRS:00000000 GSMConfigGPRS
     /tmp/ccKua49E.s:3140   .rodata.GSMConfigGPRS:00000000 $d
     /tmp/ccKua49E.s:3667   .text.GSMConfigGPRS:00000398 $d
     /tmp/ccKua49E.s:3695   .text.GSMConfigGPRS:00000400 $t
     /tmp/ccKua49E.s:4191   .text.GSMConfigGPRS:00000744 $d
     /tmp/ccKua49E.s:4209   .text.GSMConfigGPRS:00000784 $t
     /tmp/ccKua49E.s:4391   .text.GSMConfigGPRS:00000870 $d
     /tmp/ccKua49E.s:4406   .text.GSM_SetSIM:00000000 $t
     /tmp/ccKua49E.s:4500   .text.GSM_SetSIM:00000078 $d
     /tmp/ccKua49E.s:4511   .text.GSMSendIP:00000000 $t
     /tmp/ccKua49E.s:4516   .text.GSMSendIP:00000000 GSMSendIP
     /tmp/ccKua49E.s:4701   .text.GSMSendIP:00000110 $d
     /tmp/ccKua49E.s:4712   .text.GSMTimeoutCounters:00000000 $t
     /tmp/ccKua49E.s:4717   .text.GSMTimeoutCounters:00000000 GSMTimeoutCounters
     /tmp/ccKua49E.s:4859   .text.GSMTimeoutCounters:000000d4 $d
     /tmp/ccKua49E.s:4888   .text.GSMrxSMS:00000000 $t
     /tmp/ccKua49E.s:4893   .text.GSMrxSMS:00000000 GSMrxSMS
     /tmp/ccKua49E.s:5425   .text.GSMrxSMS:00000350 $d
     /tmp/ccKua49E.s:5443   .text.GSMrxSMS:00000390 $t
     /tmp/ccKua49E.s:5821   .text.GSMrxSMS:000005f4 $d
     /tmp/ccKua49E.s:5840   .text.GSMConfigPDPGPRS:00000000 $t
     /tmp/ccKua49E.s:5845   .text.GSMConfigPDPGPRS:00000000 GSMConfigPDPGPRS
     /tmp/ccKua49E.s:5877   .rodata.GSMConfigPDPGPRS:00000000 $d
     /tmp/ccKua49E.s:6379   .text.GSMConfigPDPGPRS:0000032c $d
     /tmp/ccKua49E.s:6405   .text.GSMConfigPDPGPRS:0000038c $t
     /tmp/ccKua49E.s:6916   .text.GSMConfigPDPGPRS:000006b0 $d
                     .debug_frame:00000010 $d

UNDEFINED SYMBOLS
ReadUsart1Buffer
usart1_have_data
usart1_mini_timeout
usart1_pckt_ready
usart1_pckt_bytes
strncmp
strcpy
SIM900APNSIM1
SIM900USUARIOSIM1
SIM900CLAVESIM1
SIM900IPREMOTE
SIM900PORTREMOTE
SIM900APNSIM2
ARM GAS  /tmp/ccKua49E.s 			page 224


SIM900USUARIOSIM2
SIM900CLAVESIM2
ESPPreParser2
Usart2Send
strncpy
FuncsGSMMessageFlags
Usart1Send
memcpy
strcat
strlen
sprintf
