ARM GAS  /tmp/ccW9riok.s 			page 1


   1              		.syntax unified
   2              		.cpu cortex-m0
   3              		.fpu softvfp
   4              		.eabi_attribute 20, 1	@ Tag_ABI_FP_denormal
   5              		.eabi_attribute 21, 1	@ Tag_ABI_FP_exceptions
   6              		.eabi_attribute 23, 3	@ Tag_ABI_FP_number_model
   7              		.eabi_attribute 24, 1	@ Tag_ABI_align8_needed
   8              		.eabi_attribute 25, 1	@ Tag_ABI_align8_preserved
   9              		.eabi_attribute 26, 1	@ Tag_ABI_enum_size
  10              		.eabi_attribute 30, 6	@ Tag_ABI_optimization_goals
  11              		.eabi_attribute 34, 0	@ Tag_CPU_unaligned_access
  12              		.eabi_attribute 18, 4	@ Tag_ABI_PCS_wchar_t
  13              		.file	"stm32f0x_gpio.c"
  14              	@ GNU C11 (GNU Tools for ARM Embedded Processors) version 5.2.1 20151202 (release) [ARM/embedded-5-
  15              	@	compiled by GNU C version 4.7.4, GMP version 4.3.2, MPFR version 2.4.2, MPC version 0.8.1
  16              	@ GGC heuristics: --param ggc-min-expand=100 --param ggc-min-heapsize=131072
  17              	@ options passed:  -I . -I ./src -I ./cmsis_boot -I ./cmsis_core
  18              	@ -I ../STM32F0xx_StdPeriph_Lib_V1.3.1/Libraries/STM32F0xx_StdPeriph_Driver/inc
  19              	@ -I ./inc -I ./cmsis_boot -imultilib armv6-m
  20              	@ -iprefix /usr/local/sbin/gcc-arm-none-eabi-5_2-2015q4/bin/../lib/gcc/arm-none-eabi/5.2.1/
  21              	@ -isysroot /usr/local/sbin/gcc-arm-none-eabi-5_2-2015q4/bin/../arm-none-eabi
  22              	@ -D__USES_INITFINI__ src/stm32f0x_gpio.c -mcpu=cortex-m0 -mthumb
  23              	@ -auxbase-strip src/stm32f0x_gpio.o -g -gdwarf-2 -O0 -Wall
  24              	@ -fomit-frame-pointer -fdata-sections -ffunction-sections -fverbose-asm
  25              	@ options enabled:  -faggressive-loop-optimizations -fauto-inc-dec
  26              	@ -fchkp-check-incomplete-type -fchkp-check-read -fchkp-check-write
  27              	@ -fchkp-instrument-calls -fchkp-narrow-bounds -fchkp-optimize
  28              	@ -fchkp-store-bounds -fchkp-use-static-bounds
  29              	@ -fchkp-use-static-const-bounds -fchkp-use-wrappers -fcommon
  30              	@ -fdata-sections -fdelete-null-pointer-checks -fdwarf2-cfi-asm
  31              	@ -fearly-inlining -feliminate-unused-debug-types -ffunction-cse
  32              	@ -ffunction-sections -fgcse-lm -fgnu-runtime -fgnu-unique -fident
  33              	@ -finline-atomics -fira-hoist-pressure -fira-share-save-slots
  34              	@ -fira-share-spill-slots -fivopts -fkeep-static-consts
  35              	@ -fleading-underscore -flifetime-dse -flto-odr-type-merging -fmath-errno
  36              	@ -fmerge-debug-strings -fomit-frame-pointer -fpeephole
  37              	@ -fprefetch-loop-arrays -freg-struct-return
  38              	@ -fsched-critical-path-heuristic -fsched-dep-count-heuristic
  39              	@ -fsched-group-heuristic -fsched-interblock -fsched-last-insn-heuristic
  40              	@ -fsched-rank-heuristic -fsched-spec -fsched-spec-insn-heuristic
  41              	@ -fsched-stalled-insns-dep -fsemantic-interposition -fshow-column
  42              	@ -fsigned-zeros -fsplit-ivs-in-unroller -fstdarg-opt
  43              	@ -fstrict-volatile-bitfields -fsync-libcalls -ftrapping-math
  44              	@ -ftree-coalesce-vars -ftree-cselim -ftree-forwprop -ftree-loop-if-convert
  45              	@ -ftree-loop-im -ftree-loop-ivcanon -ftree-loop-optimize
  46              	@ -ftree-parallelize-loops= -ftree-phiprop -ftree-reassoc -ftree-scev-cprop
  47              	@ -funit-at-a-time -fverbose-asm -fzero-initialized-in-bss -mlittle-endian
  48              	@ -mpic-data-is-text-relative -msched-prolog -mthumb
  49              	@ -mvectorize-with-neon-quad
  50              	
  51              		.text
  52              	.Ltext0:
  53              		.cfi_sections	.debug_frame
  54              		.section	.text.GPIO_Config,"ax",%progbits
  55              		.align	2
  56              		.global	GPIO_Config
  57              		.code	16
ARM GAS  /tmp/ccW9riok.s 			page 2


  58              		.thumb_func
  59              		.type	GPIO_Config, %function
  60              	GPIO_Config:
  61              	.LFB20:
  62              		.file 1 "src/stm32f0x_gpio.c"
   1:src/stm32f0x_gpio.c **** /**
   2:src/stm32f0x_gpio.c ****   ******************************************************************************
   3:src/stm32f0x_gpio.c ****   * @file    Template_2/stm32f0_gpio.c
   4:src/stm32f0x_gpio.c ****   * @author  Nahuel
   5:src/stm32f0x_gpio.c ****   * @version V1.0
   6:src/stm32f0x_gpio.c ****   * @date    22-August-2014
   7:src/stm32f0x_gpio.c ****   * @brief   GPIO functions.
   8:src/stm32f0x_gpio.c ****   ******************************************************************************
   9:src/stm32f0x_gpio.c ****   * @attention
  10:src/stm32f0x_gpio.c ****   *
  11:src/stm32f0x_gpio.c ****   * Use this functions to configure global inputs/outputs.
  12:src/stm32f0x_gpio.c ****   *
  13:src/stm32f0x_gpio.c ****   ******************************************************************************
  14:src/stm32f0x_gpio.c ****   */
  15:src/stm32f0x_gpio.c **** 
  16:src/stm32f0x_gpio.c **** /* Includes ------------------------------------------------------------------*/
  17:src/stm32f0x_gpio.c **** #include "stm32f0xx.h"
  18:src/stm32f0x_gpio.c **** #include "stm32f0x_gpio.h"
  19:src/stm32f0x_gpio.c **** #include "hard.h"
  20:src/stm32f0x_gpio.c **** 
  21:src/stm32f0x_gpio.c **** 
  22:src/stm32f0x_gpio.c **** 
  23:src/stm32f0x_gpio.c **** //--- Private typedef ---//
  24:src/stm32f0x_gpio.c **** //--- Private define ---//
  25:src/stm32f0x_gpio.c **** //--- Private macro ---//
  26:src/stm32f0x_gpio.c **** //--- Private variables ---//
  27:src/stm32f0x_gpio.c **** //--- Private function prototypes ---//
  28:src/stm32f0x_gpio.c **** //--- Private functions ---//
  29:src/stm32f0x_gpio.c **** 
  30:src/stm32f0x_gpio.c **** //-------------------------------------------//
  31:src/stm32f0x_gpio.c **** // @brief  GPIO configure.
  32:src/stm32f0x_gpio.c **** // @param  None
  33:src/stm32f0x_gpio.c **** // @retval None
  34:src/stm32f0x_gpio.c **** //------------------------------------------//
  35:src/stm32f0x_gpio.c **** void GPIO_Config (void)
  36:src/stm32f0x_gpio.c **** {
  63              		.loc 1 36 0
  64              		.cfi_startproc
  65 0000 82B0     		sub	sp, sp, #8	@,,
  66              	.LCFI0:
  67              		.cfi_def_cfa_offset 8
  37:src/stm32f0x_gpio.c **** 	unsigned long temp;
  38:src/stm32f0x_gpio.c **** 
  39:src/stm32f0x_gpio.c **** 	//--- MODER ---//
  40:src/stm32f0x_gpio.c **** 	//00: Input mode (reset state)
  41:src/stm32f0x_gpio.c **** 	//01: General purpose output mode
  42:src/stm32f0x_gpio.c **** 	//10: Alternate function mode
  43:src/stm32f0x_gpio.c **** 	//11: Analog mode
  44:src/stm32f0x_gpio.c **** 
  45:src/stm32f0x_gpio.c **** 	//--- OTYPER ---//
  46:src/stm32f0x_gpio.c **** 	//These bits are written by software to configure the I/O output type.
  47:src/stm32f0x_gpio.c **** 	//0: Output push-pull (reset state)
ARM GAS  /tmp/ccW9riok.s 			page 3


  48:src/stm32f0x_gpio.c **** 	//1: Output open-drain
  49:src/stm32f0x_gpio.c **** 
  50:src/stm32f0x_gpio.c **** 	//--- ORSPEEDR ---//
  51:src/stm32f0x_gpio.c **** 	//These bits are written by software to configure the I/O output speed.
  52:src/stm32f0x_gpio.c **** 	//x0: Low speed.
  53:src/stm32f0x_gpio.c **** 	//01: Medium speed.
  54:src/stm32f0x_gpio.c **** 	//11: High speed.
  55:src/stm32f0x_gpio.c **** 	//Note: Refer to the device datasheet for the frequency.
  56:src/stm32f0x_gpio.c **** 
  57:src/stm32f0x_gpio.c **** 	//--- PUPDR ---//
  58:src/stm32f0x_gpio.c **** 	//These bits are written by software to configure the I/O pull-up or pull-down
  59:src/stm32f0x_gpio.c **** 	//00: No pull-up, pull-down
  60:src/stm32f0x_gpio.c **** 	//01: Pull-up
  61:src/stm32f0x_gpio.c **** 	//10: Pull-down
  62:src/stm32f0x_gpio.c **** 	//11: Reserved
  63:src/stm32f0x_gpio.c **** 
  64:src/stm32f0x_gpio.c **** #ifdef VER_1_0
  65:src/stm32f0x_gpio.c **** 	//--- GPIO A ---//
  66:src/stm32f0x_gpio.c **** 	if (!GPIOA_CLK)
  68              		.loc 1 66 0
  69 0002 404B     		ldr	r3, .L4	@ D.4775,
  70 0004 5A69     		ldr	r2, [r3, #20]	@ D.4776, _3->AHBENR
  71 0006 8023     		movs	r3, #128	@ tmp211,
  72 0008 9B02     		lsls	r3, r3, #10	@ tmp144, tmp211,
  73 000a 1340     		ands	r3, r2	@ D.4776, D.4776
  74 000c 06D1     		bne	.L2	@,
  67:src/stm32f0x_gpio.c **** 		GPIOA_CLK_ON;
  75              		.loc 1 67 0
  76 000e 3D4B     		ldr	r3, .L4	@ D.4775,
  77 0010 3C4A     		ldr	r2, .L4	@ D.4775,
  78 0012 5269     		ldr	r2, [r2, #20]	@ D.4776, _8->AHBENR
  79 0014 8021     		movs	r1, #128	@ tmp210,
  80 0016 8902     		lsls	r1, r1, #10	@ tmp145, tmp210,
  81 0018 0A43     		orrs	r2, r1	@ D.4776, tmp145
  82 001a 5A61     		str	r2, [r3, #20]	@ D.4776, _7->AHBENR
  83              	.L2:
  68:src/stm32f0x_gpio.c **** 
  69:src/stm32f0x_gpio.c **** 	temp = GPIOA->MODER;	//2 bits por pin
  84              		.loc 1 69 0
  85 001c 9023     		movs	r3, #144	@ tmp201,
  86 001e DB05     		lsls	r3, r3, #23	@ D.4777, tmp201,
  87 0020 1B68     		ldr	r3, [r3]	@ tmp146, _12->MODER
  88 0022 0193     		str	r3, [sp, #4]	@ tmp146, temp
  70:src/stm32f0x_gpio.c **** 	temp &= 0x3C030000;		//PA0 - PA1 analog input; PA2 - PA3 alternate function; PA4 - PA5 input; PA6 
  89              		.loc 1 70 0
  90 0024 019B     		ldr	r3, [sp, #4]	@ tmp148, temp
  91 0026 384A     		ldr	r2, .L4+4	@ tmp149,
  92 0028 1340     		ands	r3, r2	@ tmp147, tmp149
  93 002a 0193     		str	r3, [sp, #4]	@ tmp147, temp
  71:src/stm32f0x_gpio.c **** //	temp |= 0x416860AF;		//PA9 PA10 alternative; PA11 PA12 PA15 out open drain
  72:src/stm32f0x_gpio.c **** //	temp |= 0x4168606F;		//pruebo pin3
  73:src/stm32f0x_gpio.c **** 	temp |= 0x416860A3;		//PA1 input para pruebas
  94              		.loc 1 73 0
  95 002c 019B     		ldr	r3, [sp, #4]	@ tmp151, temp
  96 002e 374A     		ldr	r2, .L4+8	@ tmp152,
  97 0030 1343     		orrs	r3, r2	@ tmp150, tmp152
  98 0032 0193     		str	r3, [sp, #4]	@ tmp150, temp
ARM GAS  /tmp/ccW9riok.s 			page 4


  74:src/stm32f0x_gpio.c **** 	GPIOA->MODER = temp;
  99              		.loc 1 74 0
 100 0034 9023     		movs	r3, #144	@ tmp202,
 101 0036 DB05     		lsls	r3, r3, #23	@ D.4777, tmp202,
 102 0038 019A     		ldr	r2, [sp, #4]	@ tmp153, temp
 103 003a 1A60     		str	r2, [r3]	@ tmp153, _16->MODER
  75:src/stm32f0x_gpio.c **** 
  76:src/stm32f0x_gpio.c **** 	temp = GPIOA->OTYPER;	//1 bit por pin
 104              		.loc 1 76 0
 105 003c 9023     		movs	r3, #144	@ tmp203,
 106 003e DB05     		lsls	r3, r3, #23	@ D.4777, tmp203,
 107 0040 9B88     		ldrh	r3, [r3, #4]	@ tmp155,
 108 0042 9BB2     		uxth	r3, r3	@ D.4778, tmp155
 109 0044 0193     		str	r3, [sp, #4]	@ D.4778, temp
  77:src/stm32f0x_gpio.c **** 	temp &= 0xFFFF7F7F;
 110              		.loc 1 77 0
 111 0046 019B     		ldr	r3, [sp, #4]	@ tmp157, temp
 112 0048 314A     		ldr	r2, .L4+12	@ tmp158,
 113 004a 1340     		ands	r3, r2	@ tmp156, tmp158
 114 004c 0193     		str	r3, [sp, #4]	@ tmp156, temp
  78:src/stm32f0x_gpio.c **** //	temp |= 0x00000080;		//PA7 open drain
  79:src/stm32f0x_gpio.c **** 	temp |= 0x00008080;		//PA15 y PA7 open drain
 115              		.loc 1 79 0
 116 004e 019B     		ldr	r3, [sp, #4]	@ tmp160, temp
 117 0050 304A     		ldr	r2, .L4+16	@ tmp161,
 118 0052 1343     		orrs	r3, r2	@ tmp159, tmp161
 119 0054 0193     		str	r3, [sp, #4]	@ tmp159, temp
  80:src/stm32f0x_gpio.c **** 	GPIOA->OTYPER = temp;
 120              		.loc 1 80 0
 121 0056 9023     		movs	r3, #144	@ tmp204,
 122 0058 DB05     		lsls	r3, r3, #23	@ D.4777, tmp204,
 123 005a 019A     		ldr	r2, [sp, #4]	@ tmp163, temp
 124 005c 92B2     		uxth	r2, r2	@ D.4778, tmp162
 125 005e 9A80     		strh	r2, [r3, #4]	@ tmp164, _23->OTYPER
  81:src/stm32f0x_gpio.c **** 
  82:src/stm32f0x_gpio.c **** 	temp = GPIOA->OSPEEDR;	//2 bits por pin
 126              		.loc 1 82 0
 127 0060 9023     		movs	r3, #144	@ tmp205,
 128 0062 DB05     		lsls	r3, r3, #23	@ D.4777, tmp205,
 129 0064 9B68     		ldr	r3, [r3, #8]	@ tmp165, _26->OSPEEDR
 130 0066 0193     		str	r3, [sp, #4]	@ tmp165, temp
  83:src/stm32f0x_gpio.c **** 	temp &= 0x3C030F0F;
 131              		.loc 1 83 0
 132 0068 019B     		ldr	r3, [sp, #4]	@ tmp167, temp
 133 006a 2B4A     		ldr	r2, .L4+20	@ tmp168,
 134 006c 1340     		ands	r3, r2	@ tmp166, tmp168
 135 006e 0193     		str	r3, [sp, #4]	@ tmp166, temp
  84:src/stm32f0x_gpio.c **** 	temp |= 0x00000000;		//low speed
  85:src/stm32f0x_gpio.c **** 	GPIOA->OSPEEDR = temp;
 136              		.loc 1 85 0
 137 0070 9023     		movs	r3, #144	@ tmp206,
 138 0072 DB05     		lsls	r3, r3, #23	@ D.4777, tmp206,
 139 0074 019A     		ldr	r2, [sp, #4]	@ tmp169, temp
 140 0076 9A60     		str	r2, [r3, #8]	@ tmp169, _30->OSPEEDR
  86:src/stm32f0x_gpio.c **** 
  87:src/stm32f0x_gpio.c **** 	temp = GPIOA->PUPDR;	//2 bits por pin
 141              		.loc 1 87 0
ARM GAS  /tmp/ccW9riok.s 			page 5


 142 0078 9023     		movs	r3, #144	@ tmp207,
 143 007a DB05     		lsls	r3, r3, #23	@ D.4777, tmp207,
 144 007c DB68     		ldr	r3, [r3, #12]	@ tmp170, _32->PUPDR
 145 007e 0193     		str	r3, [sp, #4]	@ tmp170, temp
  88:src/stm32f0x_gpio.c **** 	temp &= 0xFFFFFFF3;
 146              		.loc 1 88 0
 147 0080 019B     		ldr	r3, [sp, #4]	@ tmp172, temp
 148 0082 0C22     		movs	r2, #12	@ tmp173,
 149 0084 9343     		bics	r3, r2	@ tmp171, tmp173
 150 0086 0193     		str	r3, [sp, #4]	@ tmp171, temp
  89:src/stm32f0x_gpio.c **** 	temp |= 0x00000008;		//pull down pin1 para pruebas
 151              		.loc 1 89 0
 152 0088 019B     		ldr	r3, [sp, #4]	@ tmp175, temp
 153 008a 0822     		movs	r2, #8	@ tmp176,
 154 008c 1343     		orrs	r3, r2	@ tmp174, tmp176
 155 008e 0193     		str	r3, [sp, #4]	@ tmp174, temp
  90:src/stm32f0x_gpio.c **** 	GPIOA->PUPDR = temp;
 156              		.loc 1 90 0
 157 0090 9023     		movs	r3, #144	@ tmp208,
 158 0092 DB05     		lsls	r3, r3, #23	@ D.4777, tmp208,
 159 0094 019A     		ldr	r2, [sp, #4]	@ tmp177, temp
 160 0096 DA60     		str	r2, [r3, #12]	@ tmp177, _36->PUPDR
  91:src/stm32f0x_gpio.c **** 
  92:src/stm32f0x_gpio.c **** 
  93:src/stm32f0x_gpio.c **** 
  94:src/stm32f0x_gpio.c **** 	//Alternate Fuction
  95:src/stm32f0x_gpio.c **** 	//GPIOA->AFR[0] = 0x11000000;	//PA7 -> AF1; PA6 -> AF1
  96:src/stm32f0x_gpio.c **** 
  97:src/stm32f0x_gpio.c **** 	//--- GPIO B ---//
  98:src/stm32f0x_gpio.c **** 	if (!GPIOB_CLK)
 161              		.loc 1 98 0
 162 0098 1A4B     		ldr	r3, .L4	@ D.4775,
 163 009a 5A69     		ldr	r2, [r3, #20]	@ D.4776, _38->AHBENR
 164 009c 8023     		movs	r3, #128	@ tmp209,
 165 009e DB02     		lsls	r3, r3, #11	@ tmp178, tmp209,
 166 00a0 1340     		ands	r3, r2	@ D.4776, D.4776
 167 00a2 06D1     		bne	.L3	@,
  99:src/stm32f0x_gpio.c **** 		GPIOB_CLK_ON;
 168              		.loc 1 99 0
 169 00a4 174B     		ldr	r3, .L4	@ D.4775,
 170 00a6 174A     		ldr	r2, .L4	@ D.4775,
 171 00a8 5269     		ldr	r2, [r2, #20]	@ D.4776, _42->AHBENR
 172 00aa 8021     		movs	r1, #128	@ tmp200,
 173 00ac C902     		lsls	r1, r1, #11	@ tmp179, tmp200,
 174 00ae 0A43     		orrs	r2, r1	@ D.4776, tmp179
 175 00b0 5A61     		str	r2, [r3, #20]	@ D.4776, _41->AHBENR
 176              	.L3:
 100:src/stm32f0x_gpio.c **** 
 101:src/stm32f0x_gpio.c **** 	temp = GPIOB->MODER;	//2 bits por pin
 177              		.loc 1 101 0
 178 00b2 1A4B     		ldr	r3, .L4+24	@ D.4777,
 179 00b4 1B68     		ldr	r3, [r3]	@ tmp180, _46->MODER
 180 00b6 0193     		str	r3, [sp, #4]	@ tmp180, temp
 102:src/stm32f0x_gpio.c **** 	temp &= 0xFFFF0F3C;		//PB0 analog input; PB3 input PB6 PB7 alternative
 181              		.loc 1 102 0
 182 00b8 019B     		ldr	r3, [sp, #4]	@ tmp182, temp
 183 00ba 194A     		ldr	r2, .L4+28	@ tmp183,
ARM GAS  /tmp/ccW9riok.s 			page 6


 184 00bc 1340     		ands	r3, r2	@ tmp181, tmp183
 185 00be 0193     		str	r3, [sp, #4]	@ tmp181, temp
 103:src/stm32f0x_gpio.c **** 	temp |= 0x0000A003;
 186              		.loc 1 103 0
 187 00c0 019B     		ldr	r3, [sp, #4]	@ tmp185, temp
 188 00c2 184A     		ldr	r2, .L4+32	@ tmp186,
 189 00c4 1343     		orrs	r3, r2	@ tmp184, tmp186
 190 00c6 0193     		str	r3, [sp, #4]	@ tmp184, temp
 104:src/stm32f0x_gpio.c **** 	GPIOB->MODER = temp;
 191              		.loc 1 104 0
 192 00c8 144B     		ldr	r3, .L4+24	@ D.4777,
 193 00ca 019A     		ldr	r2, [sp, #4]	@ tmp187, temp
 194 00cc 1A60     		str	r2, [r3]	@ tmp187, _50->MODER
 105:src/stm32f0x_gpio.c **** 
 106:src/stm32f0x_gpio.c **** 	temp = GPIOB->OTYPER;	//1 bit por pin
 195              		.loc 1 106 0
 196 00ce 134B     		ldr	r3, .L4+24	@ D.4777,
 197 00d0 9B88     		ldrh	r3, [r3, #4]	@ tmp189,
 198 00d2 9BB2     		uxth	r3, r3	@ D.4778, tmp189
 199 00d4 0193     		str	r3, [sp, #4]	@ D.4778, temp
 107:src/stm32f0x_gpio.c **** 	temp &= 0xFFFFFFFF;
 108:src/stm32f0x_gpio.c **** 	temp |= 0x00000000;
 109:src/stm32f0x_gpio.c **** 	GPIOB->OTYPER = temp;
 200              		.loc 1 109 0
 201 00d6 114B     		ldr	r3, .L4+24	@ D.4777,
 202 00d8 019A     		ldr	r2, [sp, #4]	@ tmp191, temp
 203 00da 92B2     		uxth	r2, r2	@ D.4778, tmp190
 204 00dc 9A80     		strh	r2, [r3, #4]	@ tmp192, _57->OTYPER
 110:src/stm32f0x_gpio.c **** 
 111:src/stm32f0x_gpio.c **** 	temp = GPIOB->OSPEEDR;	//2 bits por pin
 205              		.loc 1 111 0
 206 00de 0F4B     		ldr	r3, .L4+24	@ D.4777,
 207 00e0 9B68     		ldr	r3, [r3, #8]	@ tmp193, _60->OSPEEDR
 208 00e2 0193     		str	r3, [sp, #4]	@ tmp193, temp
 112:src/stm32f0x_gpio.c **** 	temp &= 0xFFFF0FFF;
 209              		.loc 1 112 0
 210 00e4 019B     		ldr	r3, [sp, #4]	@ tmp195, temp
 211 00e6 104A     		ldr	r2, .L4+36	@ tmp196,
 212 00e8 1340     		ands	r3, r2	@ tmp194, tmp196
 213 00ea 0193     		str	r3, [sp, #4]	@ tmp194, temp
 113:src/stm32f0x_gpio.c **** 	temp |= 0x00000000;		//low speed
 114:src/stm32f0x_gpio.c **** 	GPIOB->OSPEEDR = temp;
 214              		.loc 1 114 0
 215 00ec 0B4B     		ldr	r3, .L4+24	@ D.4777,
 216 00ee 019A     		ldr	r2, [sp, #4]	@ tmp197, temp
 217 00f0 9A60     		str	r2, [r3, #8]	@ tmp197, _64->OSPEEDR
 115:src/stm32f0x_gpio.c **** 
 116:src/stm32f0x_gpio.c **** 	temp = GPIOB->PUPDR;	//2 bits por pin
 218              		.loc 1 116 0
 219 00f2 0A4B     		ldr	r3, .L4+24	@ D.4777,
 220 00f4 DB68     		ldr	r3, [r3, #12]	@ tmp198, _66->PUPDR
 221 00f6 0193     		str	r3, [sp, #4]	@ tmp198, temp
 117:src/stm32f0x_gpio.c **** 	temp &= 0xFFFFFFFF;
 118:src/stm32f0x_gpio.c **** 	temp |= 0x00000000;
 119:src/stm32f0x_gpio.c **** 	GPIOB->PUPDR = temp;
 222              		.loc 1 119 0
 223 00f8 084B     		ldr	r3, .L4+24	@ D.4777,
ARM GAS  /tmp/ccW9riok.s 			page 7


 224 00fa 019A     		ldr	r2, [sp, #4]	@ tmp199, temp
 225 00fc DA60     		str	r2, [r3, #12]	@ tmp199, _70->PUPDR
 120:src/stm32f0x_gpio.c **** 
 121:src/stm32f0x_gpio.c **** 	//Alternate Fuction
 122:src/stm32f0x_gpio.c **** 	//GPIOB->AFR[0] = 0x11000000;	//PA7 -> AF1; PA6 -> AF1
 123:src/stm32f0x_gpio.c **** #endif
 124:src/stm32f0x_gpio.c **** 
 125:src/stm32f0x_gpio.c **** #ifdef GPIOF_ENABLE
 126:src/stm32f0x_gpio.c **** 
 127:src/stm32f0x_gpio.c **** 	//--- GPIO F ---//
 128:src/stm32f0x_gpio.c **** 	if (!GPIOF_CLK)
 129:src/stm32f0x_gpio.c **** 		GPIOF_CLK_ON;
 130:src/stm32f0x_gpio.c **** 
 131:src/stm32f0x_gpio.c **** 	temp = GPIOF->MODER;
 132:src/stm32f0x_gpio.c **** 	temp &= 0xFFFFFFFF;
 133:src/stm32f0x_gpio.c **** 	temp |= 0x00000000;
 134:src/stm32f0x_gpio.c **** 	GPIOF->MODER = temp;
 135:src/stm32f0x_gpio.c **** 
 136:src/stm32f0x_gpio.c **** 	temp = GPIOF->OTYPER;
 137:src/stm32f0x_gpio.c **** 	temp &= 0xFFFFFFFF;
 138:src/stm32f0x_gpio.c **** 	temp |= 0x00000000;
 139:src/stm32f0x_gpio.c **** 	GPIOF->OTYPER = temp;
 140:src/stm32f0x_gpio.c **** 
 141:src/stm32f0x_gpio.c **** 	temp = GPIOF->OSPEEDR;
 142:src/stm32f0x_gpio.c **** 	temp &= 0xFFFFFFFF;
 143:src/stm32f0x_gpio.c **** 	temp |= 0x00000000;
 144:src/stm32f0x_gpio.c **** 	GPIOF->OSPEEDR = temp;
 145:src/stm32f0x_gpio.c **** 
 146:src/stm32f0x_gpio.c **** 	temp = GPIOF->PUPDR;
 147:src/stm32f0x_gpio.c **** 	temp &= 0xFFFFFFFF;
 148:src/stm32f0x_gpio.c **** 	temp |= 0x00000000;
 149:src/stm32f0x_gpio.c **** 	GPIOF->PUPDR = temp;
 150:src/stm32f0x_gpio.c **** 
 151:src/stm32f0x_gpio.c **** #endif
 152:src/stm32f0x_gpio.c **** 
 153:src/stm32f0x_gpio.c **** 
 154:src/stm32f0x_gpio.c **** //	//Interrupt en PB8
 155:src/stm32f0x_gpio.c **** //	if (!SYSCFG_CLK)
 156:src/stm32f0x_gpio.c **** //		SYSCFG_CLK_ON;
 157:src/stm32f0x_gpio.c **** //
 158:src/stm32f0x_gpio.c **** //	SYSCFG->EXTICR[2] = 0x00000001; //Select Port B & Pin 8 external interrupt
 159:src/stm32f0x_gpio.c **** //	EXTI->IMR |= 0x0100; 			//Corresponding mask bit for interrupts
 160:src/stm32f0x_gpio.c **** //	EXTI->EMR |= 0x0000; 			//Corresponding mask bit for events
 161:src/stm32f0x_gpio.c **** //	EXTI->RTSR |= 0x0100; 			//Pin 8 Interrupt line on rising edge
 162:src/stm32f0x_gpio.c **** //	EXTI->FTSR |= 0x0100; 			//Pin 8 Interrupt line on falling edge
 163:src/stm32f0x_gpio.c **** //
 164:src/stm32f0x_gpio.c **** //	NVIC_EnableIRQ(EXTI4_15_IRQn);
 165:src/stm32f0x_gpio.c **** //	NVIC_SetPriority(EXTI4_15_IRQn, 6);
 166:src/stm32f0x_gpio.c **** 
 167:src/stm32f0x_gpio.c **** 
 168:src/stm32f0x_gpio.c **** }
 226              		.loc 1 168 0
 227 00fe C046     		nop
 228 0100 02B0     		add	sp, sp, #8	@,,
 229              		@ sp needed	@
 230 0102 7047     		bx	lr
 231              	.L5:
ARM GAS  /tmp/ccW9riok.s 			page 8


 232              		.align	2
 233              	.L4:
 234 0104 00100240 		.word	1073876992
 235 0108 0000033C 		.word	1006829568
 236 010c A3606841 		.word	1097359523
 237 0110 7F7FFFFF 		.word	-32897
 238 0114 80800000 		.word	32896
 239 0118 0F0F033C 		.word	1006833423
 240 011c 00040048 		.word	1207960576
 241 0120 3C0FFFFF 		.word	-61636
 242 0124 03A00000 		.word	40963
 243 0128 FF0FFFFF 		.word	-61441
 244              		.cfi_endproc
 245              	.LFE20:
 246              		.size	GPIO_Config, .-GPIO_Config
 247              		.section	.text.EXTIOff,"ax",%progbits
 248              		.align	2
 249              		.global	EXTIOff
 250              		.code	16
 251              		.thumb_func
 252              		.type	EXTIOff, %function
 253              	EXTIOff:
 254              	.LFB21:
 169:src/stm32f0x_gpio.c **** 
 170:src/stm32f0x_gpio.c **** inline void EXTIOff (void)
 171:src/stm32f0x_gpio.c **** {
 255              		.loc 1 171 0
 256              		.cfi_startproc
 172:src/stm32f0x_gpio.c **** 	EXTI->IMR &= ~0x00000100;
 257              		.loc 1 172 0
 258 0000 034B     		ldr	r3, .L7	@ D.4779,
 259 0002 034A     		ldr	r2, .L7	@ D.4779,
 260 0004 1268     		ldr	r2, [r2]	@ D.4780, _2->IMR
 261 0006 0349     		ldr	r1, .L7+4	@ tmp114,
 262 0008 0A40     		ands	r2, r1	@ D.4780, tmp114
 263 000a 1A60     		str	r2, [r3]	@ D.4780, _1->IMR
 173:src/stm32f0x_gpio.c **** }
 264              		.loc 1 173 0
 265 000c C046     		nop
 266              		@ sp needed	@
 267 000e 7047     		bx	lr
 268              	.L8:
 269              		.align	2
 270              	.L7:
 271 0010 00040140 		.word	1073808384
 272 0014 FFFEFFFF 		.word	-257
 273              		.cfi_endproc
 274              	.LFE21:
 275              		.size	EXTIOff, .-EXTIOff
 276              		.section	.text.EXTIOn,"ax",%progbits
 277              		.align	2
 278              		.global	EXTIOn
 279              		.code	16
 280              		.thumb_func
 281              		.type	EXTIOn, %function
 282              	EXTIOn:
 283              	.LFB22:
ARM GAS  /tmp/ccW9riok.s 			page 9


 174:src/stm32f0x_gpio.c **** 
 175:src/stm32f0x_gpio.c **** inline void EXTIOn (void)
 176:src/stm32f0x_gpio.c **** {
 284              		.loc 1 176 0
 285              		.cfi_startproc
 177:src/stm32f0x_gpio.c **** 	EXTI->IMR |= 0x00000100;
 286              		.loc 1 177 0
 287 0000 044B     		ldr	r3, .L10	@ D.4781,
 288 0002 044A     		ldr	r2, .L10	@ D.4781,
 289 0004 1268     		ldr	r2, [r2]	@ D.4782, _2->IMR
 290 0006 8021     		movs	r1, #128	@ tmp115,
 291 0008 4900     		lsls	r1, r1, #1	@ tmp114, tmp115,
 292 000a 0A43     		orrs	r2, r1	@ D.4782, tmp114
 293 000c 1A60     		str	r2, [r3]	@ D.4782, _1->IMR
 178:src/stm32f0x_gpio.c **** }
 294              		.loc 1 178 0
 295 000e C046     		nop
 296              		@ sp needed	@
 297 0010 7047     		bx	lr
 298              	.L11:
 299 0012 C046     		.align	2
 300              	.L10:
 301 0014 00040140 		.word	1073808384
 302              		.cfi_endproc
 303              	.LFE22:
 304              		.size	EXTIOn, .-EXTIOn
 305              		.text
 306              	.Letext0:
 307              		.file 2 "/usr/local/sbin/gcc-arm-none-eabi-5_2-2015q4/arm-none-eabi/include/machine/_default_types
 308              		.file 3 "/usr/local/sbin/gcc-arm-none-eabi-5_2-2015q4/arm-none-eabi/include/sys/_stdint.h"
 309              		.file 4 "./cmsis_boot/stm32f0xx.h"
 310              		.section	.debug_info,"",%progbits
 311              	.Ldebug_info0:
 312 0000 4F030000 		.4byte	0x34f
 313 0004 0200     		.2byte	0x2
 314 0006 00000000 		.4byte	.Ldebug_abbrev0
 315 000a 04       		.byte	0x4
 316 000b 01       		.uleb128 0x1
 317 000c A0010000 		.4byte	.LASF42
 318 0010 0C       		.byte	0xc
 319 0011 15000000 		.4byte	.LASF43
 320 0015 07010000 		.4byte	.LASF44
 321 0019 00000000 		.4byte	.Ldebug_ranges0+0
 322 001d 00000000 		.4byte	0
 323 0021 00000000 		.4byte	0
 324 0025 00000000 		.4byte	.Ldebug_line0
 325 0029 02       		.uleb128 0x2
 326 002a 01       		.byte	0x1
 327 002b 06       		.byte	0x6
 328 002c 73020000 		.4byte	.LASF0
 329 0030 02       		.uleb128 0x2
 330 0031 01       		.byte	0x1
 331 0032 08       		.byte	0x8
 332 0033 9F000000 		.4byte	.LASF1
 333 0037 02       		.uleb128 0x2
 334 0038 02       		.byte	0x2
 335 0039 05       		.byte	0x5
ARM GAS  /tmp/ccW9riok.s 			page 10


 336 003a 4B020000 		.4byte	.LASF2
 337 003e 03       		.uleb128 0x3
 338 003f E9000000 		.4byte	.LASF5
 339 0043 02       		.byte	0x2
 340 0044 2B       		.byte	0x2b
 341 0045 49000000 		.4byte	0x49
 342 0049 02       		.uleb128 0x2
 343 004a 02       		.byte	0x2
 344 004b 07       		.byte	0x7
 345 004c C4000000 		.4byte	.LASF3
 346 0050 02       		.uleb128 0x2
 347 0051 04       		.byte	0x4
 348 0052 05       		.byte	0x5
 349 0053 6A020000 		.4byte	.LASF4
 350 0057 03       		.uleb128 0x3
 351 0058 FC000000 		.4byte	.LASF6
 352 005c 02       		.byte	0x2
 353 005d 41       		.byte	0x41
 354 005e 62000000 		.4byte	0x62
 355 0062 02       		.uleb128 0x2
 356 0063 04       		.byte	0x4
 357 0064 07       		.byte	0x7
 358 0065 AD000000 		.4byte	.LASF7
 359 0069 02       		.uleb128 0x2
 360 006a 08       		.byte	0x8
 361 006b 05       		.byte	0x5
 362 006c 92010000 		.4byte	.LASF8
 363 0070 02       		.uleb128 0x2
 364 0071 08       		.byte	0x8
 365 0072 07       		.byte	0x7
 366 0073 67010000 		.4byte	.LASF9
 367 0077 04       		.uleb128 0x4
 368 0078 04       		.byte	0x4
 369 0079 05       		.byte	0x5
 370 007a 696E7400 		.ascii	"int\000"
 371 007e 02       		.uleb128 0x2
 372 007f 04       		.byte	0x4
 373 0080 07       		.byte	0x7
 374 0081 4D010000 		.4byte	.LASF10
 375 0085 03       		.uleb128 0x3
 376 0086 55020000 		.4byte	.LASF11
 377 008a 03       		.byte	0x3
 378 008b 1A       		.byte	0x1a
 379 008c 3E000000 		.4byte	0x3e
 380 0090 03       		.uleb128 0x3
 381 0091 7F020000 		.4byte	.LASF12
 382 0095 03       		.byte	0x3
 383 0096 20       		.byte	0x20
 384 0097 57000000 		.4byte	0x57
 385 009b 02       		.uleb128 0x2
 386 009c 04       		.byte	0x4
 387 009d 07       		.byte	0x7
 388 009e 83010000 		.4byte	.LASF13
 389 00a2 05       		.uleb128 0x5
 390 00a3 90000000 		.4byte	0x90
 391 00a7 06       		.uleb128 0x6
 392 00a8 90000000 		.4byte	0x90
ARM GAS  /tmp/ccW9riok.s 			page 11


 393 00ac B7000000 		.4byte	0xb7
 394 00b0 07       		.uleb128 0x7
 395 00b1 9B000000 		.4byte	0x9b
 396 00b5 01       		.byte	0x1
 397 00b6 00       		.byte	0
 398 00b7 08       		.uleb128 0x8
 399 00b8 18       		.byte	0x18
 400 00b9 04       		.byte	0x4
 401 00ba 3A02     		.2byte	0x23a
 402 00bc 1A010000 		.4byte	0x11a
 403 00c0 09       		.uleb128 0x9
 404 00c1 494D5200 		.ascii	"IMR\000"
 405 00c5 04       		.byte	0x4
 406 00c6 3C02     		.2byte	0x23c
 407 00c8 A2000000 		.4byte	0xa2
 408 00cc 02       		.byte	0x2
 409 00cd 23       		.byte	0x23
 410 00ce 00       		.uleb128 0
 411 00cf 09       		.uleb128 0x9
 412 00d0 454D5200 		.ascii	"EMR\000"
 413 00d4 04       		.byte	0x4
 414 00d5 3D02     		.2byte	0x23d
 415 00d7 A2000000 		.4byte	0xa2
 416 00db 02       		.byte	0x2
 417 00dc 23       		.byte	0x23
 418 00dd 04       		.uleb128 0x4
 419 00de 0A       		.uleb128 0xa
 420 00df E4000000 		.4byte	.LASF14
 421 00e3 04       		.byte	0x4
 422 00e4 3E02     		.2byte	0x23e
 423 00e6 A2000000 		.4byte	0xa2
 424 00ea 02       		.byte	0x2
 425 00eb 23       		.byte	0x23
 426 00ec 08       		.uleb128 0x8
 427 00ed 0A       		.uleb128 0xa
 428 00ee 8E020000 		.4byte	.LASF15
 429 00f2 04       		.byte	0x4
 430 00f3 3F02     		.2byte	0x23f
 431 00f5 A2000000 		.4byte	0xa2
 432 00f9 02       		.byte	0x2
 433 00fa 23       		.byte	0x23
 434 00fb 0C       		.uleb128 0xc
 435 00fc 0A       		.uleb128 0xa
 436 00fd 88020000 		.4byte	.LASF16
 437 0101 04       		.byte	0x4
 438 0102 4002     		.2byte	0x240
 439 0104 A2000000 		.4byte	0xa2
 440 0108 02       		.byte	0x2
 441 0109 23       		.byte	0x23
 442 010a 10       		.uleb128 0x10
 443 010b 09       		.uleb128 0x9
 444 010c 505200   		.ascii	"PR\000"
 445 010f 04       		.byte	0x4
 446 0110 4102     		.2byte	0x241
 447 0112 A2000000 		.4byte	0xa2
 448 0116 02       		.byte	0x2
 449 0117 23       		.byte	0x23
ARM GAS  /tmp/ccW9riok.s 			page 12


 450 0118 14       		.uleb128 0x14
 451 0119 00       		.byte	0
 452 011a 0B       		.uleb128 0xb
 453 011b D7000000 		.4byte	.LASF17
 454 011f 04       		.byte	0x4
 455 0120 4202     		.2byte	0x242
 456 0122 B7000000 		.4byte	0xb7
 457 0126 05       		.uleb128 0x5
 458 0127 85000000 		.4byte	0x85
 459 012b 08       		.uleb128 0x8
 460 012c 2C       		.byte	0x2c
 461 012d 04       		.byte	0x4
 462 012e 6902     		.2byte	0x269
 463 0130 07020000 		.4byte	0x207
 464 0134 0A       		.uleb128 0xa
 465 0135 30000000 		.4byte	.LASF18
 466 0139 04       		.byte	0x4
 467 013a 6B02     		.2byte	0x26b
 468 013c A2000000 		.4byte	0xa2
 469 0140 02       		.byte	0x2
 470 0141 23       		.byte	0x23
 471 0142 00       		.uleb128 0
 472 0143 0A       		.uleb128 0xa
 473 0144 8F000000 		.4byte	.LASF19
 474 0148 04       		.byte	0x4
 475 0149 6C02     		.2byte	0x26c
 476 014b 26010000 		.4byte	0x126
 477 014f 02       		.byte	0x2
 478 0150 23       		.byte	0x23
 479 0151 04       		.uleb128 0x4
 480 0152 0A       		.uleb128 0xa
 481 0153 61000000 		.4byte	.LASF20
 482 0157 04       		.byte	0x4
 483 0158 6D02     		.2byte	0x26d
 484 015a 85000000 		.4byte	0x85
 485 015e 02       		.byte	0x2
 486 015f 23       		.byte	0x23
 487 0160 06       		.uleb128 0x6
 488 0161 0A       		.uleb128 0xa
 489 0162 0D000000 		.4byte	.LASF21
 490 0166 04       		.byte	0x4
 491 0167 6E02     		.2byte	0x26e
 492 0169 A2000000 		.4byte	0xa2
 493 016d 02       		.byte	0x2
 494 016e 23       		.byte	0x23
 495 016f 08       		.uleb128 0x8
 496 0170 0A       		.uleb128 0xa
 497 0171 8C010000 		.4byte	.LASF22
 498 0175 04       		.byte	0x4
 499 0176 6F02     		.2byte	0x26f
 500 0178 A2000000 		.4byte	0xa2
 501 017c 02       		.byte	0x2
 502 017d 23       		.byte	0x23
 503 017e 0C       		.uleb128 0xc
 504 017f 09       		.uleb128 0x9
 505 0180 49445200 		.ascii	"IDR\000"
 506 0184 04       		.byte	0x4
ARM GAS  /tmp/ccW9riok.s 			page 13


 507 0185 7002     		.2byte	0x270
 508 0187 26010000 		.4byte	0x126
 509 018b 02       		.byte	0x2
 510 018c 23       		.byte	0x23
 511 018d 10       		.uleb128 0x10
 512 018e 0A       		.uleb128 0xa
 513 018f 6B000000 		.4byte	.LASF23
 514 0193 04       		.byte	0x4
 515 0194 7102     		.2byte	0x271
 516 0196 85000000 		.4byte	0x85
 517 019a 02       		.byte	0x2
 518 019b 23       		.byte	0x23
 519 019c 12       		.uleb128 0x12
 520 019d 09       		.uleb128 0x9
 521 019e 4F445200 		.ascii	"ODR\000"
 522 01a2 04       		.byte	0x4
 523 01a3 7202     		.2byte	0x272
 524 01a5 26010000 		.4byte	0x126
 525 01a9 02       		.byte	0x2
 526 01aa 23       		.byte	0x23
 527 01ab 14       		.uleb128 0x14
 528 01ac 0A       		.uleb128 0xa
 529 01ad 75000000 		.4byte	.LASF24
 530 01b1 04       		.byte	0x4
 531 01b2 7302     		.2byte	0x273
 532 01b4 85000000 		.4byte	0x85
 533 01b8 02       		.byte	0x2
 534 01b9 23       		.byte	0x23
 535 01ba 16       		.uleb128 0x16
 536 01bb 0A       		.uleb128 0xa
 537 01bc 4A000000 		.4byte	.LASF25
 538 01c0 04       		.byte	0x4
 539 01c1 7402     		.2byte	0x274
 540 01c3 A2000000 		.4byte	0xa2
 541 01c7 02       		.byte	0x2
 542 01c8 23       		.byte	0x23
 543 01c9 18       		.uleb128 0x18
 544 01ca 0A       		.uleb128 0xa
 545 01cb 08000000 		.4byte	.LASF26
 546 01cf 04       		.byte	0x4
 547 01d0 7502     		.2byte	0x275
 548 01d2 A2000000 		.4byte	0xa2
 549 01d6 02       		.byte	0x2
 550 01d7 23       		.byte	0x23
 551 01d8 1C       		.uleb128 0x1c
 552 01d9 09       		.uleb128 0x9
 553 01da 41465200 		.ascii	"AFR\000"
 554 01de 04       		.byte	0x4
 555 01df 7602     		.2byte	0x276
 556 01e1 07020000 		.4byte	0x207
 557 01e5 02       		.byte	0x2
 558 01e6 23       		.byte	0x23
 559 01e7 20       		.uleb128 0x20
 560 01e8 09       		.uleb128 0x9
 561 01e9 42525200 		.ascii	"BRR\000"
 562 01ed 04       		.byte	0x4
 563 01ee 7702     		.2byte	0x277
ARM GAS  /tmp/ccW9riok.s 			page 14


 564 01f0 26010000 		.4byte	0x126
 565 01f4 02       		.byte	0x2
 566 01f5 23       		.byte	0x23
 567 01f6 28       		.uleb128 0x28
 568 01f7 0A       		.uleb128 0xa
 569 01f8 7F000000 		.4byte	.LASF27
 570 01fc 04       		.byte	0x4
 571 01fd 7802     		.2byte	0x278
 572 01ff 85000000 		.4byte	0x85
 573 0203 02       		.byte	0x2
 574 0204 23       		.byte	0x23
 575 0205 2A       		.uleb128 0x2a
 576 0206 00       		.byte	0
 577 0207 05       		.uleb128 0x5
 578 0208 A7000000 		.4byte	0xa7
 579 020c 0B       		.uleb128 0xb
 580 020d 5A010000 		.4byte	.LASF28
 581 0211 04       		.byte	0x4
 582 0212 7902     		.2byte	0x279
 583 0214 2B010000 		.4byte	0x12b
 584 0218 08       		.uleb128 0x8
 585 0219 38       		.byte	0x38
 586 021a 04       		.byte	0x4
 587 021b B502     		.2byte	0x2b5
 588 021d F3020000 		.4byte	0x2f3
 589 0221 09       		.uleb128 0x9
 590 0222 435200   		.ascii	"CR\000"
 591 0225 04       		.byte	0x4
 592 0226 B702     		.2byte	0x2b7
 593 0228 A2000000 		.4byte	0xa2
 594 022c 02       		.byte	0x2
 595 022d 23       		.byte	0x23
 596 022e 00       		.uleb128 0
 597 022f 0A       		.uleb128 0xa
 598 0230 7E010000 		.4byte	.LASF29
 599 0234 04       		.byte	0x4
 600 0235 B802     		.2byte	0x2b8
 601 0237 A2000000 		.4byte	0xa2
 602 023b 02       		.byte	0x2
 603 023c 23       		.byte	0x23
 604 023d 04       		.uleb128 0x4
 605 023e 09       		.uleb128 0x9
 606 023f 43495200 		.ascii	"CIR\000"
 607 0243 04       		.byte	0x4
 608 0244 B902     		.2byte	0x2b9
 609 0246 A2000000 		.4byte	0xa2
 610 024a 02       		.byte	0x2
 611 024b 23       		.byte	0x23
 612 024c 08       		.uleb128 0x8
 613 024d 0A       		.uleb128 0xa
 614 024e 44010000 		.4byte	.LASF30
 615 0252 04       		.byte	0x4
 616 0253 BA02     		.2byte	0x2ba
 617 0255 A2000000 		.4byte	0xa2
 618 0259 02       		.byte	0x2
 619 025a 23       		.byte	0x23
 620 025b 0C       		.uleb128 0xc
ARM GAS  /tmp/ccW9riok.s 			page 15


 621 025c 0A       		.uleb128 0xa
 622 025d 96000000 		.4byte	.LASF31
 623 0261 04       		.byte	0x4
 624 0262 BB02     		.2byte	0x2bb
 625 0264 A2000000 		.4byte	0xa2
 626 0268 02       		.byte	0x2
 627 0269 23       		.byte	0x23
 628 026a 10       		.uleb128 0x10
 629 026b 0A       		.uleb128 0xa
 630 026c 29000000 		.4byte	.LASF32
 631 0270 04       		.byte	0x4
 632 0271 BC02     		.2byte	0x2bc
 633 0273 A2000000 		.4byte	0xa2
 634 0277 02       		.byte	0x2
 635 0278 23       		.byte	0x23
 636 0279 14       		.uleb128 0x14
 637 027a 0A       		.uleb128 0xa
 638 027b F4000000 		.4byte	.LASF33
 639 027f 04       		.byte	0x4
 640 0280 BD02     		.2byte	0x2bd
 641 0282 A2000000 		.4byte	0xa2
 642 0286 02       		.byte	0x2
 643 0287 23       		.byte	0x23
 644 0288 18       		.uleb128 0x18
 645 0289 0A       		.uleb128 0xa
 646 028a 3C010000 		.4byte	.LASF34
 647 028e 04       		.byte	0x4
 648 028f BE02     		.2byte	0x2be
 649 0291 A2000000 		.4byte	0xa2
 650 0295 02       		.byte	0x2
 651 0296 23       		.byte	0x23
 652 0297 1C       		.uleb128 0x1c
 653 0298 0A       		.uleb128 0xa
 654 0299 45000000 		.4byte	.LASF35
 655 029d 04       		.byte	0x4
 656 029e BF02     		.2byte	0x2bf
 657 02a0 A2000000 		.4byte	0xa2
 658 02a4 02       		.byte	0x2
 659 02a5 23       		.byte	0x23
 660 02a6 20       		.uleb128 0x20
 661 02a7 09       		.uleb128 0x9
 662 02a8 43535200 		.ascii	"CSR\000"
 663 02ac 04       		.byte	0x4
 664 02ad C002     		.2byte	0x2c0
 665 02af A2000000 		.4byte	0xa2
 666 02b3 02       		.byte	0x2
 667 02b4 23       		.byte	0x23
 668 02b5 24       		.uleb128 0x24
 669 02b6 0A       		.uleb128 0xa
 670 02b7 36000000 		.4byte	.LASF36
 671 02bb 04       		.byte	0x4
 672 02bc C102     		.2byte	0x2c1
 673 02be A2000000 		.4byte	0xa2
 674 02c2 02       		.byte	0x2
 675 02c3 23       		.byte	0x23
 676 02c4 28       		.uleb128 0x28
 677 02c5 0A       		.uleb128 0xa
ARM GAS  /tmp/ccW9riok.s 			page 16


 678 02c6 4F000000 		.4byte	.LASF37
 679 02ca 04       		.byte	0x4
 680 02cb C202     		.2byte	0x2c2
 681 02cd A2000000 		.4byte	0xa2
 682 02d1 02       		.byte	0x2
 683 02d2 23       		.byte	0x23
 684 02d3 2C       		.uleb128 0x2c
 685 02d4 0A       		.uleb128 0xa
 686 02d5 89000000 		.4byte	.LASF38
 687 02d9 04       		.byte	0x4
 688 02da C302     		.2byte	0x2c3
 689 02dc A2000000 		.4byte	0xa2
 690 02e0 02       		.byte	0x2
 691 02e1 23       		.byte	0x23
 692 02e2 30       		.uleb128 0x30
 693 02e3 09       		.uleb128 0x9
 694 02e4 43523200 		.ascii	"CR2\000"
 695 02e8 04       		.byte	0x4
 696 02e9 C402     		.2byte	0x2c4
 697 02eb A2000000 		.4byte	0xa2
 698 02ef 02       		.byte	0x2
 699 02f0 23       		.byte	0x23
 700 02f1 34       		.uleb128 0x34
 701 02f2 00       		.byte	0
 702 02f3 0B       		.uleb128 0xb
 703 02f4 5E020000 		.4byte	.LASF39
 704 02f8 04       		.byte	0x4
 705 02f9 C502     		.2byte	0x2c5
 706 02fb 18020000 		.4byte	0x218
 707 02ff 0C       		.uleb128 0xc
 708 0300 01       		.byte	0x1
 709 0301 55000000 		.4byte	.LASF45
 710 0305 01       		.byte	0x1
 711 0306 23       		.byte	0x23
 712 0307 01       		.byte	0x1
 713 0308 00000000 		.4byte	.LFB20
 714 030c 2C010000 		.4byte	.LFE20
 715 0310 00000000 		.4byte	.LLST0
 716 0314 01       		.byte	0x1
 717 0315 28030000 		.4byte	0x328
 718 0319 0D       		.uleb128 0xd
 719 031a BF000000 		.4byte	.LASF46
 720 031e 01       		.byte	0x1
 721 031f 25       		.byte	0x25
 722 0320 62000000 		.4byte	0x62
 723 0324 02       		.byte	0x2
 724 0325 91       		.byte	0x91
 725 0326 7C       		.sleb128 -4
 726 0327 00       		.byte	0
 727 0328 0E       		.uleb128 0xe
 728 0329 01       		.byte	0x1
 729 032a 00000000 		.4byte	.LASF40
 730 032e 01       		.byte	0x1
 731 032f AA       		.byte	0xaa
 732 0330 01       		.byte	0x1
 733 0331 00000000 		.4byte	.LFB21
 734 0335 18000000 		.4byte	.LFE21
ARM GAS  /tmp/ccW9riok.s 			page 17


 735 0339 02       		.byte	0x2
 736 033a 7D       		.byte	0x7d
 737 033b 00       		.sleb128 0
 738 033c 01       		.byte	0x1
 739 033d 0E       		.uleb128 0xe
 740 033e 01       		.byte	0x1
 741 033f 3E000000 		.4byte	.LASF41
 742 0343 01       		.byte	0x1
 743 0344 AF       		.byte	0xaf
 744 0345 01       		.byte	0x1
 745 0346 00000000 		.4byte	.LFB22
 746 034a 18000000 		.4byte	.LFE22
 747 034e 02       		.byte	0x2
 748 034f 7D       		.byte	0x7d
 749 0350 00       		.sleb128 0
 750 0351 01       		.byte	0x1
 751 0352 00       		.byte	0
 752              		.section	.debug_abbrev,"",%progbits
 753              	.Ldebug_abbrev0:
 754 0000 01       		.uleb128 0x1
 755 0001 11       		.uleb128 0x11
 756 0002 01       		.byte	0x1
 757 0003 25       		.uleb128 0x25
 758 0004 0E       		.uleb128 0xe
 759 0005 13       		.uleb128 0x13
 760 0006 0B       		.uleb128 0xb
 761 0007 03       		.uleb128 0x3
 762 0008 0E       		.uleb128 0xe
 763 0009 1B       		.uleb128 0x1b
 764 000a 0E       		.uleb128 0xe
 765 000b 55       		.uleb128 0x55
 766 000c 06       		.uleb128 0x6
 767 000d 11       		.uleb128 0x11
 768 000e 01       		.uleb128 0x1
 769 000f 52       		.uleb128 0x52
 770 0010 01       		.uleb128 0x1
 771 0011 10       		.uleb128 0x10
 772 0012 06       		.uleb128 0x6
 773 0013 00       		.byte	0
 774 0014 00       		.byte	0
 775 0015 02       		.uleb128 0x2
 776 0016 24       		.uleb128 0x24
 777 0017 00       		.byte	0
 778 0018 0B       		.uleb128 0xb
 779 0019 0B       		.uleb128 0xb
 780 001a 3E       		.uleb128 0x3e
 781 001b 0B       		.uleb128 0xb
 782 001c 03       		.uleb128 0x3
 783 001d 0E       		.uleb128 0xe
 784 001e 00       		.byte	0
 785 001f 00       		.byte	0
 786 0020 03       		.uleb128 0x3
 787 0021 16       		.uleb128 0x16
 788 0022 00       		.byte	0
 789 0023 03       		.uleb128 0x3
 790 0024 0E       		.uleb128 0xe
 791 0025 3A       		.uleb128 0x3a
ARM GAS  /tmp/ccW9riok.s 			page 18


 792 0026 0B       		.uleb128 0xb
 793 0027 3B       		.uleb128 0x3b
 794 0028 0B       		.uleb128 0xb
 795 0029 49       		.uleb128 0x49
 796 002a 13       		.uleb128 0x13
 797 002b 00       		.byte	0
 798 002c 00       		.byte	0
 799 002d 04       		.uleb128 0x4
 800 002e 24       		.uleb128 0x24
 801 002f 00       		.byte	0
 802 0030 0B       		.uleb128 0xb
 803 0031 0B       		.uleb128 0xb
 804 0032 3E       		.uleb128 0x3e
 805 0033 0B       		.uleb128 0xb
 806 0034 03       		.uleb128 0x3
 807 0035 08       		.uleb128 0x8
 808 0036 00       		.byte	0
 809 0037 00       		.byte	0
 810 0038 05       		.uleb128 0x5
 811 0039 35       		.uleb128 0x35
 812 003a 00       		.byte	0
 813 003b 49       		.uleb128 0x49
 814 003c 13       		.uleb128 0x13
 815 003d 00       		.byte	0
 816 003e 00       		.byte	0
 817 003f 06       		.uleb128 0x6
 818 0040 01       		.uleb128 0x1
 819 0041 01       		.byte	0x1
 820 0042 49       		.uleb128 0x49
 821 0043 13       		.uleb128 0x13
 822 0044 01       		.uleb128 0x1
 823 0045 13       		.uleb128 0x13
 824 0046 00       		.byte	0
 825 0047 00       		.byte	0
 826 0048 07       		.uleb128 0x7
 827 0049 21       		.uleb128 0x21
 828 004a 00       		.byte	0
 829 004b 49       		.uleb128 0x49
 830 004c 13       		.uleb128 0x13
 831 004d 2F       		.uleb128 0x2f
 832 004e 0B       		.uleb128 0xb
 833 004f 00       		.byte	0
 834 0050 00       		.byte	0
 835 0051 08       		.uleb128 0x8
 836 0052 13       		.uleb128 0x13
 837 0053 01       		.byte	0x1
 838 0054 0B       		.uleb128 0xb
 839 0055 0B       		.uleb128 0xb
 840 0056 3A       		.uleb128 0x3a
 841 0057 0B       		.uleb128 0xb
 842 0058 3B       		.uleb128 0x3b
 843 0059 05       		.uleb128 0x5
 844 005a 01       		.uleb128 0x1
 845 005b 13       		.uleb128 0x13
 846 005c 00       		.byte	0
 847 005d 00       		.byte	0
 848 005e 09       		.uleb128 0x9
ARM GAS  /tmp/ccW9riok.s 			page 19


 849 005f 0D       		.uleb128 0xd
 850 0060 00       		.byte	0
 851 0061 03       		.uleb128 0x3
 852 0062 08       		.uleb128 0x8
 853 0063 3A       		.uleb128 0x3a
 854 0064 0B       		.uleb128 0xb
 855 0065 3B       		.uleb128 0x3b
 856 0066 05       		.uleb128 0x5
 857 0067 49       		.uleb128 0x49
 858 0068 13       		.uleb128 0x13
 859 0069 38       		.uleb128 0x38
 860 006a 0A       		.uleb128 0xa
 861 006b 00       		.byte	0
 862 006c 00       		.byte	0
 863 006d 0A       		.uleb128 0xa
 864 006e 0D       		.uleb128 0xd
 865 006f 00       		.byte	0
 866 0070 03       		.uleb128 0x3
 867 0071 0E       		.uleb128 0xe
 868 0072 3A       		.uleb128 0x3a
 869 0073 0B       		.uleb128 0xb
 870 0074 3B       		.uleb128 0x3b
 871 0075 05       		.uleb128 0x5
 872 0076 49       		.uleb128 0x49
 873 0077 13       		.uleb128 0x13
 874 0078 38       		.uleb128 0x38
 875 0079 0A       		.uleb128 0xa
 876 007a 00       		.byte	0
 877 007b 00       		.byte	0
 878 007c 0B       		.uleb128 0xb
 879 007d 16       		.uleb128 0x16
 880 007e 00       		.byte	0
 881 007f 03       		.uleb128 0x3
 882 0080 0E       		.uleb128 0xe
 883 0081 3A       		.uleb128 0x3a
 884 0082 0B       		.uleb128 0xb
 885 0083 3B       		.uleb128 0x3b
 886 0084 05       		.uleb128 0x5
 887 0085 49       		.uleb128 0x49
 888 0086 13       		.uleb128 0x13
 889 0087 00       		.byte	0
 890 0088 00       		.byte	0
 891 0089 0C       		.uleb128 0xc
 892 008a 2E       		.uleb128 0x2e
 893 008b 01       		.byte	0x1
 894 008c 3F       		.uleb128 0x3f
 895 008d 0C       		.uleb128 0xc
 896 008e 03       		.uleb128 0x3
 897 008f 0E       		.uleb128 0xe
 898 0090 3A       		.uleb128 0x3a
 899 0091 0B       		.uleb128 0xb
 900 0092 3B       		.uleb128 0x3b
 901 0093 0B       		.uleb128 0xb
 902 0094 27       		.uleb128 0x27
 903 0095 0C       		.uleb128 0xc
 904 0096 11       		.uleb128 0x11
 905 0097 01       		.uleb128 0x1
ARM GAS  /tmp/ccW9riok.s 			page 20


 906 0098 12       		.uleb128 0x12
 907 0099 01       		.uleb128 0x1
 908 009a 40       		.uleb128 0x40
 909 009b 06       		.uleb128 0x6
 910 009c 9742     		.uleb128 0x2117
 911 009e 0C       		.uleb128 0xc
 912 009f 01       		.uleb128 0x1
 913 00a0 13       		.uleb128 0x13
 914 00a1 00       		.byte	0
 915 00a2 00       		.byte	0
 916 00a3 0D       		.uleb128 0xd
 917 00a4 34       		.uleb128 0x34
 918 00a5 00       		.byte	0
 919 00a6 03       		.uleb128 0x3
 920 00a7 0E       		.uleb128 0xe
 921 00a8 3A       		.uleb128 0x3a
 922 00a9 0B       		.uleb128 0xb
 923 00aa 3B       		.uleb128 0x3b
 924 00ab 0B       		.uleb128 0xb
 925 00ac 49       		.uleb128 0x49
 926 00ad 13       		.uleb128 0x13
 927 00ae 02       		.uleb128 0x2
 928 00af 0A       		.uleb128 0xa
 929 00b0 00       		.byte	0
 930 00b1 00       		.byte	0
 931 00b2 0E       		.uleb128 0xe
 932 00b3 2E       		.uleb128 0x2e
 933 00b4 00       		.byte	0
 934 00b5 3F       		.uleb128 0x3f
 935 00b6 0C       		.uleb128 0xc
 936 00b7 03       		.uleb128 0x3
 937 00b8 0E       		.uleb128 0xe
 938 00b9 3A       		.uleb128 0x3a
 939 00ba 0B       		.uleb128 0xb
 940 00bb 3B       		.uleb128 0x3b
 941 00bc 0B       		.uleb128 0xb
 942 00bd 27       		.uleb128 0x27
 943 00be 0C       		.uleb128 0xc
 944 00bf 11       		.uleb128 0x11
 945 00c0 01       		.uleb128 0x1
 946 00c1 12       		.uleb128 0x12
 947 00c2 01       		.uleb128 0x1
 948 00c3 40       		.uleb128 0x40
 949 00c4 0A       		.uleb128 0xa
 950 00c5 9742     		.uleb128 0x2117
 951 00c7 0C       		.uleb128 0xc
 952 00c8 00       		.byte	0
 953 00c9 00       		.byte	0
 954 00ca 00       		.byte	0
 955              		.section	.debug_loc,"",%progbits
 956              	.Ldebug_loc0:
 957              	.LLST0:
 958 0000 00000000 		.4byte	.LFB20
 959 0004 02000000 		.4byte	.LCFI0
 960 0008 0200     		.2byte	0x2
 961 000a 7D       		.byte	0x7d
 962 000b 00       		.sleb128 0
ARM GAS  /tmp/ccW9riok.s 			page 21


 963 000c 02000000 		.4byte	.LCFI0
 964 0010 2C010000 		.4byte	.LFE20
 965 0014 0200     		.2byte	0x2
 966 0016 7D       		.byte	0x7d
 967 0017 08       		.sleb128 8
 968 0018 00000000 		.4byte	0
 969 001c 00000000 		.4byte	0
 970              		.section	.debug_aranges,"",%progbits
 971 0000 2C000000 		.4byte	0x2c
 972 0004 0200     		.2byte	0x2
 973 0006 00000000 		.4byte	.Ldebug_info0
 974 000a 04       		.byte	0x4
 975 000b 00       		.byte	0
 976 000c 0000     		.2byte	0
 977 000e 0000     		.2byte	0
 978 0010 00000000 		.4byte	.LFB20
 979 0014 2C010000 		.4byte	.LFE20-.LFB20
 980 0018 00000000 		.4byte	.LFB21
 981 001c 18000000 		.4byte	.LFE21-.LFB21
 982 0020 00000000 		.4byte	.LFB22
 983 0024 18000000 		.4byte	.LFE22-.LFB22
 984 0028 00000000 		.4byte	0
 985 002c 00000000 		.4byte	0
 986              		.section	.debug_ranges,"",%progbits
 987              	.Ldebug_ranges0:
 988 0000 00000000 		.4byte	.LFB20
 989 0004 2C010000 		.4byte	.LFE20
 990 0008 00000000 		.4byte	.LFB21
 991 000c 18000000 		.4byte	.LFE21
 992 0010 00000000 		.4byte	.LFB22
 993 0014 18000000 		.4byte	.LFE22
 994 0018 00000000 		.4byte	0
 995 001c 00000000 		.4byte	0
 996              		.section	.debug_line,"",%progbits
 997              	.Ldebug_line0:
 998 0000 55010000 		.section	.debug_str,"MS",%progbits,1
 998      0200F900 
 998      00000201 
 998      FB0E0D00 
 998      01010101 
 999              	.LASF40:
 1000 0000 45585449 		.ascii	"EXTIOff\000"
 1000      4F666600 
 1001              	.LASF26:
 1002 0008 4C434B52 		.ascii	"LCKR\000"
 1002      00
 1003              	.LASF21:
 1004 000d 4F535045 		.ascii	"OSPEEDR\000"
 1004      45445200 
 1005              	.LASF43:
 1006 0015 7372632F 		.ascii	"src/stm32f0x_gpio.c\000"
 1006      73746D33 
 1006      32663078 
 1006      5F677069 
 1006      6F2E6300 
 1007              	.LASF32:
 1008 0029 41484245 		.ascii	"AHBENR\000"
ARM GAS  /tmp/ccW9riok.s 			page 22


 1008      4E5200
 1009              	.LASF18:
 1010 0030 4D4F4445 		.ascii	"MODER\000"
 1010      5200
 1011              	.LASF36:
 1012 0036 41484252 		.ascii	"AHBRSTR\000"
 1012      53545200 
 1013              	.LASF41:
 1014 003e 45585449 		.ascii	"EXTIOn\000"
 1014      4F6E00
 1015              	.LASF35:
 1016 0045 42444352 		.ascii	"BDCR\000"
 1016      00
 1017              	.LASF25:
 1018 004a 42535252 		.ascii	"BSRR\000"
 1018      00
 1019              	.LASF37:
 1020 004f 43464752 		.ascii	"CFGR2\000"
 1020      3200
 1021              	.LASF45:
 1022 0055 4750494F 		.ascii	"GPIO_Config\000"
 1022      5F436F6E 
 1022      66696700 
 1023              	.LASF20:
 1024 0061 52455345 		.ascii	"RESERVED0\000"
 1024      52564544 
 1024      3000
 1025              	.LASF23:
 1026 006b 52455345 		.ascii	"RESERVED1\000"
 1026      52564544 
 1026      3100
 1027              	.LASF24:
 1028 0075 52455345 		.ascii	"RESERVED2\000"
 1028      52564544 
 1028      3200
 1029              	.LASF27:
 1030 007f 52455345 		.ascii	"RESERVED3\000"
 1030      52564544 
 1030      3300
 1031              	.LASF38:
 1032 0089 43464752 		.ascii	"CFGR3\000"
 1032      3300
 1033              	.LASF19:
 1034 008f 4F545950 		.ascii	"OTYPER\000"
 1034      455200
 1035              	.LASF31:
 1036 0096 41504231 		.ascii	"APB1RSTR\000"
 1036      52535452 
 1036      00
 1037              	.LASF1:
 1038 009f 756E7369 		.ascii	"unsigned char\000"
 1038      676E6564 
 1038      20636861 
 1038      7200
 1039              	.LASF7:
 1040 00ad 6C6F6E67 		.ascii	"long unsigned int\000"
 1040      20756E73 
ARM GAS  /tmp/ccW9riok.s 			page 23


 1040      69676E65 
 1040      6420696E 
 1040      7400
 1041              	.LASF46:
 1042 00bf 74656D70 		.ascii	"temp\000"
 1042      00
 1043              	.LASF3:
 1044 00c4 73686F72 		.ascii	"short unsigned int\000"
 1044      7420756E 
 1044      7369676E 
 1044      65642069 
 1044      6E7400
 1045              	.LASF17:
 1046 00d7 45585449 		.ascii	"EXTI_TypeDef\000"
 1046      5F547970 
 1046      65446566 
 1046      00
 1047              	.LASF14:
 1048 00e4 52545352 		.ascii	"RTSR\000"
 1048      00
 1049              	.LASF5:
 1050 00e9 5F5F7569 		.ascii	"__uint16_t\000"
 1050      6E743136 
 1050      5F7400
 1051              	.LASF33:
 1052 00f4 41504232 		.ascii	"APB2ENR\000"
 1052      454E5200 
 1053              	.LASF6:
 1054 00fc 5F5F7569 		.ascii	"__uint32_t\000"
 1054      6E743332 
 1054      5F7400
 1055              	.LASF44:
 1056 0107 2F686F6D 		.ascii	"/home/med/Documents/stm32_proj/atom_planolux_redond"
 1056      652F6D65 
 1056      642F446F 
 1056      63756D65 
 1056      6E74732F 
 1057 013a 6100     		.ascii	"a\000"
 1058              	.LASF34:
 1059 013c 41504231 		.ascii	"APB1ENR\000"
 1059      454E5200 
 1060              	.LASF30:
 1061 0144 41504232 		.ascii	"APB2RSTR\000"
 1061      52535452 
 1061      00
 1062              	.LASF10:
 1063 014d 756E7369 		.ascii	"unsigned int\000"
 1063      676E6564 
 1063      20696E74 
 1063      00
 1064              	.LASF28:
 1065 015a 4750494F 		.ascii	"GPIO_TypeDef\000"
 1065      5F547970 
 1065      65446566 
 1065      00
 1066              	.LASF9:
 1067 0167 6C6F6E67 		.ascii	"long long unsigned int\000"
ARM GAS  /tmp/ccW9riok.s 			page 24


 1067      206C6F6E 
 1067      6720756E 
 1067      7369676E 
 1067      65642069 
 1068              	.LASF29:
 1069 017e 43464752 		.ascii	"CFGR\000"
 1069      00
 1070              	.LASF13:
 1071 0183 73697A65 		.ascii	"sizetype\000"
 1071      74797065 
 1071      00
 1072              	.LASF22:
 1073 018c 50555044 		.ascii	"PUPDR\000"
 1073      5200
 1074              	.LASF8:
 1075 0192 6C6F6E67 		.ascii	"long long int\000"
 1075      206C6F6E 
 1075      6720696E 
 1075      7400
 1076              	.LASF42:
 1077 01a0 474E5520 		.ascii	"GNU C11 5.2.1 20151202 (release) [ARM/embedded-5-br"
 1077      43313120 
 1077      352E322E 
 1077      31203230 
 1077      31353132 
 1078 01d3 616E6368 		.ascii	"anch revision 231848] -mcpu=cortex-m0 -mthumb -g -g"
 1078      20726576 
 1078      6973696F 
 1078      6E203233 
 1078      31383438 
 1079 0206 64776172 		.ascii	"dwarf-2 -O0 -fomit-frame-pointer -fdata-sections -f"
 1079      662D3220 
 1079      2D4F3020 
 1079      2D666F6D 
 1079      69742D66 
 1080 0239 66756E63 		.ascii	"function-sections\000"
 1080      74696F6E 
 1080      2D736563 
 1080      74696F6E 
 1080      7300
 1081              	.LASF2:
 1082 024b 73686F72 		.ascii	"short int\000"
 1082      7420696E 
 1082      7400
 1083              	.LASF11:
 1084 0255 75696E74 		.ascii	"uint16_t\000"
 1084      31365F74 
 1084      00
 1085              	.LASF39:
 1086 025e 5243435F 		.ascii	"RCC_TypeDef\000"
 1086      54797065 
 1086      44656600 
 1087              	.LASF4:
 1088 026a 6C6F6E67 		.ascii	"long int\000"
 1088      20696E74 
 1088      00
 1089              	.LASF0:
ARM GAS  /tmp/ccW9riok.s 			page 25


 1090 0273 7369676E 		.ascii	"signed char\000"
 1090      65642063 
 1090      68617200 
 1091              	.LASF12:
 1092 027f 75696E74 		.ascii	"uint32_t\000"
 1092      33325F74 
 1092      00
 1093              	.LASF16:
 1094 0288 53574945 		.ascii	"SWIER\000"
 1094      5200
 1095              	.LASF15:
 1096 028e 46545352 		.ascii	"FTSR\000"
 1096      00
 1097              		.ident	"GCC: (GNU Tools for ARM Embedded Processors) 5.2.1 20151202 (release) [ARM/embedded-5-bran
ARM GAS  /tmp/ccW9riok.s 			page 26


DEFINED SYMBOLS
                            *ABS*:00000000 stm32f0x_gpio.c
     /tmp/ccW9riok.s:55     .text.GPIO_Config:00000000 $t
     /tmp/ccW9riok.s:60     .text.GPIO_Config:00000000 GPIO_Config
     /tmp/ccW9riok.s:234    .text.GPIO_Config:00000104 $d
     /tmp/ccW9riok.s:248    .text.EXTIOff:00000000 $t
     /tmp/ccW9riok.s:253    .text.EXTIOff:00000000 EXTIOff
     /tmp/ccW9riok.s:271    .text.EXTIOff:00000010 $d
     /tmp/ccW9riok.s:277    .text.EXTIOn:00000000 $t
     /tmp/ccW9riok.s:282    .text.EXTIOn:00000000 EXTIOn
     /tmp/ccW9riok.s:301    .text.EXTIOn:00000014 $d
                     .debug_frame:00000010 $d

NO UNDEFINED SYMBOLS
