ARM GAS  /tmp/ccW42TS1.s 			page 1


   1              		.syntax unified
   2              		.cpu cortex-m0
   3              		.fpu softvfp
   4              		.eabi_attribute 20, 1	@ Tag_ABI_FP_denormal
   5              		.eabi_attribute 21, 1	@ Tag_ABI_FP_exceptions
   6              		.eabi_attribute 23, 3	@ Tag_ABI_FP_number_model
   7              		.eabi_attribute 24, 1	@ Tag_ABI_align8_needed
   8              		.eabi_attribute 25, 1	@ Tag_ABI_align8_preserved
   9              		.eabi_attribute 26, 1	@ Tag_ABI_enum_size
  10              		.eabi_attribute 30, 6	@ Tag_ABI_optimization_goals
  11              		.eabi_attribute 34, 0	@ Tag_CPU_unaligned_access
  12              		.eabi_attribute 18, 4	@ Tag_ABI_PCS_wchar_t
  13              		.file	"synchro.c"
  14              	@ GNU C11 (GNU Tools for ARM Embedded Processors) version 5.2.1 20151202 (release) [ARM/embedded-5-
  15              	@	compiled by GNU C version 4.7.4, GMP version 4.3.2, MPFR version 2.4.2, MPC version 0.8.1
  16              	@ GGC heuristics: --param ggc-min-expand=100 --param ggc-min-heapsize=131072
  17              	@ options passed:  -I . -I ./src -I ./cmsis_boot -I ./cmsis_core
  18              	@ -I ../STM32F0xx_StdPeriph_Lib_V1.3.1/Libraries/STM32F0xx_StdPeriph_Driver/inc
  19              	@ -I ./inc -I ./cmsis_boot -imultilib armv6-m
  20              	@ -iprefix /usr/local/sbin/gcc-arm-none-eabi-5_2-2015q4/bin/../lib/gcc/arm-none-eabi/5.2.1/
  21              	@ -isysroot /usr/local/sbin/gcc-arm-none-eabi-5_2-2015q4/bin/../arm-none-eabi
  22              	@ -D__USES_INITFINI__ src/synchro.c -mcpu=cortex-m0 -mthumb
  23              	@ -auxbase-strip src/synchro.o -g -gdwarf-2 -O0 -Wall -fomit-frame-pointer
  24              	@ -fdata-sections -ffunction-sections -fverbose-asm
  25              	@ options enabled:  -faggressive-loop-optimizations -fauto-inc-dec
  26              	@ -fchkp-check-incomplete-type -fchkp-check-read -fchkp-check-write
  27              	@ -fchkp-instrument-calls -fchkp-narrow-bounds -fchkp-optimize
  28              	@ -fchkp-store-bounds -fchkp-use-static-bounds
  29              	@ -fchkp-use-static-const-bounds -fchkp-use-wrappers -fcommon
  30              	@ -fdata-sections -fdelete-null-pointer-checks -fdwarf2-cfi-asm
  31              	@ -fearly-inlining -feliminate-unused-debug-types -ffunction-cse
  32              	@ -ffunction-sections -fgcse-lm -fgnu-runtime -fgnu-unique -fident
  33              	@ -finline-atomics -fira-hoist-pressure -fira-share-save-slots
  34              	@ -fira-share-spill-slots -fivopts -fkeep-static-consts
  35              	@ -fleading-underscore -flifetime-dse -flto-odr-type-merging -fmath-errno
  36              	@ -fmerge-debug-strings -fomit-frame-pointer -fpeephole
  37              	@ -fprefetch-loop-arrays -freg-struct-return
  38              	@ -fsched-critical-path-heuristic -fsched-dep-count-heuristic
  39              	@ -fsched-group-heuristic -fsched-interblock -fsched-last-insn-heuristic
  40              	@ -fsched-rank-heuristic -fsched-spec -fsched-spec-insn-heuristic
  41              	@ -fsched-stalled-insns-dep -fsemantic-interposition -fshow-column
  42              	@ -fsigned-zeros -fsplit-ivs-in-unroller -fstdarg-opt
  43              	@ -fstrict-volatile-bitfields -fsync-libcalls -ftrapping-math
  44              	@ -ftree-coalesce-vars -ftree-cselim -ftree-forwprop -ftree-loop-if-convert
  45              	@ -ftree-loop-im -ftree-loop-ivcanon -ftree-loop-optimize
  46              	@ -ftree-parallelize-loops= -ftree-phiprop -ftree-reassoc -ftree-scev-cprop
  47              	@ -funit-at-a-time -fverbose-asm -fzero-initialized-in-bss -mlittle-endian
  48              	@ -mpic-data-is-text-relative -msched-prolog -mthumb
  49              	@ -mvectorize-with-neon-quad
  50              	
  51              		.text
  52              	.Ltext0:
  53              		.cfi_sections	.debug_frame
  54              		.global	max_vgrid_last
  55              		.section	.bss.max_vgrid_last,"aw",%nobits
  56              		.align	1
  57              		.type	max_vgrid_last, %object
ARM GAS  /tmp/ccW42TS1.s 			page 2


  58              		.size	max_vgrid_last, 2
  59              	max_vgrid_last:
  60 0000 0000     		.space	2
  61              		.global	max_vgrid
  62              		.section	.bss.max_vgrid,"aw",%nobits
  63              		.align	1
  64              		.type	max_vgrid, %object
  65              		.size	max_vgrid, 2
  66              	max_vgrid:
  67 0000 0000     		.space	2
  68              		.global	vgrid_update_samples
  69              		.section	.bss.vgrid_update_samples,"aw",%nobits
  70              		.align	1
  71              		.type	vgrid_update_samples, %object
  72              		.size	vgrid_update_samples, 2
  73              	vgrid_update_samples:
  74 0000 0000     		.space	2
  75              		.global	max_igrid_last
  76              		.section	.bss.max_igrid_last,"aw",%nobits
  77              		.align	1
  78              		.type	max_igrid_last, %object
  79              		.size	max_igrid_last, 2
  80              	max_igrid_last:
  81 0000 0000     		.space	2
  82              		.global	min_igrid_last
  83              		.section	.bss.min_igrid_last,"aw",%nobits
  84              		.align	1
  85              		.type	min_igrid_last, %object
  86              		.size	min_igrid_last, 2
  87              	min_igrid_last:
  88 0000 0000     		.space	2
  89              		.global	max_igrid
  90              		.section	.bss.max_igrid,"aw",%nobits
  91              		.align	1
  92              		.type	max_igrid, %object
  93              		.size	max_igrid, 2
  94              	max_igrid:
  95 0000 0000     		.space	2
  96              		.global	min_igrid
  97              		.section	.bss.min_igrid,"aw",%nobits
  98              		.align	1
  99              		.type	min_igrid, %object
 100              		.size	min_igrid, 2
 101              	min_igrid:
 102 0000 0000     		.space	2
 103              		.global	igrid_update_samples
 104              		.section	.bss.igrid_update_samples,"aw",%nobits
 105              		.type	igrid_update_samples, %object
 106              		.size	igrid_update_samples, 1
 107              	igrid_update_samples:
 108 0000 00       		.space	1
 109              		.section	.text.UpdateIGrid,"ax",%progbits
 110              		.align	2
 111              		.global	UpdateIGrid
 112              		.code	16
 113              		.thumb_func
 114              		.type	UpdateIGrid, %function
ARM GAS  /tmp/ccW42TS1.s 			page 3


 115              	UpdateIGrid:
 116              	.LFB20:
 117              		.file 1 "src/synchro.c"
   1:src/synchro.c **** /*
   2:src/synchro.c ****  * synchro.c
   3:src/synchro.c ****  *
   4:src/synchro.c ****  *  Created on: 02/12/2015
   5:src/synchro.c ****  *      Author: Mariano
   6:src/synchro.c ****  */
   7:src/synchro.c **** 
   8:src/synchro.c **** #include "synchro.h"
   9:src/synchro.c **** #include "hard.h"
  10:src/synchro.c **** //#include "dsp.h"
  11:src/synchro.c **** #include "stm32f0xx_gpio.h"
  12:src/synchro.c **** #include "adc.h"
  13:src/synchro.c **** #include "stm32f0xx.h"
  14:src/synchro.c **** #include "stm32f0xx_adc.h"
  15:src/synchro.c **** 
  16:src/synchro.c **** /*
  17:src/synchro.c **** extern volatile unsigned short adc_ch [4];
  18:src/synchro.c **** extern volatile unsigned char need_to_sync;
  19:src/synchro.c **** extern volatile unsigned char freq_ready;
  20:src/synchro.c **** extern volatile unsigned short lastC0V;
  21:src/synchro.c **** extern volatile unsigned char zero_cross;
  22:src/synchro.c **** extern volatile unsigned char slips_state;
  23:src/synchro.c **** */
  24:src/synchro.c **** // ------- para determinar VGrid() -------
  25:src/synchro.c **** unsigned short max_vgrid_last = 0;
  26:src/synchro.c **** unsigned short max_vgrid = 0;
  27:src/synchro.c **** unsigned short vgrid_update_samples = 0;
  28:src/synchro.c **** 
  29:src/synchro.c **** // ------- para determinar timer vgrid & igrid -------
  30:src/synchro.c **** extern volatile unsigned char igrid_timer;
  31:src/synchro.c **** extern volatile unsigned char vgrid_timer;
  32:src/synchro.c **** 
  33:src/synchro.c **** // ------- Globales para determinar IGrid() -------
  34:src/synchro.c **** unsigned short max_igrid_last = 0;
  35:src/synchro.c **** unsigned short min_igrid_last = 0;
  36:src/synchro.c **** unsigned short max_igrid = 0;
  37:src/synchro.c **** unsigned short min_igrid = 0;
  38:src/synchro.c **** unsigned char igrid_update_samples = 0;
  39:src/synchro.c **** 
  40:src/synchro.c **** 
  41:src/synchro.c **** 
  42:src/synchro.c **** /*
  43:src/synchro.c **** // ------- para determinar frecuencia -------
  44:src/synchro.c **** extern unsigned short fgrid_mean;
  45:src/synchro.c **** extern unsigned short v_fgrid [32];	//largo del filtro para MA32
  46:src/synchro.c **** //extern unsigned short v_fgrid [4];	//largo del filtro con fast es justo
  47:src/synchro.c **** //unsigned short v_fgrid [8];	//largo del filtro para MA8
  48:src/synchro.c **** 
  49:src/synchro.c **** // ------- para determinar ruidos de cruce -------
  50:src/synchro.c **** extern volatile unsigned short timer_zero_cross;
  51:src/synchro.c **** extern unsigned char noise_z3;
  52:src/synchro.c **** extern unsigned char noise_z2;
  53:src/synchro.c **** extern unsigned char noise_z1;
  54:src/synchro.c **** extern unsigned char noise;
ARM GAS  /tmp/ccW42TS1.s 			page 4


  55:src/synchro.c **** extern unsigned short total_noise;
  56:src/synchro.c **** 
  57:src/synchro.c **** // ------- para determinar vin -------
  58:src/synchro.c **** unsigned short vin_mean;
  59:src/synchro.c **** unsigned short v_vin [8];
  60:src/synchro.c **** */
  61:src/synchro.c **** 
  62:src/synchro.c **** /*
  63:src/synchro.c **** unsigned char CheckVGrid (void)
  64:src/synchro.c **** {
  65:src/synchro.c **** 	unsigned short medida;
  66:src/synchro.c **** 
  67:src/synchro.c **** 	if (max_vgrid_last > min_vgrid_last)
  68:src/synchro.c **** 	{
  69:src/synchro.c **** 		medida = max_vgrid_last - min_vgrid_last;	//valor de tension pico a pico
  70:src/synchro.c **** 
  71:src/synchro.c **** 		if ((medida > VGRID_MIN) && (medida < VGRID_MAX))
  72:src/synchro.c **** 			return GOOD;
  73:src/synchro.c **** 	}
  74:src/synchro.c **** 	return BAD;
  75:src/synchro.c **** }
  76:src/synchro.c **** 
  77:src/synchro.c **** unsigned char CheckFGrid (void)
  78:src/synchro.c **** {
  79:src/synchro.c **** 	if ((fgrid_mean < GRID_FREQ_MIN) && (fgrid_mean > GRID_FREQ_MAX))	//cambia la inecuacion porque so
  80:src/synchro.c **** 	//if (fgrid_mean > GRID_FREQ_MAX)
  81:src/synchro.c **** 		return GOOD;
  82:src/synchro.c **** 	else
  83:src/synchro.c **** 		return BAD;
  84:src/synchro.c **** }
  85:src/synchro.c **** 
  86:src/synchro.c **** unsigned char CheckFGridFast (unsigned short f)
  87:src/synchro.c **** {
  88:src/synchro.c **** 	if ((f < GRID_FREQ_MIN_REALLY_GOOD) && (f > GRID_FREQ_MAX_REALLY_GOOD))	//cambia la inecuacion por
  89:src/synchro.c **** 	{
  90:src/synchro.c **** 		return REALLY_GOOD;
  91:src/synchro.c **** 	}
  92:src/synchro.c **** 	else if ((f < GRID_FREQ_MIN) && (f > GRID_FREQ_MAX))	//cambia la inecuacion porque son tiempos
  93:src/synchro.c **** 	{
  94:src/synchro.c **** 		return GOOD;
  95:src/synchro.c **** 	}
  96:src/synchro.c **** 	return BAD;
  97:src/synchro.c **** }
  98:src/synchro.c **** 
  99:src/synchro.c **** unsigned char CheckGridNoise (void)
 100:src/synchro.c **** {
 101:src/synchro.c **** 	//tuve que haber tenido mas de 48 cruces, sino ni contesto
 102:src/synchro.c **** 	if (total_noise == 50)
 103:src/synchro.c **** 		return REALLY_GOOD;
 104:src/synchro.c **** 
 105:src/synchro.c **** 	if ((total_noise > 48) && (total_noise < 52))	//desde 49 a 51
 106:src/synchro.c **** 		return GOOD;
 107:src/synchro.c **** 
 108:src/synchro.c **** 	if ((total_noise > 46) && (total_noise < 54))	//desde 47 a 53
 109:src/synchro.c **** 		return REGULAR;
 110:src/synchro.c **** 
 111:src/synchro.c **** 	return BAD;
ARM GAS  /tmp/ccW42TS1.s 			page 5


 112:src/synchro.c **** }
 113:src/synchro.c **** 
 114:src/synchro.c **** unsigned char CheckVin (void)
 115:src/synchro.c **** {
 116:src/synchro.c **** 	if ((vin_mean < VIN_MAX) && (vin_mean > VIN_MIN))
 117:src/synchro.c **** 	{
 118:src/synchro.c **** 		return GOOD;
 119:src/synchro.c **** 	}
 120:src/synchro.c **** 	return BAD;
 121:src/synchro.c **** }
 122:src/synchro.c **** 
 123:src/synchro.c **** void UpdateVGrid (void)
 124:src/synchro.c **** {
 125:src/synchro.c **** 	unsigned short medida;
 126:src/synchro.c **** 
 127:src/synchro.c **** 	//miro la ultima medicion
 128:src/synchro.c **** 	//promedio 4 mediciones para evitar problemas de ruido
 129:src/synchro.c **** 	medida = MAFilterFast(V_GRID_SENSE, v_vgrid);
 130:src/synchro.c **** 	//medida = V_GRID_SENSE;
 131:src/synchro.c **** 
 132:src/synchro.c **** 	if (vgrid_update_samples < VGRID_SAMPLES_RESET)	//512 es toda la senoidal 576 es un ciclo y un oct
 133:src/synchro.c **** 	{
 134:src/synchro.c **** 		//reviso si es un maximo
 135:src/synchro.c **** 		if (medida > max_vgrid)
 136:src/synchro.c **** 			max_vgrid = medida;
 137:src/synchro.c **** 
 138:src/synchro.c **** 		//reviso si es un minimo
 139:src/synchro.c **** 		if (medida < min_vgrid)
 140:src/synchro.c **** 			min_vgrid = medida;
 141:src/synchro.c **** 
 142:src/synchro.c **** 		vgrid_update_samples++;
 143:src/synchro.c **** 	}
 144:src/synchro.c **** 	else
 145:src/synchro.c **** 	{
 146:src/synchro.c **** 		//if (LED2)
 147:src/synchro.c **** 		//	LED2_OFF;
 148:src/synchro.c **** 		//else
 149:src/synchro.c **** 		//	LED2_ON;
 150:src/synchro.c **** 
 151:src/synchro.c **** 		//paso un ciclo y un octavo completo, seguro tengo maximo y minimos cargados
 152:src/synchro.c **** 		max_vgrid_last = max_vgrid;
 153:src/synchro.c **** 		min_vgrid_last = min_vgrid;
 154:src/synchro.c **** 		max_vgrid = 2048;
 155:src/synchro.c **** 		min_vgrid = 2048;
 156:src/synchro.c **** 		vgrid_update_samples = 0;
 157:src/synchro.c **** 	}
 158:src/synchro.c **** }
 159:src/synchro.c **** 
 160:src/synchro.c **** void UpdateFGrid (void)
 161:src/synchro.c **** {
 162:src/synchro.c **** 	//miro la ultima medicion
 163:src/synchro.c **** 	if (freq_ready)
 164:src/synchro.c **** 	{
 165:src/synchro.c **** 		freq_ready = 0;
 166:src/synchro.c **** 		fgrid_mean = MAFilter32(lastC0V, v_fgrid);		//TODO: Demora 12us
 167:src/synchro.c **** 		//fgrid_mean = MAFilterFast(lastC0V, v_fgrid);
 168:src/synchro.c **** 		//fgrid_mean = MAFilter8(lastC0V, v_fgrid);
ARM GAS  /tmp/ccW42TS1.s 			page 6


 169:src/synchro.c **** 		//fgrid_mean = lastC0V;
 170:src/synchro.c **** 
 171:src/synchro.c **** 		//if (LED2)
 172:src/synchro.c **** 		//	LED2_OFF;
 173:src/synchro.c **** 		//else
 174:src/synchro.c **** 		//	LED2_ON;
 175:src/synchro.c **** 	}
 176:src/synchro.c **** }
 177:src/synchro.c **** 
 178:src/synchro.c **** void UpdateSyncNoise (void)
 179:src/synchro.c **** {
 180:src/synchro.c **** 	//miro la ultima medicion
 181:src/synchro.c **** 	if (!timer_zero_cross)
 182:src/synchro.c **** 	{
 183:src/synchro.c **** 		noise_z3 = noise_z2;
 184:src/synchro.c **** 		noise_z2 = noise_z1;
 185:src/synchro.c **** 		noise_z1 = noise;
 186:src/synchro.c **** 		noise = zero_cross;
 187:src/synchro.c **** 
 188:src/synchro.c **** 		zero_cross = 0;
 189:src/synchro.c **** 
 190:src/synchro.c **** 		total_noise = noise + noise_z1 + noise_z2 + noise_z3;
 191:src/synchro.c **** 
 192:src/synchro.c **** 		timer_zero_cross = 250;		//250ms
 193:src/synchro.c **** 	}
 194:src/synchro.c **** }
 195:src/synchro.c **** 
 196:src/synchro.c **** void UpdateVin (unsigned short v)
 197:src/synchro.c **** {
 198:src/synchro.c **** 	//miro la ultima medicion
 199:src/synchro.c **** 	vin_mean = MAFilter8 (v, v_vin);
 200:src/synchro.c **** }
 201:src/synchro.c **** 
 202:src/synchro.c **** */
 203:src/synchro.c **** 
 204:src/synchro.c **** void UpdateIGrid (void)
 205:src/synchro.c **** {
 118              		.loc 1 205 0
 119              		.cfi_startproc
 120 0000 82B0     		sub	sp, sp, #8	@,,
 121              	.LCFI0:
 122              		.cfi_def_cfa_offset 8
 206:src/synchro.c **** 	unsigned short medida = 0;
 123              		.loc 1 206 0
 124 0002 6B46     		mov	r3, sp	@ tmp160,
 125 0004 0633     		adds	r3, r3, #6	@ tmp118,
 126 0006 0022     		movs	r2, #0	@ tmp119,
 127 0008 1A80     		strh	r2, [r3]	@ tmp120, medida
 207:src/synchro.c **** 
 208:src/synchro.c **** 	if (igrid_timer)	//cada 400us
 128              		.loc 1 208 0
 129 000a 204B     		ldr	r3, .L7	@ tmp121,
 130 000c 1B78     		ldrb	r3, [r3]	@ tmp122, igrid_timer
 131 000e DBB2     		uxtb	r3, r3	@ D.5024, tmp122
 132 0010 002B     		cmp	r3, #0	@ D.5024,
 133 0012 38D0     		beq	.L6	@,
 209:src/synchro.c **** 	{
ARM GAS  /tmp/ccW42TS1.s 			page 7


 210:src/synchro.c **** 		igrid_timer = 0;
 134              		.loc 1 210 0
 135 0014 1D4B     		ldr	r3, .L7	@ tmp123,
 136 0016 0022     		movs	r2, #0	@ tmp124,
 137 0018 1A70     		strb	r2, [r3]	@ tmp125, igrid_timer
 211:src/synchro.c **** 		if (igrid_update_samples < IGRID_SAMPLES_RESET)	//50 es toda la senoidal 60 es un ciclo y un octa
 138              		.loc 1 211 0
 139 001a 1D4B     		ldr	r3, .L7+4	@ tmp126,
 140 001c 1B78     		ldrb	r3, [r3]	@ D.5024, igrid_update_samples
 141 001e 3B2B     		cmp	r3, #59	@ D.5024,
 142 0020 1ED8     		bhi	.L3	@,
 212:src/synchro.c **** 		{
 213:src/synchro.c **** #ifdef VER_1_3
 214:src/synchro.c **** 			medida = ReadADC1_SameSampleTime(ADC_Channel_0);
 215:src/synchro.c **** #endif
 216:src/synchro.c **** #ifdef VER_1_2
 217:src/synchro.c **** 			medida = ReadADC1_SameSampleTime(ADC_Channel_8);
 218:src/synchro.c **** #endif
 219:src/synchro.c **** 
 220:src/synchro.c **** 			//reviso si es un maximo
 221:src/synchro.c **** 			if (medida > max_igrid)
 143              		.loc 1 221 0
 144 0022 1C4B     		ldr	r3, .L7+8	@ tmp127,
 145 0024 1B88     		ldrh	r3, [r3]	@ D.5025, max_igrid
 146 0026 6A46     		mov	r2, sp	@ tmp161,
 147 0028 0632     		adds	r2, r2, #6	@ tmp128,
 148 002a 1288     		ldrh	r2, [r2]	@ tmp129, medida
 149 002c 9A42     		cmp	r2, r3	@ tmp129, D.5025
 150 002e 04D9     		bls	.L4	@,
 222:src/synchro.c **** 				max_igrid = medida;
 151              		.loc 1 222 0
 152 0030 184B     		ldr	r3, .L7+8	@ tmp130,
 153 0032 6A46     		mov	r2, sp	@ tmp162,
 154 0034 0632     		adds	r2, r2, #6	@ tmp131,
 155 0036 1288     		ldrh	r2, [r2]	@ tmp132, medida
 156 0038 1A80     		strh	r2, [r3]	@ tmp132, max_igrid
 157              	.L4:
 223:src/synchro.c **** 
 224:src/synchro.c **** 			//reviso si es un minimo
 225:src/synchro.c **** 			if (medida < min_igrid)
 158              		.loc 1 225 0
 159 003a 174B     		ldr	r3, .L7+12	@ tmp133,
 160 003c 1B88     		ldrh	r3, [r3]	@ D.5025, min_igrid
 161 003e 6A46     		mov	r2, sp	@ tmp163,
 162 0040 0632     		adds	r2, r2, #6	@ tmp134,
 163 0042 1288     		ldrh	r2, [r2]	@ tmp135, medida
 164 0044 9A42     		cmp	r2, r3	@ tmp135, D.5025
 165 0046 04D2     		bcs	.L5	@,
 226:src/synchro.c **** 				min_igrid = medida;
 166              		.loc 1 226 0
 167 0048 134B     		ldr	r3, .L7+12	@ tmp136,
 168 004a 6A46     		mov	r2, sp	@ tmp164,
 169 004c 0632     		adds	r2, r2, #6	@ tmp137,
 170 004e 1288     		ldrh	r2, [r2]	@ tmp138, medida
 171 0050 1A80     		strh	r2, [r3]	@ tmp138, min_igrid
 172              	.L5:
 227:src/synchro.c **** 
ARM GAS  /tmp/ccW42TS1.s 			page 8


 228:src/synchro.c **** 			igrid_update_samples++;
 173              		.loc 1 228 0
 174 0052 0F4B     		ldr	r3, .L7+4	@ tmp139,
 175 0054 1B78     		ldrb	r3, [r3]	@ D.5024, igrid_update_samples
 176 0056 0133     		adds	r3, r3, #1	@ tmp140,
 177 0058 DAB2     		uxtb	r2, r3	@ D.5024, tmp140
 178 005a 0D4B     		ldr	r3, .L7+4	@ tmp141,
 179 005c 1A70     		strb	r2, [r3]	@ tmp142, igrid_update_samples
 229:src/synchro.c **** 		}
 230:src/synchro.c **** 		else
 231:src/synchro.c **** 		{
 232:src/synchro.c **** 			//paso un ciclo y un octavo completo, seguro tengo maximo y minimos cargados
 233:src/synchro.c **** 			max_igrid_last = max_igrid;
 234:src/synchro.c **** 			min_igrid_last = min_igrid;
 235:src/synchro.c **** 			max_igrid = 2048;
 236:src/synchro.c **** 			min_igrid = 2048;
 237:src/synchro.c **** 
 238:src/synchro.c **** 			//ajusto para referencia en 1.81V
 239:src/synchro.c **** 			//max_igrid = 2256;
 240:src/synchro.c **** 			//min_igrid = 2256;
 241:src/synchro.c **** 
 242:src/synchro.c **** 			igrid_update_samples = 0;
 243:src/synchro.c **** 		}
 244:src/synchro.c **** 	}
 245:src/synchro.c **** }
 180              		.loc 1 245 0
 181 005e 12E0     		b	.L6	@
 182              	.L3:
 233:src/synchro.c **** 			min_igrid_last = min_igrid;
 183              		.loc 1 233 0
 184 0060 0C4B     		ldr	r3, .L7+8	@ tmp143,
 185 0062 1A88     		ldrh	r2, [r3]	@ D.5025, max_igrid
 186 0064 0D4B     		ldr	r3, .L7+16	@ tmp144,
 187 0066 1A80     		strh	r2, [r3]	@ tmp145, max_igrid_last
 234:src/synchro.c **** 			max_igrid = 2048;
 188              		.loc 1 234 0
 189 0068 0B4B     		ldr	r3, .L7+12	@ tmp146,
 190 006a 1A88     		ldrh	r2, [r3]	@ D.5025, min_igrid
 191 006c 0C4B     		ldr	r3, .L7+20	@ tmp147,
 192 006e 1A80     		strh	r2, [r3]	@ tmp148, min_igrid_last
 235:src/synchro.c **** 			min_igrid = 2048;
 193              		.loc 1 235 0
 194 0070 084B     		ldr	r3, .L7+8	@ tmp149,
 195 0072 8022     		movs	r2, #128	@ tmp158,
 196 0074 1201     		lsls	r2, r2, #4	@ tmp150, tmp158,
 197 0076 1A80     		strh	r2, [r3]	@ tmp151, max_igrid
 236:src/synchro.c **** 
 198              		.loc 1 236 0
 199 0078 074B     		ldr	r3, .L7+12	@ tmp152,
 200 007a 8022     		movs	r2, #128	@ tmp159,
 201 007c 1201     		lsls	r2, r2, #4	@ tmp153, tmp159,
 202 007e 1A80     		strh	r2, [r3]	@ tmp154, min_igrid
 242:src/synchro.c **** 		}
 203              		.loc 1 242 0
 204 0080 034B     		ldr	r3, .L7+4	@ tmp155,
 205 0082 0022     		movs	r2, #0	@ tmp156,
 206 0084 1A70     		strb	r2, [r3]	@ tmp157, igrid_update_samples
ARM GAS  /tmp/ccW42TS1.s 			page 9


 207              	.L6:
 208              		.loc 1 245 0
 209 0086 C046     		nop
 210 0088 02B0     		add	sp, sp, #8	@,,
 211              		@ sp needed	@
 212 008a 7047     		bx	lr
 213              	.L8:
 214              		.align	2
 215              	.L7:
 216 008c 00000000 		.word	igrid_timer
 217 0090 00000000 		.word	igrid_update_samples
 218 0094 00000000 		.word	max_igrid
 219 0098 00000000 		.word	min_igrid
 220 009c 00000000 		.word	max_igrid_last
 221 00a0 00000000 		.word	min_igrid_last
 222              		.cfi_endproc
 223              	.LFE20:
 224              		.size	UpdateIGrid, .-UpdateIGrid
 225              		.section	.text.GetIGrid,"ax",%progbits
 226              		.align	2
 227              		.global	GetIGrid
 228              		.code	16
 229              		.thumb_func
 230              		.type	GetIGrid, %function
 231              	GetIGrid:
 232              	.LFB21:
 246:src/synchro.c **** 
 247:src/synchro.c **** unsigned short GetIGrid (void)
 248:src/synchro.c **** {
 233              		.loc 1 248 0
 234              		.cfi_startproc
 235 0000 82B0     		sub	sp, sp, #8	@,,
 236              	.LCFI1:
 237              		.cfi_def_cfa_offset 8
 249:src/synchro.c **** 	unsigned short medida;
 250:src/synchro.c **** 
 251:src/synchro.c **** 	if (max_igrid_last > min_igrid_last)
 238              		.loc 1 251 0
 239 0002 0C4B     		ldr	r3, .L13	@ tmp116,
 240 0004 1A88     		ldrh	r2, [r3]	@ D.5026, max_igrid_last
 241 0006 0C4B     		ldr	r3, .L13+4	@ tmp117,
 242 0008 1B88     		ldrh	r3, [r3]	@ D.5026, min_igrid_last
 243 000a 9A42     		cmp	r2, r3	@ D.5026, D.5026
 244 000c 08D9     		bls	.L10	@,
 252:src/synchro.c **** 	{
 253:src/synchro.c **** 		medida = max_igrid_last - min_igrid_last;	//valor de corriente pico a pico
 245              		.loc 1 253 0
 246 000e 094B     		ldr	r3, .L13	@ tmp118,
 247 0010 1988     		ldrh	r1, [r3]	@ D.5026, max_igrid_last
 248 0012 094B     		ldr	r3, .L13+4	@ tmp119,
 249 0014 1A88     		ldrh	r2, [r3]	@ D.5026, min_igrid_last
 250 0016 6B46     		mov	r3, sp	@ tmp128,
 251 0018 0633     		adds	r3, r3, #6	@ tmp120,
 252 001a 8A1A     		subs	r2, r1, r2	@ tmp121, D.5026, D.5026
 253 001c 1A80     		strh	r2, [r3]	@ tmp122, medida
 254 001e 03E0     		b	.L11	@
 255              	.L10:
ARM GAS  /tmp/ccW42TS1.s 			page 10


 254:src/synchro.c **** 	}
 255:src/synchro.c **** 	else
 256:src/synchro.c **** 		medida = 0;
 256              		.loc 1 256 0
 257 0020 6B46     		mov	r3, sp	@ tmp129,
 258 0022 0633     		adds	r3, r3, #6	@ tmp123,
 259 0024 0022     		movs	r2, #0	@ tmp124,
 260 0026 1A80     		strh	r2, [r3]	@ tmp125, medida
 261              	.L11:
 257:src/synchro.c **** 
 258:src/synchro.c **** 	return medida;
 262              		.loc 1 258 0
 263 0028 6B46     		mov	r3, sp	@ tmp130,
 264 002a 0633     		adds	r3, r3, #6	@ tmp126,
 265 002c 1B88     		ldrh	r3, [r3]	@ D.5026, medida
 259:src/synchro.c **** }
 266              		.loc 1 259 0
 267 002e 1800     		movs	r0, r3	@, <retval>
 268 0030 02B0     		add	sp, sp, #8	@,,
 269              		@ sp needed	@
 270 0032 7047     		bx	lr
 271              	.L14:
 272              		.align	2
 273              	.L13:
 274 0034 00000000 		.word	max_igrid_last
 275 0038 00000000 		.word	min_igrid_last
 276              		.cfi_endproc
 277              	.LFE21:
 278              		.size	GetIGrid, .-GetIGrid
 279              		.section	.text.UpdateVGrid,"ax",%progbits
 280              		.align	2
 281              		.global	UpdateVGrid
 282              		.code	16
 283              		.thumb_func
 284              		.type	UpdateVGrid, %function
 285              	UpdateVGrid:
 286              	.LFB22:
 260:src/synchro.c **** 
 261:src/synchro.c **** void UpdateVGrid (void)		//es una senial rectificada solo positiva
 262:src/synchro.c **** {
 287              		.loc 1 262 0
 288              		.cfi_startproc
 289 0000 10B5     		push	{r4, lr}	@
 290              	.LCFI2:
 291              		.cfi_def_cfa_offset 8
 292              		.cfi_offset 4, -8
 293              		.cfi_offset 14, -4
 294 0002 82B0     		sub	sp, sp, #8	@,,
 295              	.LCFI3:
 296              		.cfi_def_cfa_offset 16
 263:src/synchro.c **** 	unsigned short medida;
 264:src/synchro.c **** 
 265:src/synchro.c **** 	if (vgrid_timer)	//cada 400us
 297              		.loc 1 265 0
 298 0004 194B     		ldr	r3, .L20	@ tmp116,
 299 0006 1B78     		ldrb	r3, [r3]	@ tmp117, vgrid_timer
 300 0008 DBB2     		uxtb	r3, r3	@ D.5027, tmp117
ARM GAS  /tmp/ccW42TS1.s 			page 11


 301 000a 002B     		cmp	r3, #0	@ D.5027,
 302 000c 2AD0     		beq	.L19	@,
 266:src/synchro.c **** 	{
 267:src/synchro.c **** 		vgrid_timer = 0;
 303              		.loc 1 267 0
 304 000e 174B     		ldr	r3, .L20	@ tmp118,
 305 0010 0022     		movs	r2, #0	@ tmp119,
 306 0012 1A70     		strb	r2, [r3]	@ tmp120, vgrid_timer
 268:src/synchro.c **** 
 269:src/synchro.c **** 		medida = ReadADC1_SameSampleTime(ADC_Channel_1);
 307              		.loc 1 269 0
 308 0014 6B46     		mov	r3, sp	@ tmp145,
 309 0016 9C1D     		adds	r4, r3, #6	@ tmp121, tmp145,
 310 0018 0220     		movs	r0, #2	@,
 311 001a FFF7FEFF 		bl	ReadADC1_SameSampleTime	@
 312 001e 0300     		movs	r3, r0	@ tmp122,
 313 0020 2380     		strh	r3, [r4]	@ tmp124, medida
 270:src/synchro.c **** 		//medida = MAFilterFast(V_GRID_SENSE, v_vgrid);
 271:src/synchro.c **** 
 272:src/synchro.c **** 		if (vgrid_update_samples < VGRID_SAMPLES_RESET)	//512 es toda la senoidal 576 es un ciclo y un oc
 314              		.loc 1 272 0
 315 0022 134B     		ldr	r3, .L20+4	@ tmp125,
 316 0024 1B88     		ldrh	r3, [r3]	@ D.5028, vgrid_update_samples
 317 0026 3B2B     		cmp	r3, #59	@ D.5028,
 318 0028 12D8     		bhi	.L17	@,
 273:src/synchro.c **** 		{
 274:src/synchro.c **** 			//reviso si es un maximo
 275:src/synchro.c **** 			if (medida > max_vgrid)
 319              		.loc 1 275 0
 320 002a 124B     		ldr	r3, .L20+8	@ tmp126,
 321 002c 1B88     		ldrh	r3, [r3]	@ D.5028, max_vgrid
 322 002e 6A46     		mov	r2, sp	@ tmp146,
 323 0030 0632     		adds	r2, r2, #6	@ tmp127,
 324 0032 1288     		ldrh	r2, [r2]	@ tmp128, medida
 325 0034 9A42     		cmp	r2, r3	@ tmp128, D.5028
 326 0036 04D9     		bls	.L18	@,
 276:src/synchro.c **** 				max_vgrid = medida;
 327              		.loc 1 276 0
 328 0038 0E4B     		ldr	r3, .L20+8	@ tmp129,
 329 003a 6A46     		mov	r2, sp	@ tmp147,
 330 003c 0632     		adds	r2, r2, #6	@ tmp130,
 331 003e 1288     		ldrh	r2, [r2]	@ tmp131, medida
 332 0040 1A80     		strh	r2, [r3]	@ tmp131, max_vgrid
 333              	.L18:
 277:src/synchro.c **** 
 278:src/synchro.c **** 			vgrid_update_samples++;
 334              		.loc 1 278 0
 335 0042 0B4B     		ldr	r3, .L20+4	@ tmp132,
 336 0044 1B88     		ldrh	r3, [r3]	@ D.5028, vgrid_update_samples
 337 0046 0133     		adds	r3, r3, #1	@ tmp133,
 338 0048 9AB2     		uxth	r2, r3	@ D.5028, tmp133
 339 004a 094B     		ldr	r3, .L20+4	@ tmp134,
 340 004c 1A80     		strh	r2, [r3]	@ tmp135, vgrid_update_samples
 279:src/synchro.c **** 		}
 280:src/synchro.c **** 		else
 281:src/synchro.c **** 		{
 282:src/synchro.c **** 		//paso un ciclo y un octavo completo, seguro tengo maximo y minimos cargados
ARM GAS  /tmp/ccW42TS1.s 			page 12


 283:src/synchro.c **** 			max_vgrid_last = max_vgrid;
 284:src/synchro.c **** 			max_vgrid = 0;
 285:src/synchro.c **** 			vgrid_update_samples = 0;
 286:src/synchro.c **** 		}
 287:src/synchro.c **** 	}
 288:src/synchro.c **** }
 341              		.loc 1 288 0
 342 004e 09E0     		b	.L19	@
 343              	.L17:
 283:src/synchro.c **** 			max_vgrid = 0;
 344              		.loc 1 283 0
 345 0050 084B     		ldr	r3, .L20+8	@ tmp136,
 346 0052 1A88     		ldrh	r2, [r3]	@ D.5028, max_vgrid
 347 0054 084B     		ldr	r3, .L20+12	@ tmp137,
 348 0056 1A80     		strh	r2, [r3]	@ tmp138, max_vgrid_last
 284:src/synchro.c **** 			vgrid_update_samples = 0;
 349              		.loc 1 284 0
 350 0058 064B     		ldr	r3, .L20+8	@ tmp139,
 351 005a 0022     		movs	r2, #0	@ tmp140,
 352 005c 1A80     		strh	r2, [r3]	@ tmp141, max_vgrid
 285:src/synchro.c **** 		}
 353              		.loc 1 285 0
 354 005e 044B     		ldr	r3, .L20+4	@ tmp142,
 355 0060 0022     		movs	r2, #0	@ tmp143,
 356 0062 1A80     		strh	r2, [r3]	@ tmp144, vgrid_update_samples
 357              	.L19:
 358              		.loc 1 288 0
 359 0064 C046     		nop
 360 0066 02B0     		add	sp, sp, #8	@,,
 361              		@ sp needed	@
 362 0068 10BD     		pop	{r4, pc}
 363              	.L21:
 364 006a C046     		.align	2
 365              	.L20:
 366 006c 00000000 		.word	vgrid_timer
 367 0070 00000000 		.word	vgrid_update_samples
 368 0074 00000000 		.word	max_vgrid
 369 0078 00000000 		.word	max_vgrid_last
 370              		.cfi_endproc
 371              	.LFE22:
 372              		.size	UpdateVGrid, .-UpdateVGrid
 373              		.section	.text.GetVGrid,"ax",%progbits
 374              		.align	2
 375              		.global	GetVGrid
 376              		.code	16
 377              		.thumb_func
 378              		.type	GetVGrid, %function
 379              	GetVGrid:
 380              	.LFB23:
 289:src/synchro.c **** 
 290:src/synchro.c **** unsigned short GetVGrid (void)
 291:src/synchro.c **** {
 381              		.loc 1 291 0
 382              		.cfi_startproc
 292:src/synchro.c **** 	return max_vgrid_last;
 383              		.loc 1 292 0
 384 0000 014B     		ldr	r3, .L24	@ tmp112,
ARM GAS  /tmp/ccW42TS1.s 			page 13


 385 0002 1B88     		ldrh	r3, [r3]	@ D.5029, max_vgrid_last
 293:src/synchro.c **** }
 386              		.loc 1 293 0
 387 0004 1800     		movs	r0, r3	@, <retval>
 388              		@ sp needed	@
 389 0006 7047     		bx	lr
 390              	.L25:
 391              		.align	2
 392              	.L24:
 393 0008 00000000 		.word	max_vgrid_last
 394              		.cfi_endproc
 395              	.LFE23:
 396              		.size	GetVGrid, .-GetVGrid
 397              		.text
 398              	.Letext0:
 399              		.file 2 "/usr/local/sbin/gcc-arm-none-eabi-5_2-2015q4/arm-none-eabi/include/machine/_default_types
 400              		.file 3 "/usr/local/sbin/gcc-arm-none-eabi-5_2-2015q4/arm-none-eabi/include/sys/_stdint.h"