ARM GAS  /tmp/cctRPx0h.s 			page 1


   1              		.syntax unified
   2              		.cpu cortex-m0
   3              		.fpu softvfp
   4              		.eabi_attribute 20, 1	@ Tag_ABI_FP_denormal
   5              		.eabi_attribute 21, 1	@ Tag_ABI_FP_exceptions
   6              		.eabi_attribute 23, 3	@ Tag_ABI_FP_number_model
   7              		.eabi_attribute 24, 1	@ Tag_ABI_align8_needed
   8              		.eabi_attribute 25, 1	@ Tag_ABI_align8_preserved
   9              		.eabi_attribute 26, 1	@ Tag_ABI_enum_size
  10              		.eabi_attribute 30, 6	@ Tag_ABI_optimization_goals
  11              		.eabi_attribute 34, 0	@ Tag_CPU_unaligned_access
  12              		.eabi_attribute 18, 4	@ Tag_ABI_PCS_wchar_t
  13              		.file	"tcp_transceiver.c"
  14              	@ GNU C11 (GNU Tools for ARM Embedded Processors) version 5.2.1 20151202 (release) [ARM/embedded-5-
  15              	@	compiled by GNU C version 4.7.4, GMP version 4.3.2, MPFR version 2.4.2, MPC version 0.8.1
  16              	@ GGC heuristics: --param ggc-min-expand=100 --param ggc-min-heapsize=131072
  17              	@ options passed:  -I . -I ./src -I ./cmsis_boot -I ./cmsis_core
  18              	@ -I ../STM32F0xx_StdPeriph_Lib_V1.3.1/Libraries/STM32F0xx_StdPeriph_Driver/inc
  19              	@ -I ./inc -I ./cmsis_boot -imultilib armv6-m
  20              	@ -iprefix /usr/local/sbin/gcc-arm-none-eabi-5_2-2015q4/bin/../lib/gcc/arm-none-eabi/5.2.1/
  21              	@ -isysroot /usr/local/sbin/gcc-arm-none-eabi-5_2-2015q4/bin/../arm-none-eabi
  22              	@ -D__USES_INITFINI__ src/tcp_transceiver.c -mcpu=cortex-m0 -mthumb
  23              	@ -auxbase-strip src/tcp_transceiver.o -g -gdwarf-2 -O0 -Wall
  24              	@ -fomit-frame-pointer -fdata-sections -ffunction-sections -fverbose-asm
  25              	@ options enabled:  -faggressive-loop-optimizations -fauto-inc-dec
  26              	@ -fchkp-check-incomplete-type -fchkp-check-read -fchkp-check-write
  27              	@ -fchkp-instrument-calls -fchkp-narrow-bounds -fchkp-optimize
  28              	@ -fchkp-store-bounds -fchkp-use-static-bounds
  29              	@ -fchkp-use-static-const-bounds -fchkp-use-wrappers -fcommon
  30              	@ -fdata-sections -fdelete-null-pointer-checks -fdwarf2-cfi-asm
  31              	@ -fearly-inlining -feliminate-unused-debug-types -ffunction-cse
  32              	@ -ffunction-sections -fgcse-lm -fgnu-runtime -fgnu-unique -fident
  33              	@ -finline-atomics -fira-hoist-pressure -fira-share-save-slots
  34              	@ -fira-share-spill-slots -fivopts -fkeep-static-consts
  35              	@ -fleading-underscore -flifetime-dse -flto-odr-type-merging -fmath-errno
  36              	@ -fmerge-debug-strings -fomit-frame-pointer -fpeephole
  37              	@ -fprefetch-loop-arrays -freg-struct-return
  38              	@ -fsched-critical-path-heuristic -fsched-dep-count-heuristic
  39              	@ -fsched-group-heuristic -fsched-interblock -fsched-last-insn-heuristic
  40              	@ -fsched-rank-heuristic -fsched-spec -fsched-spec-insn-heuristic
  41              	@ -fsched-stalled-insns-dep -fsemantic-interposition -fshow-column
  42              	@ -fsigned-zeros -fsplit-ivs-in-unroller -fstdarg-opt
  43              	@ -fstrict-volatile-bitfields -fsync-libcalls -ftrapping-math
  44              	@ -ftree-coalesce-vars -ftree-cselim -ftree-forwprop -ftree-loop-if-convert
  45              	@ -ftree-loop-im -ftree-loop-ivcanon -ftree-loop-optimize
  46              	@ -ftree-parallelize-loops= -ftree-phiprop -ftree-reassoc -ftree-scev-cprop
  47              	@ -funit-at-a-time -fverbose-asm -fzero-initialized-in-bss -mlittle-endian
  48              	@ -mpic-data-is-text-relative -msched-prolog -mthumb
  49              	@ -mvectorize-with-neon-quad
  50              	
  51              		.text
  52              	.Ltext0:
  53              		.cfi_sections	.debug_frame
  54              		.comm	bufftcpsend,640,4
  55              		.comm	ptcp,4,4
  56              		.global	tcp_tx_state
  57              		.section	.bss.tcp_tx_state,"aw",%nobits
ARM GAS  /tmp/cctRPx0h.s 			page 2


  58              		.type	tcp_tx_state, %object
  59              		.size	tcp_tx_state, 1
  60              	tcp_tx_state:
  61 0000 00       		.space	1
  62              		.section	.rodata
  63              		.align	2
  64              	.LC0:
  65 0000 6B416C69 		.ascii	"kAlive;\000"
  65      76653B00 
  66              		.align	2
  67              	.LC2:
  68 0008 67657461 		.ascii	"geta;\000"
  68      3B00
  69 000e 0000     		.align	2
  70              	.LC4:
  71 0010 6F302C30 		.ascii	"o0,0;\000"
  71      3B00
  72 0016 0000     		.align	2
  73              	.LC6:
  74 0018 6F302C31 		.ascii	"o0,1;\000"
  74      3B00
  75              		.section	.text.CheckTCPMessage,"ax",%progbits
  76              		.align	2
  77              		.global	CheckTCPMessage
  78              		.code	16
  79              		.thumb_func
  80              		.type	CheckTCPMessage, %function
  81              	CheckTCPMessage:
  82              	.LFB0:
  83              		.file 1 "src/tcp_transceiver.c"
   1:src/tcp_transceiver.c **** /*
   2:src/tcp_transceiver.c ****  * tcp_transceiver.c
   3:src/tcp_transceiver.c ****  *
   4:src/tcp_transceiver.c ****  *  Created on: 13/06/2016
   5:src/tcp_transceiver.c ****  *      Author: Mariano
   6:src/tcp_transceiver.c ****  */
   7:src/tcp_transceiver.c **** 
   8:src/tcp_transceiver.c **** #include "tcp_transceiver.h"
   9:src/tcp_transceiver.c **** #include <string.h>
  10:src/tcp_transceiver.c **** #include <stdio.h>
  11:src/tcp_transceiver.c **** #include <stdlib.h>
  12:src/tcp_transceiver.c **** #include "main_menu.h"
  13:src/tcp_transceiver.c **** #include "ESP8266.h"
  14:src/tcp_transceiver.c **** #include "uart.h"
  15:src/tcp_transceiver.c **** 
  16:src/tcp_transceiver.c **** 
  17:src/tcp_transceiver.c **** 
  18:src/tcp_transceiver.c **** 
  19:src/tcp_transceiver.c **** //--- Externals -----------------------------------//
  20:src/tcp_transceiver.c **** 
  21:src/tcp_transceiver.c **** //extern volatile unsigned char data1[];
  22:src/tcp_transceiver.c **** extern volatile unsigned char data[];
  23:src/tcp_transceiver.c **** //
  24:src/tcp_transceiver.c **** //#define data512		data1
  25:src/tcp_transceiver.c **** #define data256		data
  26:src/tcp_transceiver.c **** 
  27:src/tcp_transceiver.c **** extern volatile unsigned short tcp_send_timeout;
ARM GAS  /tmp/cctRPx0h.s 			page 3


  28:src/tcp_transceiver.c **** extern unsigned char esp_answer;
  29:src/tcp_transceiver.c **** 
  30:src/tcp_transceiver.c **** //--- Globals -------------------------------------//
  31:src/tcp_transceiver.c **** char bufftcpsend [5] [SIZEOF_BUFFTCP_SEND];
  32:src/tcp_transceiver.c **** char * ptcp;
  33:src/tcp_transceiver.c **** unsigned char tcp_tx_state = 0;
  34:src/tcp_transceiver.c **** 
  35:src/tcp_transceiver.c **** 
  36:src/tcp_transceiver.c **** //--- Module Functions ----------------------------//
  37:src/tcp_transceiver.c **** 
  38:src/tcp_transceiver.c **** enum TcpMessages CheckTCPMessage(char * d, unsigned char * new_room_bright, unsigned char * new_lam
  39:src/tcp_transceiver.c **** {
  84              		.loc 1 39 0
  85              		.cfi_startproc
  86 0000 00B5     		push	{lr}	@
  87              	.LCFI0:
  88              		.cfi_def_cfa_offset 4
  89              		.cfi_offset 14, -4
  90 0002 85B0     		sub	sp, sp, #20	@,,
  91              	.LCFI1:
  92              		.cfi_def_cfa_offset 24
  93 0004 0390     		str	r0, [sp, #12]	@ d, d
  94 0006 0291     		str	r1, [sp, #8]	@ new_room_bright, new_room_bright
  95 0008 0192     		str	r2, [sp, #4]	@ new_lamp_bright, new_lamp_bright
  96 000a 0093     		str	r3, [sp]	@ bytes, bytes
  40:src/tcp_transceiver.c **** 	//reviso que tipo de mensaje tengo en data
  41:src/tcp_transceiver.c **** 	if (strncmp((char *) (const char *) "kAlive;", (char *)d, (sizeof((char *) (const char *) "kAlive;
  97              		.loc 1 41 0
  98 000c 0399     		ldr	r1, [sp, #12]	@ tmp131, d
  99 000e 474B     		ldr	r3, .L10	@ tmp132,
 100 0010 0322     		movs	r2, #3	@,
 101 0012 1800     		movs	r0, r3	@, tmp132
 102 0014 FFF7FEFF 		bl	strncmp	@
 103 0018 031E     		subs	r3, r0, #0	@ D.6500,,
 104 001a 0BD1     		bne	.L2	@,
  42:src/tcp_transceiver.c **** 	{
  43:src/tcp_transceiver.c **** 		strcpy ((char *) d, (char *) (d + 7));
 105              		.loc 1 43 0
 106 001c 039B     		ldr	r3, [sp, #12]	@ tmp133, d
 107 001e DA1D     		adds	r2, r3, #7	@ D.6501, tmp133,
 108 0020 039B     		ldr	r3, [sp, #12]	@ tmp134, d
 109 0022 1100     		movs	r1, r2	@, D.6501
 110 0024 1800     		movs	r0, r3	@, tmp134
 111 0026 FFF7FEFF 		bl	strcpy	@
  44:src/tcp_transceiver.c **** 		*bytes = 7;
 112              		.loc 1 44 0
 113 002a 009B     		ldr	r3, [sp]	@ tmp135, bytes
 114 002c 0722     		movs	r2, #7	@ tmp136,
 115 002e 1A70     		strb	r2, [r3]	@ tmp137, *bytes_8(D)
  45:src/tcp_transceiver.c **** 		return KEEP_ALIVE;
 116              		.loc 1 45 0
 117 0030 0123     		movs	r3, #1	@ D.6499,
 118 0032 77E0     		b	.L3	@
 119              	.L2:
  46:src/tcp_transceiver.c **** 	}
  47:src/tcp_transceiver.c **** 
  48:src/tcp_transceiver.c **** 	if (strncmp((char *) (const char *) "geta;", (char *)d, (sizeof((char *) (const char *) "geta;") -
ARM GAS  /tmp/cctRPx0h.s 			page 4


 120              		.loc 1 48 0
 121 0034 0399     		ldr	r1, [sp, #12]	@ tmp138, d
 122 0036 3E4B     		ldr	r3, .L10+4	@ tmp139,
 123 0038 0322     		movs	r2, #3	@,
 124 003a 1800     		movs	r0, r3	@, tmp139
 125 003c FFF7FEFF 		bl	strncmp	@
 126 0040 031E     		subs	r3, r0, #0	@ D.6500,,
 127 0042 0BD1     		bne	.L4	@,
  49:src/tcp_transceiver.c **** 	{
  50:src/tcp_transceiver.c **** 		strcpy ((char *) d, (char *) (d + 5));
 128              		.loc 1 50 0
 129 0044 039B     		ldr	r3, [sp, #12]	@ tmp140, d
 130 0046 5A1D     		adds	r2, r3, #5	@ D.6501, tmp140,
 131 0048 039B     		ldr	r3, [sp, #12]	@ tmp141, d
 132 004a 1100     		movs	r1, r2	@, D.6501
 133 004c 1800     		movs	r0, r3	@, tmp141
 134 004e FFF7FEFF 		bl	strcpy	@
  51:src/tcp_transceiver.c **** 		*bytes = 5;
 135              		.loc 1 51 0
 136 0052 009B     		ldr	r3, [sp]	@ tmp142, bytes
 137 0054 0522     		movs	r2, #5	@ tmp143,
 138 0056 1A70     		strb	r2, [r3]	@ tmp144, *bytes_8(D)
  52:src/tcp_transceiver.c **** 		return GET_A;
 139              		.loc 1 52 0
 140 0058 0423     		movs	r3, #4	@ D.6499,
 141 005a 63E0     		b	.L3	@
 142              	.L4:
  53:src/tcp_transceiver.c **** 	}
  54:src/tcp_transceiver.c **** 
  55:src/tcp_transceiver.c **** 	if ((*d == 'r') && (*(d + 2) == ','))
 143              		.loc 1 55 0
 144 005c 039B     		ldr	r3, [sp, #12]	@ tmp145, d
 145 005e 1B78     		ldrb	r3, [r3]	@ D.6502, *d_4(D)
 146 0060 722B     		cmp	r3, #114	@ D.6502,
 147 0062 1BD1     		bne	.L5	@,
 148              		.loc 1 55 0 is_stmt 0 discriminator 1
 149 0064 039B     		ldr	r3, [sp, #12]	@ tmp146, d
 150 0066 0233     		adds	r3, r3, #2	@ D.6501,
 151 0068 1B78     		ldrb	r3, [r3]	@ D.6502, *_17
 152 006a 2C2B     		cmp	r3, #44	@ D.6502,
 153 006c 16D1     		bne	.L5	@,
  56:src/tcp_transceiver.c **** 	{
  57:src/tcp_transceiver.c **** 		if (ReadPcktR((unsigned char *) d, 1, new_room_bright, bytes) == RESP_OK)
 154              		.loc 1 57 0 is_stmt 1
 155 006e 009B     		ldr	r3, [sp]	@ tmp147, bytes
 156 0070 029A     		ldr	r2, [sp, #8]	@ tmp148, new_room_bright
 157 0072 0398     		ldr	r0, [sp, #12]	@ tmp149, d
 158 0074 0121     		movs	r1, #1	@,
 159 0076 FFF7FEFF 		bl	ReadPcktR	@
 160 007a 031E     		subs	r3, r0, #0	@ tmp150,,
 161 007c 142B     		cmp	r3, #20	@ tmp150,
 162 007e 0BD1     		bne	.L6	@,
  58:src/tcp_transceiver.c **** 		{
  59:src/tcp_transceiver.c **** 			strcpy ((char *) d, (char *) (d + *bytes));
 163              		.loc 1 59 0
 164 0080 009B     		ldr	r3, [sp]	@ tmp152, bytes
 165 0082 1B78     		ldrb	r3, [r3]	@ D.6503, *bytes_8(D)
ARM GAS  /tmp/cctRPx0h.s 			page 5


 166 0084 1A00     		movs	r2, r3	@ D.6504, D.6503
 167 0086 039B     		ldr	r3, [sp, #12]	@ tmp153, d
 168 0088 9A18     		adds	r2, r3, r2	@ D.6501, tmp153, D.6504
 169 008a 039B     		ldr	r3, [sp, #12]	@ tmp154, d
 170 008c 1100     		movs	r1, r2	@, D.6501
 171 008e 1800     		movs	r0, r3	@, tmp154
 172 0090 FFF7FEFF 		bl	strcpy	@
  60:src/tcp_transceiver.c **** 			return ROOM_BRIGHT;
 173              		.loc 1 60 0
 174 0094 0223     		movs	r3, #2	@ D.6499,
 175 0096 45E0     		b	.L3	@
 176              	.L6:
  61:src/tcp_transceiver.c **** 		}
  62:src/tcp_transceiver.c **** 		else
  63:src/tcp_transceiver.c **** 			return NONE_MSG;
 177              		.loc 1 63 0
 178 0098 0023     		movs	r3, #0	@ D.6499,
 179 009a 43E0     		b	.L3	@
 180              	.L5:
  64:src/tcp_transceiver.c **** 
  65:src/tcp_transceiver.c **** 	}
  66:src/tcp_transceiver.c **** 
  67:src/tcp_transceiver.c **** 	if ((*d == 's') && (*(d + 2) == ','))
 181              		.loc 1 67 0
 182 009c 039B     		ldr	r3, [sp, #12]	@ tmp155, d
 183 009e 1B78     		ldrb	r3, [r3]	@ D.6502, *d_4(D)
 184 00a0 732B     		cmp	r3, #115	@ D.6502,
 185 00a2 13D1     		bne	.L7	@,
 186              		.loc 1 67 0 is_stmt 0 discriminator 1
 187 00a4 039B     		ldr	r3, [sp, #12]	@ tmp156, d
 188 00a6 0233     		adds	r3, r3, #2	@ D.6501,
 189 00a8 1B78     		ldrb	r3, [r3]	@ D.6502, *_29
 190 00aa 2C2B     		cmp	r3, #44	@ D.6502,
 191 00ac 0ED1     		bne	.L7	@,
  68:src/tcp_transceiver.c **** 	{
  69:src/tcp_transceiver.c **** 		strcpy ((char *) d, (char *) (d + 7));
 192              		.loc 1 69 0 is_stmt 1
 193 00ae 039B     		ldr	r3, [sp, #12]	@ tmp157, d
 194 00b0 DA1D     		adds	r2, r3, #7	@ D.6501, tmp157,
 195 00b2 039B     		ldr	r3, [sp, #12]	@ tmp158, d
 196 00b4 1100     		movs	r1, r2	@, D.6501
 197 00b6 1800     		movs	r0, r3	@, tmp158
 198 00b8 FFF7FEFF 		bl	strcpy	@
  70:src/tcp_transceiver.c **** 		*bytes = 7;
 199              		.loc 1 70 0
 200 00bc 009B     		ldr	r3, [sp]	@ tmp159, bytes
 201 00be 0722     		movs	r2, #7	@ tmp160,
 202 00c0 1A70     		strb	r2, [r3]	@ tmp161, *bytes_8(D)
  71:src/tcp_transceiver.c **** 		*new_room_bright = 20;
 203              		.loc 1 71 0
 204 00c2 029B     		ldr	r3, [sp, #8]	@ tmp162, new_room_bright
 205 00c4 1422     		movs	r2, #20	@ tmp163,
 206 00c6 1A70     		strb	r2, [r3]	@ tmp164, *new_room_bright_19(D)
  72:src/tcp_transceiver.c **** 		return LAMP_BRIGHT;
 207              		.loc 1 72 0
 208 00c8 0323     		movs	r3, #3	@ D.6499,
 209 00ca 2BE0     		b	.L3	@
ARM GAS  /tmp/cctRPx0h.s 			page 6


 210              	.L7:
  73:src/tcp_transceiver.c **** 	}
  74:src/tcp_transceiver.c **** 
  75:src/tcp_transceiver.c **** 	if (strncmp((char *) (const char *) "o0,0;", (char *)d, sizeof("o0,0;")) == 0)
 211              		.loc 1 75 0
 212 00cc 0399     		ldr	r1, [sp, #12]	@ tmp165, d
 213 00ce 194B     		ldr	r3, .L10+8	@ tmp166,
 214 00d0 0622     		movs	r2, #6	@,
 215 00d2 1800     		movs	r0, r3	@, tmp166
 216 00d4 FFF7FEFF 		bl	strncmp	@
 217 00d8 031E     		subs	r3, r0, #0	@ D.6500,,
 218 00da 0ED1     		bne	.L8	@,
  76:src/tcp_transceiver.c **** 	// if (strncmp((char *) (const char *) "o0,0;", (char *)d, sizeof((char *) (const char *) "o0,0;")
  77:src/tcp_transceiver.c **** 	{
  78:src/tcp_transceiver.c **** 		strcpy ((char *) d, (char *) (d + 5));
 219              		.loc 1 78 0
 220 00dc 039B     		ldr	r3, [sp, #12]	@ tmp167, d
 221 00de 5A1D     		adds	r2, r3, #5	@ D.6501, tmp167,
 222 00e0 039B     		ldr	r3, [sp, #12]	@ tmp168, d
 223 00e2 1100     		movs	r1, r2	@, D.6501
 224 00e4 1800     		movs	r0, r3	@, tmp168
 225 00e6 FFF7FEFF 		bl	strcpy	@
  79:src/tcp_transceiver.c **** 		*bytes = 5;
 226              		.loc 1 79 0
 227 00ea 009B     		ldr	r3, [sp]	@ tmp169, bytes
 228 00ec 0522     		movs	r2, #5	@ tmp170,
 229 00ee 1A70     		strb	r2, [r3]	@ tmp171, *bytes_8(D)
  80:src/tcp_transceiver.c **** 		*new_room_bright = 0;
 230              		.loc 1 80 0
 231 00f0 029B     		ldr	r3, [sp, #8]	@ tmp172, new_room_bright
 232 00f2 0022     		movs	r2, #0	@ tmp173,
 233 00f4 1A70     		strb	r2, [r3]	@ tmp174, *new_room_bright_19(D)
  81:src/tcp_transceiver.c **** 		return LIGHTS_OFF;
 234              		.loc 1 81 0
 235 00f6 0523     		movs	r3, #5	@ D.6499,
 236 00f8 14E0     		b	.L3	@
 237              	.L8:
  82:src/tcp_transceiver.c **** 	}
  83:src/tcp_transceiver.c **** 
  84:src/tcp_transceiver.c **** 	if (strncmp((char *) (const char *) "o0,1;", (char *)d, sizeof("o0,1;")) == 0)
 238              		.loc 1 84 0
 239 00fa 0399     		ldr	r1, [sp, #12]	@ tmp175, d
 240 00fc 0E4B     		ldr	r3, .L10+12	@ tmp176,
 241 00fe 0622     		movs	r2, #6	@,
 242 0100 1800     		movs	r0, r3	@, tmp176
 243 0102 FFF7FEFF 		bl	strncmp	@
 244 0106 031E     		subs	r3, r0, #0	@ D.6500,,
 245 0108 0BD1     		bne	.L9	@,
  85:src/tcp_transceiver.c **** 	// if (strncmp((char *) (const char *) "o0,1;", (char *)d, sizeof((char *) (const char *) "o0,1;")
  86:src/tcp_transceiver.c **** 	{
  87:src/tcp_transceiver.c **** 		strcpy ((char *) d, (char *) (d + 5));
 246              		.loc 1 87 0
 247 010a 039B     		ldr	r3, [sp, #12]	@ tmp177, d
 248 010c 5A1D     		adds	r2, r3, #5	@ D.6501, tmp177,
 249 010e 039B     		ldr	r3, [sp, #12]	@ tmp178, d
 250 0110 1100     		movs	r1, r2	@, D.6501
 251 0112 1800     		movs	r0, r3	@, tmp178
ARM GAS  /tmp/cctRPx0h.s 			page 7


 252 0114 FFF7FEFF 		bl	strcpy	@
  88:src/tcp_transceiver.c **** 		*bytes = 5;
 253              		.loc 1 88 0
 254 0118 009B     		ldr	r3, [sp]	@ tmp179, bytes
 255 011a 0522     		movs	r2, #5	@ tmp180,
 256 011c 1A70     		strb	r2, [r3]	@ tmp181, *bytes_8(D)
  89:src/tcp_transceiver.c **** 		return LIGHTS_ON;
 257              		.loc 1 89 0
 258 011e 0623     		movs	r3, #6	@ D.6499,
 259 0120 00E0     		b	.L3	@
 260              	.L9:
  90:src/tcp_transceiver.c **** 	}
  91:src/tcp_transceiver.c **** 
  92:src/tcp_transceiver.c **** 	return NONE_MSG;
 261              		.loc 1 92 0
 262 0122 0023     		movs	r3, #0	@ D.6499,
 263              	.L3:
  93:src/tcp_transceiver.c **** }
 264              		.loc 1 93 0
 265 0124 1800     		movs	r0, r3	@, <retval>
 266 0126 05B0     		add	sp, sp, #20	@,,
 267              		@ sp needed	@
 268 0128 00BD     		pop	{pc}
 269              	.L11:
 270 012a C046     		.align	2
 271              	.L10:
 272 012c 00000000 		.word	.LC0
 273 0130 08000000 		.word	.LC2
 274 0134 10000000 		.word	.LC4
 275 0138 18000000 		.word	.LC6
 276              		.cfi_endproc
 277              	.LFE0:
 278              		.size	CheckTCPMessage, .-CheckTCPMessage
 279              		.section	.text.TCPProcessInit,"ax",%progbits
 280              		.align	2
 281              		.global	TCPProcessInit
 282              		.code	16
 283              		.thumb_func
 284              		.type	TCPProcessInit, %function
 285              	TCPProcessInit:
 286              	.LFB1:
  94:src/tcp_transceiver.c **** 
  95:src/tcp_transceiver.c **** void TCPProcessInit (void)
  96:src/tcp_transceiver.c **** {
 287              		.loc 1 96 0
 288              		.cfi_startproc
 289 0000 82B0     		sub	sp, sp, #8	@,,
 290              	.LCFI2:
 291              		.cfi_def_cfa_offset 8
  97:src/tcp_transceiver.c **** 	unsigned char i;
  98:src/tcp_transceiver.c **** 
  99:src/tcp_transceiver.c **** 	for (i = 0; i < 5; i++)
 292              		.loc 1 99 0
 293 0002 6B46     		mov	r3, sp	@ tmp131,
 294 0004 0733     		adds	r3, r3, #7	@ tmp115,
 295 0006 0022     		movs	r2, #0	@ tmp116,
 296 0008 1A70     		strb	r2, [r3]	@ tmp117, i
ARM GAS  /tmp/cctRPx0h.s 			page 8


 297 000a 13E0     		b	.L13	@
 298              	.L14:
 100:src/tcp_transceiver.c **** 	{
 101:src/tcp_transceiver.c **** 		ptcp = &bufftcpsend[i] [0];
 299              		.loc 1 101 0 discriminator 3
 300 000c 6B46     		mov	r3, sp	@ tmp132,
 301 000e 0733     		adds	r3, r3, #7	@ tmp118,
 302 0010 1B78     		ldrb	r3, [r3]	@ D.6509, i
 303 0012 DA01     		lsls	r2, r3, #7	@ tmp119, D.6509,
 304 0014 0B4B     		ldr	r3, .L15	@ tmp120,
 305 0016 D218     		adds	r2, r2, r3	@ D.6510, tmp119, tmp120
 306 0018 0B4B     		ldr	r3, .L15+4	@ tmp121,
 307 001a 1A60     		str	r2, [r3]	@ D.6510, ptcp
 102:src/tcp_transceiver.c **** 		*(ptcp+1) = 0;
 308              		.loc 1 102 0 discriminator 3
 309 001c 0A4B     		ldr	r3, .L15+4	@ tmp122,
 310 001e 1B68     		ldr	r3, [r3]	@ D.6510, ptcp
 311 0020 0133     		adds	r3, r3, #1	@ D.6510,
 312 0022 0022     		movs	r2, #0	@ tmp123,
 313 0024 1A70     		strb	r2, [r3]	@ tmp124, *_9
  99:src/tcp_transceiver.c **** 	{
 314              		.loc 1 99 0 discriminator 3
 315 0026 6B46     		mov	r3, sp	@ tmp133,
 316 0028 0733     		adds	r3, r3, #7	@ tmp125,
 317 002a 1A78     		ldrb	r2, [r3]	@ D.6511, i
 318 002c 6B46     		mov	r3, sp	@ tmp134,
 319 002e 0733     		adds	r3, r3, #7	@ tmp126,
 320 0030 0132     		adds	r2, r2, #1	@ tmp127,
 321 0032 1A70     		strb	r2, [r3]	@ tmp128, i
 322              	.L13:
  99:src/tcp_transceiver.c **** 	{
 323              		.loc 1 99 0 is_stmt 0 discriminator 1
 324 0034 6B46     		mov	r3, sp	@ tmp135,
 325 0036 0733     		adds	r3, r3, #7	@ tmp129,
 326 0038 1B78     		ldrb	r3, [r3]	@ tmp130, i
 327 003a 042B     		cmp	r3, #4	@ tmp130,
 328 003c E6D9     		bls	.L14	@,
 103:src/tcp_transceiver.c **** 	}
 104:src/tcp_transceiver.c **** }
 329              		.loc 1 104 0 is_stmt 1
 330 003e C046     		nop
 331 0040 02B0     		add	sp, sp, #8	@,,
 332              		@ sp needed	@
 333 0042 7047     		bx	lr
 334              	.L16:
 335              		.align	2
 336              	.L15:
 337 0044 00000000 		.word	bufftcpsend
 338 0048 00000000 		.word	ptcp
 339              		.cfi_endproc
 340              	.LFE1:
 341              		.size	TCPProcessInit, .-TCPProcessInit
 342              		.section	.text.TCPProcess,"ax",%progbits
 343              		.align	2
 344              		.global	TCPProcess
 345              		.code	16
 346              		.thumb_func
ARM GAS  /tmp/cctRPx0h.s 			page 9


 347              		.type	TCPProcess, %function
 348              	TCPProcess:
 349              	.LFB2:
 105:src/tcp_transceiver.c **** 
 106:src/tcp_transceiver.c **** //me llaman continuamente para avanzar las maquinas de estado
 107:src/tcp_transceiver.c **** //mayormente en transmision
 108:src/tcp_transceiver.c **** void TCPProcess (void)
 109:src/tcp_transceiver.c **** {
 350              		.loc 1 109 0
 351              		.cfi_startproc
 352 0000 10B5     		push	{r4, lr}	@
 353              	.LCFI3:
 354              		.cfi_def_cfa_offset 8
 355              		.cfi_offset 4, -8
 356              		.cfi_offset 14, -4
 357 0002 82B0     		sub	sp, sp, #8	@,,
 358              	.LCFI4:
 359              		.cfi_def_cfa_offset 16
 110:src/tcp_transceiver.c **** 	//char * ptcp; a global
 111:src/tcp_transceiver.c **** 	unsigned char i;
 112:src/tcp_transceiver.c **** 	unsigned char resp = RESP_CONTINUE;
 360              		.loc 1 112 0
 361 0004 6B46     		mov	r3, sp	@ tmp190,
 362 0006 0633     		adds	r3, r3, #6	@ tmp129,
 363 0008 0022     		movs	r2, #0	@ tmp130,
 364 000a 1A70     		strb	r2, [r3]	@ tmp131, resp
 113:src/tcp_transceiver.c **** 
 114:src/tcp_transceiver.c **** 	switch (tcp_tx_state)
 365              		.loc 1 114 0
 366 000c 3A4B     		ldr	r3, .L31	@ tmp132,
 367 000e 1B78     		ldrb	r3, [r3]	@ D.6512, tcp_tx_state
 368 0010 012B     		cmp	r3, #1	@ D.6513,
 369 0012 2DD0     		beq	.L19	@,
 370 0014 022B     		cmp	r3, #2	@ D.6513,
 371 0016 34D0     		beq	.L20	@,
 372 0018 002B     		cmp	r3, #0	@ D.6513,
 373 001a 64D1     		bne	.L29	@,
 115:src/tcp_transceiver.c **** 	{
 116:src/tcp_transceiver.c **** 		case TCP_TX_IDLE:
 117:src/tcp_transceiver.c **** 			//reviso si tengo algo que enviar
 118:src/tcp_transceiver.c **** 			for (i = 0; i < 5; i++)
 374              		.loc 1 118 0
 375 001c 6B46     		mov	r3, sp	@ tmp191,
 376 001e 0733     		adds	r3, r3, #7	@ tmp133,
 377 0020 0022     		movs	r2, #0	@ tmp134,
 378 0022 1A70     		strb	r2, [r3]	@ tmp135, i
 379 0024 1EE0     		b	.L22	@
 380              	.L24:
 119:src/tcp_transceiver.c **** 			{
 120:src/tcp_transceiver.c **** 				ptcp = &bufftcpsend[i] [0];
 381              		.loc 1 120 0
 382 0026 6B46     		mov	r3, sp	@ tmp192,
 383 0028 0733     		adds	r3, r3, #7	@ tmp136,
 384 002a 1B78     		ldrb	r3, [r3]	@ D.6513, i
 385 002c DA01     		lsls	r2, r3, #7	@ tmp137, D.6513,
 386 002e 334B     		ldr	r3, .L31+4	@ tmp138,
 387 0030 D218     		adds	r2, r2, r3	@ D.6514, tmp137, tmp138
ARM GAS  /tmp/cctRPx0h.s 			page 10


 388 0032 334B     		ldr	r3, .L31+8	@ tmp139,
 389 0034 1A60     		str	r2, [r3]	@ D.6514, ptcp
 121:src/tcp_transceiver.c **** 				if (*(ptcp+1) != 0)
 390              		.loc 1 121 0
 391 0036 324B     		ldr	r3, .L31+8	@ tmp140,
 392 0038 1B68     		ldr	r3, [r3]	@ D.6514, ptcp
 393 003a 0133     		adds	r3, r3, #1	@ D.6514,
 394 003c 1B78     		ldrb	r3, [r3]	@ D.6515, *_18
 395 003e 002B     		cmp	r3, #0	@ D.6515,
 396 0040 09D0     		beq	.L23	@,
 122:src/tcp_transceiver.c **** 				{
 123:src/tcp_transceiver.c **** 					tcp_tx_state++;
 397              		.loc 1 123 0
 398 0042 2D4B     		ldr	r3, .L31	@ tmp141,
 399 0044 1B78     		ldrb	r3, [r3]	@ D.6512, tcp_tx_state
 400 0046 0133     		adds	r3, r3, #1	@ tmp142,
 401 0048 DAB2     		uxtb	r2, r3	@ D.6512, tmp142
 402 004a 2B4B     		ldr	r3, .L31	@ tmp143,
 403 004c 1A70     		strb	r2, [r3]	@ tmp144, tcp_tx_state
 124:src/tcp_transceiver.c **** 					i = 10;
 404              		.loc 1 124 0
 405 004e 6B46     		mov	r3, sp	@ tmp193,
 406 0050 0733     		adds	r3, r3, #7	@ tmp145,
 407 0052 0A22     		movs	r2, #10	@ tmp146,
 408 0054 1A70     		strb	r2, [r3]	@ tmp147, i
 409              	.L23:
 118:src/tcp_transceiver.c **** 			{
 410              		.loc 1 118 0 discriminator 2
 411 0056 6B46     		mov	r3, sp	@ tmp194,
 412 0058 0733     		adds	r3, r3, #7	@ tmp148,
 413 005a 1A78     		ldrb	r2, [r3]	@ D.6512, i
 414 005c 6B46     		mov	r3, sp	@ tmp195,
 415 005e 0733     		adds	r3, r3, #7	@ tmp149,
 416 0060 0132     		adds	r2, r2, #1	@ tmp150,
 417 0062 1A70     		strb	r2, [r3]	@ tmp151, i
 418              	.L22:
 118:src/tcp_transceiver.c **** 			{
 419              		.loc 1 118 0 is_stmt 0 discriminator 1
 420 0064 6B46     		mov	r3, sp	@ tmp196,
 421 0066 0733     		adds	r3, r3, #7	@ tmp152,
 422 0068 1B78     		ldrb	r3, [r3]	@ tmp153, i
 423 006a 042B     		cmp	r3, #4	@ tmp153,
 424 006c DBD9     		bls	.L24	@,
 125:src/tcp_transceiver.c **** 				}
 126:src/tcp_transceiver.c **** 			}
 127:src/tcp_transceiver.c **** 			break;
 425              		.loc 1 127 0 is_stmt 1
 426 006e 3FE0     		b	.L25	@
 427              	.L19:
 128:src/tcp_transceiver.c **** 
 129:src/tcp_transceiver.c **** 		case TCP_TX_READY_TO_SEND:
 130:src/tcp_transceiver.c **** 			//tengo el puntero al buffer que quiero enviar
 131:src/tcp_transceiver.c **** 			//pido la transmision al ESP, me contesta RESP_OK, RESP_CONTINUE, RESP_TIMEOUT
 132:src/tcp_transceiver.c **** 			//veo despues que hago en cada caso
 133:src/tcp_transceiver.c **** 			ESP_SendDataResetSM();
 428              		.loc 1 133 0
 429 0070 FFF7FEFF 		bl	ESP_SendDataResetSM	@
ARM GAS  /tmp/cctRPx0h.s 			page 11


 134:src/tcp_transceiver.c **** 			tcp_tx_state++;
 430              		.loc 1 134 0
 431 0074 204B     		ldr	r3, .L31	@ tmp154,
 432 0076 1B78     		ldrb	r3, [r3]	@ D.6512, tcp_tx_state
 433 0078 0133     		adds	r3, r3, #1	@ tmp155,
 434 007a DAB2     		uxtb	r2, r3	@ D.6512, tmp155
 435 007c 1E4B     		ldr	r3, .L31	@ tmp156,
 436 007e 1A70     		strb	r2, [r3]	@ tmp157, tcp_tx_state
 135:src/tcp_transceiver.c **** 			break;
 437              		.loc 1 135 0
 438 0080 36E0     		b	.L25	@
 439              	.L20:
 136:src/tcp_transceiver.c **** 
 137:src/tcp_transceiver.c **** 		case TCP_TX_SENDING:
 138:src/tcp_transceiver.c **** 			//me quedo esperando el signo de envio o timeout
 139:src/tcp_transceiver.c **** 			resp = ESP_SendData(0, (unsigned char *) ptcp);
 440              		.loc 1 139 0
 441 0082 1F4B     		ldr	r3, .L31+8	@ tmp158,
 442 0084 1B68     		ldr	r3, [r3]	@ D.6514, ptcp
 443 0086 6A46     		mov	r2, sp	@ tmp197,
 444 0088 941D     		adds	r4, r2, #6	@ tmp159, tmp197,
 445 008a 1900     		movs	r1, r3	@, D.6514
 446 008c 0020     		movs	r0, #0	@,
 447 008e FFF7FEFF 		bl	ESP_SendData	@
 448 0092 0300     		movs	r3, r0	@ tmp160,
 449 0094 2370     		strb	r3, [r4]	@ tmp162, resp
 140:src/tcp_transceiver.c **** 
 141:src/tcp_transceiver.c **** 			if (resp == RESP_OK)
 450              		.loc 1 141 0
 451 0096 6B46     		mov	r3, sp	@ tmp198,
 452 0098 0633     		adds	r3, r3, #6	@ tmp163,
 453 009a 1B78     		ldrb	r3, [r3]	@ tmp164, resp
 454 009c 142B     		cmp	r3, #20	@ tmp164,
 455 009e 07D1     		bne	.L26	@,
 142:src/tcp_transceiver.c **** 			{
 143:src/tcp_transceiver.c **** 				//termino de enviar limpio buffer
 144:src/tcp_transceiver.c **** 				*(ptcp+1) = 0;
 456              		.loc 1 144 0
 457 00a0 174B     		ldr	r3, .L31+8	@ tmp165,
 458 00a2 1B68     		ldr	r3, [r3]	@ D.6514, ptcp
 459 00a4 0133     		adds	r3, r3, #1	@ D.6514,
 460 00a6 0022     		movs	r2, #0	@ tmp166,
 461 00a8 1A70     		strb	r2, [r3]	@ tmp167, *_36
 145:src/tcp_transceiver.c **** //				LCD_2DO_RENGLON;
 146:src/tcp_transceiver.c **** //				LCDTransmitStr((char *) (const char *) "Sended tcp ok   ");
 147:src/tcp_transceiver.c **** 				tcp_tx_state = TCP_TX_IDLE;
 462              		.loc 1 147 0
 463 00aa 134B     		ldr	r3, .L31	@ tmp168,
 464 00ac 0022     		movs	r2, #0	@ tmp169,
 465 00ae 1A70     		strb	r2, [r3]	@ tmp170, tcp_tx_state
 466              	.L26:
 148:src/tcp_transceiver.c **** 			}
 149:src/tcp_transceiver.c **** 
 150:src/tcp_transceiver.c **** 			if (resp == RESP_NOK)
 467              		.loc 1 150 0
 468 00b0 6B46     		mov	r3, sp	@ tmp199,
 469 00b2 0633     		adds	r3, r3, #6	@ tmp171,
ARM GAS  /tmp/cctRPx0h.s 			page 12


 470 00b4 1B78     		ldrb	r3, [r3]	@ tmp172, resp
 471 00b6 152B     		cmp	r3, #21	@ tmp172,
 472 00b8 07D1     		bne	.L27	@,
 151:src/tcp_transceiver.c **** 			{
 152:src/tcp_transceiver.c **** 				//no encontro el SEND OK  limpio buffer
 153:src/tcp_transceiver.c **** 				//TODO: ver despues si no debo intentar un par de veces mas antes de descartar
 154:src/tcp_transceiver.c **** 				*(ptcp+1) = 0;
 473              		.loc 1 154 0
 474 00ba 114B     		ldr	r3, .L31+8	@ tmp173,
 475 00bc 1B68     		ldr	r3, [r3]	@ D.6514, ptcp
 476 00be 0133     		adds	r3, r3, #1	@ D.6514,
 477 00c0 0022     		movs	r2, #0	@ tmp174,
 478 00c2 1A70     		strb	r2, [r3]	@ tmp175, *_40
 155:src/tcp_transceiver.c **** //				LCD_2DO_RENGLON;
 156:src/tcp_transceiver.c **** //				LCDTransmitStr((char *) (const char *) "Error on tcp tx ");
 157:src/tcp_transceiver.c **** 				tcp_tx_state = TCP_TX_IDLE;
 479              		.loc 1 157 0
 480 00c4 0C4B     		ldr	r3, .L31	@ tmp176,
 481 00c6 0022     		movs	r2, #0	@ tmp177,
 482 00c8 1A70     		strb	r2, [r3]	@ tmp178, tcp_tx_state
 483              	.L27:
 158:src/tcp_transceiver.c **** 			}
 159:src/tcp_transceiver.c **** 
 160:src/tcp_transceiver.c **** 			if (resp == RESP_TIMEOUT)
 484              		.loc 1 160 0
 485 00ca 6B46     		mov	r3, sp	@ tmp200,
 486 00cc 0633     		adds	r3, r3, #6	@ tmp179,
 487 00ce 1B78     		ldrb	r3, [r3]	@ tmp180, resp
 488 00d0 172B     		cmp	r3, #23	@ tmp180,
 489 00d2 0CD1     		bne	.L30	@,
 161:src/tcp_transceiver.c **** 			{
 162:src/tcp_transceiver.c **** 				//no pudo enviar  limpio buffer
 163:src/tcp_transceiver.c **** 				//TODO: ver despues si no debo intentar un par de veces mas antes de descartar
 164:src/tcp_transceiver.c **** 				*(ptcp+1) = 0;
 490              		.loc 1 164 0
 491 00d4 0A4B     		ldr	r3, .L31+8	@ tmp181,
 492 00d6 1B68     		ldr	r3, [r3]	@ D.6514, ptcp
 493 00d8 0133     		adds	r3, r3, #1	@ D.6514,
 494 00da 0022     		movs	r2, #0	@ tmp182,
 495 00dc 1A70     		strb	r2, [r3]	@ tmp183, *_44
 165:src/tcp_transceiver.c **** //				LCD_2DO_RENGLON;
 166:src/tcp_transceiver.c **** //				LCDTransmitStr((char *) (const char *) "Timeout tcp tx  ");
 167:src/tcp_transceiver.c **** 				tcp_tx_state = TCP_TX_IDLE;
 496              		.loc 1 167 0
 497 00de 064B     		ldr	r3, .L31	@ tmp184,
 498 00e0 0022     		movs	r2, #0	@ tmp185,
 499 00e2 1A70     		strb	r2, [r3]	@ tmp186, tcp_tx_state
 168:src/tcp_transceiver.c **** 			}
 169:src/tcp_transceiver.c **** 			break;
 500              		.loc 1 169 0
 501 00e4 03E0     		b	.L30	@
 502              	.L29:
 170:src/tcp_transceiver.c **** 
 171:src/tcp_transceiver.c **** 		default:
 172:src/tcp_transceiver.c **** 			tcp_tx_state = TCP_TX_IDLE;
 503              		.loc 1 172 0
 504 00e6 044B     		ldr	r3, .L31	@ tmp187,
ARM GAS  /tmp/cctRPx0h.s 			page 13


 505 00e8 0022     		movs	r2, #0	@ tmp188,
 506 00ea 1A70     		strb	r2, [r3]	@ tmp189, tcp_tx_state
 173:src/tcp_transceiver.c **** 			break;
 507              		.loc 1 173 0
 508 00ec 00E0     		b	.L25	@
 509              	.L30:
 169:src/tcp_transceiver.c **** 
 510              		.loc 1 169 0
 511 00ee C046     		nop
 512              	.L25:
 174:src/tcp_transceiver.c **** 	}
 175:src/tcp_transceiver.c **** }
 513              		.loc 1 175 0
 514 00f0 C046     		nop
 515 00f2 02B0     		add	sp, sp, #8	@,,
 516              		@ sp needed	@
 517 00f4 10BD     		pop	{r4, pc}
 518              	.L32:
 519 00f6 C046     		.align	2
 520              	.L31:
 521 00f8 00000000 		.word	tcp_tx_state
 522 00fc 00000000 		.word	bufftcpsend
 523 0100 00000000 		.word	ptcp
 524              		.cfi_endproc
 525              	.LFE2:
 526              		.size	TCPProcess, .-TCPProcess
 527              		.section	.rodata
 528 001e 0000     		.align	2
 529              	.LC13:
 530 0020 2B495044 		.ascii	"+IPD,\000"
 530      2C00
 531              		.section	.text.TCPPreProcess,"ax",%progbits
 532              		.align	2
 533              		.global	TCPPreProcess
 534              		.code	16
 535              		.thumb_func
 536              		.type	TCPPreProcess, %function
 537              	TCPPreProcess:
 538              	.LFB3:
 176:src/tcp_transceiver.c **** 
 177:src/tcp_transceiver.c **** //Revisa tipo de mensaje y puerto (0 a 4)
 178:src/tcp_transceiver.c **** //procesa el buffer en crudo y lo copia en un buffer de salida con solo numeros y letras
 179:src/tcp_transceiver.c **** //devuelve length
 180:src/tcp_transceiver.c **** unsigned char TCPPreProcess(unsigned char * d, unsigned char * output, unsigned char * length)
 181:src/tcp_transceiver.c **** {
 539              		.loc 1 181 0
 540              		.cfi_startproc
 541 0000 00B5     		push	{lr}	@
 542              	.LCFI5:
 543              		.cfi_def_cfa_offset 4
 544              		.cfi_offset 14, -4
 545 0002 89B0     		sub	sp, sp, #36	@,,
 546              	.LCFI6:
 547              		.cfi_def_cfa_offset 40
 548 0004 0390     		str	r0, [sp, #12]	@ d, d
 549 0006 0291     		str	r1, [sp, #8]	@ output, output
 550 0008 0192     		str	r2, [sp, #4]	@ length, length
ARM GAS  /tmp/cctRPx0h.s 			page 14


 182:src/tcp_transceiver.c **** 	unsigned char port = 0xFF;
 551              		.loc 1 182 0
 552 000a 1F23     		movs	r3, #31	@ tmp135,
 553 000c 6B44     		add	r3, r3, sp	@ tmp135,
 554 000e FF22     		movs	r2, #255	@ tmp136,
 555 0010 1A70     		strb	r2, [r3]	@ tmp137, port
 183:src/tcp_transceiver.c **** 	unsigned char len_index = 0;
 556              		.loc 1 183 0
 557 0012 1E23     		movs	r3, #30	@ tmp138,
 558 0014 6B44     		add	r3, r3, sp	@ tmp138,
 559 0016 0022     		movs	r2, #0	@ tmp139,
 560 0018 1A70     		strb	r2, [r3]	@ tmp140, len_index
 184:src/tcp_transceiver.c **** 	unsigned char i;
 185:src/tcp_transceiver.c **** 	unsigned char max_len = 0;
 561              		.loc 1 185 0
 562 001a 1623     		movs	r3, #22	@ tmp141,
 563 001c 6B44     		add	r3, r3, sp	@ tmp141,
 564 001e 0022     		movs	r2, #0	@ tmp142,
 565 0020 1A70     		strb	r2, [r3]	@ tmp143, max_len
 186:src/tcp_transceiver.c **** 	unsigned char * d_offset;
 187:src/tcp_transceiver.c **** 	unsigned char bytes_cnt = 0;
 566              		.loc 1 187 0
 567 0022 1723     		movs	r3, #23	@ tmp144,
 568 0024 6B44     		add	r3, r3, sp	@ tmp144,
 569 0026 0022     		movs	r2, #0	@ tmp145,
 570 0028 1A70     		strb	r2, [r3]	@ tmp146, bytes_cnt
 188:src/tcp_transceiver.c **** 
 189:src/tcp_transceiver.c **** 	//reviso que tipo de mensaje tengo en data
 190:src/tcp_transceiver.c **** 	//primero reviso estados de conexiones
 191:src/tcp_transceiver.c **** //	if ((*d >= '0') && (*d <= '4') && (*(d+1) == ','))
 192:src/tcp_transceiver.c **** //	{
 193:src/tcp_transceiver.c **** //		if (strncmp((char *) (const char *) "CONNECT\r", (char *) (d + 2), sizeof((char *) (const char 
 194:src/tcp_transceiver.c **** //			return KEEP_ALIVE;
 195:src/tcp_transceiver.c **** //
 196:src/tcp_transceiver.c **** //		if (strncmp((char *) (const char *) "CLOSED\r", (char *) (d + 2), sizeof((char *) (const char *
 197:src/tcp_transceiver.c **** //			return KEEP_ALIVE;
 198:src/tcp_transceiver.c **** //	}
 199:src/tcp_transceiver.c **** 
 200:src/tcp_transceiver.c **** 	//llega:
 201:src/tcp_transceiver.c **** 	//+IPD,0,6:geta;\n
 202:src/tcp_transceiver.c **** 	// if (strncmp((char *) (const char *) "+IPD,", (char *) d, sizeof((char *) (const char *) "+IPD,"
 203:src/tcp_transceiver.c **** 	if (strncmp((char *) (const char *) "+IPD,", (char *) d, sizeof("+IPD,")) == 0)
 571              		.loc 1 203 0
 572 002a 0399     		ldr	r1, [sp, #12]	@ tmp147, d
 573 002c 4D4B     		ldr	r3, .L47	@ tmp148,
 574 002e 0622     		movs	r2, #6	@,
 575 0030 1800     		movs	r0, r3	@, tmp148
 576 0032 FFF7FEFF 		bl	strncmp	@
 577 0036 031E     		subs	r3, r0, #0	@ D.6516,,
 578 0038 00D0     		beq	.LCB454	@
 579 003a 8CE0     		b	.L34	@long jump	@
 580              	.LCB454:
 204:src/tcp_transceiver.c **** 	{
 205:src/tcp_transceiver.c **** 		if ((*(d+5) >= '0') && (*(d+5) <= '4'))
 581              		.loc 1 205 0
 582 003c 039B     		ldr	r3, [sp, #12]	@ tmp149, d
 583 003e 0533     		adds	r3, r3, #5	@ D.6517,
ARM GAS  /tmp/cctRPx0h.s 			page 15


 584 0040 1B78     		ldrb	r3, [r3]	@ D.6518, *_22
 585 0042 2F2B     		cmp	r3, #47	@ D.6518,
 586 0044 00D8     		bhi	.LCB459	@
 587 0046 86E0     		b	.L34	@long jump	@
 588              	.LCB459:
 589              		.loc 1 205 0 is_stmt 0 discriminator 1
 590 0048 039B     		ldr	r3, [sp, #12]	@ tmp150, d
 591 004a 0533     		adds	r3, r3, #5	@ D.6517,
 592 004c 1B78     		ldrb	r3, [r3]	@ D.6518, *_24
 593 004e 342B     		cmp	r3, #52	@ D.6518,
 594 0050 00D9     		bls	.LCB464	@
 595 0052 80E0     		b	.L34	@long jump	@
 596              	.LCB464:
 206:src/tcp_transceiver.c **** 		{
 207:src/tcp_transceiver.c **** 			port = *(d+5) - '0';
 597              		.loc 1 207 0 is_stmt 1
 598 0054 039B     		ldr	r3, [sp, #12]	@ tmp151, d
 599 0056 0533     		adds	r3, r3, #5	@ D.6517,
 600 0058 1A78     		ldrb	r2, [r3]	@ D.6518, *_26
 601 005a 1F23     		movs	r3, #31	@ tmp152,
 602 005c 6B44     		add	r3, r3, sp	@ tmp152,
 603 005e 303A     		subs	r2, r2, #48	@ tmp153,
 604 0060 1A70     		strb	r2, [r3]	@ tmp154, port
 208:src/tcp_transceiver.c **** 			for (i = 0; i < 4; i++)	//busco length
 605              		.loc 1 208 0
 606 0062 1D23     		movs	r3, #29	@ tmp155,
 607 0064 6B44     		add	r3, r3, sp	@ tmp155,
 608 0066 0022     		movs	r2, #0	@ tmp156,
 609 0068 1A70     		strb	r2, [r3]	@ tmp157, i
 610 006a 1AE0     		b	.L35	@
 611              	.L37:
 209:src/tcp_transceiver.c **** 			{
 210:src/tcp_transceiver.c **** 				if (*(d+7+i) == ':')
 612              		.loc 1 210 0
 613 006c 1D23     		movs	r3, #29	@ tmp158,
 614 006e 6B44     		add	r3, r3, sp	@ tmp158,
 615 0070 1B78     		ldrb	r3, [r3]	@ D.6519, i
 616 0072 0733     		adds	r3, r3, #7	@ D.6519,
 617 0074 039A     		ldr	r2, [sp, #12]	@ tmp159, d
 618 0076 D318     		adds	r3, r2, r3	@ D.6517, tmp159, D.6519
 619 0078 1B78     		ldrb	r3, [r3]	@ D.6518, *_32
 620 007a 3A2B     		cmp	r3, #58	@ D.6518,
 621 007c 03D1     		bne	.L36	@,
 211:src/tcp_transceiver.c **** 					i = 4;
 622              		.loc 1 211 0
 623 007e 1D23     		movs	r3, #29	@ tmp160,
 624 0080 6B44     		add	r3, r3, sp	@ tmp160,
 625 0082 0422     		movs	r2, #4	@ tmp161,
 626 0084 1A70     		strb	r2, [r3]	@ tmp162, i
 627              	.L36:
 212:src/tcp_transceiver.c **** 
 213:src/tcp_transceiver.c **** 				len_index++;
 628              		.loc 1 213 0 discriminator 2
 629 0086 1E23     		movs	r3, #30	@ tmp163,
 630 0088 6B44     		add	r3, r3, sp	@ tmp163,
 631 008a 1A78     		ldrb	r2, [r3]	@ D.6518, len_index
 632 008c 1E23     		movs	r3, #30	@ tmp164,
ARM GAS  /tmp/cctRPx0h.s 			page 16


 633 008e 6B44     		add	r3, r3, sp	@ tmp164,
 634 0090 0132     		adds	r2, r2, #1	@ tmp165,
 635 0092 1A70     		strb	r2, [r3]	@ tmp166, len_index
 208:src/tcp_transceiver.c **** 			{
 636              		.loc 1 208 0 discriminator 2
 637 0094 1D23     		movs	r3, #29	@ tmp167,
 638 0096 6B44     		add	r3, r3, sp	@ tmp167,
 639 0098 1A78     		ldrb	r2, [r3]	@ D.6518, i
 640 009a 1D23     		movs	r3, #29	@ tmp168,
 641 009c 6B44     		add	r3, r3, sp	@ tmp168,
 642 009e 0132     		adds	r2, r2, #1	@ tmp169,
 643 00a0 1A70     		strb	r2, [r3]	@ tmp170, i
 644              	.L35:
 208:src/tcp_transceiver.c **** 			{
 645              		.loc 1 208 0 is_stmt 0 discriminator 1
 646 00a2 1D23     		movs	r3, #29	@ tmp171,
 647 00a4 6B44     		add	r3, r3, sp	@ tmp171,
 648 00a6 1B78     		ldrb	r3, [r3]	@ tmp172, i
 649 00a8 032B     		cmp	r3, #3	@ tmp172,
 650 00aa DFD9     		bls	.L37	@,
 214:src/tcp_transceiver.c **** 			}
 215:src/tcp_transceiver.c **** 
 216:src/tcp_transceiver.c **** 			max_len = (unsigned char) atoi ((char *) (d+7));
 651              		.loc 1 216 0 is_stmt 1
 652 00ac 039B     		ldr	r3, [sp, #12]	@ tmp173, d
 653 00ae 0733     		adds	r3, r3, #7	@ D.6520,
 654 00b0 1800     		movs	r0, r3	@, D.6520
 655 00b2 FFF7FEFF 		bl	atoi	@
 656 00b6 0200     		movs	r2, r0	@ D.6516,
 657 00b8 1623     		movs	r3, #22	@ tmp174,
 658 00ba 6B44     		add	r3, r3, sp	@ tmp174,
 659 00bc 1A70     		strb	r2, [r3]	@ tmp175, max_len
 217:src/tcp_transceiver.c **** 
 218:src/tcp_transceiver.c **** 			if (max_len > 0)
 660              		.loc 1 218 0
 661 00be 1623     		movs	r3, #22	@ tmp176,
 662 00c0 6B44     		add	r3, r3, sp	@ tmp176,
 663 00c2 1B78     		ldrb	r3, [r3]	@ tmp177, max_len
 664 00c4 002B     		cmp	r3, #0	@ tmp177,
 665 00c6 42D0     		beq	.L38	@,
 219:src/tcp_transceiver.c **** 			{
 220:src/tcp_transceiver.c **** 				d_offset = (d+7+len_index);
 666              		.loc 1 220 0
 667 00c8 1E23     		movs	r3, #30	@ tmp178,
 668 00ca 6B44     		add	r3, r3, sp	@ tmp178,
 669 00cc 1B78     		ldrb	r3, [r3]	@ D.6519, len_index
 670 00ce 0733     		adds	r3, r3, #7	@ D.6519,
 671 00d0 039A     		ldr	r2, [sp, #12]	@ tmp180, d
 672 00d2 D318     		adds	r3, r2, r3	@ tmp179, tmp180, D.6519
 673 00d4 0693     		str	r3, [sp, #24]	@ tmp179, d_offset
 221:src/tcp_transceiver.c **** 
 222:src/tcp_transceiver.c **** 				for (i = 0; i < max_len; i++)	//copio todos los codigos numeros y letras
 674              		.loc 1 222 0
 675 00d6 1D23     		movs	r3, #29	@ tmp181,
 676 00d8 6B44     		add	r3, r3, sp	@ tmp181,
 677 00da 0022     		movs	r2, #0	@ tmp182,
 678 00dc 1A70     		strb	r2, [r3]	@ tmp183, i
ARM GAS  /tmp/cctRPx0h.s 			page 17


 679 00de 28E0     		b	.L39	@
 680              	.L44:
 223:src/tcp_transceiver.c **** 				{
 224:src/tcp_transceiver.c **** 					if (*d_offset != '\0')
 681              		.loc 1 224 0
 682 00e0 069B     		ldr	r3, [sp, #24]	@ tmp184, d_offset
 683 00e2 1B78     		ldrb	r3, [r3]	@ D.6518, *d_offset_8
 684 00e4 002B     		cmp	r3, #0	@ D.6518,
 685 00e6 19D0     		beq	.L40	@,
 225:src/tcp_transceiver.c **** 					{
 226:src/tcp_transceiver.c **** 						if ((*d_offset > 31) && (*d_offset < 127))		//todos los codigos numeros y letras
 686              		.loc 1 226 0
 687 00e8 069B     		ldr	r3, [sp, #24]	@ tmp185, d_offset
 688 00ea 1B78     		ldrb	r3, [r3]	@ D.6518, *d_offset_8
 689 00ec 1F2B     		cmp	r3, #31	@ D.6518,
 690 00ee 11D9     		bls	.L41	@,
 691              		.loc 1 226 0 is_stmt 0 discriminator 1
 692 00f0 069B     		ldr	r3, [sp, #24]	@ tmp186, d_offset
 693 00f2 1B78     		ldrb	r3, [r3]	@ D.6518, *d_offset_8
 694 00f4 7E2B     		cmp	r3, #126	@ D.6518,
 695 00f6 0DD8     		bhi	.L41	@,
 227:src/tcp_transceiver.c **** 						{
 228:src/tcp_transceiver.c **** 							*output = *d_offset;
 696              		.loc 1 228 0 is_stmt 1
 697 00f8 069B     		ldr	r3, [sp, #24]	@ tmp187, d_offset
 698 00fa 1A78     		ldrb	r2, [r3]	@ D.6518, *d_offset_8
 699 00fc 029B     		ldr	r3, [sp, #8]	@ tmp188, output
 700 00fe 1A70     		strb	r2, [r3]	@ tmp189, *output_2
 229:src/tcp_transceiver.c **** 							output++;
 701              		.loc 1 229 0
 702 0100 029B     		ldr	r3, [sp, #8]	@ tmp191, output
 703 0102 0133     		adds	r3, r3, #1	@ tmp190,
 704 0104 0293     		str	r3, [sp, #8]	@ tmp190, output
 230:src/tcp_transceiver.c **** 							bytes_cnt++;
 705              		.loc 1 230 0
 706 0106 1723     		movs	r3, #23	@ tmp192,
 707 0108 6B44     		add	r3, r3, sp	@ tmp192,
 708 010a 1A78     		ldrb	r2, [r3]	@ D.6518, bytes_cnt
 709 010c 1723     		movs	r3, #23	@ tmp193,
 710 010e 6B44     		add	r3, r3, sp	@ tmp193,
 711 0110 0132     		adds	r2, r2, #1	@ tmp194,
 712 0112 1A70     		strb	r2, [r3]	@ tmp195, bytes_cnt
 713              	.L41:
 231:src/tcp_transceiver.c **** 						}
 232:src/tcp_transceiver.c **** 						d_offset++;
 714              		.loc 1 232 0
 715 0114 069B     		ldr	r3, [sp, #24]	@ tmp197, d_offset
 716 0116 0133     		adds	r3, r3, #1	@ tmp196,
 717 0118 0693     		str	r3, [sp, #24]	@ tmp196, d_offset
 718 011a 03E0     		b	.L46	@
 719              	.L40:
 233:src/tcp_transceiver.c **** 					}
 234:src/tcp_transceiver.c **** 					else
 235:src/tcp_transceiver.c **** 					{
 236:src/tcp_transceiver.c **** 						*output = '\0';
 720              		.loc 1 236 0
 721 011c 029B     		ldr	r3, [sp, #8]	@ tmp198, output
ARM GAS  /tmp/cctRPx0h.s 			page 18


 722 011e 0022     		movs	r2, #0	@ tmp199,
 723 0120 1A70     		strb	r2, [r3]	@ tmp200, *output_2
 237:src/tcp_transceiver.c **** 						break;
 724              		.loc 1 237 0
 725 0122 0EE0     		b	.L43	@
 726              	.L46:
 222:src/tcp_transceiver.c **** 				{
 727              		.loc 1 222 0 discriminator 2
 728 0124 1D23     		movs	r3, #29	@ tmp201,
 729 0126 6B44     		add	r3, r3, sp	@ tmp201,
 730 0128 1A78     		ldrb	r2, [r3]	@ D.6518, i
 731 012a 1D23     		movs	r3, #29	@ tmp202,
 732 012c 6B44     		add	r3, r3, sp	@ tmp202,
 733 012e 0132     		adds	r2, r2, #1	@ tmp203,
 734 0130 1A70     		strb	r2, [r3]	@ tmp204, i
 735              	.L39:
 222:src/tcp_transceiver.c **** 				{
 736              		.loc 1 222 0 is_stmt 0 discriminator 1
 737 0132 1D22     		movs	r2, #29	@ tmp205,
 738 0134 6A44     		add	r2, r2, sp	@ tmp205,
 739 0136 1623     		movs	r3, #22	@ tmp206,
 740 0138 6B44     		add	r3, r3, sp	@ tmp206,
 741 013a 1278     		ldrb	r2, [r2]	@ tmp207, i
 742 013c 1B78     		ldrb	r3, [r3]	@ tmp208, max_len
 743 013e 9A42     		cmp	r2, r3	@ tmp207, tmp208
 744 0140 CED3     		bcc	.L44	@,
 745              	.L43:
 238:src/tcp_transceiver.c **** 					}
 239:src/tcp_transceiver.c **** 				}
 240:src/tcp_transceiver.c **** 				*length = bytes_cnt;
 746              		.loc 1 240 0 is_stmt 1
 747 0142 019B     		ldr	r3, [sp, #4]	@ tmp209, length
 748 0144 1722     		movs	r2, #23	@ tmp210,
 749 0146 6A44     		add	r2, r2, sp	@ tmp210,
 750 0148 1278     		ldrb	r2, [r2]	@ tmp211, bytes_cnt
 751 014a 1A70     		strb	r2, [r3]	@ tmp211, *length_60(D)
 752 014c 03E0     		b	.L34	@
 753              	.L38:
 241:src/tcp_transceiver.c **** 			}
 242:src/tcp_transceiver.c **** 			else
 243:src/tcp_transceiver.c **** 				port = 0xFF;
 754              		.loc 1 243 0
 755 014e 1F23     		movs	r3, #31	@ tmp212,
 756 0150 6B44     		add	r3, r3, sp	@ tmp212,
 757 0152 FF22     		movs	r2, #255	@ tmp213,
 758 0154 1A70     		strb	r2, [r3]	@ tmp214, port
 759              	.L34:
 244:src/tcp_transceiver.c **** 		}
 245:src/tcp_transceiver.c **** 	}
 246:src/tcp_transceiver.c **** 	return port;
 760              		.loc 1 246 0
 761 0156 1F23     		movs	r3, #31	@ tmp215,
 762 0158 6B44     		add	r3, r3, sp	@ tmp215,
 763 015a 1B78     		ldrb	r3, [r3]	@ D.6518, port
 247:src/tcp_transceiver.c **** }
 764              		.loc 1 247 0
 765 015c 1800     		movs	r0, r3	@, <retval>
ARM GAS  /tmp/cctRPx0h.s 			page 19


 766 015e 09B0     		add	sp, sp, #36	@,,
 767              		@ sp needed	@
 768 0160 00BD     		pop	{pc}
 769              	.L48:
 770 0162 C046     		.align	2
 771              	.L47:
 772 0164 20000000 		.word	.LC13
 773              		.cfi_endproc
 774              	.LFE3:
 775              		.size	TCPPreProcess, .-TCPPreProcess
 776              		.section	.text.TCPSendData,"ax",%progbits
 777              		.align	2
 778              		.global	TCPSendData
 779              		.code	16
 780              		.thumb_func
 781              		.type	TCPSendData, %function
 782              	TCPSendData:
 783              	.LFB4:
 248:src/tcp_transceiver.c **** 
 249:src/tcp_transceiver.c **** //el bufftcpsend de transmision es port,lenght,data
 250:src/tcp_transceiver.c **** unsigned char TCPSendData (unsigned char port, char * data)
 251:src/tcp_transceiver.c **** {
 784              		.loc 1 251 0
 785              		.cfi_startproc
 786 0000 00B5     		push	{lr}	@
 787              	.LCFI7:
 788              		.cfi_def_cfa_offset 4
 789              		.cfi_offset 14, -4
 790 0002 85B0     		sub	sp, sp, #20	@,,
 791              	.LCFI8:
 792              		.cfi_def_cfa_offset 24
 793 0004 0200     		movs	r2, r0	@ tmp119, port
 794 0006 0091     		str	r1, [sp]	@ data, data
 795 0008 6B46     		mov	r3, sp	@ tmp167,
 796 000a 0733     		adds	r3, r3, #7	@ tmp120,
 797 000c 1A70     		strb	r2, [r3]	@ tmp121, port
 252:src/tcp_transceiver.c **** 	char * p;
 253:src/tcp_transceiver.c **** 	unsigned char length = 0;
 798              		.loc 1 253 0
 799 000e 0923     		movs	r3, #9	@ tmp122,
 800 0010 6B44     		add	r3, r3, sp	@ tmp122,
 801 0012 0022     		movs	r2, #0	@ tmp123,
 802 0014 1A70     		strb	r2, [r3]	@ tmp124, length
 254:src/tcp_transceiver.c **** 	unsigned char i;
 255:src/tcp_transceiver.c **** 	unsigned char resp = RESP_NOK;
 803              		.loc 1 255 0
 804 0016 0A23     		movs	r3, #10	@ tmp125,
 805 0018 6B44     		add	r3, r3, sp	@ tmp125,
 806 001a 1522     		movs	r2, #21	@ tmp126,
 807 001c 1A70     		strb	r2, [r3]	@ tmp127, resp
 256:src/tcp_transceiver.c **** 
 257:src/tcp_transceiver.c **** 	//aca reviso si el puerto esta conectado
 258:src/tcp_transceiver.c **** 	if ((port >= 0) && (port <= 4))
 808              		.loc 1 258 0
 809 001e 6B46     		mov	r3, sp	@ tmp170,
 810 0020 0733     		adds	r3, r3, #7	@ tmp128,
 811 0022 1B78     		ldrb	r3, [r3]	@ tmp129, port
ARM GAS  /tmp/cctRPx0h.s 			page 20


 812 0024 042B     		cmp	r3, #4	@ tmp129,
 813 0026 48D8     		bhi	.L50	@,
 259:src/tcp_transceiver.c **** 	{
 260:src/tcp_transceiver.c **** 		length = strlen(data);
 814              		.loc 1 260 0
 815 0028 009B     		ldr	r3, [sp]	@ tmp130, data
 816 002a 1800     		movs	r0, r3	@, tmp130
 817 002c FFF7FEFF 		bl	strlen	@
 818 0030 0200     		movs	r2, r0	@ D.6522,
 819 0032 0923     		movs	r3, #9	@ tmp131,
 820 0034 6B44     		add	r3, r3, sp	@ tmp131,
 821 0036 1A70     		strb	r2, [r3]	@ tmp132, length
 261:src/tcp_transceiver.c **** 
 262:src/tcp_transceiver.c **** 		//busco buffer tcp vacio
 263:src/tcp_transceiver.c **** 		for (i = 0; i < 5; i++)
 822              		.loc 1 263 0
 823 0038 0B23     		movs	r3, #11	@ tmp133,
 824 003a 6B44     		add	r3, r3, sp	@ tmp133,
 825 003c 0022     		movs	r2, #0	@ tmp134,
 826 003e 1A70     		strb	r2, [r3]	@ tmp135, i
 827 0040 16E0     		b	.L51	@
 828              	.L53:
 264:src/tcp_transceiver.c **** 		{
 265:src/tcp_transceiver.c **** 			p = &bufftcpsend [i] [0];
 829              		.loc 1 265 0
 830 0042 0B23     		movs	r3, #11	@ tmp136,
 831 0044 6B44     		add	r3, r3, sp	@ tmp136,
 832 0046 1B78     		ldrb	r3, [r3]	@ D.6523, i
 833 0048 DA01     		lsls	r2, r3, #7	@ tmp137, D.6523,
 834 004a 1F4B     		ldr	r3, .L55	@ tmp139,
 835 004c D318     		adds	r3, r2, r3	@ tmp138, tmp137, tmp139
 836 004e 0393     		str	r3, [sp, #12]	@ tmp138, p
 266:src/tcp_transceiver.c **** 			if (*(p+1) == 0)
 837              		.loc 1 266 0
 838 0050 039B     		ldr	r3, [sp, #12]	@ tmp140, p
 839 0052 0133     		adds	r3, r3, #1	@ D.6524,
 840 0054 1B78     		ldrb	r3, [r3]	@ D.6525, *_17
 841 0056 002B     		cmp	r3, #0	@ D.6525,
 842 0058 03D1     		bne	.L52	@,
 267:src/tcp_transceiver.c **** 				i = 10;				//buffer vacio, lo uso
 843              		.loc 1 267 0
 844 005a 0B23     		movs	r3, #11	@ tmp141,
 845 005c 6B44     		add	r3, r3, sp	@ tmp141,
 846 005e 0A22     		movs	r2, #10	@ tmp142,
 847 0060 1A70     		strb	r2, [r3]	@ tmp143, i
 848              	.L52:
 263:src/tcp_transceiver.c **** 		{
 849              		.loc 1 263 0 discriminator 2
 850 0062 0B23     		movs	r3, #11	@ tmp144,
 851 0064 6B44     		add	r3, r3, sp	@ tmp144,
 852 0066 1A78     		ldrb	r2, [r3]	@ D.6526, i
 853 0068 0B23     		movs	r3, #11	@ tmp145,
 854 006a 6B44     		add	r3, r3, sp	@ tmp145,
 855 006c 0132     		adds	r2, r2, #1	@ tmp146,
 856 006e 1A70     		strb	r2, [r3]	@ tmp147, i
 857              	.L51:
 263:src/tcp_transceiver.c **** 		{
ARM GAS  /tmp/cctRPx0h.s 			page 21


 858              		.loc 1 263 0 is_stmt 0 discriminator 1
 859 0070 0B23     		movs	r3, #11	@ tmp148,
 860 0072 6B44     		add	r3, r3, sp	@ tmp148,
 861 0074 1B78     		ldrb	r3, [r3]	@ tmp149, i
 862 0076 042B     		cmp	r3, #4	@ tmp149,
 863 0078 E3D9     		bls	.L53	@,
 268:src/tcp_transceiver.c **** 		}
 269:src/tcp_transceiver.c **** 
 270:src/tcp_transceiver.c **** 		if ((i >= 10) && (length < (SIZEOF_BUFFTCP_SEND - 2)))
 864              		.loc 1 270 0 is_stmt 1
 865 007a 0B23     		movs	r3, #11	@ tmp150,
 866 007c 6B44     		add	r3, r3, sp	@ tmp150,
 867 007e 1B78     		ldrb	r3, [r3]	@ tmp151, i
 868 0080 092B     		cmp	r3, #9	@ tmp151,
 869 0082 1AD9     		bls	.L50	@,
 870              		.loc 1 270 0 is_stmt 0 discriminator 1
 871 0084 0923     		movs	r3, #9	@ tmp152,
 872 0086 6B44     		add	r3, r3, sp	@ tmp152,
 873 0088 1B78     		ldrb	r3, [r3]	@ tmp153, length
 874 008a 7D2B     		cmp	r3, #125	@ tmp153,
 875 008c 15D8     		bhi	.L50	@,
 271:src/tcp_transceiver.c **** 		{
 272:src/tcp_transceiver.c **** 			*p = port;
 876              		.loc 1 272 0 is_stmt 1
 877 008e 039B     		ldr	r3, [sp, #12]	@ tmp154, p
 878 0090 6A46     		mov	r2, sp	@ tmp180,
 879 0092 0732     		adds	r2, r2, #7	@ tmp155,
 880 0094 1278     		ldrb	r2, [r2]	@ tmp156, port
 881 0096 1A70     		strb	r2, [r3]	@ tmp156, *p_1
 273:src/tcp_transceiver.c **** 			*(p+1) = length;
 882              		.loc 1 273 0
 883 0098 039B     		ldr	r3, [sp, #12]	@ tmp157, p
 884 009a 0133     		adds	r3, r3, #1	@ D.6524,
 885 009c 0922     		movs	r2, #9	@ tmp158,
 886 009e 6A44     		add	r2, r2, sp	@ tmp158,
 887 00a0 1278     		ldrb	r2, [r2]	@ tmp159, length
 888 00a2 1A70     		strb	r2, [r3]	@ tmp159, *_23
 274:src/tcp_transceiver.c **** 			strcpy ((p+2), data);
 889              		.loc 1 274 0
 890 00a4 039B     		ldr	r3, [sp, #12]	@ tmp160, p
 891 00a6 0233     		adds	r3, r3, #2	@ D.6524,
 892 00a8 009A     		ldr	r2, [sp]	@ tmp161, data
 893 00aa 1100     		movs	r1, r2	@, tmp161
 894 00ac 1800     		movs	r0, r3	@, D.6524
 895 00ae FFF7FEFF 		bl	strcpy	@
 275:src/tcp_transceiver.c **** 			resp = RESP_OK;
 896              		.loc 1 275 0
 897 00b2 0A23     		movs	r3, #10	@ tmp162,
 898 00b4 6B44     		add	r3, r3, sp	@ tmp162,
 899 00b6 1422     		movs	r2, #20	@ tmp163,
 900 00b8 1A70     		strb	r2, [r3]	@ tmp164, resp
 901              	.L50:
 276:src/tcp_transceiver.c **** 		}
 277:src/tcp_transceiver.c **** 	}
 278:src/tcp_transceiver.c **** 
 279:src/tcp_transceiver.c **** 	return resp;
 902              		.loc 1 279 0
ARM GAS  /tmp/cctRPx0h.s 			page 22


 903 00ba 0A23     		movs	r3, #10	@ tmp165,
 904 00bc 6B44     		add	r3, r3, sp	@ tmp165,
 905 00be 1B78     		ldrb	r3, [r3]	@ D.6526, resp
 280:src/tcp_transceiver.c **** }
 906              		.loc 1 280 0
 907 00c0 1800     		movs	r0, r3	@, <retval>
 908 00c2 05B0     		add	sp, sp, #20	@,,
 909              		@ sp needed	@
 910 00c4 00BD     		pop	{pc}
 911              	.L56:
 912 00c6 C046     		.align	2
 913              	.L55:
 914 00c8 00000000 		.word	bufftcpsend
 915              		.cfi_endproc
 916              	.LFE4:
 917              		.size	TCPSendData, .-TCPSendData
 918              		.section	.text.TCPSendDataSocket,"ax",%progbits
 919              		.align	2
 920              		.global	TCPSendDataSocket
 921              		.code	16
 922              		.thumb_func
 923              		.type	TCPSendDataSocket, %function
 924              	TCPSendDataSocket:
 925              	.LFB5:
 281:src/tcp_transceiver.c **** 
 282:src/tcp_transceiver.c **** //el bufftcpsend de transmision es port,lenght,data
 283:src/tcp_transceiver.c **** unsigned char TCPSendDataSocket (unsigned char length, unsigned char * data)
 284:src/tcp_transceiver.c **** {
 926              		.loc 1 284 0
 927              		.cfi_startproc
 928 0000 84B0     		sub	sp, sp, #16	@,,
 929              	.LCFI9:
 930              		.cfi_def_cfa_offset 16
 931 0002 0200     		movs	r2, r0	@ tmp124, length
 932 0004 0091     		str	r1, [sp]	@ data, data
 933 0006 6B46     		mov	r3, sp	@ tmp183,
 934 0008 0733     		adds	r3, r3, #7	@ tmp125,
 935 000a 1A70     		strb	r2, [r3]	@ tmp126, length
 285:src/tcp_transceiver.c **** 	char * p;
 286:src/tcp_transceiver.c **** 	unsigned char i;
 287:src/tcp_transceiver.c **** 	unsigned char resp = RESP_NOK;
 936              		.loc 1 287 0
 937 000c 0A23     		movs	r3, #10	@ tmp127,
 938 000e 6B44     		add	r3, r3, sp	@ tmp127,
 939 0010 1522     		movs	r2, #21	@ tmp128,
 940 0012 1A70     		strb	r2, [r3]	@ tmp129, resp
 288:src/tcp_transceiver.c **** 
 289:src/tcp_transceiver.c **** 	unsigned char port = 0;
 941              		.loc 1 289 0
 942 0014 0923     		movs	r3, #9	@ tmp130,
 943 0016 6B44     		add	r3, r3, sp	@ tmp130,
 944 0018 0022     		movs	r2, #0	@ tmp131,
 945 001a 1A70     		strb	r2, [r3]	@ tmp132, port
 290:src/tcp_transceiver.c **** 	//aca reviso si el puerto esta conectado
 291:src/tcp_transceiver.c **** 	if ((port >= 0) && (port <= 4))
 946              		.loc 1 291 0
 947 001c 0923     		movs	r3, #9	@ tmp133,
ARM GAS  /tmp/cctRPx0h.s 			page 23


 948 001e 6B44     		add	r3, r3, sp	@ tmp133,
 949 0020 1B78     		ldrb	r3, [r3]	@ tmp134, port
 950 0022 042B     		cmp	r3, #4	@ tmp134,
 951 0024 5AD8     		bhi	.L58	@,
 292:src/tcp_transceiver.c **** 	{
 293:src/tcp_transceiver.c **** 		//length = strlen(data);
 294:src/tcp_transceiver.c **** 
 295:src/tcp_transceiver.c **** 		//busco buffer tcp vacio
 296:src/tcp_transceiver.c **** 		for (i = 0; i < 5; i++)
 952              		.loc 1 296 0
 953 0026 0B23     		movs	r3, #11	@ tmp135,
 954 0028 6B44     		add	r3, r3, sp	@ tmp135,
 955 002a 0022     		movs	r2, #0	@ tmp136,
 956 002c 1A70     		strb	r2, [r3]	@ tmp137, i
 957 002e 16E0     		b	.L59	@
 958              	.L61:
 297:src/tcp_transceiver.c **** 		{
 298:src/tcp_transceiver.c **** 			p = &bufftcpsend [i] [0];
 959              		.loc 1 298 0
 960 0030 0B23     		movs	r3, #11	@ tmp138,
 961 0032 6B44     		add	r3, r3, sp	@ tmp138,
 962 0034 1B78     		ldrb	r3, [r3]	@ D.6527, i
 963 0036 DA01     		lsls	r2, r3, #7	@ tmp139, D.6527,
 964 0038 2B4B     		ldr	r3, .L65	@ tmp141,
 965 003a D318     		adds	r3, r2, r3	@ tmp140, tmp139, tmp141
 966 003c 0393     		str	r3, [sp, #12]	@ tmp140, p
 299:src/tcp_transceiver.c **** 			if (*(p+1) == 0)
 967              		.loc 1 299 0
 968 003e 039B     		ldr	r3, [sp, #12]	@ tmp142, p
 969 0040 0133     		adds	r3, r3, #1	@ D.6528,
 970 0042 1B78     		ldrb	r3, [r3]	@ D.6529, *_15
 971 0044 002B     		cmp	r3, #0	@ D.6529,
 972 0046 03D1     		bne	.L60	@,
 300:src/tcp_transceiver.c **** 				i = 10;				//buffer vacio, lo uso
 973              		.loc 1 300 0
 974 0048 0B23     		movs	r3, #11	@ tmp143,
 975 004a 6B44     		add	r3, r3, sp	@ tmp143,
 976 004c 0A22     		movs	r2, #10	@ tmp144,
 977 004e 1A70     		strb	r2, [r3]	@ tmp145, i
 978              	.L60:
 296:src/tcp_transceiver.c **** 		{
 979              		.loc 1 296 0 discriminator 2
 980 0050 0B23     		movs	r3, #11	@ tmp146,
 981 0052 6B44     		add	r3, r3, sp	@ tmp146,
 982 0054 1A78     		ldrb	r2, [r3]	@ D.6530, i
 983 0056 0B23     		movs	r3, #11	@ tmp147,
 984 0058 6B44     		add	r3, r3, sp	@ tmp147,
 985 005a 0132     		adds	r2, r2, #1	@ tmp148,
 986 005c 1A70     		strb	r2, [r3]	@ tmp149, i
 987              	.L59:
 296:src/tcp_transceiver.c **** 		{
 988              		.loc 1 296 0 is_stmt 0 discriminator 1
 989 005e 0B23     		movs	r3, #11	@ tmp150,
 990 0060 6B44     		add	r3, r3, sp	@ tmp150,
 991 0062 1B78     		ldrb	r3, [r3]	@ tmp151, i
 992 0064 042B     		cmp	r3, #4	@ tmp151,
 993 0066 E3D9     		bls	.L61	@,
ARM GAS  /tmp/cctRPx0h.s 			page 24


 301:src/tcp_transceiver.c **** 		}
 302:src/tcp_transceiver.c **** 
 303:src/tcp_transceiver.c **** 		if ((i >= 10) && (length < (SIZEOF_BUFFTCP_SEND - 2)))
 994              		.loc 1 303 0 is_stmt 1
 995 0068 0B23     		movs	r3, #11	@ tmp152,
 996 006a 6B44     		add	r3, r3, sp	@ tmp152,
 997 006c 1B78     		ldrb	r3, [r3]	@ tmp153, i
 998 006e 092B     		cmp	r3, #9	@ tmp153,
 999 0070 34D9     		bls	.L58	@,
 1000              		.loc 1 303 0 is_stmt 0 discriminator 1
 1001 0072 6B46     		mov	r3, sp	@ tmp194,
 1002 0074 0733     		adds	r3, r3, #7	@ tmp154,
 1003 0076 1B78     		ldrb	r3, [r3]	@ tmp155, length
 1004 0078 7D2B     		cmp	r3, #125	@ tmp155,
 1005 007a 2FD8     		bhi	.L58	@,
 304:src/tcp_transceiver.c **** 		{
 305:src/tcp_transceiver.c **** 			*p = port;
 1006              		.loc 1 305 0 is_stmt 1
 1007 007c 039B     		ldr	r3, [sp, #12]	@ tmp156, p
 1008 007e 0922     		movs	r2, #9	@ tmp157,
 1009 0080 6A44     		add	r2, r2, sp	@ tmp157,
 1010 0082 1278     		ldrb	r2, [r2]	@ tmp158, port
 1011 0084 1A70     		strb	r2, [r3]	@ tmp158, *p_1
 306:src/tcp_transceiver.c **** 			*(p+1) = length;
 1012              		.loc 1 306 0
 1013 0086 039B     		ldr	r3, [sp, #12]	@ tmp159, p
 1014 0088 0133     		adds	r3, r3, #1	@ D.6528,
 1015 008a 6A46     		mov	r2, sp	@ tmp196,
 1016 008c 0732     		adds	r2, r2, #7	@ tmp160,
 1017 008e 1278     		ldrb	r2, [r2]	@ tmp161, length
 1018 0090 1A70     		strb	r2, [r3]	@ tmp161, *_22
 307:src/tcp_transceiver.c **** 			//strcpy ((p+2), (char *) data);
 308:src/tcp_transceiver.c **** 			for (i = 0; i < length; i++)
 1019              		.loc 1 308 0
 1020 0092 0B23     		movs	r3, #11	@ tmp162,
 1021 0094 6B44     		add	r3, r3, sp	@ tmp162,
 1022 0096 0022     		movs	r2, #0	@ tmp163,
 1023 0098 1A70     		strb	r2, [r3]	@ tmp164, i
 1024 009a 13E0     		b	.L62	@
 1025              	.L63:
 309:src/tcp_transceiver.c **** 				*(p + 2 + i) = *(data + i);
 1026              		.loc 1 309 0 discriminator 3
 1027 009c 0B23     		movs	r3, #11	@ tmp165,
 1028 009e 6B44     		add	r3, r3, sp	@ tmp165,
 1029 00a0 1B78     		ldrb	r3, [r3]	@ D.6531, i
 1030 00a2 0233     		adds	r3, r3, #2	@ D.6531,
 1031 00a4 039A     		ldr	r2, [sp, #12]	@ tmp166, p
 1032 00a6 D318     		adds	r3, r2, r3	@ D.6528, tmp166, D.6531
 1033 00a8 0B22     		movs	r2, #11	@ tmp167,
 1034 00aa 6A44     		add	r2, r2, sp	@ tmp167,
 1035 00ac 1278     		ldrb	r2, [r2]	@ D.6531, i
 1036 00ae 0099     		ldr	r1, [sp]	@ tmp168, data
 1037 00b0 8A18     		adds	r2, r1, r2	@ D.6532, tmp168, D.6531
 1038 00b2 1278     		ldrb	r2, [r2]	@ D.6530, *_30
 1039 00b4 1A70     		strb	r2, [r3]	@ tmp169, *_27
 308:src/tcp_transceiver.c **** 				*(p + 2 + i) = *(data + i);
 1040              		.loc 1 308 0 discriminator 3
ARM GAS  /tmp/cctRPx0h.s 			page 25


 1041 00b6 0B23     		movs	r3, #11	@ tmp170,
 1042 00b8 6B44     		add	r3, r3, sp	@ tmp170,
 1043 00ba 1A78     		ldrb	r2, [r3]	@ D.6530, i
 1044 00bc 0B23     		movs	r3, #11	@ tmp171,
 1045 00be 6B44     		add	r3, r3, sp	@ tmp171,
 1046 00c0 0132     		adds	r2, r2, #1	@ tmp172,
 1047 00c2 1A70     		strb	r2, [r3]	@ tmp173, i
 1048              	.L62:
 308:src/tcp_transceiver.c **** 				*(p + 2 + i) = *(data + i);
 1049              		.loc 1 308 0 is_stmt 0 discriminator 1
 1050 00c4 0B22     		movs	r2, #11	@ tmp174,
 1051 00c6 6A44     		add	r2, r2, sp	@ tmp174,
 1052 00c8 6B46     		mov	r3, sp	@ tmp203,
 1053 00ca 0733     		adds	r3, r3, #7	@ tmp175,
 1054 00cc 1278     		ldrb	r2, [r2]	@ tmp176, i
 1055 00ce 1B78     		ldrb	r3, [r3]	@ tmp177, length
 1056 00d0 9A42     		cmp	r2, r3	@ tmp176, tmp177
 1057 00d2 E3D3     		bcc	.L63	@,
 310:src/tcp_transceiver.c **** 			resp = RESP_OK;
 1058              		.loc 1 310 0 is_stmt 1
 1059 00d4 0A23     		movs	r3, #10	@ tmp178,
 1060 00d6 6B44     		add	r3, r3, sp	@ tmp178,
 1061 00d8 1422     		movs	r2, #20	@ tmp179,
 1062 00da 1A70     		strb	r2, [r3]	@ tmp180, resp
 1063              	.L58:
 311:src/tcp_transceiver.c **** 		}
 312:src/tcp_transceiver.c **** 	}
 313:src/tcp_transceiver.c **** 
 314:src/tcp_transceiver.c **** 	return resp;
 1064              		.loc 1 314 0
 1065 00dc 0A23     		movs	r3, #10	@ tmp181,
 1066 00de 6B44     		add	r3, r3, sp	@ tmp181,
 1067 00e0 1B78     		ldrb	r3, [r3]	@ D.6530, resp
 315:src/tcp_transceiver.c **** }
 1068              		.loc 1 315 0
 1069 00e2 1800     		movs	r0, r3	@, <retval>
 1070 00e4 04B0     		add	sp, sp, #16	@,,
 1071              		@ sp needed	@
 1072 00e6 7047     		bx	lr
 1073              	.L66:
 1074              		.align	2
 1075              	.L65:
 1076 00e8 00000000 		.word	bufftcpsend
 1077              		.cfi_endproc
 1078              	.LFE5:
 1079              		.size	TCPSendDataSocket, .-TCPSendDataSocket
 1080              		.section	.text.ReadPcktR,"ax",%progbits
 1081              		.align	2
 1082              		.global	ReadPcktR
 1083              		.code	16
 1084              		.thumb_func
 1085              		.type	ReadPcktR, %function
 1086              	ReadPcktR:
 1087              	.LFB6:
 316:src/tcp_transceiver.c **** 
 317:src/tcp_transceiver.c **** unsigned char ReadPcktR(unsigned char * p, unsigned short own_addr, unsigned char * new_r, unsigned
 318:src/tcp_transceiver.c **** {
ARM GAS  /tmp/cctRPx0h.s 			page 26


 1088              		.loc 1 318 0
 1089              		.cfi_startproc
 1090 0000 00B5     		push	{lr}	@
 1091              	.LCFI10:
 1092              		.cfi_def_cfa_offset 4
 1093              		.cfi_offset 14, -4
 1094 0002 87B0     		sub	sp, sp, #28	@,,
 1095              	.LCFI11:
 1096              		.cfi_def_cfa_offset 32
 1097 0004 0390     		str	r0, [sp, #12]	@ p, p
 1098 0006 0192     		str	r2, [sp, #4]	@ new_r, new_r
 1099 0008 0093     		str	r3, [sp]	@ len, len
 1100 000a 0A23     		movs	r3, #10	@ tmp122,
 1101 000c 6B44     		add	r3, r3, sp	@ tmp122,
 1102 000e 0A1C     		adds	r2, r1, #0	@ tmp123, tmp121
 1103 0010 1A80     		strh	r2, [r3]	@ tmp123, own_addr
 319:src/tcp_transceiver.c **** 	unsigned char new_shine;
 320:src/tcp_transceiver.c **** 
 321:src/tcp_transceiver.c **** 	if (*(p+2) != ',')
 1104              		.loc 1 321 0
 1105 0012 039B     		ldr	r3, [sp, #12]	@ tmp124, p
 1106 0014 0233     		adds	r3, r3, #2	@ D.6534,
 1107 0016 1B78     		ldrb	r3, [r3]	@ D.6533, *_10
 1108 0018 2C2B     		cmp	r3, #44	@ D.6533,
 1109 001a 01D0     		beq	.L68	@,
 322:src/tcp_transceiver.c **** 		return RESP_NOK;
 1110              		.loc 1 322 0
 1111 001c 1523     		movs	r3, #21	@ D.6533,
 1112 001e 80E0     		b	.L69	@
 1113              	.L68:
 323:src/tcp_transceiver.c **** 
 324:src/tcp_transceiver.c **** 	if (GetValue(p + 3) == 0xffff)
 1114              		.loc 1 324 0
 1115 0020 039B     		ldr	r3, [sp, #12]	@ tmp125, p
 1116 0022 0333     		adds	r3, r3, #3	@ D.6534,
 1117 0024 1800     		movs	r0, r3	@, D.6534
 1118 0026 FFF7FEFF 		bl	GetValue	@
 1119 002a 0300     		movs	r3, r0	@ tmp126,
 1120 002c 1A1E     		subs	r2, r3, #0	@ D.6535, tmp127,
 1121 002e 3E4B     		ldr	r3, .L89	@ tmp128,
 1122 0030 9A42     		cmp	r2, r3	@ D.6535, tmp128
 1123 0032 01D1     		bne	.L70	@,
 325:src/tcp_transceiver.c **** 		return RESP_NOK;
 1124              		.loc 1 325 0
 1125 0034 1523     		movs	r3, #21	@ D.6533,
 1126 0036 74E0     		b	.L69	@
 1127              	.L70:
 326:src/tcp_transceiver.c **** 
 327:src/tcp_transceiver.c **** 	new_shine = GetValue(p + 3);
 1128              		.loc 1 327 0
 1129 0038 039B     		ldr	r3, [sp, #12]	@ tmp129, p
 1130 003a 0333     		adds	r3, r3, #3	@ D.6534,
 1131 003c 1800     		movs	r0, r3	@, D.6534
 1132 003e FFF7FEFF 		bl	GetValue	@
 1133 0042 0300     		movs	r3, r0	@ tmp130,
 1134 0044 1A00     		movs	r2, r3	@ D.6535, tmp131
 1135 0046 1723     		movs	r3, #23	@ tmp132,
ARM GAS  /tmp/cctRPx0h.s 			page 27


 1136 0048 6B44     		add	r3, r3, sp	@ tmp132,
 1137 004a 1A70     		strb	r2, [r3]	@ tmp133, new_shine
 328:src/tcp_transceiver.c **** 
 329:src/tcp_transceiver.c **** 	switch (*(p+1))
 1138              		.loc 1 329 0
 1139 004c 039B     		ldr	r3, [sp, #12]	@ tmp134, p
 1140 004e 0133     		adds	r3, r3, #1	@ D.6534,
 1141 0050 1B78     		ldrb	r3, [r3]	@ D.6533, *_22
 1142 0052 312B     		cmp	r3, #49	@ D.6536,
 1143 0054 18D0     		beq	.L72	@,
 1144 0056 02DC     		bgt	.L73	@,
 1145 0058 302B     		cmp	r3, #48	@ D.6536,
 1146 005a 05D0     		beq	.L74	@,
 330:src/tcp_transceiver.c **** 	{
 331:src/tcp_transceiver.c **** 		case '0':
 332:src/tcp_transceiver.c **** 			if ((own_addr >= 1) && (own_addr < 31))
 333:src/tcp_transceiver.c **** 			{
 334:src/tcp_transceiver.c **** 				*new_r = new_shine;
 335:src/tcp_transceiver.c **** 			}
 336:src/tcp_transceiver.c **** 			break;
 337:src/tcp_transceiver.c **** 
 338:src/tcp_transceiver.c **** 		case '1':
 339:src/tcp_transceiver.c **** 			if ((own_addr >= 31) && (own_addr < 61))
 340:src/tcp_transceiver.c **** 			{
 341:src/tcp_transceiver.c **** 				*new_r = new_shine;
 342:src/tcp_transceiver.c **** 			}
 343:src/tcp_transceiver.c **** 			break;
 344:src/tcp_transceiver.c **** 
 345:src/tcp_transceiver.c **** 		case '2':
 346:src/tcp_transceiver.c **** 			if ((own_addr >= 61) && (own_addr < 91))
 347:src/tcp_transceiver.c **** 			{
 348:src/tcp_transceiver.c **** 				*new_r = new_shine;
 349:src/tcp_transceiver.c **** 			}
 350:src/tcp_transceiver.c **** 			break;
 351:src/tcp_transceiver.c **** 
 352:src/tcp_transceiver.c **** 		case '3':
 353:src/tcp_transceiver.c **** 			if ((own_addr >= 91) && (own_addr < 121))
 354:src/tcp_transceiver.c **** 			{
 355:src/tcp_transceiver.c **** 				*new_r = new_shine;
 356:src/tcp_transceiver.c **** 			}
 357:src/tcp_transceiver.c **** 			break;
 358:src/tcp_transceiver.c **** 
 359:src/tcp_transceiver.c **** 		default:
 360:src/tcp_transceiver.c **** 			break;
 1147              		.loc 1 360 0
 1148 005c 4BE0     		b	.L78	@
 1149              	.L73:
 329:src/tcp_transceiver.c **** 	{
 1150              		.loc 1 329 0
 1151 005e 322B     		cmp	r3, #50	@ D.6536,
 1152 0060 22D0     		beq	.L75	@,
 1153 0062 332B     		cmp	r3, #51	@ D.6536,
 1154 0064 30D0     		beq	.L76	@,
 1155              		.loc 1 360 0
 1156 0066 46E0     		b	.L78	@
 1157              	.L74:
 332:src/tcp_transceiver.c **** 			{
ARM GAS  /tmp/cctRPx0h.s 			page 28


 1158              		.loc 1 332 0
 1159 0068 0A23     		movs	r3, #10	@ tmp135,
 1160 006a 6B44     		add	r3, r3, sp	@ tmp135,
 1161 006c 1B88     		ldrh	r3, [r3]	@ tmp136, own_addr
 1162 006e 002B     		cmp	r3, #0	@ tmp136,
 1163 0070 3AD0     		beq	.L85	@,
 332:src/tcp_transceiver.c **** 			{
 1164              		.loc 1 332 0 is_stmt 0 discriminator 1
 1165 0072 0A23     		movs	r3, #10	@ tmp137,
 1166 0074 6B44     		add	r3, r3, sp	@ tmp137,
 1167 0076 1B88     		ldrh	r3, [r3]	@ tmp138, own_addr
 1168 0078 1E2B     		cmp	r3, #30	@ tmp138,
 1169 007a 35D8     		bhi	.L85	@,
 334:src/tcp_transceiver.c **** 			}
 1170              		.loc 1 334 0 is_stmt 1
 1171 007c 019B     		ldr	r3, [sp, #4]	@ tmp139, new_r
 1172 007e 1722     		movs	r2, #23	@ tmp140,
 1173 0080 6A44     		add	r2, r2, sp	@ tmp140,
 1174 0082 1278     		ldrb	r2, [r2]	@ tmp141, new_shine
 1175 0084 1A70     		strb	r2, [r3]	@ tmp141, *new_r_26(D)
 336:src/tcp_transceiver.c **** 
 1176              		.loc 1 336 0
 1177 0086 2FE0     		b	.L85	@
 1178              	.L72:
 339:src/tcp_transceiver.c **** 			{
 1179              		.loc 1 339 0
 1180 0088 0A23     		movs	r3, #10	@ tmp142,
 1181 008a 6B44     		add	r3, r3, sp	@ tmp142,
 1182 008c 1B88     		ldrh	r3, [r3]	@ tmp143, own_addr
 1183 008e 1E2B     		cmp	r3, #30	@ tmp143,
 1184 0090 2CD9     		bls	.L86	@,
 339:src/tcp_transceiver.c **** 			{
 1185              		.loc 1 339 0 is_stmt 0 discriminator 1
 1186 0092 0A23     		movs	r3, #10	@ tmp144,
 1187 0094 6B44     		add	r3, r3, sp	@ tmp144,
 1188 0096 1B88     		ldrh	r3, [r3]	@ tmp145, own_addr
 1189 0098 3C2B     		cmp	r3, #60	@ tmp145,
 1190 009a 27D8     		bhi	.L86	@,
 341:src/tcp_transceiver.c **** 			}
 1191              		.loc 1 341 0 is_stmt 1
 1192 009c 019B     		ldr	r3, [sp, #4]	@ tmp146, new_r
 1193 009e 1722     		movs	r2, #23	@ tmp147,
 1194 00a0 6A44     		add	r2, r2, sp	@ tmp147,
 1195 00a2 1278     		ldrb	r2, [r2]	@ tmp148, new_shine
 1196 00a4 1A70     		strb	r2, [r3]	@ tmp148, *new_r_26(D)
 343:src/tcp_transceiver.c **** 
 1197              		.loc 1 343 0
 1198 00a6 21E0     		b	.L86	@
 1199              	.L75:
 346:src/tcp_transceiver.c **** 			{
 1200              		.loc 1 346 0
 1201 00a8 0A23     		movs	r3, #10	@ tmp149,
 1202 00aa 6B44     		add	r3, r3, sp	@ tmp149,
 1203 00ac 1B88     		ldrh	r3, [r3]	@ tmp150, own_addr
 1204 00ae 3C2B     		cmp	r3, #60	@ tmp150,
 1205 00b0 1ED9     		bls	.L87	@,
 346:src/tcp_transceiver.c **** 			{
ARM GAS  /tmp/cctRPx0h.s 			page 29


 1206              		.loc 1 346 0 is_stmt 0 discriminator 1
 1207 00b2 0A23     		movs	r3, #10	@ tmp151,
 1208 00b4 6B44     		add	r3, r3, sp	@ tmp151,
 1209 00b6 1B88     		ldrh	r3, [r3]	@ tmp152, own_addr
 1210 00b8 5A2B     		cmp	r3, #90	@ tmp152,
 1211 00ba 19D8     		bhi	.L87	@,
 348:src/tcp_transceiver.c **** 			}
 1212              		.loc 1 348 0 is_stmt 1
 1213 00bc 019B     		ldr	r3, [sp, #4]	@ tmp153, new_r
 1214 00be 1722     		movs	r2, #23	@ tmp154,
 1215 00c0 6A44     		add	r2, r2, sp	@ tmp154,
 1216 00c2 1278     		ldrb	r2, [r2]	@ tmp155, new_shine
 1217 00c4 1A70     		strb	r2, [r3]	@ tmp155, *new_r_26(D)
 350:src/tcp_transceiver.c **** 
 1218              		.loc 1 350 0
 1219 00c6 13E0     		b	.L87	@
 1220              	.L76:
 353:src/tcp_transceiver.c **** 			{
 1221              		.loc 1 353 0
 1222 00c8 0A23     		movs	r3, #10	@ tmp156,
 1223 00ca 6B44     		add	r3, r3, sp	@ tmp156,
 1224 00cc 1B88     		ldrh	r3, [r3]	@ tmp157, own_addr
 1225 00ce 5A2B     		cmp	r3, #90	@ tmp157,
 1226 00d0 10D9     		bls	.L88	@,
 353:src/tcp_transceiver.c **** 			{
 1227              		.loc 1 353 0 is_stmt 0 discriminator 1
 1228 00d2 0A23     		movs	r3, #10	@ tmp158,
 1229 00d4 6B44     		add	r3, r3, sp	@ tmp158,
 1230 00d6 1B88     		ldrh	r3, [r3]	@ tmp159, own_addr
 1231 00d8 782B     		cmp	r3, #120	@ tmp159,
 1232 00da 0BD8     		bhi	.L88	@,
 355:src/tcp_transceiver.c **** 			}
 1233              		.loc 1 355 0 is_stmt 1
 1234 00dc 019B     		ldr	r3, [sp, #4]	@ tmp160, new_r
 1235 00de 1722     		movs	r2, #23	@ tmp161,
 1236 00e0 6A44     		add	r2, r2, sp	@ tmp161,
 1237 00e2 1278     		ldrb	r2, [r2]	@ tmp162, new_shine
 1238 00e4 1A70     		strb	r2, [r3]	@ tmp162, *new_r_26(D)
 357:src/tcp_transceiver.c **** 
 1239              		.loc 1 357 0
 1240 00e6 05E0     		b	.L88	@
 1241              	.L85:
 336:src/tcp_transceiver.c **** 
 1242              		.loc 1 336 0
 1243 00e8 C046     		nop
 1244 00ea 04E0     		b	.L78	@
 1245              	.L86:
 343:src/tcp_transceiver.c **** 
 1246              		.loc 1 343 0
 1247 00ec C046     		nop
 1248 00ee 02E0     		b	.L78	@
 1249              	.L87:
 350:src/tcp_transceiver.c **** 
 1250              		.loc 1 350 0
 1251 00f0 C046     		nop
 1252 00f2 00E0     		b	.L78	@
 1253              	.L88:
ARM GAS  /tmp/cctRPx0h.s 			page 30


 357:src/tcp_transceiver.c **** 
 1254              		.loc 1 357 0
 1255 00f4 C046     		nop
 1256              	.L78:
 361:src/tcp_transceiver.c **** 	}
 362:src/tcp_transceiver.c **** 
 363:src/tcp_transceiver.c **** 	if (new_shine < 10)
 1257              		.loc 1 363 0
 1258 00f6 1723     		movs	r3, #23	@ tmp163,
 1259 00f8 6B44     		add	r3, r3, sp	@ tmp163,
 1260 00fa 1B78     		ldrb	r3, [r3]	@ tmp164, new_shine
 1261 00fc 092B     		cmp	r3, #9	@ tmp164,
 1262 00fe 03D8     		bhi	.L82	@,
 364:src/tcp_transceiver.c **** 		*len = 5;
 1263              		.loc 1 364 0
 1264 0100 009B     		ldr	r3, [sp]	@ tmp165, len
 1265 0102 0522     		movs	r2, #5	@ tmp166,
 1266 0104 1A70     		strb	r2, [r3]	@ tmp167, *len_31(D)
 1267 0106 0BE0     		b	.L83	@
 1268              	.L82:
 365:src/tcp_transceiver.c **** 	else if (new_shine < 100)
 1269              		.loc 1 365 0
 1270 0108 1723     		movs	r3, #23	@ tmp168,
 1271 010a 6B44     		add	r3, r3, sp	@ tmp168,
 1272 010c 1B78     		ldrb	r3, [r3]	@ tmp169, new_shine
 1273 010e 632B     		cmp	r3, #99	@ tmp169,
 1274 0110 03D8     		bhi	.L84	@,
 366:src/tcp_transceiver.c **** 		*len = 6;
 1275              		.loc 1 366 0
 1276 0112 009B     		ldr	r3, [sp]	@ tmp170, len
 1277 0114 0622     		movs	r2, #6	@ tmp171,
 1278 0116 1A70     		strb	r2, [r3]	@ tmp172, *len_31(D)
 1279 0118 02E0     		b	.L83	@
 1280              	.L84:
 367:src/tcp_transceiver.c **** 	else
 368:src/tcp_transceiver.c **** 		*len = 7;
 1281              		.loc 1 368 0
 1282 011a 009B     		ldr	r3, [sp]	@ tmp173, len
 1283 011c 0722     		movs	r2, #7	@ tmp174,
 1284 011e 1A70     		strb	r2, [r3]	@ tmp175, *len_31(D)
 1285              	.L83:
 369:src/tcp_transceiver.c **** 
 370:src/tcp_transceiver.c **** 	return RESP_OK;
 1286              		.loc 1 370 0
 1287 0120 1423     		movs	r3, #20	@ D.6533,
 1288              	.L69:
 371:src/tcp_transceiver.c **** }
 1289              		.loc 1 371 0
 1290 0122 1800     		movs	r0, r3	@, <retval>
 1291 0124 07B0     		add	sp, sp, #28	@,,
 1292              		@ sp needed	@
 1293 0126 00BD     		pop	{pc}
 1294              	.L90:
 1295              		.align	2
 1296              	.L89:
 1297 0128 FFFF0000 		.word	65535
 1298              		.cfi_endproc
ARM GAS  /tmp/cctRPx0h.s 			page 31


 1299              	.LFE6:
 1300              		.size	ReadPcktR, .-ReadPcktR
 1301              		.section	.text.ReadPcktS,"ax",%progbits
 1302              		.align	2
 1303              		.global	ReadPcktS
 1304              		.code	16
 1305              		.thumb_func
 1306              		.type	ReadPcktS, %function
 1307              	ReadPcktS:
 1308              	.LFB7:
 372:src/tcp_transceiver.c **** 
 373:src/tcp_transceiver.c **** //en S me llega un parametro particular
 374:src/tcp_transceiver.c **** //del brillo de esa lampara pero indicando cada habitacion
 375:src/tcp_transceiver.c **** //s0,0,255;\r\n
 376:src/tcp_transceiver.c **** void ReadPcktS(unsigned char * p)
 377:src/tcp_transceiver.c **** {
 1309              		.loc 1 377 0
 1310              		.cfi_startproc
 1311 0000 82B0     		sub	sp, sp, #8	@,,
 1312              	.LCFI12:
 1313              		.cfi_def_cfa_offset 8
 1314 0002 0190     		str	r0, [sp, #4]	@ p, p
 378:src/tcp_transceiver.c **** 	/*
 379:src/tcp_transceiver.c **** 	unsigned char room;
 380:src/tcp_transceiver.c **** 	unsigned char slider;
 381:src/tcp_transceiver.c **** 	unsigned char new_shine;
 382:src/tcp_transceiver.c **** 	unsigned short ii;
 383:src/tcp_transceiver.c **** 
 384:src/tcp_transceiver.c **** 	if (*(p+2) != ',')
 385:src/tcp_transceiver.c **** 		return;
 386:src/tcp_transceiver.c **** 
 387:src/tcp_transceiver.c **** 	room = *(p+1) - '0';
 388:src/tcp_transceiver.c **** 
 389:src/tcp_transceiver.c **** 	if ((room < 0) || (room > 3))
 390:src/tcp_transceiver.c **** 		return;
 391:src/tcp_transceiver.c **** 
 392:src/tcp_transceiver.c **** 	ii = GetValue(p + 3);
 393:src/tcp_transceiver.c **** 	if (ii == 0xffff)
 394:src/tcp_transceiver.c **** 		return;
 395:src/tcp_transceiver.c **** 	else
 396:src/tcp_transceiver.c **** 		slider = (unsigned char) ii;
 397:src/tcp_transceiver.c **** 
 398:src/tcp_transceiver.c **** 	if (slider < 10)
 399:src/tcp_transceiver.c **** 	{
 400:src/tcp_transceiver.c **** 		ii = GetValue(p + 5);
 401:src/tcp_transceiver.c **** 		if (ii == 0xffff)
 402:src/tcp_transceiver.c **** 			return;
 403:src/tcp_transceiver.c **** 		else
 404:src/tcp_transceiver.c **** 			new_shine = (unsigned char) ii;
 405:src/tcp_transceiver.c **** 	}
 406:src/tcp_transceiver.c **** 	else if (slider < 30)
 407:src/tcp_transceiver.c **** 	{
 408:src/tcp_transceiver.c **** 		ii = GetValue(p + 6);
 409:src/tcp_transceiver.c **** 		if (ii == 0xffff)
 410:src/tcp_transceiver.c **** 			return;
 411:src/tcp_transceiver.c **** 		else
 412:src/tcp_transceiver.c **** 			new_shine = (unsigned char) ii;
ARM GAS  /tmp/cctRPx0h.s 			page 32


 413:src/tcp_transceiver.c **** 	}
 414:src/tcp_transceiver.c **** 	else
 415:src/tcp_transceiver.c **** 		return;
 416:src/tcp_transceiver.c **** 
 417:src/tcp_transceiver.c **** 	ii = (room * 30) + slider + 1;
 418:src/tcp_transceiver.c **** 	orig_shine_slider[ii] = new_shine;
 419:src/tcp_transceiver.c **** 	data1[ii] = ((new_shine + 1) * orig_shine_room[room]) >> 8;
 420:src/tcp_transceiver.c **** 	*/
 421:src/tcp_transceiver.c **** }
 1315              		.loc 1 421 0
 1316 0004 C046     		nop
 1317 0006 02B0     		add	sp, sp, #8	@,,
 1318              		@ sp needed	@
 1319 0008 7047     		bx	lr
 1320              		.cfi_endproc
 1321              	.LFE7:
 1322              		.size	ReadPcktS, .-ReadPcktS
 1323 000a C046     		.section	.text.GetValue,"ax",%progbits
 1324              		.align	2
 1325              		.global	GetValue
 1326              		.code	16
 1327              		.thumb_func
 1328              		.type	GetValue, %function
 1329              	GetValue:
 1330              	.LFB8:
 422:src/tcp_transceiver.c **** 
 423:src/tcp_transceiver.c **** unsigned short GetValue (unsigned char * pn)
 424:src/tcp_transceiver.c **** {
 1331              		.loc 1 424 0
 1332              		.cfi_startproc
 1333 0000 84B0     		sub	sp, sp, #16	@,,
 1334              	.LCFI13:
 1335              		.cfi_def_cfa_offset 16
 1336 0002 0190     		str	r0, [sp, #4]	@ pn, pn
 425:src/tcp_transceiver.c **** 	unsigned char i;
 426:src/tcp_transceiver.c **** 	unsigned char colon = 0;
 1337              		.loc 1 426 0
 1338 0004 0E23     		movs	r3, #14	@ tmp170,
 1339 0006 6B44     		add	r3, r3, sp	@ tmp170,
 1340 0008 0022     		movs	r2, #0	@ tmp171,
 1341 000a 1A70     		strb	r2, [r3]	@ tmp172, colon
 427:src/tcp_transceiver.c **** 	unsigned short new_val = 0xffff;
 1342              		.loc 1 427 0
 1343 000c 03AB     		add	r3, sp, #12	@ tmp173,,
 1344 000e 0122     		movs	r2, #1	@ tmp258,
 1345 0010 5242     		rsbs	r2, r2, #0	@ tmp174, tmp258
 1346 0012 1A80     		strh	r2, [r3]	@ tmp175, new_val
 428:src/tcp_transceiver.c **** 
 429:src/tcp_transceiver.c **** 	//me fijo la posiciones de la , o ;
 430:src/tcp_transceiver.c **** 	for (i = 0; i < 6; i++)
 1347              		.loc 1 430 0
 1348 0014 0F23     		movs	r3, #15	@ tmp176,
 1349 0016 6B44     		add	r3, r3, sp	@ tmp176,
 1350 0018 0022     		movs	r2, #0	@ tmp177,
 1351 001a 1A70     		strb	r2, [r3]	@ tmp178, i
 1352 001c 20E0     		b	.L93	@
 1353              	.L96:
ARM GAS  /tmp/cctRPx0h.s 			page 33


 431:src/tcp_transceiver.c **** 	{
 432:src/tcp_transceiver.c **** 		if ((*(pn + i) == ',') || ((*(pn + i) == ';')))
 1354              		.loc 1 432 0
 1355 001e 0F23     		movs	r3, #15	@ tmp179,
 1356 0020 6B44     		add	r3, r3, sp	@ tmp179,
 1357 0022 1B78     		ldrb	r3, [r3]	@ D.6539, i
 1358 0024 019A     		ldr	r2, [sp, #4]	@ tmp180, pn
 1359 0026 D318     		adds	r3, r2, r3	@ D.6540, tmp180, D.6539
 1360 0028 1B78     		ldrb	r3, [r3]	@ D.6541, *_12
 1361 002a 2C2B     		cmp	r3, #44	@ D.6541,
 1362 002c 07D0     		beq	.L94	@,
 1363              		.loc 1 432 0 is_stmt 0 discriminator 1
 1364 002e 0F23     		movs	r3, #15	@ tmp181,
 1365 0030 6B44     		add	r3, r3, sp	@ tmp181,
 1366 0032 1B78     		ldrb	r3, [r3]	@ D.6539, i
 1367 0034 019A     		ldr	r2, [sp, #4]	@ tmp182, pn
 1368 0036 D318     		adds	r3, r2, r3	@ D.6540, tmp182, D.6539
 1369 0038 1B78     		ldrb	r3, [r3]	@ D.6541, *_16
 1370 003a 3B2B     		cmp	r3, #59	@ D.6541,
 1371 003c 09D1     		bne	.L95	@,
 1372              	.L94:
 433:src/tcp_transceiver.c **** 		{
 434:src/tcp_transceiver.c **** 			colon = i;
 1373              		.loc 1 434 0 is_stmt 1
 1374 003e 0E23     		movs	r3, #14	@ tmp183,
 1375 0040 6B44     		add	r3, r3, sp	@ tmp183,
 1376 0042 0F22     		movs	r2, #15	@ tmp184,
 1377 0044 6A44     		add	r2, r2, sp	@ tmp184,
 1378 0046 1278     		ldrb	r2, [r2]	@ tmp185, i
 1379 0048 1A70     		strb	r2, [r3]	@ tmp185, colon
 435:src/tcp_transceiver.c **** 			i = 6;
 1380              		.loc 1 435 0
 1381 004a 0F23     		movs	r3, #15	@ tmp186,
 1382 004c 6B44     		add	r3, r3, sp	@ tmp186,
 1383 004e 0622     		movs	r2, #6	@ tmp187,
 1384 0050 1A70     		strb	r2, [r3]	@ tmp188, i
 1385              	.L95:
 430:src/tcp_transceiver.c **** 	{
 1386              		.loc 1 430 0 discriminator 2
 1387 0052 0F23     		movs	r3, #15	@ tmp189,
 1388 0054 6B44     		add	r3, r3, sp	@ tmp189,
 1389 0056 1A78     		ldrb	r2, [r3]	@ D.6541, i
 1390 0058 0F23     		movs	r3, #15	@ tmp190,
 1391 005a 6B44     		add	r3, r3, sp	@ tmp190,
 1392 005c 0132     		adds	r2, r2, #1	@ tmp191,
 1393 005e 1A70     		strb	r2, [r3]	@ tmp192, i
 1394              	.L93:
 430:src/tcp_transceiver.c **** 	{
 1395              		.loc 1 430 0 is_stmt 0 discriminator 1
 1396 0060 0F23     		movs	r3, #15	@ tmp193,
 1397 0062 6B44     		add	r3, r3, sp	@ tmp193,
 1398 0064 1B78     		ldrb	r3, [r3]	@ tmp194, i
 1399 0066 052B     		cmp	r3, #5	@ tmp194,
 1400 0068 D9D9     		bls	.L96	@,
 436:src/tcp_transceiver.c **** 		}
 437:src/tcp_transceiver.c **** 	}
 438:src/tcp_transceiver.c **** 
ARM GAS  /tmp/cctRPx0h.s 			page 34


 439:src/tcp_transceiver.c **** 	if ((colon == 0) || (colon >= 5))
 1401              		.loc 1 439 0 is_stmt 1
 1402 006a 0E23     		movs	r3, #14	@ tmp195,
 1403 006c 6B44     		add	r3, r3, sp	@ tmp195,
 1404 006e 1B78     		ldrb	r3, [r3]	@ tmp196, colon
 1405 0070 002B     		cmp	r3, #0	@ tmp196,
 1406 0072 04D0     		beq	.L97	@,
 1407              		.loc 1 439 0 is_stmt 0 discriminator 1
 1408 0074 0E23     		movs	r3, #14	@ tmp197,
 1409 0076 6B44     		add	r3, r3, sp	@ tmp197,
 1410 0078 1B78     		ldrb	r3, [r3]	@ tmp198, colon
 1411 007a 042B     		cmp	r3, #4	@ tmp198,
 1412 007c 01D9     		bls	.L98	@,
 1413              	.L97:
 440:src/tcp_transceiver.c **** 		return 0;
 1414              		.loc 1 440 0 is_stmt 1
 1415 007e 0023     		movs	r3, #0	@ D.6538,
 1416 0080 6EE0     		b	.L99	@
 1417              	.L98:
 441:src/tcp_transceiver.c **** 
 442:src/tcp_transceiver.c **** 	switch (colon)
 1418              		.loc 1 442 0
 1419 0082 0E23     		movs	r3, #14	@ tmp199,
 1420 0084 6B44     		add	r3, r3, sp	@ tmp199,
 1421 0086 1B78     		ldrb	r3, [r3]	@ D.6542, colon
 1422 0088 022B     		cmp	r3, #2	@ D.6542,
 1423 008a 0FD0     		beq	.L101	@,
 1424 008c 02DC     		bgt	.L102	@,
 1425 008e 012B     		cmp	r3, #1	@ D.6542,
 1426 0090 05D0     		beq	.L103	@,
 1427 0092 63E0     		b	.L100	@
 1428              	.L102:
 1429 0094 032B     		cmp	r3, #3	@ D.6542,
 1430 0096 1CD0     		beq	.L104	@,
 1431 0098 042B     		cmp	r3, #4	@ D.6542,
 1432 009a 37D0     		beq	.L105	@,
 1433 009c 5EE0     		b	.L100	@
 1434              	.L103:
 443:src/tcp_transceiver.c **** 	{
 444:src/tcp_transceiver.c **** 		case 1:
 445:src/tcp_transceiver.c **** 			new_val = *pn - '0';
 1435              		.loc 1 445 0
 1436 009e 019B     		ldr	r3, [sp, #4]	@ tmp200, pn
 1437 00a0 1B78     		ldrb	r3, [r3]	@ D.6541, *pn_11(D)
 1438 00a2 9AB2     		uxth	r2, r3	@ D.6538, D.6541
 1439 00a4 03AB     		add	r3, sp, #12	@ tmp201,,
 1440 00a6 303A     		subs	r2, r2, #48	@ tmp202,
 1441 00a8 1A80     		strh	r2, [r3]	@ tmp203, new_val
 446:src/tcp_transceiver.c **** 			break;
 1442              		.loc 1 446 0
 1443 00aa 57E0     		b	.L100	@
 1444              	.L101:
 447:src/tcp_transceiver.c **** 
 448:src/tcp_transceiver.c **** 		case 2:
 449:src/tcp_transceiver.c **** 			new_val = (*pn - '0') * 10 + (*(pn + 1) - '0');
 1445              		.loc 1 449 0
 1446 00ac 019B     		ldr	r3, [sp, #4]	@ tmp204, pn
ARM GAS  /tmp/cctRPx0h.s 			page 35


 1447 00ae 1B78     		ldrb	r3, [r3]	@ D.6541, *pn_11(D)
 1448 00b0 303B     		subs	r3, r3, #48	@ D.6542,
 1449 00b2 9BB2     		uxth	r3, r3	@ D.6538, D.6542
 1450 00b4 1A1C     		adds	r2, r3, #0	@ tmp206, tmp205
 1451 00b6 9200     		lsls	r2, r2, #2	@ tmp207, tmp206,
 1452 00b8 D318     		adds	r3, r2, r3	@ tmp209, tmp208, tmp205
 1453 00ba DB18     		adds	r3, r3, r3	@ tmp211, tmp210, tmp210
 1454 00bc 9AB2     		uxth	r2, r3	@ D.6538, tmp209
 1455 00be 019B     		ldr	r3, [sp, #4]	@ tmp212, pn
 1456 00c0 0133     		adds	r3, r3, #1	@ D.6540,
 1457 00c2 1B78     		ldrb	r3, [r3]	@ D.6541, *_31
 1458 00c4 9BB2     		uxth	r3, r3	@ D.6538, D.6541
 1459 00c6 D318     		adds	r3, r2, r3	@ tmp213, D.6538, D.6538
 1460 00c8 9AB2     		uxth	r2, r3	@ D.6538, tmp213
 1461 00ca 03AB     		add	r3, sp, #12	@ tmp214,,
 1462 00cc 303A     		subs	r2, r2, #48	@ tmp215,
 1463 00ce 1A80     		strh	r2, [r3]	@ tmp216, new_val
 450:src/tcp_transceiver.c **** 			break;
 1464              		.loc 1 450 0
 1465 00d0 44E0     		b	.L100	@
 1466              	.L104:
 451:src/tcp_transceiver.c **** 
 452:src/tcp_transceiver.c **** 		case 3:
 453:src/tcp_transceiver.c **** 			new_val = (*pn - '0') * 100 + (*(pn + 1) - '0') * 10 + (*(pn + 2) - '0');
 1467              		.loc 1 453 0
 1468 00d2 019B     		ldr	r3, [sp, #4]	@ tmp217, pn
 1469 00d4 1B78     		ldrb	r3, [r3]	@ D.6541, *pn_11(D)
 1470 00d6 303B     		subs	r3, r3, #48	@ D.6542,
 1471 00d8 9BB2     		uxth	r3, r3	@ D.6538, D.6542
 1472 00da 6422     		movs	r2, #100	@ tmp219,
 1473 00dc 5343     		muls	r3, r2	@ tmp218, tmp219
 1474 00de 9AB2     		uxth	r2, r3	@ D.6538, tmp218
 1475 00e0 019B     		ldr	r3, [sp, #4]	@ tmp220, pn
 1476 00e2 0133     		adds	r3, r3, #1	@ D.6540,
 1477 00e4 1B78     		ldrb	r3, [r3]	@ D.6541, *_41
 1478 00e6 303B     		subs	r3, r3, #48	@ D.6542,
 1479 00e8 9BB2     		uxth	r3, r3	@ D.6538, D.6542
 1480 00ea 191C     		adds	r1, r3, #0	@ tmp222, tmp221
 1481 00ec 8900     		lsls	r1, r1, #2	@ tmp223, tmp222,
 1482 00ee CB18     		adds	r3, r1, r3	@ tmp225, tmp224, tmp221
 1483 00f0 DB18     		adds	r3, r3, r3	@ tmp227, tmp226, tmp226
 1484 00f2 9BB2     		uxth	r3, r3	@ D.6538, tmp225
 1485 00f4 D318     		adds	r3, r2, r3	@ tmp228, D.6538, D.6538
 1486 00f6 9AB2     		uxth	r2, r3	@ D.6538, tmp228
 1487 00f8 019B     		ldr	r3, [sp, #4]	@ tmp229, pn
 1488 00fa 0233     		adds	r3, r3, #2	@ D.6540,
 1489 00fc 1B78     		ldrb	r3, [r3]	@ D.6541, *_48
 1490 00fe 9BB2     		uxth	r3, r3	@ D.6538, D.6541
 1491 0100 D318     		adds	r3, r2, r3	@ tmp230, D.6538, D.6538
 1492 0102 9AB2     		uxth	r2, r3	@ D.6538, tmp230
 1493 0104 03AB     		add	r3, sp, #12	@ tmp231,,
 1494 0106 303A     		subs	r2, r2, #48	@ tmp232,
 1495 0108 1A80     		strh	r2, [r3]	@ tmp233, new_val
 454:src/tcp_transceiver.c **** 			break;
 1496              		.loc 1 454 0
 1497 010a 27E0     		b	.L100	@
 1498              	.L105:
ARM GAS  /tmp/cctRPx0h.s 			page 36


 455:src/tcp_transceiver.c **** 
 456:src/tcp_transceiver.c **** 		case 4:
 457:src/tcp_transceiver.c **** 			new_val = (*pn - '0') * 1000 + (*(pn + 1) - '0') * 100 + (*(pn + 2) - '0') * 10 + (*(pn + 2) - '
 1499              		.loc 1 457 0
 1500 010c 019B     		ldr	r3, [sp, #4]	@ tmp234, pn
 1501 010e 1B78     		ldrb	r3, [r3]	@ D.6541, *pn_11(D)
 1502 0110 303B     		subs	r3, r3, #48	@ D.6542,
 1503 0112 9BB2     		uxth	r3, r3	@ D.6538, D.6542
 1504 0114 FA22     		movs	r2, #250	@ tmp257,
 1505 0116 9200     		lsls	r2, r2, #2	@ tmp236, tmp257,
 1506 0118 5343     		muls	r3, r2	@ tmp235, tmp236
 1507 011a 9AB2     		uxth	r2, r3	@ D.6538, tmp235
 1508 011c 019B     		ldr	r3, [sp, #4]	@ tmp237, pn
 1509 011e 0133     		adds	r3, r3, #1	@ D.6540,
 1510 0120 1B78     		ldrb	r3, [r3]	@ D.6541, *_58
 1511 0122 303B     		subs	r3, r3, #48	@ D.6542,
 1512 0124 9BB2     		uxth	r3, r3	@ D.6538, D.6542
 1513 0126 6421     		movs	r1, #100	@ tmp239,
 1514 0128 4B43     		muls	r3, r1	@ tmp238, tmp239
 1515 012a 9BB2     		uxth	r3, r3	@ D.6538, tmp238
 1516 012c D318     		adds	r3, r2, r3	@ tmp240, D.6538, D.6538
 1517 012e 9AB2     		uxth	r2, r3	@ D.6538, tmp240
 1518 0130 019B     		ldr	r3, [sp, #4]	@ tmp241, pn
 1519 0132 0233     		adds	r3, r3, #2	@ D.6540,
 1520 0134 1B78     		ldrb	r3, [r3]	@ D.6541, *_65
 1521 0136 303B     		subs	r3, r3, #48	@ D.6542,
 1522 0138 9BB2     		uxth	r3, r3	@ D.6538, D.6542
 1523 013a 191C     		adds	r1, r3, #0	@ tmp243, tmp242
 1524 013c 8900     		lsls	r1, r1, #2	@ tmp244, tmp243,
 1525 013e CB18     		adds	r3, r1, r3	@ tmp246, tmp245, tmp242
 1526 0140 DB18     		adds	r3, r3, r3	@ tmp248, tmp247, tmp247
 1527 0142 9BB2     		uxth	r3, r3	@ D.6538, tmp246
 1528 0144 D318     		adds	r3, r2, r3	@ tmp249, D.6538, D.6538
 1529 0146 9AB2     		uxth	r2, r3	@ D.6538, tmp249
 1530 0148 019B     		ldr	r3, [sp, #4]	@ tmp250, pn
 1531 014a 0233     		adds	r3, r3, #2	@ D.6540,
 1532 014c 1B78     		ldrb	r3, [r3]	@ D.6541, *_72
 1533 014e 9BB2     		uxth	r3, r3	@ D.6538, D.6541
 1534 0150 D318     		adds	r3, r2, r3	@ tmp251, D.6538, D.6538
 1535 0152 9AB2     		uxth	r2, r3	@ D.6538, tmp251
 1536 0154 03AB     		add	r3, sp, #12	@ tmp252,,
 1537 0156 303A     		subs	r2, r2, #48	@ tmp253,
 1538 0158 1A80     		strh	r2, [r3]	@ tmp254, new_val
 458:src/tcp_transceiver.c **** 			break;
 1539              		.loc 1 458 0
 1540 015a C046     		nop
 1541              	.L100:
 459:src/tcp_transceiver.c **** 
 460:src/tcp_transceiver.c **** 	}
 461:src/tcp_transceiver.c **** 	return new_val;
 1542              		.loc 1 461 0
 1543 015c 03AB     		add	r3, sp, #12	@ tmp255,,
 1544 015e 1B88     		ldrh	r3, [r3]	@ D.6538, new_val
 1545              	.L99:
 462:src/tcp_transceiver.c **** }
 1546              		.loc 1 462 0
 1547 0160 1800     		movs	r0, r3	@, <retval>
ARM GAS  /tmp/cctRPx0h.s 			page 37


 1548 0162 04B0     		add	sp, sp, #16	@,,
 1549              		@ sp needed	@
 1550 0164 7047     		bx	lr
 1551              		.cfi_endproc
 1552              	.LFE8:
 1553              		.size	GetValue, .-GetValue
 1554 0166 C046     		.section	.text.IpIsValid,"ax",%progbits
 1555              		.align	2
 1556              		.global	IpIsValid
 1557              		.code	16
 1558              		.thumb_func
 1559              		.type	IpIsValid, %function
 1560              	IpIsValid:
 1561              	.LFB9:
 463:src/tcp_transceiver.c **** 
 464:src/tcp_transceiver.c **** unsigned char IpIsValid (char * ip)
 465:src/tcp_transceiver.c **** {
 1562              		.loc 1 465 0
 1563              		.cfi_startproc
 1564 0000 00B5     		push	{lr}	@
 1565              	.LCFI14:
 1566              		.cfi_def_cfa_offset 4
 1567              		.cfi_offset 14, -4
 1568 0002 87B0     		sub	sp, sp, #28	@,,
 1569              	.LCFI15:
 1570              		.cfi_def_cfa_offset 32
 1571 0004 0190     		str	r0, [sp, #4]	@ ip, ip
 466:src/tcp_transceiver.c **** 	unsigned char i;
 467:src/tcp_transceiver.c **** 	unsigned char dot1 = 0;
 1572              		.loc 1 467 0
 1573 0006 1623     		movs	r3, #22	@ tmp139,
 1574 0008 6B44     		add	r3, r3, sp	@ tmp139,
 1575 000a 0022     		movs	r2, #0	@ tmp140,
 1576 000c 1A70     		strb	r2, [r3]	@ tmp141, dot1
 468:src/tcp_transceiver.c **** 	unsigned char dot2 = 0;
 1577              		.loc 1 468 0
 1578 000e 1523     		movs	r3, #21	@ tmp142,
 1579 0010 6B44     		add	r3, r3, sp	@ tmp142,
 1580 0012 0022     		movs	r2, #0	@ tmp143,
 1581 0014 1A70     		strb	r2, [r3]	@ tmp144, dot2
 469:src/tcp_transceiver.c **** 	unsigned char dot3 = 0;
 1582              		.loc 1 469 0
 1583 0016 05AB     		add	r3, sp, #20	@ tmp145,,
 1584 0018 0022     		movs	r2, #0	@ tmp146,
 1585 001a 1A70     		strb	r2, [r3]	@ tmp147, dot3
 470:src/tcp_transceiver.c **** 	unsigned char dot4 = 0;
 1586              		.loc 1 470 0
 1587 001c 1323     		movs	r3, #19	@ tmp148,
 1588 001e 6B44     		add	r3, r3, sp	@ tmp148,
 1589 0020 0022     		movs	r2, #0	@ tmp149,
 1590 0022 1A70     		strb	r2, [r3]	@ tmp150, dot4
 471:src/tcp_transceiver.c **** 	unsigned char size1 = 0;
 1591              		.loc 1 471 0
 1592 0024 1223     		movs	r3, #18	@ tmp151,
 1593 0026 6B44     		add	r3, r3, sp	@ tmp151,
 1594 0028 0022     		movs	r2, #0	@ tmp152,
 1595 002a 1A70     		strb	r2, [r3]	@ tmp153, size1
ARM GAS  /tmp/cctRPx0h.s 			page 38


 472:src/tcp_transceiver.c **** 	unsigned char size2 = 0;
 1596              		.loc 1 472 0
 1597 002c 1123     		movs	r3, #17	@ tmp154,
 1598 002e 6B44     		add	r3, r3, sp	@ tmp154,
 1599 0030 0022     		movs	r2, #0	@ tmp155,
 1600 0032 1A70     		strb	r2, [r3]	@ tmp156, size2
 473:src/tcp_transceiver.c **** 	unsigned char size3 = 0;
 1601              		.loc 1 473 0
 1602 0034 04AB     		add	r3, sp, #16	@ tmp157,,
 1603 0036 0022     		movs	r2, #0	@ tmp158,
 1604 0038 1A70     		strb	r2, [r3]	@ tmp159, size3
 474:src/tcp_transceiver.c **** 	unsigned char size4 = 0;
 1605              		.loc 1 474 0
 1606 003a 0F23     		movs	r3, #15	@ tmp160,
 1607 003c 6B44     		add	r3, r3, sp	@ tmp160,
 1608 003e 0022     		movs	r2, #0	@ tmp161,
 1609 0040 1A70     		strb	r2, [r3]	@ tmp162, size4
 475:src/tcp_transceiver.c **** 
 476:src/tcp_transceiver.c **** 	unsigned char new_val = 0;
 1610              		.loc 1 476 0
 1611 0042 0E23     		movs	r3, #14	@ tmp163,
 1612 0044 6B44     		add	r3, r3, sp	@ tmp163,
 1613 0046 0022     		movs	r2, #0	@ tmp164,
 1614 0048 1A70     		strb	r2, [r3]	@ tmp165, new_val
 477:src/tcp_transceiver.c **** 	char s_octet [4];
 478:src/tcp_transceiver.c **** 
 479:src/tcp_transceiver.c **** 	//me fijo las posiciones del .
 480:src/tcp_transceiver.c **** 	for (i = 0; i < 15; i++)
 1615              		.loc 1 480 0
 1616 004a 1723     		movs	r3, #23	@ tmp166,
 1617 004c 6B44     		add	r3, r3, sp	@ tmp166,
 1618 004e 0022     		movs	r2, #0	@ tmp167,
 1619 0050 1A70     		strb	r2, [r3]	@ tmp168, i
 1620 0052 45E0     		b	.L107	@
 1621              	.L114:
 481:src/tcp_transceiver.c **** 	{
 482:src/tcp_transceiver.c **** 		if (*(ip + i) == '\0')
 1622              		.loc 1 482 0
 1623 0054 1723     		movs	r3, #23	@ tmp169,
 1624 0056 6B44     		add	r3, r3, sp	@ tmp169,
 1625 0058 1B78     		ldrb	r3, [r3]	@ D.6545, i
 1626 005a 019A     		ldr	r2, [sp, #4]	@ tmp170, ip
 1627 005c D318     		adds	r3, r2, r3	@ D.6546, tmp170, D.6545
 1628 005e 1B78     		ldrb	r3, [r3]	@ D.6547, *_27
 1629 0060 002B     		cmp	r3, #0	@ D.6547,
 1630 0062 0AD1     		bne	.L108	@,
 483:src/tcp_transceiver.c **** 		{
 484:src/tcp_transceiver.c **** 			dot4 = i;
 1631              		.loc 1 484 0
 1632 0064 1323     		movs	r3, #19	@ tmp171,
 1633 0066 6B44     		add	r3, r3, sp	@ tmp171,
 1634 0068 1722     		movs	r2, #23	@ tmp172,
 1635 006a 6A44     		add	r2, r2, sp	@ tmp172,
 1636 006c 1278     		ldrb	r2, [r2]	@ tmp173, i
 1637 006e 1A70     		strb	r2, [r3]	@ tmp173, dot4
 485:src/tcp_transceiver.c **** 			i = 15;
 1638              		.loc 1 485 0
ARM GAS  /tmp/cctRPx0h.s 			page 39


 1639 0070 1723     		movs	r3, #23	@ tmp174,
 1640 0072 6B44     		add	r3, r3, sp	@ tmp174,
 1641 0074 0F22     		movs	r2, #15	@ tmp175,
 1642 0076 1A70     		strb	r2, [r3]	@ tmp176, i
 1643 0078 2BE0     		b	.L109	@
 1644              	.L108:
 486:src/tcp_transceiver.c **** 		}
 487:src/tcp_transceiver.c **** 		else
 488:src/tcp_transceiver.c **** 		{
 489:src/tcp_transceiver.c **** 			if (*(ip + i) == '.')
 1645              		.loc 1 489 0
 1646 007a 1723     		movs	r3, #23	@ tmp177,
 1647 007c 6B44     		add	r3, r3, sp	@ tmp177,
 1648 007e 1B78     		ldrb	r3, [r3]	@ D.6545, i
 1649 0080 019A     		ldr	r2, [sp, #4]	@ tmp178, ip
 1650 0082 D318     		adds	r3, r2, r3	@ D.6546, tmp178, D.6545
 1651 0084 1B78     		ldrb	r3, [r3]	@ D.6547, *_34
 1652 0086 2E2B     		cmp	r3, #46	@ D.6547,
 1653 0088 23D1     		bne	.L109	@,
 490:src/tcp_transceiver.c **** 			{
 491:src/tcp_transceiver.c **** 				if (!dot1)
 1654              		.loc 1 491 0
 1655 008a 1623     		movs	r3, #22	@ tmp179,
 1656 008c 6B44     		add	r3, r3, sp	@ tmp179,
 1657 008e 1B78     		ldrb	r3, [r3]	@ tmp180, dot1
 1658 0090 002B     		cmp	r3, #0	@ tmp180,
 1659 0092 06D1     		bne	.L110	@,
 492:src/tcp_transceiver.c **** 					dot1 = i;
 1660              		.loc 1 492 0
 1661 0094 1623     		movs	r3, #22	@ tmp181,
 1662 0096 6B44     		add	r3, r3, sp	@ tmp181,
 1663 0098 1722     		movs	r2, #23	@ tmp182,
 1664 009a 6A44     		add	r2, r2, sp	@ tmp182,
 1665 009c 1278     		ldrb	r2, [r2]	@ tmp183, i
 1666 009e 1A70     		strb	r2, [r3]	@ tmp183, dot1
 1667 00a0 17E0     		b	.L109	@
 1668              	.L110:
 493:src/tcp_transceiver.c **** 				else if (!dot2)
 1669              		.loc 1 493 0
 1670 00a2 1523     		movs	r3, #21	@ tmp184,
 1671 00a4 6B44     		add	r3, r3, sp	@ tmp184,
 1672 00a6 1B78     		ldrb	r3, [r3]	@ tmp185, dot2
 1673 00a8 002B     		cmp	r3, #0	@ tmp185,
 1674 00aa 06D1     		bne	.L111	@,
 494:src/tcp_transceiver.c **** 					dot2 = i;
 1675              		.loc 1 494 0
 1676 00ac 1523     		movs	r3, #21	@ tmp186,
 1677 00ae 6B44     		add	r3, r3, sp	@ tmp186,
 1678 00b0 1722     		movs	r2, #23	@ tmp187,
 1679 00b2 6A44     		add	r2, r2, sp	@ tmp187,
 1680 00b4 1278     		ldrb	r2, [r2]	@ tmp188, i
 1681 00b6 1A70     		strb	r2, [r3]	@ tmp188, dot2
 1682 00b8 0BE0     		b	.L109	@
 1683              	.L111:
 495:src/tcp_transceiver.c **** 				else if (!dot3)
 1684              		.loc 1 495 0
 1685 00ba 05AB     		add	r3, sp, #20	@ tmp189,,
ARM GAS  /tmp/cctRPx0h.s 			page 40


 1686 00bc 1B78     		ldrb	r3, [r3]	@ tmp190, dot3
 1687 00be 002B     		cmp	r3, #0	@ tmp190,
 1688 00c0 05D1     		bne	.L112	@,
 496:src/tcp_transceiver.c **** 					dot3 = i;
 1689              		.loc 1 496 0
 1690 00c2 05AB     		add	r3, sp, #20	@ tmp191,,
 1691 00c4 1722     		movs	r2, #23	@ tmp192,
 1692 00c6 6A44     		add	r2, r2, sp	@ tmp192,
 1693 00c8 1278     		ldrb	r2, [r2]	@ tmp193, i
 1694 00ca 1A70     		strb	r2, [r3]	@ tmp193, dot3
 1695 00cc 01E0     		b	.L109	@
 1696              	.L112:
 497:src/tcp_transceiver.c **** 				else
 498:src/tcp_transceiver.c **** 					return RESP_NOK;
 1697              		.loc 1 498 0
 1698 00ce 1523     		movs	r3, #21	@ D.6544,
 1699 00d0 D6E0     		b	.L124	@
 1700              	.L109:
 480:src/tcp_transceiver.c **** 	{
 1701              		.loc 1 480 0 discriminator 2
 1702 00d2 1723     		movs	r3, #23	@ tmp194,
 1703 00d4 6B44     		add	r3, r3, sp	@ tmp194,
 1704 00d6 1A78     		ldrb	r2, [r3]	@ D.6544, i
 1705 00d8 1723     		movs	r3, #23	@ tmp195,
 1706 00da 6B44     		add	r3, r3, sp	@ tmp195,
 1707 00dc 0132     		adds	r2, r2, #1	@ tmp196,
 1708 00de 1A70     		strb	r2, [r3]	@ tmp197, i
 1709              	.L107:
 480:src/tcp_transceiver.c **** 	{
 1710              		.loc 1 480 0 is_stmt 0 discriminator 1
 1711 00e0 1723     		movs	r3, #23	@ tmp198,
 1712 00e2 6B44     		add	r3, r3, sp	@ tmp198,
 1713 00e4 1B78     		ldrb	r3, [r3]	@ tmp199, i
 1714 00e6 0E2B     		cmp	r3, #14	@ tmp199,
 1715 00e8 B4D9     		bls	.L114	@,
 499:src/tcp_transceiver.c **** 			}
 500:src/tcp_transceiver.c **** 		}
 501:src/tcp_transceiver.c **** 	}
 502:src/tcp_transceiver.c **** 
 503:src/tcp_transceiver.c **** 	if (!dot4)
 1716              		.loc 1 503 0 is_stmt 1
 1717 00ea 1323     		movs	r3, #19	@ tmp200,
 1718 00ec 6B44     		add	r3, r3, sp	@ tmp200,
 1719 00ee 1B78     		ldrb	r3, [r3]	@ tmp201, dot4
 1720 00f0 002B     		cmp	r3, #0	@ tmp201,
 1721 00f2 03D1     		bne	.L115	@,
 504:src/tcp_transceiver.c **** 		dot4 = 15;
 1722              		.loc 1 504 0
 1723 00f4 1323     		movs	r3, #19	@ tmp202,
 1724 00f6 6B44     		add	r3, r3, sp	@ tmp202,
 1725 00f8 0F22     		movs	r2, #15	@ tmp203,
 1726 00fa 1A70     		strb	r2, [r3]	@ tmp204, dot4
 1727              	.L115:
 505:src/tcp_transceiver.c **** 
 506:src/tcp_transceiver.c **** 	//me fijo si tiene los tres .
 507:src/tcp_transceiver.c **** 	if ((dot1 == 0) || (dot2 == 0) || (dot3 == 0))
 1728              		.loc 1 507 0
ARM GAS  /tmp/cctRPx0h.s 			page 41


 1729 00fc 1623     		movs	r3, #22	@ tmp205,
 1730 00fe 6B44     		add	r3, r3, sp	@ tmp205,
 1731 0100 1B78     		ldrb	r3, [r3]	@ tmp206, dot1
 1732 0102 002B     		cmp	r3, #0	@ tmp206,
 1733 0104 08D0     		beq	.L116	@,
 1734              		.loc 1 507 0 is_stmt 0 discriminator 1
 1735 0106 1523     		movs	r3, #21	@ tmp207,
 1736 0108 6B44     		add	r3, r3, sp	@ tmp207,
 1737 010a 1B78     		ldrb	r3, [r3]	@ tmp208, dot2
 1738 010c 002B     		cmp	r3, #0	@ tmp208,
 1739 010e 03D0     		beq	.L116	@,
 1740              		.loc 1 507 0 discriminator 2
 1741 0110 05AB     		add	r3, sp, #20	@ tmp209,,
 1742 0112 1B78     		ldrb	r3, [r3]	@ tmp210, dot3
 1743 0114 002B     		cmp	r3, #0	@ tmp210,
 1744 0116 01D1     		bne	.L117	@,
 1745              	.L116:
 508:src/tcp_transceiver.c **** 		return RESP_NOK;
 1746              		.loc 1 508 0 is_stmt 1
 1747 0118 1523     		movs	r3, #21	@ D.6544,
 1748 011a B1E0     		b	.L124	@
 1749              	.L117:
 509:src/tcp_transceiver.c **** 
 510:src/tcp_transceiver.c **** 	size1 = dot1;
 1750              		.loc 1 510 0
 1751 011c 1223     		movs	r3, #18	@ tmp211,
 1752 011e 6B44     		add	r3, r3, sp	@ tmp211,
 1753 0120 1622     		movs	r2, #22	@ tmp212,
 1754 0122 6A44     		add	r2, r2, sp	@ tmp212,
 1755 0124 1278     		ldrb	r2, [r2]	@ tmp213, dot1
 1756 0126 1A70     		strb	r2, [r3]	@ tmp213, size1
 511:src/tcp_transceiver.c **** 	size2 = dot2 - dot1 - 1;
 1757              		.loc 1 511 0
 1758 0128 1522     		movs	r2, #21	@ tmp214,
 1759 012a 6A44     		add	r2, r2, sp	@ tmp214,
 1760 012c 1623     		movs	r3, #22	@ tmp215,
 1761 012e 6B44     		add	r3, r3, sp	@ tmp215,
 1762 0130 1278     		ldrb	r2, [r2]	@ tmp216, dot2
 1763 0132 1B78     		ldrb	r3, [r3]	@ tmp217, dot1
 1764 0134 D31A     		subs	r3, r2, r3	@ tmp218, tmp216, tmp217
 1765 0136 DAB2     		uxtb	r2, r3	@ D.6544, tmp218
 1766 0138 1123     		movs	r3, #17	@ tmp219,
 1767 013a 6B44     		add	r3, r3, sp	@ tmp219,
 1768 013c 013A     		subs	r2, r2, #1	@ tmp220,
 1769 013e 1A70     		strb	r2, [r3]	@ tmp221, size2
 512:src/tcp_transceiver.c **** 	size3 = dot3 - dot2 - 1;
 1770              		.loc 1 512 0
 1771 0140 05AA     		add	r2, sp, #20	@ tmp222,,
 1772 0142 1523     		movs	r3, #21	@ tmp223,
 1773 0144 6B44     		add	r3, r3, sp	@ tmp223,
 1774 0146 1278     		ldrb	r2, [r2]	@ tmp224, dot3
 1775 0148 1B78     		ldrb	r3, [r3]	@ tmp225, dot2
 1776 014a D31A     		subs	r3, r2, r3	@ tmp226, tmp224, tmp225
 1777 014c DAB2     		uxtb	r2, r3	@ D.6544, tmp226
 1778 014e 04AB     		add	r3, sp, #16	@ tmp227,,
 1779 0150 013A     		subs	r2, r2, #1	@ tmp228,
 1780 0152 1A70     		strb	r2, [r3]	@ tmp229, size3
ARM GAS  /tmp/cctRPx0h.s 			page 42


 513:src/tcp_transceiver.c **** 	size4 = dot4 - dot3 - 1;
 1781              		.loc 1 513 0
 1782 0154 1322     		movs	r2, #19	@ tmp230,
 1783 0156 6A44     		add	r2, r2, sp	@ tmp230,
 1784 0158 05AB     		add	r3, sp, #20	@ tmp231,,
 1785 015a 1278     		ldrb	r2, [r2]	@ tmp232, dot4
 1786 015c 1B78     		ldrb	r3, [r3]	@ tmp233, dot3
 1787 015e D31A     		subs	r3, r2, r3	@ tmp234, tmp232, tmp233
 1788 0160 DAB2     		uxtb	r2, r3	@ D.6544, tmp234
 1789 0162 0F23     		movs	r3, #15	@ tmp235,
 1790 0164 6B44     		add	r3, r3, sp	@ tmp235,
 1791 0166 013A     		subs	r2, r2, #1	@ tmp236,
 1792 0168 1A70     		strb	r2, [r3]	@ tmp237, size4
 514:src/tcp_transceiver.c **** 
 515:src/tcp_transceiver.c **** 	//me fijo que no tengan mucho espacio
 516:src/tcp_transceiver.c **** 	if ((size1 > 3) || (size2 > 3) || (size3 > 3) || (size4 > 3))
 1793              		.loc 1 516 0
 1794 016a 1223     		movs	r3, #18	@ tmp238,
 1795 016c 6B44     		add	r3, r3, sp	@ tmp238,
 1796 016e 1B78     		ldrb	r3, [r3]	@ tmp239, size1
 1797 0170 032B     		cmp	r3, #3	@ tmp239,
 1798 0172 0DD8     		bhi	.L118	@,
 1799              		.loc 1 516 0 is_stmt 0 discriminator 1
 1800 0174 1123     		movs	r3, #17	@ tmp240,
 1801 0176 6B44     		add	r3, r3, sp	@ tmp240,
 1802 0178 1B78     		ldrb	r3, [r3]	@ tmp241, size2
 1803 017a 032B     		cmp	r3, #3	@ tmp241,
 1804 017c 08D8     		bhi	.L118	@,
 1805              		.loc 1 516 0 discriminator 2
 1806 017e 04AB     		add	r3, sp, #16	@ tmp242,,
 1807 0180 1B78     		ldrb	r3, [r3]	@ tmp243, size3
 1808 0182 032B     		cmp	r3, #3	@ tmp243,
 1809 0184 04D8     		bhi	.L118	@,
 1810              		.loc 1 516 0 discriminator 3
 1811 0186 0F23     		movs	r3, #15	@ tmp244,
 1812 0188 6B44     		add	r3, r3, sp	@ tmp244,
 1813 018a 1B78     		ldrb	r3, [r3]	@ tmp245, size4
 1814 018c 032B     		cmp	r3, #3	@ tmp245,
 1815 018e 01D9     		bls	.L119	@,
 1816              	.L118:
 517:src/tcp_transceiver.c **** 		return RESP_NOK;
 1817              		.loc 1 517 0 is_stmt 1
 1818 0190 1523     		movs	r3, #21	@ D.6544,
 1819 0192 75E0     		b	.L124	@
 1820              	.L119:
 518:src/tcp_transceiver.c **** 
 519:src/tcp_transceiver.c **** 	//los puntos son validos, ahora reviso los numeros
 520:src/tcp_transceiver.c **** 	memset (s_octet, '\0', sizeof(s_octet));
 1821              		.loc 1 520 0
 1822 0194 02AB     		add	r3, sp, #8	@ tmp246,,
 1823 0196 0422     		movs	r2, #4	@,
 1824 0198 0021     		movs	r1, #0	@,
 1825 019a 1800     		movs	r0, r3	@, tmp246
 1826 019c FFF7FEFF 		bl	memset	@
 521:src/tcp_transceiver.c **** 	strncpy (s_octet, ip, size1);
 1827              		.loc 1 521 0
 1828 01a0 1223     		movs	r3, #18	@ tmp247,
ARM GAS  /tmp/cctRPx0h.s 			page 43


 1829 01a2 6B44     		add	r3, r3, sp	@ tmp247,
 1830 01a4 1A78     		ldrb	r2, [r3]	@ D.6548, size1
 1831 01a6 0199     		ldr	r1, [sp, #4]	@ tmp248, ip
 1832 01a8 02AB     		add	r3, sp, #8	@ tmp249,,
 1833 01aa 1800     		movs	r0, r3	@, tmp249
 1834 01ac FFF7FEFF 		bl	strncpy	@
 522:src/tcp_transceiver.c **** 	if (OctetIsValid (s_octet, &new_val) == RESP_NOK)
 1835              		.loc 1 522 0
 1836 01b0 0E22     		movs	r2, #14	@ tmp250,
 1837 01b2 6A44     		add	r2, r2, sp	@ tmp250,
 1838 01b4 02AB     		add	r3, sp, #8	@ tmp251,,
 1839 01b6 1100     		movs	r1, r2	@, tmp250
 1840 01b8 1800     		movs	r0, r3	@, tmp251
 1841 01ba FFF7FEFF 		bl	OctetIsValid	@
 1842 01be 031E     		subs	r3, r0, #0	@ tmp252,,
 1843 01c0 152B     		cmp	r3, #21	@ tmp252,
 1844 01c2 01D1     		bne	.L120	@,
 523:src/tcp_transceiver.c **** 		return RESP_NOK;
 1845              		.loc 1 523 0
 1846 01c4 1523     		movs	r3, #21	@ D.6544,
 1847 01c6 5BE0     		b	.L124	@
 1848              	.L120:
 524:src/tcp_transceiver.c **** 
 525:src/tcp_transceiver.c **** 	memset (s_octet, '\0', sizeof(s_octet));
 1849              		.loc 1 525 0
 1850 01c8 02AB     		add	r3, sp, #8	@ tmp254,,
 1851 01ca 0422     		movs	r2, #4	@,
 1852 01cc 0021     		movs	r1, #0	@,
 1853 01ce 1800     		movs	r0, r3	@, tmp254
 1854 01d0 FFF7FEFF 		bl	memset	@
 526:src/tcp_transceiver.c **** 	strncpy (s_octet, ip + dot1 + 1, size2);
 1855              		.loc 1 526 0
 1856 01d4 1623     		movs	r3, #22	@ tmp255,
 1857 01d6 6B44     		add	r3, r3, sp	@ tmp255,
 1858 01d8 1B78     		ldrb	r3, [r3]	@ D.6545, dot1
 1859 01da 0133     		adds	r3, r3, #1	@ D.6545,
 1860 01dc 019A     		ldr	r2, [sp, #4]	@ tmp256, ip
 1861 01de D118     		adds	r1, r2, r3	@ D.6546, tmp256, D.6545
 1862 01e0 1123     		movs	r3, #17	@ tmp257,
 1863 01e2 6B44     		add	r3, r3, sp	@ tmp257,
 1864 01e4 1A78     		ldrb	r2, [r3]	@ D.6548, size2
 1865 01e6 02AB     		add	r3, sp, #8	@ tmp258,,
 1866 01e8 1800     		movs	r0, r3	@, tmp258
 1867 01ea FFF7FEFF 		bl	strncpy	@
 527:src/tcp_transceiver.c **** 	if (OctetIsValid (s_octet, &new_val) == RESP_NOK)
 1868              		.loc 1 527 0
 1869 01ee 0E22     		movs	r2, #14	@ tmp259,
 1870 01f0 6A44     		add	r2, r2, sp	@ tmp259,
 1871 01f2 02AB     		add	r3, sp, #8	@ tmp260,,
 1872 01f4 1100     		movs	r1, r2	@, tmp259
 1873 01f6 1800     		movs	r0, r3	@, tmp260
 1874 01f8 FFF7FEFF 		bl	OctetIsValid	@
 1875 01fc 031E     		subs	r3, r0, #0	@ tmp261,,
 1876 01fe 152B     		cmp	r3, #21	@ tmp261,
 1877 0200 01D1     		bne	.L121	@,
 528:src/tcp_transceiver.c **** 		return RESP_NOK;
 1878              		.loc 1 528 0
ARM GAS  /tmp/cctRPx0h.s 			page 44


 1879 0202 1523     		movs	r3, #21	@ D.6544,
 1880 0204 3CE0     		b	.L124	@
 1881              	.L121:
 529:src/tcp_transceiver.c **** 
 530:src/tcp_transceiver.c **** 	memset (s_octet, '\0', sizeof(s_octet));
 1882              		.loc 1 530 0
 1883 0206 02AB     		add	r3, sp, #8	@ tmp263,,
 1884 0208 0422     		movs	r2, #4	@,
 1885 020a 0021     		movs	r1, #0	@,
 1886 020c 1800     		movs	r0, r3	@, tmp263
 1887 020e FFF7FEFF 		bl	memset	@
 531:src/tcp_transceiver.c **** 	strncpy (s_octet, ip + dot2 + 1, size3);
 1888              		.loc 1 531 0
 1889 0212 1523     		movs	r3, #21	@ tmp264,
 1890 0214 6B44     		add	r3, r3, sp	@ tmp264,
 1891 0216 1B78     		ldrb	r3, [r3]	@ D.6545, dot2
 1892 0218 0133     		adds	r3, r3, #1	@ D.6545,
 1893 021a 019A     		ldr	r2, [sp, #4]	@ tmp265, ip
 1894 021c D118     		adds	r1, r2, r3	@ D.6546, tmp265, D.6545
 1895 021e 04AB     		add	r3, sp, #16	@ tmp266,,
 1896 0220 1A78     		ldrb	r2, [r3]	@ D.6548, size3
 1897 0222 02AB     		add	r3, sp, #8	@ tmp267,,
 1898 0224 1800     		movs	r0, r3	@, tmp267
 1899 0226 FFF7FEFF 		bl	strncpy	@
 532:src/tcp_transceiver.c **** 	if (OctetIsValid (s_octet, &new_val) == RESP_NOK)
 1900              		.loc 1 532 0
 1901 022a 0E22     		movs	r2, #14	@ tmp268,
 1902 022c 6A44     		add	r2, r2, sp	@ tmp268,
 1903 022e 02AB     		add	r3, sp, #8	@ tmp269,,
 1904 0230 1100     		movs	r1, r2	@, tmp268
 1905 0232 1800     		movs	r0, r3	@, tmp269
 1906 0234 FFF7FEFF 		bl	OctetIsValid	@
 1907 0238 031E     		subs	r3, r0, #0	@ tmp270,,
 1908 023a 152B     		cmp	r3, #21	@ tmp270,
 1909 023c 01D1     		bne	.L122	@,
 533:src/tcp_transceiver.c **** 		return RESP_NOK;
 1910              		.loc 1 533 0
 1911 023e 1523     		movs	r3, #21	@ D.6544,
 1912 0240 1EE0     		b	.L124	@
 1913              	.L122:
 534:src/tcp_transceiver.c **** 
 535:src/tcp_transceiver.c **** 	memset (s_octet, '\0', sizeof(s_octet));
 1914              		.loc 1 535 0
 1915 0242 02AB     		add	r3, sp, #8	@ tmp272,,
 1916 0244 0422     		movs	r2, #4	@,
 1917 0246 0021     		movs	r1, #0	@,
 1918 0248 1800     		movs	r0, r3	@, tmp272
 1919 024a FFF7FEFF 		bl	memset	@
 536:src/tcp_transceiver.c **** 	strncpy (s_octet, ip + dot3 + 1, size4);
 1920              		.loc 1 536 0
 1921 024e 05AB     		add	r3, sp, #20	@ tmp273,,
 1922 0250 1B78     		ldrb	r3, [r3]	@ D.6545, dot3
 1923 0252 0133     		adds	r3, r3, #1	@ D.6545,
 1924 0254 019A     		ldr	r2, [sp, #4]	@ tmp274, ip
 1925 0256 D118     		adds	r1, r2, r3	@ D.6546, tmp274, D.6545
 1926 0258 0F23     		movs	r3, #15	@ tmp275,
 1927 025a 6B44     		add	r3, r3, sp	@ tmp275,
ARM GAS  /tmp/cctRPx0h.s 			page 45


 1928 025c 1A78     		ldrb	r2, [r3]	@ D.6548, size4
 1929 025e 02AB     		add	r3, sp, #8	@ tmp276,,
 1930 0260 1800     		movs	r0, r3	@, tmp276
 1931 0262 FFF7FEFF 		bl	strncpy	@
 537:src/tcp_transceiver.c **** 	if (OctetIsValid (s_octet, &new_val) == RESP_NOK)
 1932              		.loc 1 537 0
 1933 0266 0E22     		movs	r2, #14	@ tmp277,
 1934 0268 6A44     		add	r2, r2, sp	@ tmp277,
 1935 026a 02AB     		add	r3, sp, #8	@ tmp278,,
 1936 026c 1100     		movs	r1, r2	@, tmp277
 1937 026e 1800     		movs	r0, r3	@, tmp278
 1938 0270 FFF7FEFF 		bl	OctetIsValid	@
 1939 0274 031E     		subs	r3, r0, #0	@ tmp279,,
 1940 0276 152B     		cmp	r3, #21	@ tmp279,
 1941 0278 01D1     		bne	.L123	@,
 538:src/tcp_transceiver.c **** 		return RESP_NOK;
 1942              		.loc 1 538 0
 1943 027a 1523     		movs	r3, #21	@ D.6544,
 1944 027c 00E0     		b	.L124	@
 1945              	.L123:
 539:src/tcp_transceiver.c **** 
 540:src/tcp_transceiver.c **** 	return RESP_OK;
 1946              		.loc 1 540 0
 1947 027e 1423     		movs	r3, #20	@ D.6544,
 1948              	.L124:
 541:src/tcp_transceiver.c **** }
 1949              		.loc 1 541 0 discriminator 1
 1950 0280 1800     		movs	r0, r3	@, <retval>
 1951 0282 07B0     		add	sp, sp, #28	@,,
 1952              		@ sp needed	@
 1953 0284 00BD     		pop	{pc}
 1954              		.cfi_endproc
 1955              	.LFE9:
 1956              		.size	IpIsValid, .-IpIsValid
 1957 0286 C046     		.section	.text.OctetIsValid,"ax",%progbits
 1958              		.align	2
 1959              		.global	OctetIsValid
 1960              		.code	16
 1961              		.thumb_func
 1962              		.type	OctetIsValid, %function
 1963              	OctetIsValid:
 1964              	.LFB10:
 542:src/tcp_transceiver.c **** 
 543:src/tcp_transceiver.c **** unsigned char OctetIsValid (char * ip, unsigned char * octet_val)
 544:src/tcp_transceiver.c **** {
 1965              		.loc 1 544 0
 1966              		.cfi_startproc
 1967 0000 84B0     		sub	sp, sp, #16	@,,
 1968              	.LCFI16:
 1969              		.cfi_def_cfa_offset 16
 1970 0002 0190     		str	r0, [sp, #4]	@ ip, ip
 1971 0004 0091     		str	r1, [sp]	@ octet_val, octet_val
 545:src/tcp_transceiver.c **** 	unsigned char i;
 546:src/tcp_transceiver.c **** 	unsigned char dot = 0;
 1972              		.loc 1 546 0
 1973 0006 0E23     		movs	r3, #14	@ tmp151,
 1974 0008 6B44     		add	r3, r3, sp	@ tmp151,
ARM GAS  /tmp/cctRPx0h.s 			page 46


 1975 000a 0022     		movs	r2, #0	@ tmp152,
 1976 000c 1A70     		strb	r2, [r3]	@ tmp153, dot
 547:src/tcp_transceiver.c **** 	short new_val = 0;
 1977              		.loc 1 547 0
 1978 000e 03AB     		add	r3, sp, #12	@ tmp154,,
 1979 0010 0022     		movs	r2, #0	@ tmp155,
 1980 0012 1A80     		strh	r2, [r3]	@ tmp156, new_val
 548:src/tcp_transceiver.c **** 
 549:src/tcp_transceiver.c **** 	//me fijo la posiciones del . o null
 550:src/tcp_transceiver.c **** 	for (i = 0; i < 4; i++)
 1981              		.loc 1 550 0
 1982 0014 0F23     		movs	r3, #15	@ tmp157,
 1983 0016 6B44     		add	r3, r3, sp	@ tmp157,
 1984 0018 0022     		movs	r2, #0	@ tmp158,
 1985 001a 1A70     		strb	r2, [r3]	@ tmp159, i
 1986 001c 20E0     		b	.L126	@
 1987              	.L129:
 551:src/tcp_transceiver.c **** 	{
 552:src/tcp_transceiver.c **** 		if ((*(ip + i) == '.') || (*(ip + i) == '\0'))
 1988              		.loc 1 552 0
 1989 001e 0F23     		movs	r3, #15	@ tmp160,
 1990 0020 6B44     		add	r3, r3, sp	@ tmp160,
 1991 0022 1B78     		ldrb	r3, [r3]	@ D.6550, i
 1992 0024 019A     		ldr	r2, [sp, #4]	@ tmp161, ip
 1993 0026 D318     		adds	r3, r2, r3	@ D.6551, tmp161, D.6550
 1994 0028 1B78     		ldrb	r3, [r3]	@ D.6552, *_13
 1995 002a 2E2B     		cmp	r3, #46	@ D.6552,
 1996 002c 07D0     		beq	.L127	@,
 1997              		.loc 1 552 0 is_stmt 0 discriminator 1
 1998 002e 0F23     		movs	r3, #15	@ tmp162,
 1999 0030 6B44     		add	r3, r3, sp	@ tmp162,
 2000 0032 1B78     		ldrb	r3, [r3]	@ D.6550, i
 2001 0034 019A     		ldr	r2, [sp, #4]	@ tmp163, ip
 2002 0036 D318     		adds	r3, r2, r3	@ D.6551, tmp163, D.6550
 2003 0038 1B78     		ldrb	r3, [r3]	@ D.6552, *_17
 2004 003a 002B     		cmp	r3, #0	@ D.6552,
 2005 003c 09D1     		bne	.L128	@,
 2006              	.L127:
 553:src/tcp_transceiver.c **** 		{
 554:src/tcp_transceiver.c **** 			dot = i;
 2007              		.loc 1 554 0 is_stmt 1
 2008 003e 0E23     		movs	r3, #14	@ tmp164,
 2009 0040 6B44     		add	r3, r3, sp	@ tmp164,
 2010 0042 0F22     		movs	r2, #15	@ tmp165,
 2011 0044 6A44     		add	r2, r2, sp	@ tmp165,
 2012 0046 1278     		ldrb	r2, [r2]	@ tmp166, i
 2013 0048 1A70     		strb	r2, [r3]	@ tmp166, dot
 555:src/tcp_transceiver.c **** 			i = 10;
 2014              		.loc 1 555 0
 2015 004a 0F23     		movs	r3, #15	@ tmp167,
 2016 004c 6B44     		add	r3, r3, sp	@ tmp167,
 2017 004e 0A22     		movs	r2, #10	@ tmp168,
 2018 0050 1A70     		strb	r2, [r3]	@ tmp169, i
 2019              	.L128:
 550:src/tcp_transceiver.c **** 	{
 2020              		.loc 1 550 0 discriminator 2
 2021 0052 0F23     		movs	r3, #15	@ tmp170,
ARM GAS  /tmp/cctRPx0h.s 			page 47


 2022 0054 6B44     		add	r3, r3, sp	@ tmp170,
 2023 0056 1A78     		ldrb	r2, [r3]	@ D.6549, i
 2024 0058 0F23     		movs	r3, #15	@ tmp171,
 2025 005a 6B44     		add	r3, r3, sp	@ tmp171,
 2026 005c 0132     		adds	r2, r2, #1	@ tmp172,
 2027 005e 1A70     		strb	r2, [r3]	@ tmp173, i
 2028              	.L126:
 550:src/tcp_transceiver.c **** 	{
 2029              		.loc 1 550 0 is_stmt 0 discriminator 1
 2030 0060 0F23     		movs	r3, #15	@ tmp174,
 2031 0062 6B44     		add	r3, r3, sp	@ tmp174,
 2032 0064 1B78     		ldrb	r3, [r3]	@ tmp175, i
 2033 0066 032B     		cmp	r3, #3	@ tmp175,
 2034 0068 D9D9     		bls	.L129	@,
 556:src/tcp_transceiver.c **** 		}
 557:src/tcp_transceiver.c **** 	}
 558:src/tcp_transceiver.c **** 
 559:src/tcp_transceiver.c **** 	//si tiene . me fijo el numero
 560:src/tcp_transceiver.c **** 	if (dot == 0)
 2035              		.loc 1 560 0 is_stmt 1
 2036 006a 0E23     		movs	r3, #14	@ tmp176,
 2037 006c 6B44     		add	r3, r3, sp	@ tmp176,
 2038 006e 1B78     		ldrb	r3, [r3]	@ tmp177, dot
 2039 0070 002B     		cmp	r3, #0	@ tmp177,
 2040 0072 04D1     		bne	.L130	@,
 561:src/tcp_transceiver.c **** 	{
 562:src/tcp_transceiver.c **** 		*octet_val = 0;
 2041              		.loc 1 562 0
 2042 0074 009B     		ldr	r3, [sp]	@ tmp178, octet_val
 2043 0076 0022     		movs	r2, #0	@ tmp179,
 2044 0078 1A70     		strb	r2, [r3]	@ tmp180, *octet_val_23(D)
 563:src/tcp_transceiver.c **** 		return RESP_NOK;
 2045              		.loc 1 563 0
 2046 007a 1523     		movs	r3, #21	@ D.6549,
 2047 007c 57E0     		b	.L131	@
 2048              	.L130:
 564:src/tcp_transceiver.c **** 	}
 565:src/tcp_transceiver.c **** 
 566:src/tcp_transceiver.c **** 
 567:src/tcp_transceiver.c **** 	switch (dot)
 2049              		.loc 1 567 0
 2050 007e 0E23     		movs	r3, #14	@ tmp181,
 2051 0080 6B44     		add	r3, r3, sp	@ tmp181,
 2052 0082 1B78     		ldrb	r3, [r3]	@ D.6553, dot
 2053 0084 022B     		cmp	r3, #2	@ D.6553,
 2054 0086 0BD0     		beq	.L133	@,
 2055 0088 032B     		cmp	r3, #3	@ D.6553,
 2056 008a 1DD0     		beq	.L134	@,
 2057 008c 012B     		cmp	r3, #1	@ D.6553,
 2058 008e 39D1     		bne	.L132	@,
 568:src/tcp_transceiver.c **** 	{
 569:src/tcp_transceiver.c **** 		case 1:
 570:src/tcp_transceiver.c **** 			new_val = *ip - '0';
 2059              		.loc 1 570 0
 2060 0090 019B     		ldr	r3, [sp, #4]	@ tmp182, ip
 2061 0092 1B78     		ldrb	r3, [r3]	@ D.6552, *ip_12(D)
 2062 0094 9BB2     		uxth	r3, r3	@ D.6554, D.6552
ARM GAS  /tmp/cctRPx0h.s 			page 48


 2063 0096 303B     		subs	r3, r3, #48	@ tmp183,
 2064 0098 9AB2     		uxth	r2, r3	@ D.6554, tmp183
 2065 009a 03AB     		add	r3, sp, #12	@ tmp184,,
 2066 009c 1A80     		strh	r2, [r3]	@ tmp185, new_val
 571:src/tcp_transceiver.c **** 			break;
 2067              		.loc 1 571 0
 2068 009e 31E0     		b	.L132	@
 2069              	.L133:
 572:src/tcp_transceiver.c **** 
 573:src/tcp_transceiver.c **** 		case 2:
 574:src/tcp_transceiver.c **** 			new_val = (*ip - '0') * 10 + (*(ip + 1) - '0');
 2070              		.loc 1 574 0
 2071 00a0 019B     		ldr	r3, [sp, #4]	@ tmp186, ip
 2072 00a2 1B78     		ldrb	r3, [r3]	@ D.6552, *ip_12(D)
 2073 00a4 303B     		subs	r3, r3, #48	@ D.6553,
 2074 00a6 9BB2     		uxth	r3, r3	@ D.6554, D.6553
 2075 00a8 1A1C     		adds	r2, r3, #0	@ tmp188, tmp187
 2076 00aa 9200     		lsls	r2, r2, #2	@ tmp189, tmp188,
 2077 00ac D318     		adds	r3, r2, r3	@ tmp191, tmp190, tmp187
 2078 00ae DB18     		adds	r3, r3, r3	@ tmp193, tmp192, tmp192
 2079 00b0 9AB2     		uxth	r2, r3	@ D.6554, tmp191
 2080 00b2 019B     		ldr	r3, [sp, #4]	@ tmp194, ip
 2081 00b4 0133     		adds	r3, r3, #1	@ D.6551,
 2082 00b6 1B78     		ldrb	r3, [r3]	@ D.6552, *_36
 2083 00b8 9BB2     		uxth	r3, r3	@ D.6554, D.6552
 2084 00ba D318     		adds	r3, r2, r3	@ tmp195, D.6554, D.6554
 2085 00bc 9BB2     		uxth	r3, r3	@ D.6554, tmp195
 2086 00be 303B     		subs	r3, r3, #48	@ tmp196,
 2087 00c0 9AB2     		uxth	r2, r3	@ D.6554, tmp196
 2088 00c2 03AB     		add	r3, sp, #12	@ tmp197,,
 2089 00c4 1A80     		strh	r2, [r3]	@ tmp198, new_val
 575:src/tcp_transceiver.c **** 			break;
 2090              		.loc 1 575 0
 2091 00c6 1DE0     		b	.L132	@
 2092              	.L134:
 576:src/tcp_transceiver.c **** 
 577:src/tcp_transceiver.c **** 		case 3:
 578:src/tcp_transceiver.c **** 			new_val = (*ip - '0') * 100 + (*(ip + 1) - '0') * 10 + (*(ip + 2) - '0');
 2093              		.loc 1 578 0
 2094 00c8 019B     		ldr	r3, [sp, #4]	@ tmp199, ip
 2095 00ca 1B78     		ldrb	r3, [r3]	@ D.6552, *ip_12(D)
 2096 00cc 303B     		subs	r3, r3, #48	@ D.6553,
 2097 00ce 9BB2     		uxth	r3, r3	@ D.6554, D.6553
 2098 00d0 6422     		movs	r2, #100	@ tmp201,
 2099 00d2 5343     		muls	r3, r2	@ tmp200, tmp201
 2100 00d4 9AB2     		uxth	r2, r3	@ D.6554, tmp200
 2101 00d6 019B     		ldr	r3, [sp, #4]	@ tmp202, ip
 2102 00d8 0133     		adds	r3, r3, #1	@ D.6551,
 2103 00da 1B78     		ldrb	r3, [r3]	@ D.6552, *_47
 2104 00dc 303B     		subs	r3, r3, #48	@ D.6553,
 2105 00de 9BB2     		uxth	r3, r3	@ D.6554, D.6553
 2106 00e0 191C     		adds	r1, r3, #0	@ tmp204, tmp203
 2107 00e2 8900     		lsls	r1, r1, #2	@ tmp205, tmp204,
 2108 00e4 CB18     		adds	r3, r1, r3	@ tmp207, tmp206, tmp203
 2109 00e6 DB18     		adds	r3, r3, r3	@ tmp209, tmp208, tmp208
 2110 00e8 9BB2     		uxth	r3, r3	@ D.6554, tmp207
 2111 00ea D318     		adds	r3, r2, r3	@ tmp210, D.6554, D.6554
ARM GAS  /tmp/cctRPx0h.s 			page 49


 2112 00ec 9AB2     		uxth	r2, r3	@ D.6554, tmp210
 2113 00ee 019B     		ldr	r3, [sp, #4]	@ tmp211, ip
 2114 00f0 0233     		adds	r3, r3, #2	@ D.6551,
 2115 00f2 1B78     		ldrb	r3, [r3]	@ D.6552, *_54
 2116 00f4 9BB2     		uxth	r3, r3	@ D.6554, D.6552
 2117 00f6 D318     		adds	r3, r2, r3	@ tmp212, D.6554, D.6554
 2118 00f8 9BB2     		uxth	r3, r3	@ D.6554, tmp212
 2119 00fa 303B     		subs	r3, r3, #48	@ tmp213,
 2120 00fc 9AB2     		uxth	r2, r3	@ D.6554, tmp213
 2121 00fe 03AB     		add	r3, sp, #12	@ tmp214,,
 2122 0100 1A80     		strh	r2, [r3]	@ tmp215, new_val
 579:src/tcp_transceiver.c **** 			break;
 2123              		.loc 1 579 0
 2124 0102 C046     		nop
 2125              	.L132:
 580:src/tcp_transceiver.c **** 	}
 581:src/tcp_transceiver.c **** 
 582:src/tcp_transceiver.c **** 	if ((new_val < 0) || (new_val > 255))
 2126              		.loc 1 582 0
 2127 0104 03AB     		add	r3, sp, #12	@ tmp216,,
 2128 0106 0022     		movs	r2, #0	@ tmp229,
 2129 0108 9B5E     		ldrsh	r3, [r3, r2]	@ tmp217, tmp216, tmp229
 2130 010a 002B     		cmp	r3, #0	@ tmp217,
 2131 010c 04DB     		blt	.L136	@,
 2132              		.loc 1 582 0 is_stmt 0 discriminator 1
 2133 010e 03AB     		add	r3, sp, #12	@ tmp218,,
 2134 0110 0022     		movs	r2, #0	@ tmp230,
 2135 0112 9B5E     		ldrsh	r3, [r3, r2]	@ tmp219, tmp218, tmp230
 2136 0114 FF2B     		cmp	r3, #255	@ tmp219,
 2137 0116 04DD     		ble	.L137	@,
 2138              	.L136:
 583:src/tcp_transceiver.c **** 	{
 584:src/tcp_transceiver.c **** 		*octet_val = 0;
 2139              		.loc 1 584 0 is_stmt 1
 2140 0118 009B     		ldr	r3, [sp]	@ tmp220, octet_val
 2141 011a 0022     		movs	r2, #0	@ tmp221,
 2142 011c 1A70     		strb	r2, [r3]	@ tmp222, *octet_val_23(D)
 585:src/tcp_transceiver.c **** 		return RESP_NOK;
 2143              		.loc 1 585 0
 2144 011e 1523     		movs	r3, #21	@ D.6549,
 2145 0120 05E0     		b	.L131	@
 2146              	.L137:
 586:src/tcp_transceiver.c **** 	}
 587:src/tcp_transceiver.c **** 
 588:src/tcp_transceiver.c **** 	*octet_val = new_val;
 2147              		.loc 1 588 0
 2148 0122 03AB     		add	r3, sp, #12	@ tmp223,,
 2149 0124 1B88     		ldrh	r3, [r3]	@ tmp225, new_val
 2150 0126 DAB2     		uxtb	r2, r3	@ D.6549, tmp224
 2151 0128 009B     		ldr	r3, [sp]	@ tmp226, octet_val
 2152 012a 1A70     		strb	r2, [r3]	@ tmp227, *octet_val_23(D)
 589:src/tcp_transceiver.c **** 	return RESP_OK;
 2153              		.loc 1 589 0
 2154 012c 1423     		movs	r3, #20	@ D.6549,
 2155              	.L131:
 590:src/tcp_transceiver.c **** }
 2156              		.loc 1 590 0
ARM GAS  /tmp/cctRPx0h.s 			page 50


 2157 012e 1800     		movs	r0, r3	@, <retval>
 2158 0130 04B0     		add	sp, sp, #16	@,,
 2159              		@ sp needed	@
 2160 0132 7047     		bx	lr
 2161              		.cfi_endproc
 2162              	.LFE10:
 2163              		.size	OctetIsValid, .-OctetIsValid
 2164              		.text
 2165              	.Letext0:
 2166              		.file 2 "src/tcp_transceiver.h"