ARM GAS  /tmp/ccGefySF.s 			page 1


   1              		.syntax unified
   2              		.cpu cortex-m0
   3              		.fpu softvfp
   4              		.eabi_attribute 20, 1	@ Tag_ABI_FP_denormal
   5              		.eabi_attribute 21, 1	@ Tag_ABI_FP_exceptions
   6              		.eabi_attribute 23, 3	@ Tag_ABI_FP_number_model
   7              		.eabi_attribute 24, 1	@ Tag_ABI_align8_needed
   8              		.eabi_attribute 25, 1	@ Tag_ABI_align8_preserved
   9              		.eabi_attribute 26, 1	@ Tag_ABI_enum_size
  10              		.eabi_attribute 30, 6	@ Tag_ABI_optimization_goals
  11              		.eabi_attribute 34, 0	@ Tag_CPU_unaligned_access
  12              		.eabi_attribute 18, 4	@ Tag_ABI_PCS_wchar_t
  13              		.file	"uart.c"
  14              	@ GNU C11 (GNU Tools for ARM Embedded Processors) version 5.2.1 20151202 (release) [ARM/embedded-5-
  15              	@	compiled by GNU C version 4.7.4, GMP version 4.3.2, MPFR version 2.4.2, MPC version 0.8.1
  16              	@ GGC heuristics: --param ggc-min-expand=100 --param ggc-min-heapsize=131072
  17              	@ options passed:  -I . -I ./src -I ./cmsis_boot -I ./cmsis_core
  18              	@ -I ../STM32F0xx_StdPeriph_Lib_V1.3.1/Libraries/STM32F0xx_StdPeriph_Driver/inc
  19              	@ -I ./inc -I ./cmsis_boot -imultilib armv6-m
  20              	@ -iprefix /usr/local/sbin/gcc-arm-none-eabi-5_2-2015q4/bin/../lib/gcc/arm-none-eabi/5.2.1/
  21              	@ -isysroot /usr/local/sbin/gcc-arm-none-eabi-5_2-2015q4/bin/../arm-none-eabi
  22              	@ -D__USES_INITFINI__ src/uart.c -mcpu=cortex-m0 -mthumb
  23              	@ -auxbase-strip src/uart.o -g -gdwarf-2 -O0 -Wall -fomit-frame-pointer
  24              	@ -fdata-sections -ffunction-sections -fverbose-asm
  25              	@ options enabled:  -faggressive-loop-optimizations -fauto-inc-dec
  26              	@ -fchkp-check-incomplete-type -fchkp-check-read -fchkp-check-write
  27              	@ -fchkp-instrument-calls -fchkp-narrow-bounds -fchkp-optimize
  28              	@ -fchkp-store-bounds -fchkp-use-static-bounds
  29              	@ -fchkp-use-static-const-bounds -fchkp-use-wrappers -fcommon
  30              	@ -fdata-sections -fdelete-null-pointer-checks -fdwarf2-cfi-asm
  31              	@ -fearly-inlining -feliminate-unused-debug-types -ffunction-cse
  32              	@ -ffunction-sections -fgcse-lm -fgnu-runtime -fgnu-unique -fident
  33              	@ -finline-atomics -fira-hoist-pressure -fira-share-save-slots
  34              	@ -fira-share-spill-slots -fivopts -fkeep-static-consts
  35              	@ -fleading-underscore -flifetime-dse -flto-odr-type-merging -fmath-errno
  36              	@ -fmerge-debug-strings -fomit-frame-pointer -fpeephole
  37              	@ -fprefetch-loop-arrays -freg-struct-return
  38              	@ -fsched-critical-path-heuristic -fsched-dep-count-heuristic
  39              	@ -fsched-group-heuristic -fsched-interblock -fsched-last-insn-heuristic
  40              	@ -fsched-rank-heuristic -fsched-spec -fsched-spec-insn-heuristic
  41              	@ -fsched-stalled-insns-dep -fsemantic-interposition -fshow-column
  42              	@ -fsigned-zeros -fsplit-ivs-in-unroller -fstdarg-opt
  43              	@ -fstrict-volatile-bitfields -fsync-libcalls -ftrapping-math
  44              	@ -ftree-coalesce-vars -ftree-cselim -ftree-forwprop -ftree-loop-if-convert
  45              	@ -ftree-loop-im -ftree-loop-ivcanon -ftree-loop-optimize
  46              	@ -ftree-parallelize-loops= -ftree-phiprop -ftree-reassoc -ftree-scev-cprop
  47              	@ -funit-at-a-time -fverbose-asm -fzero-initialized-in-bss -mlittle-endian
  48              	@ -mpic-data-is-text-relative -msched-prolog -mthumb
  49              	@ -mvectorize-with-neon-quad
  50              	
  51              		.text
  52              	.Ltext0:
  53              		.cfi_sections	.debug_frame
  54              		.section	.text.NVIC_EnableIRQ,"ax",%progbits
  55              		.align	2
  56              		.code	16
  57              		.thumb_func
ARM GAS  /tmp/ccGefySF.s 			page 2


  58              		.type	NVIC_EnableIRQ, %function
  59              	NVIC_EnableIRQ:
  60              	.LFB11:
  61              		.file 1 "./cmsis_core/core_cm0.h"
   1:./cmsis_core/core_cm0.h **** /**************************************************************************//**
   2:./cmsis_core/core_cm0.h ****  * @file     core_cm0.h
   3:./cmsis_core/core_cm0.h ****  * @brief    CMSIS Cortex-M0 Core Peripheral Access Layer Header File
   4:./cmsis_core/core_cm0.h ****  * @version  V1.30
   5:./cmsis_core/core_cm0.h ****  * @date     30. October 2009
   6:./cmsis_core/core_cm0.h ****  *
   7:./cmsis_core/core_cm0.h ****  * @note
   8:./cmsis_core/core_cm0.h ****  * Copyright (C) 2009 ARM Limited. All rights reserved.
   9:./cmsis_core/core_cm0.h ****  *
  10:./cmsis_core/core_cm0.h ****  * @par
  11:./cmsis_core/core_cm0.h ****  * ARM Limited (ARM) is supplying this software for use with Cortex-M 
  12:./cmsis_core/core_cm0.h ****  * processor based microcontrollers.  This file can be freely distributed 
  13:./cmsis_core/core_cm0.h ****  * within development tools that are supporting such ARM based processors. 
  14:./cmsis_core/core_cm0.h ****  *
  15:./cmsis_core/core_cm0.h ****  * @par
  16:./cmsis_core/core_cm0.h ****  * THIS SOFTWARE IS PROVIDED "AS IS".  NO WARRANTIES, WHETHER EXPRESS, IMPLIED
  17:./cmsis_core/core_cm0.h ****  * OR STATUTORY, INCLUDING, BUT NOT LIMITED TO, IMPLIED WARRANTIES OF
  18:./cmsis_core/core_cm0.h ****  * MERCHANTABILITY AND FITNESS FOR A PARTICULAR PURPOSE APPLY TO THIS SOFTWARE.
  19:./cmsis_core/core_cm0.h ****  * ARM SHALL NOT, IN ANY CIRCUMSTANCES, BE LIABLE FOR SPECIAL, INCIDENTAL, OR
  20:./cmsis_core/core_cm0.h ****  * CONSEQUENTIAL DAMAGES, FOR ANY REASON WHATSOEVER.
  21:./cmsis_core/core_cm0.h ****  *
  22:./cmsis_core/core_cm0.h ****  ******************************************************************************/
  23:./cmsis_core/core_cm0.h **** 
  24:./cmsis_core/core_cm0.h **** #ifndef __CM0_CORE_H__
  25:./cmsis_core/core_cm0.h **** #define __CM0_CORE_H__
  26:./cmsis_core/core_cm0.h **** 
  27:./cmsis_core/core_cm0.h **** /** @addtogroup CMSIS_CM0_core_LintCinfiguration CMSIS CM0 Core Lint Configuration
  28:./cmsis_core/core_cm0.h ****  *
  29:./cmsis_core/core_cm0.h ****  * List of Lint messages which will be suppressed and not shown:
  30:./cmsis_core/core_cm0.h ****  *   - not yet checked
  31:./cmsis_core/core_cm0.h ****  * .
  32:./cmsis_core/core_cm0.h ****  * Note:  To re-enable a Message, insert a space before 'lint' *
  33:./cmsis_core/core_cm0.h ****  *
  34:./cmsis_core/core_cm0.h ****  */
  35:./cmsis_core/core_cm0.h **** 
  36:./cmsis_core/core_cm0.h **** 
  37:./cmsis_core/core_cm0.h **** /** @addtogroup CMSIS_CM0_core_definitions CM0 Core Definitions
  38:./cmsis_core/core_cm0.h ****   This file defines all structures and symbols for CMSIS core:
  39:./cmsis_core/core_cm0.h ****     - CMSIS version number
  40:./cmsis_core/core_cm0.h ****     - Cortex-M core registers and bitfields
  41:./cmsis_core/core_cm0.h ****     - Cortex-M core peripheral base address
  42:./cmsis_core/core_cm0.h ****   @{
  43:./cmsis_core/core_cm0.h ****  */
  44:./cmsis_core/core_cm0.h **** 
  45:./cmsis_core/core_cm0.h **** #ifdef __cplusplus
  46:./cmsis_core/core_cm0.h ****  extern "C" {
  47:./cmsis_core/core_cm0.h **** #endif 
  48:./cmsis_core/core_cm0.h **** 
  49:./cmsis_core/core_cm0.h **** #define __CM0_CMSIS_VERSION_MAIN  (0x01)                                                       /*!<
  50:./cmsis_core/core_cm0.h **** #define __CM0_CMSIS_VERSION_SUB   (0x30)                                                       /*!<
  51:./cmsis_core/core_cm0.h **** #define __CM0_CMSIS_VERSION       ((__CM0_CMSIS_VERSION_MAIN << 16) | __CM0_CMSIS_VERSION_SUB) /*!<
  52:./cmsis_core/core_cm0.h **** 
  53:./cmsis_core/core_cm0.h **** #define __CORTEX_M                (0x00)                                                       /*!<
ARM GAS  /tmp/ccGefySF.s 			page 3


  54:./cmsis_core/core_cm0.h **** 
  55:./cmsis_core/core_cm0.h **** #include <stdint.h>                           /* Include standard types */
  56:./cmsis_core/core_cm0.h **** 
  57:./cmsis_core/core_cm0.h **** #if defined (__ICCARM__)
  58:./cmsis_core/core_cm0.h ****   #include <intrinsics.h>                     /* IAR Intrinsics   */
  59:./cmsis_core/core_cm0.h **** #endif
  60:./cmsis_core/core_cm0.h **** 
  61:./cmsis_core/core_cm0.h **** 
  62:./cmsis_core/core_cm0.h **** #ifndef __NVIC_PRIO_BITS
  63:./cmsis_core/core_cm0.h ****   #define __NVIC_PRIO_BITS    2               /*!< standard definition for NVIC Priority Bits */
  64:./cmsis_core/core_cm0.h **** #endif
  65:./cmsis_core/core_cm0.h **** 
  66:./cmsis_core/core_cm0.h **** 
  67:./cmsis_core/core_cm0.h **** 
  68:./cmsis_core/core_cm0.h **** 
  69:./cmsis_core/core_cm0.h **** /**
  70:./cmsis_core/core_cm0.h ****  * IO definitions
  71:./cmsis_core/core_cm0.h ****  *
  72:./cmsis_core/core_cm0.h ****  * define access restrictions to peripheral registers
  73:./cmsis_core/core_cm0.h ****  */
  74:./cmsis_core/core_cm0.h **** 
  75:./cmsis_core/core_cm0.h **** #ifdef __cplusplus
  76:./cmsis_core/core_cm0.h ****   #define     __I     volatile                /*!< defines 'read only' permissions      */
  77:./cmsis_core/core_cm0.h **** #else
  78:./cmsis_core/core_cm0.h ****   #define     __I     volatile const          /*!< defines 'read only' permissions      */
  79:./cmsis_core/core_cm0.h **** #endif
  80:./cmsis_core/core_cm0.h **** #define     __O     volatile                  /*!< defines 'write only' permissions     */
  81:./cmsis_core/core_cm0.h **** #define     __IO    volatile                  /*!< defines 'read / write' permissions   */
  82:./cmsis_core/core_cm0.h **** 
  83:./cmsis_core/core_cm0.h **** 
  84:./cmsis_core/core_cm0.h **** 
  85:./cmsis_core/core_cm0.h **** /*******************************************************************************
  86:./cmsis_core/core_cm0.h ****  *                 Register Abstraction
  87:./cmsis_core/core_cm0.h ****  ******************************************************************************/
  88:./cmsis_core/core_cm0.h **** /** @addtogroup CMSIS_CM0_core_register CMSIS CM0 Core Register
  89:./cmsis_core/core_cm0.h ****  @{
  90:./cmsis_core/core_cm0.h **** */
  91:./cmsis_core/core_cm0.h **** 
  92:./cmsis_core/core_cm0.h **** 
  93:./cmsis_core/core_cm0.h **** /** @addtogroup CMSIS_CM0_NVIC CMSIS CM0 NVIC
  94:./cmsis_core/core_cm0.h ****   memory mapped structure for Nested Vectored Interrupt Controller (NVIC)
  95:./cmsis_core/core_cm0.h ****   @{
  96:./cmsis_core/core_cm0.h ****  */
  97:./cmsis_core/core_cm0.h ****  /*
  98:./cmsis_core/core_cm0.h **** typedef struct
  99:./cmsis_core/core_cm0.h **** {
 100:./cmsis_core/core_cm0.h ****   __IO uint32_t ISER[1];                      //!< (Offset: 0x000) Interrupt Set Enable Register
 101:./cmsis_core/core_cm0.h ****        uint32_t RESERVED0[31];
 102:./cmsis_core/core_cm0.h ****   __IO uint32_t ICER[1];                      //!< (Offset: 0x080) Interrupt Clear Enable Register
 103:./cmsis_core/core_cm0.h ****        uint32_t RSERVED1[31];
 104:./cmsis_core/core_cm0.h ****   __IO uint32_t ISPR[1];                      //!< (Offset: 0x100) Interrupt Set Pending Register
 105:./cmsis_core/core_cm0.h ****        uint32_t RESERVED2[31];
 106:./cmsis_core/core_cm0.h ****   __IO uint32_t ICPR[1];                      //!< (Offset: 0x180) Interrupt Clear Pending Register
 107:./cmsis_core/core_cm0.h ****        uint32_t RESERVED3[31];
 108:./cmsis_core/core_cm0.h ****        uint32_t RESERVED4[64];
 109:./cmsis_core/core_cm0.h ****   __IO uint32_t IPR[8];                       //!< (Offset: 0x3EC) Interrupt Priority Register
 110:./cmsis_core/core_cm0.h **** }  NVIC_Type;
ARM GAS  /tmp/ccGefySF.s 			page 4


 111:./cmsis_core/core_cm0.h **** */
 112:./cmsis_core/core_cm0.h **** 
 113:./cmsis_core/core_cm0.h ****  typedef struct
 114:./cmsis_core/core_cm0.h ****  {
 115:./cmsis_core/core_cm0.h ****    __IO uint32_t ISER[1];                 /*!< Offset: 0x000 (R/W)  Interrupt Set Enable Register  
 116:./cmsis_core/core_cm0.h ****         uint32_t RESERVED0[31];
 117:./cmsis_core/core_cm0.h ****    __IO uint32_t ICER[1];                 /*!< Offset: 0x080 (R/W)  Interrupt Clear Enable Register
 118:./cmsis_core/core_cm0.h ****         uint32_t RSERVED1[31];
 119:./cmsis_core/core_cm0.h ****    __IO uint32_t ISPR[1];                 /*!< Offset: 0x100 (R/W)  Interrupt Set Pending Register 
 120:./cmsis_core/core_cm0.h ****         uint32_t RESERVED2[31];
 121:./cmsis_core/core_cm0.h ****    __IO uint32_t ICPR[1];                 /*!< Offset: 0x180 (R/W)  Interrupt Clear Pending Registe
 122:./cmsis_core/core_cm0.h ****         uint32_t RESERVED3[31];
 123:./cmsis_core/core_cm0.h ****         uint32_t RESERVED4[64];
 124:./cmsis_core/core_cm0.h ****    __IO uint32_t IP[8];                   /*!< Offset: 0x300 (R/W)  Interrupt Priority Register    
 125:./cmsis_core/core_cm0.h ****  }  NVIC_Type;
 126:./cmsis_core/core_cm0.h **** 
 127:./cmsis_core/core_cm0.h **** /*@}*/ /* end of group CMSIS_CM0_NVIC */
 128:./cmsis_core/core_cm0.h **** 
 129:./cmsis_core/core_cm0.h **** 
 130:./cmsis_core/core_cm0.h **** /** @addtogroup CMSIS_CM0_SCB CMSIS CM0 SCB
 131:./cmsis_core/core_cm0.h ****   memory mapped structure for System Control Block (SCB)
 132:./cmsis_core/core_cm0.h ****   @{
 133:./cmsis_core/core_cm0.h ****  */
 134:./cmsis_core/core_cm0.h **** typedef struct
 135:./cmsis_core/core_cm0.h **** {
 136:./cmsis_core/core_cm0.h ****   __I  uint32_t CPUID;                        /*!< Offset: 0x00  CPU ID Base Register              
 137:./cmsis_core/core_cm0.h ****   __IO uint32_t ICSR;                         /*!< Offset: 0x04  Interrupt Control State Register  
 138:./cmsis_core/core_cm0.h ****        uint32_t RESERVED0;                                      
 139:./cmsis_core/core_cm0.h ****   __IO uint32_t AIRCR;                        /*!< Offset: 0x0C  Application Interrupt / Reset Cont
 140:./cmsis_core/core_cm0.h ****   __IO uint32_t SCR;                          /*!< Offset: 0x10  System Control Register           
 141:./cmsis_core/core_cm0.h ****   __IO uint32_t CCR;                          /*!< Offset: 0x14  Configuration Control Register    
 142:./cmsis_core/core_cm0.h ****        uint32_t RESERVED1;                                      
 143:./cmsis_core/core_cm0.h ****   __IO uint32_t SHP[2];                       /*!< Offset: 0x1C  System Handlers Priority Registers
 144:./cmsis_core/core_cm0.h ****   __IO uint32_t SHCSR;                        /*!< Offset: 0x24  System Handler Control and State R
 145:./cmsis_core/core_cm0.h ****        uint32_t RESERVED2[2];                                   
 146:./cmsis_core/core_cm0.h ****   __IO uint32_t DFSR;                         /*!< Offset: 0x30  Debug Fault Status Register       
 147:./cmsis_core/core_cm0.h **** } SCB_Type;                                                
 148:./cmsis_core/core_cm0.h **** 
 149:./cmsis_core/core_cm0.h **** /* SCB CPUID Register Definitions */
 150:./cmsis_core/core_cm0.h **** #define SCB_CPUID_IMPLEMENTER_Pos          24                                             /*!< SCB 
 151:./cmsis_core/core_cm0.h **** #define SCB_CPUID_IMPLEMENTER_Msk          (0xFFul << SCB_CPUID_IMPLEMENTER_Pos)          /*!< SCB 
 152:./cmsis_core/core_cm0.h **** 
 153:./cmsis_core/core_cm0.h **** #define SCB_CPUID_VARIANT_Pos              20                                             /*!< SCB 
 154:./cmsis_core/core_cm0.h **** #define SCB_CPUID_VARIANT_Msk              (0xFul << SCB_CPUID_VARIANT_Pos)               /*!< SCB 
 155:./cmsis_core/core_cm0.h **** 
 156:./cmsis_core/core_cm0.h **** #define SCB_CPUID_ARCHITECTURE_Pos         16                                             /*!< SCB 
 157:./cmsis_core/core_cm0.h **** #define SCB_CPUID_ARCHITECTURE_Msk         (0xFul << SCB_CPUID_ARCHITECTURE_Pos)          /*!< SCB 
 158:./cmsis_core/core_cm0.h **** 
 159:./cmsis_core/core_cm0.h **** #define SCB_CPUID_PARTNO_Pos                4                                             /*!< SCB 
 160:./cmsis_core/core_cm0.h **** #define SCB_CPUID_PARTNO_Msk               (0xFFFul << SCB_CPUID_PARTNO_Pos)              /*!< SCB 
 161:./cmsis_core/core_cm0.h **** 
 162:./cmsis_core/core_cm0.h **** #define SCB_CPUID_REVISION_Pos              0                                             /*!< SCB 
 163:./cmsis_core/core_cm0.h **** #define SCB_CPUID_REVISION_Msk             (0xFul << SCB_CPUID_REVISION_Pos)              /*!< SCB 
 164:./cmsis_core/core_cm0.h **** 
 165:./cmsis_core/core_cm0.h **** /* SCB Interrupt Control State Register Definitions */
 166:./cmsis_core/core_cm0.h **** #define SCB_ICSR_NMIPENDSET_Pos            31                                             /*!< SCB 
 167:./cmsis_core/core_cm0.h **** #define SCB_ICSR_NMIPENDSET_Msk            (1ul << SCB_ICSR_NMIPENDSET_Pos)               /*!< SCB 
ARM GAS  /tmp/ccGefySF.s 			page 5


 168:./cmsis_core/core_cm0.h **** 
 169:./cmsis_core/core_cm0.h **** #define SCB_ICSR_PENDSVSET_Pos             28                                             /*!< SCB 
 170:./cmsis_core/core_cm0.h **** #define SCB_ICSR_PENDSVSET_Msk             (1ul << SCB_ICSR_PENDSVSET_Pos)                /*!< SCB 
 171:./cmsis_core/core_cm0.h **** 
 172:./cmsis_core/core_cm0.h **** #define SCB_ICSR_PENDSVCLR_Pos             27                                             /*!< SCB 
 173:./cmsis_core/core_cm0.h **** #define SCB_ICSR_PENDSVCLR_Msk             (1ul << SCB_ICSR_PENDSVCLR_Pos)                /*!< SCB 
 174:./cmsis_core/core_cm0.h **** 
 175:./cmsis_core/core_cm0.h **** #define SCB_ICSR_PENDSTSET_Pos             26                                             /*!< SCB 
 176:./cmsis_core/core_cm0.h **** #define SCB_ICSR_PENDSTSET_Msk             (1ul << SCB_ICSR_PENDSTSET_Pos)                /*!< SCB 
 177:./cmsis_core/core_cm0.h **** 
 178:./cmsis_core/core_cm0.h **** #define SCB_ICSR_PENDSTCLR_Pos             25                                             /*!< SCB 
 179:./cmsis_core/core_cm0.h **** #define SCB_ICSR_PENDSTCLR_Msk             (1ul << SCB_ICSR_PENDSTCLR_Pos)                /*!< SCB 
 180:./cmsis_core/core_cm0.h **** 
 181:./cmsis_core/core_cm0.h **** #define SCB_ICSR_ISRPREEMPT_Pos            23                                             /*!< SCB 
 182:./cmsis_core/core_cm0.h **** #define SCB_ICSR_ISRPREEMPT_Msk            (1ul << SCB_ICSR_ISRPREEMPT_Pos)               /*!< SCB 
 183:./cmsis_core/core_cm0.h **** 
 184:./cmsis_core/core_cm0.h **** #define SCB_ICSR_ISRPENDING_Pos            22                                             /*!< SCB 
 185:./cmsis_core/core_cm0.h **** #define SCB_ICSR_ISRPENDING_Msk            (1ul << SCB_ICSR_ISRPENDING_Pos)               /*!< SCB 
 186:./cmsis_core/core_cm0.h **** 
 187:./cmsis_core/core_cm0.h **** #define SCB_ICSR_VECTPENDING_Pos           12                                             /*!< SCB 
 188:./cmsis_core/core_cm0.h **** #define SCB_ICSR_VECTPENDING_Msk           (0x1FFul << SCB_ICSR_VECTPENDING_Pos)          /*!< SCB 
 189:./cmsis_core/core_cm0.h **** 
 190:./cmsis_core/core_cm0.h **** #define SCB_ICSR_VECTACTIVE_Pos             0                                             /*!< SCB 
 191:./cmsis_core/core_cm0.h **** #define SCB_ICSR_VECTACTIVE_Msk            (0x1FFul << SCB_ICSR_VECTACTIVE_Pos)           /*!< SCB 
 192:./cmsis_core/core_cm0.h **** 
 193:./cmsis_core/core_cm0.h **** /* SCB Application Interrupt and Reset Control Register Definitions */
 194:./cmsis_core/core_cm0.h **** #define SCB_AIRCR_VECTKEY_Pos              16                                             /*!< SCB 
 195:./cmsis_core/core_cm0.h **** #define SCB_AIRCR_VECTKEY_Msk              (0xFFFFul << SCB_AIRCR_VECTKEY_Pos)            /*!< SCB 
 196:./cmsis_core/core_cm0.h **** 
 197:./cmsis_core/core_cm0.h **** #define SCB_AIRCR_VECTKEYSTAT_Pos          16                                             /*!< SCB 
 198:./cmsis_core/core_cm0.h **** #define SCB_AIRCR_VECTKEYSTAT_Msk          (0xFFFFul << SCB_AIRCR_VECTKEYSTAT_Pos)        /*!< SCB 
 199:./cmsis_core/core_cm0.h **** 
 200:./cmsis_core/core_cm0.h **** #define SCB_AIRCR_ENDIANESS_Pos            15                                             /*!< SCB 
 201:./cmsis_core/core_cm0.h **** #define SCB_AIRCR_ENDIANESS_Msk            (1ul << SCB_AIRCR_ENDIANESS_Pos)               /*!< SCB 
 202:./cmsis_core/core_cm0.h **** 
 203:./cmsis_core/core_cm0.h **** #define SCB_AIRCR_SYSRESETREQ_Pos           2                                             /*!< SCB 
 204:./cmsis_core/core_cm0.h **** #define SCB_AIRCR_SYSRESETREQ_Msk          (1ul << SCB_AIRCR_SYSRESETREQ_Pos)             /*!< SCB 
 205:./cmsis_core/core_cm0.h **** 
 206:./cmsis_core/core_cm0.h **** #define SCB_AIRCR_VECTCLRACTIVE_Pos         1                                             /*!< SCB 
 207:./cmsis_core/core_cm0.h **** #define SCB_AIRCR_VECTCLRACTIVE_Msk        (1ul << SCB_AIRCR_VECTCLRACTIVE_Pos)           /*!< SCB 
 208:./cmsis_core/core_cm0.h **** 
 209:./cmsis_core/core_cm0.h **** /* SCB System Control Register Definitions */
 210:./cmsis_core/core_cm0.h **** #define SCB_SCR_SEVONPEND_Pos               4                                             /*!< SCB 
 211:./cmsis_core/core_cm0.h **** #define SCB_SCR_SEVONPEND_Msk              (1ul << SCB_SCR_SEVONPEND_Pos)                 /*!< SCB 
 212:./cmsis_core/core_cm0.h **** 
 213:./cmsis_core/core_cm0.h **** #define SCB_SCR_SLEEPDEEP_Pos               2                                             /*!< SCB 
 214:./cmsis_core/core_cm0.h **** #define SCB_SCR_SLEEPDEEP_Msk              (1ul << SCB_SCR_SLEEPDEEP_Pos)                 /*!< SCB 
 215:./cmsis_core/core_cm0.h **** 
 216:./cmsis_core/core_cm0.h **** #define SCB_SCR_SLEEPONEXIT_Pos             1                                             /*!< SCB 
 217:./cmsis_core/core_cm0.h **** #define SCB_SCR_SLEEPONEXIT_Msk            (1ul << SCB_SCR_SLEEPONEXIT_Pos)               /*!< SCB 
 218:./cmsis_core/core_cm0.h **** 
 219:./cmsis_core/core_cm0.h **** /* SCB Configuration Control Register Definitions */
 220:./cmsis_core/core_cm0.h **** #define SCB_CCR_STKALIGN_Pos                9                                             /*!< SCB 
 221:./cmsis_core/core_cm0.h **** #define SCB_CCR_STKALIGN_Msk               (1ul << SCB_CCR_STKALIGN_Pos)                  /*!< SCB 
 222:./cmsis_core/core_cm0.h **** 
 223:./cmsis_core/core_cm0.h **** #define SCB_CCR_UNALIGN_TRP_Pos             3                                             /*!< SCB 
 224:./cmsis_core/core_cm0.h **** #define SCB_CCR_UNALIGN_TRP_Msk            (1ul << SCB_CCR_UNALIGN_TRP_Pos)               /*!< SCB 
ARM GAS  /tmp/ccGefySF.s 			page 6


 225:./cmsis_core/core_cm0.h **** 
 226:./cmsis_core/core_cm0.h **** /* SCB System Handler Control and State Register Definitions */
 227:./cmsis_core/core_cm0.h **** #define SCB_SHCSR_SVCALLPENDED_Pos         15                                             /*!< SCB 
 228:./cmsis_core/core_cm0.h **** #define SCB_SHCSR_SVCALLPENDED_Msk         (1ul << SCB_SHCSR_SVCALLPENDED_Pos)            /*!< SCB 
 229:./cmsis_core/core_cm0.h **** 
 230:./cmsis_core/core_cm0.h **** /* SCB Debug Fault Status Register Definitions */
 231:./cmsis_core/core_cm0.h **** #define SCB_DFSR_EXTERNAL_Pos               4                                             /*!< SCB 
 232:./cmsis_core/core_cm0.h **** #define SCB_DFSR_EXTERNAL_Msk              (1ul << SCB_DFSR_EXTERNAL_Pos)                 /*!< SCB 
 233:./cmsis_core/core_cm0.h **** 
 234:./cmsis_core/core_cm0.h **** #define SCB_DFSR_VCATCH_Pos                 3                                             /*!< SCB 
 235:./cmsis_core/core_cm0.h **** #define SCB_DFSR_VCATCH_Msk                (1ul << SCB_DFSR_VCATCH_Pos)                   /*!< SCB 
 236:./cmsis_core/core_cm0.h **** 
 237:./cmsis_core/core_cm0.h **** #define SCB_DFSR_DWTTRAP_Pos                2                                             /*!< SCB 
 238:./cmsis_core/core_cm0.h **** #define SCB_DFSR_DWTTRAP_Msk               (1ul << SCB_DFSR_DWTTRAP_Pos)                  /*!< SCB 
 239:./cmsis_core/core_cm0.h **** 
 240:./cmsis_core/core_cm0.h **** #define SCB_DFSR_BKPT_Pos                   1                                             /*!< SCB 
 241:./cmsis_core/core_cm0.h **** #define SCB_DFSR_BKPT_Msk                  (1ul << SCB_DFSR_BKPT_Pos)                     /*!< SCB 
 242:./cmsis_core/core_cm0.h **** 
 243:./cmsis_core/core_cm0.h **** #define SCB_DFSR_HALTED_Pos                 0                                             /*!< SCB 
 244:./cmsis_core/core_cm0.h **** #define SCB_DFSR_HALTED_Msk                (1ul << SCB_DFSR_HALTED_Pos)                   /*!< SCB 
 245:./cmsis_core/core_cm0.h **** /*@}*/ /* end of group CMSIS_CM0_SCB */
 246:./cmsis_core/core_cm0.h **** 
 247:./cmsis_core/core_cm0.h **** 
 248:./cmsis_core/core_cm0.h **** /** @addtogroup CMSIS_CM0_SysTick CMSIS CM0 SysTick
 249:./cmsis_core/core_cm0.h ****   memory mapped structure for SysTick
 250:./cmsis_core/core_cm0.h ****   @{
 251:./cmsis_core/core_cm0.h ****  */
 252:./cmsis_core/core_cm0.h **** typedef struct
 253:./cmsis_core/core_cm0.h **** {
 254:./cmsis_core/core_cm0.h ****   __IO uint32_t CTRL;                         /*!< Offset: 0x00  SysTick Control and Status Registe
 255:./cmsis_core/core_cm0.h ****   __IO uint32_t LOAD;                         /*!< Offset: 0x04  SysTick Reload Value Register     
 256:./cmsis_core/core_cm0.h ****   __IO uint32_t VAL;                          /*!< Offset: 0x08  SysTick Current Value Register    
 257:./cmsis_core/core_cm0.h ****   __I  uint32_t CALIB;                        /*!< Offset: 0x0C  SysTick Calibration Register      
 258:./cmsis_core/core_cm0.h **** } SysTick_Type;
 259:./cmsis_core/core_cm0.h **** 
 260:./cmsis_core/core_cm0.h **** /* SysTick Control / Status Register Definitions */
 261:./cmsis_core/core_cm0.h **** #define SysTick_CTRL_COUNTFLAG_Pos         16                                             /*!< SysT
 262:./cmsis_core/core_cm0.h **** #define SysTick_CTRL_COUNTFLAG_Msk         (1ul << SysTick_CTRL_COUNTFLAG_Pos)            /*!< SysT
 263:./cmsis_core/core_cm0.h **** 
 264:./cmsis_core/core_cm0.h **** #define SysTick_CTRL_CLKSOURCE_Pos          2                                             /*!< SysT
 265:./cmsis_core/core_cm0.h **** #define SysTick_CTRL_CLKSOURCE_Msk         (1ul << SysTick_CTRL_CLKSOURCE_Pos)            /*!< SysT
 266:./cmsis_core/core_cm0.h **** 
 267:./cmsis_core/core_cm0.h **** #define SysTick_CTRL_TICKINT_Pos            1                                             /*!< SysT
 268:./cmsis_core/core_cm0.h **** #define SysTick_CTRL_TICKINT_Msk           (1ul << SysTick_CTRL_TICKINT_Pos)              /*!< SysT
 269:./cmsis_core/core_cm0.h **** 
 270:./cmsis_core/core_cm0.h **** #define SysTick_CTRL_ENABLE_Pos             0                                             /*!< SysT
 271:./cmsis_core/core_cm0.h **** #define SysTick_CTRL_ENABLE_Msk            (1ul << SysTick_CTRL_ENABLE_Pos)               /*!< SysT
 272:./cmsis_core/core_cm0.h **** 
 273:./cmsis_core/core_cm0.h **** /* SysTick Reload Register Definitions */
 274:./cmsis_core/core_cm0.h **** #define SysTick_LOAD_RELOAD_Pos             0                                             /*!< SysT
 275:./cmsis_core/core_cm0.h **** #define SysTick_LOAD_RELOAD_Msk            (0xFFFFFFul << SysTick_LOAD_RELOAD_Pos)        /*!< SysT
 276:./cmsis_core/core_cm0.h **** 
 277:./cmsis_core/core_cm0.h **** /* SysTick Current Register Definitions */
 278:./cmsis_core/core_cm0.h **** #define SysTick_VAL_CURRENT_Pos             0                                             /*!< SysT
 279:./cmsis_core/core_cm0.h **** #define SysTick_VAL_CURRENT_Msk            (0xFFFFFFul << SysTick_VAL_CURRENT_Pos)        /*!< SysT
 280:./cmsis_core/core_cm0.h **** 
 281:./cmsis_core/core_cm0.h **** /* SysTick Calibration Register Definitions */
ARM GAS  /tmp/ccGefySF.s 			page 7


 282:./cmsis_core/core_cm0.h **** #define SysTick_CALIB_NOREF_Pos            31                                             /*!< SysT
 283:./cmsis_core/core_cm0.h **** #define SysTick_CALIB_NOREF_Msk            (1ul << SysTick_CALIB_NOREF_Pos)               /*!< SysT
 284:./cmsis_core/core_cm0.h **** 
 285:./cmsis_core/core_cm0.h **** #define SysTick_CALIB_SKEW_Pos             30                                             /*!< SysT
 286:./cmsis_core/core_cm0.h **** #define SysTick_CALIB_SKEW_Msk             (1ul << SysTick_CALIB_SKEW_Pos)                /*!< SysT
 287:./cmsis_core/core_cm0.h **** 
 288:./cmsis_core/core_cm0.h **** #define SysTick_CALIB_TENMS_Pos             0                                             /*!< SysT
 289:./cmsis_core/core_cm0.h **** #define SysTick_CALIB_TENMS_Msk            (0xFFFFFFul << SysTick_VAL_CURRENT_Pos)        /*!< SysT
 290:./cmsis_core/core_cm0.h **** /*@}*/ /* end of group CMSIS_CM0_SysTick */
 291:./cmsis_core/core_cm0.h **** 
 292:./cmsis_core/core_cm0.h **** 
 293:./cmsis_core/core_cm0.h **** /** @addtogroup CMSIS_CM0_CoreDebug CMSIS CM0 Core Debug
 294:./cmsis_core/core_cm0.h ****   memory mapped structure for Core Debug Register
 295:./cmsis_core/core_cm0.h ****   @{
 296:./cmsis_core/core_cm0.h ****  */
 297:./cmsis_core/core_cm0.h **** typedef struct
 298:./cmsis_core/core_cm0.h **** {
 299:./cmsis_core/core_cm0.h ****   __IO uint32_t DHCSR;                        /*!< Offset: 0x00  Debug Halting Control and Status R
 300:./cmsis_core/core_cm0.h ****   __O  uint32_t DCRSR;                        /*!< Offset: 0x04  Debug Core Register Selector Regis
 301:./cmsis_core/core_cm0.h ****   __IO uint32_t DCRDR;                        /*!< Offset: 0x08  Debug Core Register Data Register 
 302:./cmsis_core/core_cm0.h ****   __IO uint32_t DEMCR;                        /*!< Offset: 0x0C  Debug Exception and Monitor Contro
 303:./cmsis_core/core_cm0.h **** } CoreDebug_Type;
 304:./cmsis_core/core_cm0.h **** 
 305:./cmsis_core/core_cm0.h **** /* Debug Halting Control and Status Register */
 306:./cmsis_core/core_cm0.h **** #define CoreDebug_DHCSR_DBGKEY_Pos         16                                             /*!< Core
 307:./cmsis_core/core_cm0.h **** #define CoreDebug_DHCSR_DBGKEY_Msk         (0xFFFFul << CoreDebug_DHCSR_DBGKEY_Pos)       /*!< Core
 308:./cmsis_core/core_cm0.h **** 
 309:./cmsis_core/core_cm0.h **** #define CoreDebug_DHCSR_S_RESET_ST_Pos     25                                             /*!< Core
 310:./cmsis_core/core_cm0.h **** #define CoreDebug_DHCSR_S_RESET_ST_Msk     (1ul << CoreDebug_DHCSR_S_RESET_ST_Pos)        /*!< Core
 311:./cmsis_core/core_cm0.h **** 
 312:./cmsis_core/core_cm0.h **** #define CoreDebug_DHCSR_S_RETIRE_ST_Pos    24                                             /*!< Core
 313:./cmsis_core/core_cm0.h **** #define CoreDebug_DHCSR_S_RETIRE_ST_Msk    (1ul << CoreDebug_DHCSR_S_RETIRE_ST_Pos)       /*!< Core
 314:./cmsis_core/core_cm0.h **** 
 315:./cmsis_core/core_cm0.h **** #define CoreDebug_DHCSR_S_LOCKUP_Pos       19                                             /*!< Core
 316:./cmsis_core/core_cm0.h **** #define CoreDebug_DHCSR_S_LOCKUP_Msk       (1ul << CoreDebug_DHCSR_S_LOCKUP_Pos)          /*!< Core
 317:./cmsis_core/core_cm0.h **** 
 318:./cmsis_core/core_cm0.h **** #define CoreDebug_DHCSR_S_SLEEP_Pos        18                                             /*!< Core
 319:./cmsis_core/core_cm0.h **** #define CoreDebug_DHCSR_S_SLEEP_Msk        (1ul << CoreDebug_DHCSR_S_SLEEP_Pos)           /*!< Core
 320:./cmsis_core/core_cm0.h **** 
 321:./cmsis_core/core_cm0.h **** #define CoreDebug_DHCSR_S_HALT_Pos         17                                             /*!< Core
 322:./cmsis_core/core_cm0.h **** #define CoreDebug_DHCSR_S_HALT_Msk         (1ul << CoreDebug_DHCSR_S_HALT_Pos)            /*!< Core
 323:./cmsis_core/core_cm0.h **** 
 324:./cmsis_core/core_cm0.h **** #define CoreDebug_DHCSR_S_REGRDY_Pos       16                                             /*!< Core
 325:./cmsis_core/core_cm0.h **** #define CoreDebug_DHCSR_S_REGRDY_Msk       (1ul << CoreDebug_DHCSR_S_REGRDY_Pos)          /*!< Core
 326:./cmsis_core/core_cm0.h **** 
 327:./cmsis_core/core_cm0.h **** #define CoreDebug_DHCSR_C_MASKINTS_Pos      3                                             /*!< Core
 328:./cmsis_core/core_cm0.h **** #define CoreDebug_DHCSR_C_MASKINTS_Msk     (1ul << CoreDebug_DHCSR_C_MASKINTS_Pos)        /*!< Core
 329:./cmsis_core/core_cm0.h **** 
 330:./cmsis_core/core_cm0.h **** #define CoreDebug_DHCSR_C_STEP_Pos          2                                             /*!< Core
 331:./cmsis_core/core_cm0.h **** #define CoreDebug_DHCSR_C_STEP_Msk         (1ul << CoreDebug_DHCSR_C_STEP_Pos)            /*!< Core
 332:./cmsis_core/core_cm0.h **** 
 333:./cmsis_core/core_cm0.h **** #define CoreDebug_DHCSR_C_HALT_Pos          1                                             /*!< Core
 334:./cmsis_core/core_cm0.h **** #define CoreDebug_DHCSR_C_HALT_Msk         (1ul << CoreDebug_DHCSR_C_HALT_Pos)            /*!< Core
 335:./cmsis_core/core_cm0.h **** 
 336:./cmsis_core/core_cm0.h **** #define CoreDebug_DHCSR_C_DEBUGEN_Pos       0                                             /*!< Core
 337:./cmsis_core/core_cm0.h **** #define CoreDebug_DHCSR_C_DEBUGEN_Msk      (1ul << CoreDebug_DHCSR_C_DEBUGEN_Pos)         /*!< Core
 338:./cmsis_core/core_cm0.h **** 
ARM GAS  /tmp/ccGefySF.s 			page 8


 339:./cmsis_core/core_cm0.h **** /* Debug Core Register Selector Register */
 340:./cmsis_core/core_cm0.h **** #define CoreDebug_DCRSR_REGWnR_Pos         16                                             /*!< Core
 341:./cmsis_core/core_cm0.h **** #define CoreDebug_DCRSR_REGWnR_Msk         (1ul << CoreDebug_DCRSR_REGWnR_Pos)            /*!< Core
 342:./cmsis_core/core_cm0.h **** 
 343:./cmsis_core/core_cm0.h **** #define CoreDebug_DCRSR_REGSEL_Pos          0                                             /*!< Core
 344:./cmsis_core/core_cm0.h **** #define CoreDebug_DCRSR_REGSEL_Msk         (0x1Ful << CoreDebug_DCRSR_REGSEL_Pos)         /*!< Core
 345:./cmsis_core/core_cm0.h **** 
 346:./cmsis_core/core_cm0.h **** /* Debug Exception and Monitor Control Register */
 347:./cmsis_core/core_cm0.h **** #define CoreDebug_DEMCR_DWTENA_Pos         24                                             /*!< Core
 348:./cmsis_core/core_cm0.h **** #define CoreDebug_DEMCR_DWTENA_Msk         (1ul << CoreDebug_DEMCR_DWTENA_Pos)            /*!< Core
 349:./cmsis_core/core_cm0.h **** 
 350:./cmsis_core/core_cm0.h **** #define CoreDebug_DEMCR_VC_HARDERR_Pos     10                                             /*!< Core
 351:./cmsis_core/core_cm0.h **** #define CoreDebug_DEMCR_VC_HARDERR_Msk     (1ul << CoreDebug_DEMCR_VC_HARDERR_Pos)        /*!< Core
 352:./cmsis_core/core_cm0.h **** 
 353:./cmsis_core/core_cm0.h **** #define CoreDebug_DEMCR_VC_CORERESET_Pos    0                                             /*!< Core
 354:./cmsis_core/core_cm0.h **** #define CoreDebug_DEMCR_VC_CORERESET_Msk   (1ul << CoreDebug_DEMCR_VC_CORERESET_Pos)      /*!< Core
 355:./cmsis_core/core_cm0.h **** /*@}*/ /* end of group CMSIS_CM0_CoreDebug */
 356:./cmsis_core/core_cm0.h **** 
 357:./cmsis_core/core_cm0.h **** 
 358:./cmsis_core/core_cm0.h **** /* Memory mapping of Cortex-M0 Hardware */
 359:./cmsis_core/core_cm0.h **** #define SCS_BASE            (0xE000E000)                              /*!< System Control Space Bas
 360:./cmsis_core/core_cm0.h **** #define CoreDebug_BASE      (0xE000EDF0)                              /*!< Core Debug Base Address 
 361:./cmsis_core/core_cm0.h **** #define SysTick_BASE        (SCS_BASE +  0x0010)                      /*!< SysTick Base Address    
 362:./cmsis_core/core_cm0.h **** #define NVIC_BASE           (SCS_BASE +  0x0100)                      /*!< NVIC Base Address       
 363:./cmsis_core/core_cm0.h **** #define SCB_BASE            (SCS_BASE +  0x0D00)                      /*!< System Control Block Bas
 364:./cmsis_core/core_cm0.h **** 
 365:./cmsis_core/core_cm0.h **** #define SCB                 ((SCB_Type *)           SCB_BASE)         /*!< SCB configuration struct
 366:./cmsis_core/core_cm0.h **** #define SysTick             ((SysTick_Type *)       SysTick_BASE)     /*!< SysTick configuration st
 367:./cmsis_core/core_cm0.h **** #define NVIC                ((NVIC_Type *)          NVIC_BASE)        /*!< NVIC configuration struc
 368:./cmsis_core/core_cm0.h **** #define CoreDebug           ((CoreDebug_Type *)     CoreDebug_BASE)   /*!< Core Debug configuration
 369:./cmsis_core/core_cm0.h **** 
 370:./cmsis_core/core_cm0.h **** /*@}*/ /* end of group CMSIS_CM0_core_register */
 371:./cmsis_core/core_cm0.h **** 
 372:./cmsis_core/core_cm0.h **** 
 373:./cmsis_core/core_cm0.h **** /*******************************************************************************
 374:./cmsis_core/core_cm0.h ****  *                Hardware Abstraction Layer
 375:./cmsis_core/core_cm0.h ****  ******************************************************************************/
 376:./cmsis_core/core_cm0.h **** 
 377:./cmsis_core/core_cm0.h **** #if defined ( __CC_ARM   )
 378:./cmsis_core/core_cm0.h ****   #define __ASM            __asm                                      /*!< asm keyword for ARM Comp
 379:./cmsis_core/core_cm0.h ****   #define __INLINE         __inline                                   /*!< inline keyword for ARM C
 380:./cmsis_core/core_cm0.h **** 
 381:./cmsis_core/core_cm0.h **** #elif defined ( __ICCARM__ )
 382:./cmsis_core/core_cm0.h ****   #define __ASM           __asm                                       /*!< asm keyword for IAR Comp
 383:./cmsis_core/core_cm0.h ****   #define __INLINE        inline                                      /*!< inline keyword for IAR C
 384:./cmsis_core/core_cm0.h **** 
 385:./cmsis_core/core_cm0.h **** #elif defined   (  __GNUC__  )
 386:./cmsis_core/core_cm0.h ****   #define __ASM            __asm                                      /*!< asm keyword for GNU Comp
 387:./cmsis_core/core_cm0.h ****   #define __INLINE         inline                                     /*!< inline keyword for GNU C
 388:./cmsis_core/core_cm0.h **** 
 389:./cmsis_core/core_cm0.h **** #elif defined   (  __TASKING__  )
 390:./cmsis_core/core_cm0.h ****   #define __ASM            __asm                                      /*!< asm keyword for TASKING 
 391:./cmsis_core/core_cm0.h ****   #define __INLINE         inline                                     /*!< inline keyword for TASKI
 392:./cmsis_core/core_cm0.h **** 
 393:./cmsis_core/core_cm0.h **** #endif
 394:./cmsis_core/core_cm0.h **** 
 395:./cmsis_core/core_cm0.h **** 
ARM GAS  /tmp/ccGefySF.s 			page 9


 396:./cmsis_core/core_cm0.h **** /* ###################  Compiler specific Intrinsics  ########################### */
 397:./cmsis_core/core_cm0.h **** 
 398:./cmsis_core/core_cm0.h **** #if defined ( __CC_ARM   ) /*------------------RealView Compiler -----------------*/
 399:./cmsis_core/core_cm0.h **** /* ARM armcc specific functions */
 400:./cmsis_core/core_cm0.h **** 
 401:./cmsis_core/core_cm0.h **** #define __enable_fault_irq                __enable_fiq
 402:./cmsis_core/core_cm0.h **** #define __disable_fault_irq               __disable_fiq
 403:./cmsis_core/core_cm0.h **** 
 404:./cmsis_core/core_cm0.h **** #define __NOP                             __nop
 405:./cmsis_core/core_cm0.h **** #define __WFI                             __wfi
 406:./cmsis_core/core_cm0.h **** #define __WFE                             __wfe
 407:./cmsis_core/core_cm0.h **** #define __SEV                             __sev
 408:./cmsis_core/core_cm0.h **** #define __ISB()                           __isb(0)
 409:./cmsis_core/core_cm0.h **** #define __DSB()                           __dsb(0)
 410:./cmsis_core/core_cm0.h **** #define __DMB()                           __dmb(0)
 411:./cmsis_core/core_cm0.h **** #define __REV                             __rev
 412:./cmsis_core/core_cm0.h **** 
 413:./cmsis_core/core_cm0.h **** 
 414:./cmsis_core/core_cm0.h **** /* intrinsic void __enable_irq();     */
 415:./cmsis_core/core_cm0.h **** /* intrinsic void __disable_irq();    */
 416:./cmsis_core/core_cm0.h **** 
 417:./cmsis_core/core_cm0.h **** 
 418:./cmsis_core/core_cm0.h **** /**
 419:./cmsis_core/core_cm0.h ****  * @brief  Return the Process Stack Pointer
 420:./cmsis_core/core_cm0.h ****  *
 421:./cmsis_core/core_cm0.h ****  * @return ProcessStackPointer
 422:./cmsis_core/core_cm0.h ****  *
 423:./cmsis_core/core_cm0.h ****  * Return the actual process stack pointer
 424:./cmsis_core/core_cm0.h ****  */
 425:./cmsis_core/core_cm0.h **** extern uint32_t __get_PSP(void);
 426:./cmsis_core/core_cm0.h **** 
 427:./cmsis_core/core_cm0.h **** /**
 428:./cmsis_core/core_cm0.h ****  * @brief  Set the Process Stack Pointer
 429:./cmsis_core/core_cm0.h ****  *
 430:./cmsis_core/core_cm0.h ****  * @param  topOfProcStack  Process Stack Pointer
 431:./cmsis_core/core_cm0.h ****  *
 432:./cmsis_core/core_cm0.h ****  * Assign the value ProcessStackPointer to the MSP 
 433:./cmsis_core/core_cm0.h ****  * (process stack pointer) Cortex processor register
 434:./cmsis_core/core_cm0.h ****  */
 435:./cmsis_core/core_cm0.h **** extern void __set_PSP(uint32_t topOfProcStack);
 436:./cmsis_core/core_cm0.h **** 
 437:./cmsis_core/core_cm0.h **** /**
 438:./cmsis_core/core_cm0.h ****  * @brief  Return the Main Stack Pointer
 439:./cmsis_core/core_cm0.h ****  *
 440:./cmsis_core/core_cm0.h ****  * @return Main Stack Pointer
 441:./cmsis_core/core_cm0.h ****  *
 442:./cmsis_core/core_cm0.h ****  * Return the current value of the MSP (main stack pointer)
 443:./cmsis_core/core_cm0.h ****  * Cortex processor register
 444:./cmsis_core/core_cm0.h ****  */
 445:./cmsis_core/core_cm0.h **** extern uint32_t __get_MSP(void);
 446:./cmsis_core/core_cm0.h **** 
 447:./cmsis_core/core_cm0.h **** /**
 448:./cmsis_core/core_cm0.h ****  * @brief  Set the Main Stack Pointer
 449:./cmsis_core/core_cm0.h ****  *
 450:./cmsis_core/core_cm0.h ****  * @param  topOfMainStack  Main Stack Pointer
 451:./cmsis_core/core_cm0.h ****  *
 452:./cmsis_core/core_cm0.h ****  * Assign the value mainStackPointer to the MSP 
ARM GAS  /tmp/ccGefySF.s 			page 10


 453:./cmsis_core/core_cm0.h ****  * (main stack pointer) Cortex processor register
 454:./cmsis_core/core_cm0.h ****  */
 455:./cmsis_core/core_cm0.h **** extern void __set_MSP(uint32_t topOfMainStack);
 456:./cmsis_core/core_cm0.h **** 
 457:./cmsis_core/core_cm0.h **** /**
 458:./cmsis_core/core_cm0.h ****  * @brief  Reverse byte order in unsigned short value
 459:./cmsis_core/core_cm0.h ****  *
 460:./cmsis_core/core_cm0.h ****  * @param   value  value to reverse
 461:./cmsis_core/core_cm0.h ****  * @return         reversed value
 462:./cmsis_core/core_cm0.h ****  *
 463:./cmsis_core/core_cm0.h ****  * Reverse byte order in unsigned short value
 464:./cmsis_core/core_cm0.h ****  */
 465:./cmsis_core/core_cm0.h **** extern uint32_t __REV16(uint16_t value);
 466:./cmsis_core/core_cm0.h **** 
 467:./cmsis_core/core_cm0.h **** /**
 468:./cmsis_core/core_cm0.h ****  * @brief  Reverse byte order in signed short value with sign extension to integer
 469:./cmsis_core/core_cm0.h ****  *
 470:./cmsis_core/core_cm0.h ****  * @param   value  value to reverse
 471:./cmsis_core/core_cm0.h ****  * @return         reversed value
 472:./cmsis_core/core_cm0.h ****  *
 473:./cmsis_core/core_cm0.h ****  * Reverse byte order in signed short value with sign extension to integer
 474:./cmsis_core/core_cm0.h ****  */
 475:./cmsis_core/core_cm0.h **** extern int32_t __REVSH(int16_t value);
 476:./cmsis_core/core_cm0.h **** 
 477:./cmsis_core/core_cm0.h **** 
 478:./cmsis_core/core_cm0.h **** #if (__ARMCC_VERSION < 400000)
 479:./cmsis_core/core_cm0.h **** 
 480:./cmsis_core/core_cm0.h **** /**
 481:./cmsis_core/core_cm0.h ****  * @brief  Return the Priority Mask value
 482:./cmsis_core/core_cm0.h ****  *
 483:./cmsis_core/core_cm0.h ****  * @return PriMask
 484:./cmsis_core/core_cm0.h ****  *
 485:./cmsis_core/core_cm0.h ****  * Return state of the priority mask bit from the priority mask register
 486:./cmsis_core/core_cm0.h ****  */
 487:./cmsis_core/core_cm0.h **** extern uint32_t __get_PRIMASK(void);
 488:./cmsis_core/core_cm0.h **** 
 489:./cmsis_core/core_cm0.h **** /**
 490:./cmsis_core/core_cm0.h ****  * @brief  Set the Priority Mask value
 491:./cmsis_core/core_cm0.h ****  *
 492:./cmsis_core/core_cm0.h ****  * @param   priMask  PriMask
 493:./cmsis_core/core_cm0.h ****  *
 494:./cmsis_core/core_cm0.h ****  * Set the priority mask bit in the priority mask register
 495:./cmsis_core/core_cm0.h ****  */
 496:./cmsis_core/core_cm0.h **** extern void __set_PRIMASK(uint32_t priMask);
 497:./cmsis_core/core_cm0.h **** 
 498:./cmsis_core/core_cm0.h **** /**
 499:./cmsis_core/core_cm0.h ****  * @brief  Return the Control Register value
 500:./cmsis_core/core_cm0.h ****  * 
 501:./cmsis_core/core_cm0.h ****  * @return Control value
 502:./cmsis_core/core_cm0.h ****  *
 503:./cmsis_core/core_cm0.h ****  * Return the content of the control register
 504:./cmsis_core/core_cm0.h ****  */
 505:./cmsis_core/core_cm0.h **** extern uint32_t __get_CONTROL(void);
 506:./cmsis_core/core_cm0.h **** 
 507:./cmsis_core/core_cm0.h **** /**
 508:./cmsis_core/core_cm0.h ****  * @brief  Set the Control Register value
 509:./cmsis_core/core_cm0.h ****  *
ARM GAS  /tmp/ccGefySF.s 			page 11


 510:./cmsis_core/core_cm0.h ****  * @param  control  Control value
 511:./cmsis_core/core_cm0.h ****  *
 512:./cmsis_core/core_cm0.h ****  * Set the control register
 513:./cmsis_core/core_cm0.h ****  */
 514:./cmsis_core/core_cm0.h **** extern void __set_CONTROL(uint32_t control);
 515:./cmsis_core/core_cm0.h **** 
 516:./cmsis_core/core_cm0.h **** #else  /* (__ARMCC_VERSION >= 400000)  */
 517:./cmsis_core/core_cm0.h **** 
 518:./cmsis_core/core_cm0.h **** 
 519:./cmsis_core/core_cm0.h **** /**
 520:./cmsis_core/core_cm0.h ****  * @brief  Return the Priority Mask value
 521:./cmsis_core/core_cm0.h ****  *
 522:./cmsis_core/core_cm0.h ****  * @return PriMask
 523:./cmsis_core/core_cm0.h ****  *
 524:./cmsis_core/core_cm0.h ****  * Return state of the priority mask bit from the priority mask register
 525:./cmsis_core/core_cm0.h ****  */
 526:./cmsis_core/core_cm0.h **** static __INLINE uint32_t __get_PRIMASK(void)
 527:./cmsis_core/core_cm0.h **** {
 528:./cmsis_core/core_cm0.h ****   register uint32_t __regPriMask         __ASM("primask");
 529:./cmsis_core/core_cm0.h ****   return(__regPriMask);
 530:./cmsis_core/core_cm0.h **** }
 531:./cmsis_core/core_cm0.h **** 
 532:./cmsis_core/core_cm0.h **** /**
 533:./cmsis_core/core_cm0.h ****  * @brief  Set the Priority Mask value
 534:./cmsis_core/core_cm0.h ****  *
 535:./cmsis_core/core_cm0.h ****  * @param  priMask  PriMask
 536:./cmsis_core/core_cm0.h ****  *
 537:./cmsis_core/core_cm0.h ****  * Set the priority mask bit in the priority mask register
 538:./cmsis_core/core_cm0.h ****  */
 539:./cmsis_core/core_cm0.h **** static __INLINE void __set_PRIMASK(uint32_t priMask)
 540:./cmsis_core/core_cm0.h **** {
 541:./cmsis_core/core_cm0.h ****   register uint32_t __regPriMask         __ASM("primask");
 542:./cmsis_core/core_cm0.h ****   __regPriMask = (priMask);
 543:./cmsis_core/core_cm0.h **** }
 544:./cmsis_core/core_cm0.h **** 
 545:./cmsis_core/core_cm0.h **** /**
 546:./cmsis_core/core_cm0.h ****  * @brief  Return the Control Register value
 547:./cmsis_core/core_cm0.h ****  * 
 548:./cmsis_core/core_cm0.h ****  * @return Control value
 549:./cmsis_core/core_cm0.h ****  *
 550:./cmsis_core/core_cm0.h ****  * Return the content of the control register
 551:./cmsis_core/core_cm0.h ****  */
 552:./cmsis_core/core_cm0.h **** static __INLINE uint32_t __get_CONTROL(void)
 553:./cmsis_core/core_cm0.h **** {
 554:./cmsis_core/core_cm0.h ****   register uint32_t __regControl         __ASM("control");
 555:./cmsis_core/core_cm0.h ****   return(__regControl);
 556:./cmsis_core/core_cm0.h **** }
 557:./cmsis_core/core_cm0.h **** 
 558:./cmsis_core/core_cm0.h **** /**
 559:./cmsis_core/core_cm0.h ****  * @brief  Set the Control Register value
 560:./cmsis_core/core_cm0.h ****  *
 561:./cmsis_core/core_cm0.h ****  * @param  control  Control value
 562:./cmsis_core/core_cm0.h ****  *
 563:./cmsis_core/core_cm0.h ****  * Set the control register
 564:./cmsis_core/core_cm0.h ****  */
 565:./cmsis_core/core_cm0.h **** static __INLINE void __set_CONTROL(uint32_t control)
 566:./cmsis_core/core_cm0.h **** {
ARM GAS  /tmp/ccGefySF.s 			page 12


 567:./cmsis_core/core_cm0.h ****   register uint32_t __regControl         __ASM("control");
 568:./cmsis_core/core_cm0.h ****   __regControl = control;
 569:./cmsis_core/core_cm0.h **** }
 570:./cmsis_core/core_cm0.h **** 
 571:./cmsis_core/core_cm0.h **** #endif /* __ARMCC_VERSION  */ 
 572:./cmsis_core/core_cm0.h **** 
 573:./cmsis_core/core_cm0.h **** 
 574:./cmsis_core/core_cm0.h **** 
 575:./cmsis_core/core_cm0.h **** #elif (defined (__ICCARM__)) /*------------------ ICC Compiler -------------------*/
 576:./cmsis_core/core_cm0.h **** /* IAR iccarm specific functions */
 577:./cmsis_core/core_cm0.h **** 
 578:./cmsis_core/core_cm0.h **** #define __enable_irq                              __enable_interrupt        /*!< global Interrupt e
 579:./cmsis_core/core_cm0.h **** #define __disable_irq                             __disable_interrupt       /*!< global Interrupt d
 580:./cmsis_core/core_cm0.h **** 
 581:./cmsis_core/core_cm0.h **** static __INLINE void __enable_fault_irq()         { __ASM ("cpsie f"); }
 582:./cmsis_core/core_cm0.h **** static __INLINE void __disable_fault_irq()        { __ASM ("cpsid f"); }
 583:./cmsis_core/core_cm0.h **** 
 584:./cmsis_core/core_cm0.h **** #define __NOP                                     __no_operation            /*!< no operation intri
 585:./cmsis_core/core_cm0.h **** static __INLINE  void __WFI()                     { __ASM ("wfi"); }
 586:./cmsis_core/core_cm0.h **** static __INLINE  void __WFE()                     { __ASM ("wfe"); }
 587:./cmsis_core/core_cm0.h **** static __INLINE  void __SEV()                     { __ASM ("sev"); }
 588:./cmsis_core/core_cm0.h **** 
 589:./cmsis_core/core_cm0.h **** /* intrinsic void __ISB(void)                                     */
 590:./cmsis_core/core_cm0.h **** /* intrinsic void __DSB(void)                                     */
 591:./cmsis_core/core_cm0.h **** /* intrinsic void __DMB(void)                                     */
 592:./cmsis_core/core_cm0.h **** /* intrinsic void __set_PRIMASK();                                */
 593:./cmsis_core/core_cm0.h **** /* intrinsic void __get_PRIMASK();                                */
 594:./cmsis_core/core_cm0.h **** 
 595:./cmsis_core/core_cm0.h **** 
 596:./cmsis_core/core_cm0.h **** /* intrinsic uint32_t __REV(uint32_t value);                      */
 597:./cmsis_core/core_cm0.h **** /* intrinsic uint32_t __REVSH(uint32_t value);                    */
 598:./cmsis_core/core_cm0.h **** 
 599:./cmsis_core/core_cm0.h **** 
 600:./cmsis_core/core_cm0.h **** /**
 601:./cmsis_core/core_cm0.h ****  * @brief  Return the Process Stack Pointer
 602:./cmsis_core/core_cm0.h ****  *
 603:./cmsis_core/core_cm0.h ****  * @return ProcessStackPointer
 604:./cmsis_core/core_cm0.h ****  *
 605:./cmsis_core/core_cm0.h ****  * Return the actual process stack pointer
 606:./cmsis_core/core_cm0.h ****  */
 607:./cmsis_core/core_cm0.h **** extern uint32_t __get_PSP(void);
 608:./cmsis_core/core_cm0.h **** 
 609:./cmsis_core/core_cm0.h **** /**
 610:./cmsis_core/core_cm0.h ****  * @brief  Set the Process Stack Pointer
 611:./cmsis_core/core_cm0.h ****  *
 612:./cmsis_core/core_cm0.h ****  * @param  topOfProcStack  Process Stack Pointer
 613:./cmsis_core/core_cm0.h ****  *
 614:./cmsis_core/core_cm0.h ****  * Assign the value ProcessStackPointer to the MSP 
 615:./cmsis_core/core_cm0.h ****  * (process stack pointer) Cortex processor register
 616:./cmsis_core/core_cm0.h ****  */
 617:./cmsis_core/core_cm0.h **** extern void __set_PSP(uint32_t topOfProcStack);
 618:./cmsis_core/core_cm0.h **** 
 619:./cmsis_core/core_cm0.h **** /**
 620:./cmsis_core/core_cm0.h ****  * @brief  Return the Main Stack Pointer
 621:./cmsis_core/core_cm0.h ****  *
 622:./cmsis_core/core_cm0.h ****  * @return Main Stack Pointer
 623:./cmsis_core/core_cm0.h ****  *
ARM GAS  /tmp/ccGefySF.s 			page 13


 624:./cmsis_core/core_cm0.h ****  * Return the current value of the MSP (main stack pointer)
 625:./cmsis_core/core_cm0.h ****  * Cortex processor register
 626:./cmsis_core/core_cm0.h ****  */
 627:./cmsis_core/core_cm0.h **** extern uint32_t __get_MSP(void);
 628:./cmsis_core/core_cm0.h **** 
 629:./cmsis_core/core_cm0.h **** /**
 630:./cmsis_core/core_cm0.h ****  * @brief  Set the Main Stack Pointer
 631:./cmsis_core/core_cm0.h ****  *
 632:./cmsis_core/core_cm0.h ****  * @param  topOfMainStack  Main Stack Pointer
 633:./cmsis_core/core_cm0.h ****  *
 634:./cmsis_core/core_cm0.h ****  * Assign the value mainStackPointer to the MSP 
 635:./cmsis_core/core_cm0.h ****  * (main stack pointer) Cortex processor register
 636:./cmsis_core/core_cm0.h ****  */
 637:./cmsis_core/core_cm0.h **** extern void __set_MSP(uint32_t topOfMainStack);
 638:./cmsis_core/core_cm0.h **** 
 639:./cmsis_core/core_cm0.h **** /**
 640:./cmsis_core/core_cm0.h ****  * @brief  Reverse byte order in unsigned short value
 641:./cmsis_core/core_cm0.h ****  *
 642:./cmsis_core/core_cm0.h ****  * @param  value  value to reverse
 643:./cmsis_core/core_cm0.h ****  * @return        reversed value
 644:./cmsis_core/core_cm0.h ****  *
 645:./cmsis_core/core_cm0.h ****  * Reverse byte order in unsigned short value
 646:./cmsis_core/core_cm0.h ****  */
 647:./cmsis_core/core_cm0.h **** extern uint32_t __REV16(uint16_t value);
 648:./cmsis_core/core_cm0.h **** 
 649:./cmsis_core/core_cm0.h **** 
 650:./cmsis_core/core_cm0.h **** #elif (defined (__GNUC__)) /*------------------ GNU Compiler ---------------------*/
 651:./cmsis_core/core_cm0.h **** /* GNU gcc specific functions */
 652:./cmsis_core/core_cm0.h **** 
 653:./cmsis_core/core_cm0.h **** static __INLINE void __enable_irq()               { __ASM volatile ("cpsie i"); }
 654:./cmsis_core/core_cm0.h **** static __INLINE void __disable_irq()              { __ASM volatile ("cpsid i"); }
 655:./cmsis_core/core_cm0.h **** 
 656:./cmsis_core/core_cm0.h **** static __INLINE void __enable_fault_irq()         { __ASM volatile ("cpsie f"); }
 657:./cmsis_core/core_cm0.h **** static __INLINE void __disable_fault_irq()        { __ASM volatile ("cpsid f"); }
 658:./cmsis_core/core_cm0.h **** 
 659:./cmsis_core/core_cm0.h **** static __INLINE void __NOP()                      { __ASM volatile ("nop"); }
 660:./cmsis_core/core_cm0.h **** static __INLINE void __WFI()                      { __ASM volatile ("wfi"); }
 661:./cmsis_core/core_cm0.h **** static __INLINE void __WFE()                      { __ASM volatile ("wfe"); }
 662:./cmsis_core/core_cm0.h **** static __INLINE void __SEV()                      { __ASM volatile ("sev"); }
 663:./cmsis_core/core_cm0.h **** static __INLINE void __ISB()                      { __ASM volatile ("isb"); }
 664:./cmsis_core/core_cm0.h **** static __INLINE void __DSB()                      { __ASM volatile ("dsb"); }
 665:./cmsis_core/core_cm0.h **** static __INLINE void __DMB()                      { __ASM volatile ("dmb"); }
 666:./cmsis_core/core_cm0.h **** 
 667:./cmsis_core/core_cm0.h **** 
 668:./cmsis_core/core_cm0.h **** /**
 669:./cmsis_core/core_cm0.h ****  * @brief  Return the Process Stack Pointer
 670:./cmsis_core/core_cm0.h ****  *
 671:./cmsis_core/core_cm0.h ****  * @return ProcessStackPointer
 672:./cmsis_core/core_cm0.h ****  *
 673:./cmsis_core/core_cm0.h ****  * Return the actual process stack pointer
 674:./cmsis_core/core_cm0.h ****  */
 675:./cmsis_core/core_cm0.h **** extern uint32_t __get_PSP(void);
 676:./cmsis_core/core_cm0.h **** 
 677:./cmsis_core/core_cm0.h **** /**
 678:./cmsis_core/core_cm0.h ****  * @brief  Set the Process Stack Pointer
 679:./cmsis_core/core_cm0.h ****  *
 680:./cmsis_core/core_cm0.h ****  * @param  topOfProcStack  Process Stack Pointer
ARM GAS  /tmp/ccGefySF.s 			page 14


 681:./cmsis_core/core_cm0.h ****  *
 682:./cmsis_core/core_cm0.h ****  * Assign the value ProcessStackPointer to the MSP 
 683:./cmsis_core/core_cm0.h ****  * (process stack pointer) Cortex processor register
 684:./cmsis_core/core_cm0.h ****  */
 685:./cmsis_core/core_cm0.h **** extern void __set_PSP(uint32_t topOfProcStack);
 686:./cmsis_core/core_cm0.h **** 
 687:./cmsis_core/core_cm0.h **** /**
 688:./cmsis_core/core_cm0.h ****  * @brief  Return the Main Stack Pointer
 689:./cmsis_core/core_cm0.h ****  *
 690:./cmsis_core/core_cm0.h ****  * @return Main Stack Pointer
 691:./cmsis_core/core_cm0.h ****  *
 692:./cmsis_core/core_cm0.h ****  * Return the current value of the MSP (main stack pointer)
 693:./cmsis_core/core_cm0.h ****  * Cortex processor register
 694:./cmsis_core/core_cm0.h ****  */
 695:./cmsis_core/core_cm0.h **** extern uint32_t __get_MSP(void);
 696:./cmsis_core/core_cm0.h **** 
 697:./cmsis_core/core_cm0.h **** /**
 698:./cmsis_core/core_cm0.h ****  * @brief  Set the Main Stack Pointer
 699:./cmsis_core/core_cm0.h ****  *
 700:./cmsis_core/core_cm0.h ****  * @param  topOfMainStack  Main Stack Pointer
 701:./cmsis_core/core_cm0.h ****  *
 702:./cmsis_core/core_cm0.h ****  * Assign the value mainStackPointer to the MSP 
 703:./cmsis_core/core_cm0.h ****  * (main stack pointer) Cortex processor register
 704:./cmsis_core/core_cm0.h ****  */
 705:./cmsis_core/core_cm0.h **** extern void __set_MSP(uint32_t topOfMainStack);
 706:./cmsis_core/core_cm0.h **** 
 707:./cmsis_core/core_cm0.h **** /**
 708:./cmsis_core/core_cm0.h ****  * @brief  Return the Priority Mask value
 709:./cmsis_core/core_cm0.h ****  *
 710:./cmsis_core/core_cm0.h ****  * @return PriMask
 711:./cmsis_core/core_cm0.h ****  *
 712:./cmsis_core/core_cm0.h ****  * Return state of the priority mask bit from the priority mask register
 713:./cmsis_core/core_cm0.h ****  */
 714:./cmsis_core/core_cm0.h **** extern uint32_t  __get_PRIMASK(void);
 715:./cmsis_core/core_cm0.h **** 
 716:./cmsis_core/core_cm0.h **** /**
 717:./cmsis_core/core_cm0.h ****  * @brief  Set the Priority Mask value
 718:./cmsis_core/core_cm0.h ****  *
 719:./cmsis_core/core_cm0.h ****  * @param  priMask  PriMask
 720:./cmsis_core/core_cm0.h ****  *
 721:./cmsis_core/core_cm0.h ****  * Set the priority mask bit in the priority mask register
 722:./cmsis_core/core_cm0.h ****  */
 723:./cmsis_core/core_cm0.h **** extern void __set_PRIMASK(uint32_t priMask);
 724:./cmsis_core/core_cm0.h **** 
 725:./cmsis_core/core_cm0.h **** /**
 726:./cmsis_core/core_cm0.h ****  * @brief  Return the Control Register value
 727:./cmsis_core/core_cm0.h **** * 
 728:./cmsis_core/core_cm0.h **** *  @return Control value
 729:./cmsis_core/core_cm0.h ****  *
 730:./cmsis_core/core_cm0.h ****  * Return the content of the control register
 731:./cmsis_core/core_cm0.h ****  */
 732:./cmsis_core/core_cm0.h **** extern uint32_t __get_CONTROL(void);
 733:./cmsis_core/core_cm0.h **** 
 734:./cmsis_core/core_cm0.h **** /**
 735:./cmsis_core/core_cm0.h ****  * @brief  Set the Control Register value
 736:./cmsis_core/core_cm0.h ****  *
 737:./cmsis_core/core_cm0.h ****  * @param  control  Control value
ARM GAS  /tmp/ccGefySF.s 			page 15


 738:./cmsis_core/core_cm0.h ****  *
 739:./cmsis_core/core_cm0.h ****  * Set the control register
 740:./cmsis_core/core_cm0.h ****  */
 741:./cmsis_core/core_cm0.h **** extern void __set_CONTROL(uint32_t control);
 742:./cmsis_core/core_cm0.h **** 
 743:./cmsis_core/core_cm0.h **** /**
 744:./cmsis_core/core_cm0.h ****  * @brief  Reverse byte order in integer value
 745:./cmsis_core/core_cm0.h ****  *
 746:./cmsis_core/core_cm0.h ****  * @param  value  value to reverse
 747:./cmsis_core/core_cm0.h ****  * @return        reversed value
 748:./cmsis_core/core_cm0.h ****  *
 749:./cmsis_core/core_cm0.h ****  * Reverse byte order in integer value
 750:./cmsis_core/core_cm0.h ****  */
 751:./cmsis_core/core_cm0.h **** extern uint32_t __REV(uint32_t value);
 752:./cmsis_core/core_cm0.h **** 
 753:./cmsis_core/core_cm0.h **** /**
 754:./cmsis_core/core_cm0.h ****  * @brief  Reverse byte order in unsigned short value
 755:./cmsis_core/core_cm0.h ****  *
 756:./cmsis_core/core_cm0.h ****  * @param  value  value to reverse
 757:./cmsis_core/core_cm0.h ****  * @return        reversed value
 758:./cmsis_core/core_cm0.h ****  *
 759:./cmsis_core/core_cm0.h ****  * Reverse byte order in unsigned short value
 760:./cmsis_core/core_cm0.h ****  */
 761:./cmsis_core/core_cm0.h **** extern uint32_t __REV16(uint16_t value);
 762:./cmsis_core/core_cm0.h **** 
 763:./cmsis_core/core_cm0.h **** /**
 764:./cmsis_core/core_cm0.h ****  * @brief  Reverse byte order in signed short value with sign extension to integer
 765:./cmsis_core/core_cm0.h ****  *
 766:./cmsis_core/core_cm0.h ****  * @param  value  value to reverse
 767:./cmsis_core/core_cm0.h ****  * @return        reversed value
 768:./cmsis_core/core_cm0.h ****  *
 769:./cmsis_core/core_cm0.h ****  * Reverse byte order in signed short value with sign extension to integer
 770:./cmsis_core/core_cm0.h ****  */
 771:./cmsis_core/core_cm0.h **** extern int32_t __REVSH(int16_t value);
 772:./cmsis_core/core_cm0.h **** 
 773:./cmsis_core/core_cm0.h **** 
 774:./cmsis_core/core_cm0.h **** #elif (defined (__TASKING__)) /*------------------ TASKING Compiler ---------------------*/
 775:./cmsis_core/core_cm0.h **** /* TASKING carm specific functions */
 776:./cmsis_core/core_cm0.h **** 
 777:./cmsis_core/core_cm0.h **** /*
 778:./cmsis_core/core_cm0.h ****  * The CMSIS functions have been implemented as intrinsics in the compiler.
 779:./cmsis_core/core_cm0.h ****  * Please use "carm -?i" to get an up to date list of all instrinsics,
 780:./cmsis_core/core_cm0.h ****  * Including the CMSIS ones.
 781:./cmsis_core/core_cm0.h ****  */
 782:./cmsis_core/core_cm0.h **** 
 783:./cmsis_core/core_cm0.h **** #endif
 784:./cmsis_core/core_cm0.h **** 
 785:./cmsis_core/core_cm0.h **** 
 786:./cmsis_core/core_cm0.h **** /** @addtogroup CMSIS_CM0_Core_FunctionInterface CMSIS CM0 Core Function Interface
 787:./cmsis_core/core_cm0.h ****   Core  Function Interface containing:
 788:./cmsis_core/core_cm0.h ****   - Core NVIC Functions
 789:./cmsis_core/core_cm0.h ****   - Core SysTick Functions
 790:./cmsis_core/core_cm0.h ****   - Core Reset Functions
 791:./cmsis_core/core_cm0.h **** */
 792:./cmsis_core/core_cm0.h **** /*@{*/
 793:./cmsis_core/core_cm0.h **** 
 794:./cmsis_core/core_cm0.h **** /* ##########################   NVIC functions  #################################### */
ARM GAS  /tmp/ccGefySF.s 			page 16


 795:./cmsis_core/core_cm0.h **** 
 796:./cmsis_core/core_cm0.h **** /* Interrupt Priorities are WORD accessible only under ARMv6M                   */
 797:./cmsis_core/core_cm0.h **** /* The following MACROS handle generation of the register offset and byte masks */
 798:./cmsis_core/core_cm0.h **** #define _BIT_SHIFT(IRQn)         (  (((uint32_t)(IRQn)       )    &  0x03) * 8 )
 799:./cmsis_core/core_cm0.h **** #define _SHP_IDX(IRQn)           ( ((((uint32_t)(IRQn) & 0x0F)-8) >>    2)     )
 800:./cmsis_core/core_cm0.h **** #define _IP_IDX(IRQn)            (   ((uint32_t)(IRQn)            >>    2)     )
 801:./cmsis_core/core_cm0.h **** 
 802:./cmsis_core/core_cm0.h **** 
 803:./cmsis_core/core_cm0.h **** /**
 804:./cmsis_core/core_cm0.h ****  * @brief  Enable Interrupt in NVIC Interrupt Controller
 805:./cmsis_core/core_cm0.h ****  *
 806:./cmsis_core/core_cm0.h ****  * @param  IRQn   The positive number of the external interrupt to enable
 807:./cmsis_core/core_cm0.h ****  *
 808:./cmsis_core/core_cm0.h ****  * Enable a device specific interupt in the NVIC interrupt controller.
 809:./cmsis_core/core_cm0.h ****  * The interrupt number cannot be a negative value.
 810:./cmsis_core/core_cm0.h ****  */
 811:./cmsis_core/core_cm0.h **** static __INLINE void NVIC_EnableIRQ(IRQn_Type IRQn)
 812:./cmsis_core/core_cm0.h **** {
  62              		.loc 1 812 0
  63              		.cfi_startproc
  64 0000 82B0     		sub	sp, sp, #8	@,,
  65              	.LCFI0:
  66              		.cfi_def_cfa_offset 8
  67 0002 0200     		movs	r2, r0	@ tmp116, IRQn
  68 0004 6B46     		mov	r3, sp	@ tmp122,
  69 0006 0733     		adds	r3, r3, #7	@ tmp117,
  70 0008 1A70     		strb	r2, [r3]	@ tmp118, IRQn
 813:./cmsis_core/core_cm0.h ****   NVIC->ISER[0] = (1 << ((uint32_t)(IRQn) & 0x1F)); /* enable interrupt */
  71              		.loc 1 813 0
  72 000a 074B     		ldr	r3, .L2	@ D.5489,
  73 000c 6A46     		mov	r2, sp	@ tmp123,
  74 000e 0732     		adds	r2, r2, #7	@ tmp119,
  75 0010 1278     		ldrb	r2, [r2]	@ D.5490, IRQn
  76 0012 1100     		movs	r1, r2	@ D.5491, D.5490
  77 0014 1F22     		movs	r2, #31	@ tmp120,
  78 0016 0A40     		ands	r2, r1	@ D.5491, D.5491
  79 0018 0121     		movs	r1, #1	@ tmp121,
  80 001a 9140     		lsls	r1, r1, r2	@ D.5492, D.5492, D.5491
  81 001c 0A00     		movs	r2, r1	@ D.5492, D.5492
  82 001e 1A60     		str	r2, [r3]	@ D.5491, _1->ISER
 814:./cmsis_core/core_cm0.h **** }
  83              		.loc 1 814 0
  84 0020 C046     		nop
  85 0022 02B0     		add	sp, sp, #8	@,,
  86              		@ sp needed	@
  87 0024 7047     		bx	lr
  88              	.L3:
  89 0026 C046     		.align	2
  90              	.L2:
  91 0028 00E100E0 		.word	-536813312
  92              		.cfi_endproc
  93              	.LFE11:
  94              		.size	NVIC_EnableIRQ, .-NVIC_EnableIRQ
  95              		.section	.text.NVIC_SetPriority,"ax",%progbits
  96              		.align	2
  97              		.code	16
  98              		.thumb_func
ARM GAS  /tmp/ccGefySF.s 			page 17


  99              		.type	NVIC_SetPriority, %function
 100              	NVIC_SetPriority:
 101              	.LFB16:
 815:./cmsis_core/core_cm0.h **** 
 816:./cmsis_core/core_cm0.h **** /**
 817:./cmsis_core/core_cm0.h ****  * @brief  Disable the interrupt line for external interrupt specified
 818:./cmsis_core/core_cm0.h ****  * 
 819:./cmsis_core/core_cm0.h ****  * @param  IRQn   The positive number of the external interrupt to disable
 820:./cmsis_core/core_cm0.h ****  * 
 821:./cmsis_core/core_cm0.h ****  * Disable a device specific interupt in the NVIC interrupt controller.
 822:./cmsis_core/core_cm0.h ****  * The interrupt number cannot be a negative value.
 823:./cmsis_core/core_cm0.h ****  */
 824:./cmsis_core/core_cm0.h **** static __INLINE void NVIC_DisableIRQ(IRQn_Type IRQn)
 825:./cmsis_core/core_cm0.h **** {
 826:./cmsis_core/core_cm0.h ****   NVIC->ICER[0] = (1 << ((uint32_t)(IRQn) & 0x1F)); /* disable interrupt */
 827:./cmsis_core/core_cm0.h **** }
 828:./cmsis_core/core_cm0.h **** 
 829:./cmsis_core/core_cm0.h **** /**
 830:./cmsis_core/core_cm0.h ****  * @brief  Read the interrupt pending bit for a device specific interrupt source
 831:./cmsis_core/core_cm0.h ****  * 
 832:./cmsis_core/core_cm0.h ****  * @param  IRQn    The number of the device specifc interrupt
 833:./cmsis_core/core_cm0.h ****  * @return         1 = interrupt pending, 0 = interrupt not pending
 834:./cmsis_core/core_cm0.h ****  *
 835:./cmsis_core/core_cm0.h ****  * Read the pending register in NVIC and return 1 if its status is pending, 
 836:./cmsis_core/core_cm0.h ****  * otherwise it returns 0
 837:./cmsis_core/core_cm0.h ****  */
 838:./cmsis_core/core_cm0.h **** static __INLINE uint32_t NVIC_GetPendingIRQ(IRQn_Type IRQn)
 839:./cmsis_core/core_cm0.h **** {
 840:./cmsis_core/core_cm0.h ****   return((uint32_t) ((NVIC->ISPR[0] & (1 << ((uint32_t)(IRQn) & 0x1F)))?1:0)); /* Return 1 if pendi
 841:./cmsis_core/core_cm0.h **** }
 842:./cmsis_core/core_cm0.h **** 
 843:./cmsis_core/core_cm0.h **** /**
 844:./cmsis_core/core_cm0.h ****  * @brief  Set the pending bit for an external interrupt
 845:./cmsis_core/core_cm0.h ****  * 
 846:./cmsis_core/core_cm0.h ****  * @param  IRQn    The number of the interrupt for set pending
 847:./cmsis_core/core_cm0.h ****  *
 848:./cmsis_core/core_cm0.h ****  * Set the pending bit for the specified interrupt.
 849:./cmsis_core/core_cm0.h ****  * The interrupt number cannot be a negative value.
 850:./cmsis_core/core_cm0.h ****  */
 851:./cmsis_core/core_cm0.h **** static __INLINE void NVIC_SetPendingIRQ(IRQn_Type IRQn)
 852:./cmsis_core/core_cm0.h **** {
 853:./cmsis_core/core_cm0.h ****   NVIC->ISPR[0] = (1 << ((uint32_t)(IRQn) & 0x1F)); /* set interrupt pending */
 854:./cmsis_core/core_cm0.h **** }
 855:./cmsis_core/core_cm0.h **** 
 856:./cmsis_core/core_cm0.h **** /**
 857:./cmsis_core/core_cm0.h ****  * @brief  Clear the pending bit for an external interrupt
 858:./cmsis_core/core_cm0.h ****  *
 859:./cmsis_core/core_cm0.h ****  * @param  IRQn    The number of the interrupt for clear pending
 860:./cmsis_core/core_cm0.h ****  *
 861:./cmsis_core/core_cm0.h ****  * Clear the pending bit for the specified interrupt. 
 862:./cmsis_core/core_cm0.h ****  * The interrupt number cannot be a negative value.
 863:./cmsis_core/core_cm0.h ****  */
 864:./cmsis_core/core_cm0.h **** static __INLINE void NVIC_ClearPendingIRQ(IRQn_Type IRQn)
 865:./cmsis_core/core_cm0.h **** {
 866:./cmsis_core/core_cm0.h ****   NVIC->ICPR[0] = (1 << ((uint32_t)(IRQn) & 0x1F)); /* Clear pending interrupt */
 867:./cmsis_core/core_cm0.h **** }
 868:./cmsis_core/core_cm0.h **** 
ARM GAS  /tmp/ccGefySF.s 			page 18


 869:./cmsis_core/core_cm0.h **** /**
 870:./cmsis_core/core_cm0.h ****  * @brief  Set the priority for an interrupt
 871:./cmsis_core/core_cm0.h ****  *
 872:./cmsis_core/core_cm0.h ****  * @param  IRQn      The number of the interrupt for set priority
 873:./cmsis_core/core_cm0.h ****  * @param  priority  The priority to set
 874:./cmsis_core/core_cm0.h ****  *
 875:./cmsis_core/core_cm0.h ****  * Set the priority for the specified interrupt. The interrupt 
 876:./cmsis_core/core_cm0.h ****  * number can be positive to specify an external (device specific) 
 877:./cmsis_core/core_cm0.h ****  * interrupt, or negative to specify an internal (core) interrupt.
 878:./cmsis_core/core_cm0.h ****  *
 879:./cmsis_core/core_cm0.h ****  * Note: The priority cannot be set for every core interrupt.
 880:./cmsis_core/core_cm0.h ****  */
 881:./cmsis_core/core_cm0.h **** /*
 882:./cmsis_core/core_cm0.h **** static __INLINE void NVIC_SetPriority(IRQn_Type IRQn, uint32_t priority)
 883:./cmsis_core/core_cm0.h **** {
 884:./cmsis_core/core_cm0.h ****   if(IRQn < 0) {
 885:./cmsis_core/core_cm0.h ****     SCB->SHP[_SHP_IDX(IRQn)] = (SCB->SHP[_SHP_IDX(IRQn)] & ~(0xFF << _BIT_SHIFT(IRQn))) | 
 886:./cmsis_core/core_cm0.h ****         (((priority << (8 - __NVIC_PRIO_BITS)) & 0xFF) << _BIT_SHIFT(IRQn)); }
 887:./cmsis_core/core_cm0.h ****   else {
 888:./cmsis_core/core_cm0.h ****     NVIC->IPR[_IP_IDX(IRQn)] = (NVIC->IPR[_IP_IDX(IRQn)] & ~(0xFF << _BIT_SHIFT(IRQn))) |
 889:./cmsis_core/core_cm0.h ****         (((priority << (8 - __NVIC_PRIO_BITS)) & 0xFF) << _BIT_SHIFT(IRQn)); }
 890:./cmsis_core/core_cm0.h **** }
 891:./cmsis_core/core_cm0.h **** */
 892:./cmsis_core/core_cm0.h **** static __INLINE void NVIC_SetPriority(IRQn_Type IRQn, uint32_t priority)
 893:./cmsis_core/core_cm0.h **** {
 102              		.loc 1 893 0
 103              		.cfi_startproc
 104 0000 30B5     		push	{r4, r5, lr}	@
 105              	.LCFI1:
 106              		.cfi_def_cfa_offset 12
 107              		.cfi_offset 4, -12
 108              		.cfi_offset 5, -8
 109              		.cfi_offset 14, -4
 110 0002 83B0     		sub	sp, sp, #12	@,,
 111              	.LCFI2:
 112              		.cfi_def_cfa_offset 24
 113 0004 0200     		movs	r2, r0	@ tmp162, IRQn
 114 0006 0091     		str	r1, [sp]	@ priority, priority
 115 0008 6B46     		mov	r3, sp	@ tmp199,
 116 000a 0733     		adds	r3, r3, #7	@ tmp163,
 117 000c 1A70     		strb	r2, [r3]	@ tmp164, IRQn
 894:./cmsis_core/core_cm0.h ****   if(IRQn < 0) {
 118              		.loc 1 894 0
 119 000e 6B46     		mov	r3, sp	@ tmp200,
 120 0010 0733     		adds	r3, r3, #7	@ tmp165,
 121 0012 1B78     		ldrb	r3, [r3]	@ tmp166, IRQn
 122 0014 7F2B     		cmp	r3, #127	@ tmp166,
 123 0016 36D9     		bls	.L5	@,
 895:./cmsis_core/core_cm0.h ****     SCB->SHP[_SHP_IDX(IRQn)] = (SCB->SHP[_SHP_IDX(IRQn)] & ~(0xFF << _BIT_SHIFT(IRQn))) |
 124              		.loc 1 895 0
 125 0018 324C     		ldr	r4, .L8	@ D.5493,
 126 001a 6B46     		mov	r3, sp	@ tmp201,
 127 001c 0733     		adds	r3, r3, #7	@ tmp167,
 128 001e 1B78     		ldrb	r3, [r3]	@ D.5494, IRQn
 129 0020 1A00     		movs	r2, r3	@ D.5495, D.5494
 130 0022 0F23     		movs	r3, #15	@ tmp168,
 131 0024 1340     		ands	r3, r2	@ D.5495, D.5495
ARM GAS  /tmp/ccGefySF.s 			page 19


 132 0026 083B     		subs	r3, r3, #8	@ D.5495,
 133 0028 9908     		lsrs	r1, r3, #2	@ D.5495, D.5495,
 134 002a 2E4A     		ldr	r2, .L8	@ D.5493,
 135 002c 6B46     		mov	r3, sp	@ tmp202,
 136 002e 0733     		adds	r3, r3, #7	@ tmp169,
 137 0030 1B78     		ldrb	r3, [r3]	@ D.5494, IRQn
 138 0032 1800     		movs	r0, r3	@ D.5495, D.5494
 139 0034 0F23     		movs	r3, #15	@ tmp170,
 140 0036 0340     		ands	r3, r0	@ D.5495, D.5495
 141 0038 083B     		subs	r3, r3, #8	@ D.5495,
 142 003a 9B08     		lsrs	r3, r3, #2	@ D.5495, D.5495,
 143 003c 0633     		adds	r3, r3, #6	@ tmp171,
 144 003e 9B00     		lsls	r3, r3, #2	@ tmp172, tmp171,
 145 0040 D318     		adds	r3, r2, r3	@ tmp173, D.5493, tmp172
 146 0042 0433     		adds	r3, r3, #4	@ tmp174,
 147 0044 1B68     		ldr	r3, [r3]	@ D.5495, _9->SHP
 148 0046 6A46     		mov	r2, sp	@ tmp203,
 149 0048 0732     		adds	r2, r2, #7	@ tmp175,
 150 004a 1278     		ldrb	r2, [r2]	@ D.5494, IRQn
 151 004c 1000     		movs	r0, r2	@ D.5495, D.5494
 152 004e 0322     		movs	r2, #3	@ tmp176,
 153 0050 0240     		ands	r2, r0	@ D.5495, D.5495
 154 0052 D200     		lsls	r2, r2, #3	@ D.5495, D.5495,
 155 0054 FF20     		movs	r0, #255	@ tmp177,
 156 0056 9040     		lsls	r0, r0, r2	@ D.5496, D.5496, D.5495
 157 0058 0200     		movs	r2, r0	@ D.5496, D.5496
 158 005a D243     		mvns	r2, r2	@ D.5496, D.5496
 159 005c 1A40     		ands	r2, r3	@ D.5495, D.5495
 896:./cmsis_core/core_cm0.h ****         (((priority << (8 - __NVIC_PRIO_BITS)) & 0xFF) << _BIT_SHIFT(IRQn)); }
 160              		.loc 1 896 0
 161 005e 009B     		ldr	r3, [sp]	@ tmp178, priority
 162 0060 9B01     		lsls	r3, r3, #6	@ D.5495, tmp178,
 163 0062 FF20     		movs	r0, #255	@ tmp179,
 164 0064 1840     		ands	r0, r3	@ D.5495, D.5495
 165 0066 6B46     		mov	r3, sp	@ tmp205,
 166 0068 0733     		adds	r3, r3, #7	@ tmp180,
 167 006a 1B78     		ldrb	r3, [r3]	@ D.5494, IRQn
 168 006c 1D00     		movs	r5, r3	@ D.5495, D.5494
 169 006e 0323     		movs	r3, #3	@ tmp181,
 170 0070 2B40     		ands	r3, r5	@ D.5495, D.5495
 171 0072 DB00     		lsls	r3, r3, #3	@ D.5495, D.5495,
 172 0074 9840     		lsls	r0, r0, r3	@ D.5495, D.5495, D.5495
 173 0076 0300     		movs	r3, r0	@ D.5495, D.5495
 895:./cmsis_core/core_cm0.h ****     SCB->SHP[_SHP_IDX(IRQn)] = (SCB->SHP[_SHP_IDX(IRQn)] & ~(0xFF << _BIT_SHIFT(IRQn))) |
 174              		.loc 1 895 0
 175 0078 1A43     		orrs	r2, r3	@ D.5495, D.5495
 176 007a 8B1D     		adds	r3, r1, #6	@ tmp182, D.5495,
 177 007c 9B00     		lsls	r3, r3, #2	@ tmp183, tmp182,
 178 007e E318     		adds	r3, r4, r3	@ tmp184, D.5493, tmp183
 179 0080 0433     		adds	r3, r3, #4	@ tmp185,
 180 0082 1A60     		str	r2, [r3]	@ D.5495, _3->SHP
 897:./cmsis_core/core_cm0.h ****   else {
 898:./cmsis_core/core_cm0.h ****     NVIC->IP[_IP_IDX(IRQn)] = (NVIC->IP[_IP_IDX(IRQn)] & ~(0xFF << _BIT_SHIFT(IRQn))) |
 899:./cmsis_core/core_cm0.h ****         (((priority << (8 - __NVIC_PRIO_BITS)) & 0xFF) << _BIT_SHIFT(IRQn)); }
 900:./cmsis_core/core_cm0.h **** }
 181              		.loc 1 900 0
 182 0084 2BE0     		b	.L7	@
ARM GAS  /tmp/ccGefySF.s 			page 20


 183              	.L5:
 898:./cmsis_core/core_cm0.h ****         (((priority << (8 - __NVIC_PRIO_BITS)) & 0xFF) << _BIT_SHIFT(IRQn)); }
 184              		.loc 1 898 0
 185 0086 184C     		ldr	r4, .L8+4	@ D.5497,
 186 0088 6B46     		mov	r3, sp	@ tmp207,
 187 008a 0733     		adds	r3, r3, #7	@ tmp186,
 188 008c 1B78     		ldrb	r3, [r3]	@ D.5495, IRQn
 189 008e 5BB2     		sxtb	r3, r3	@ D.5495, D.5495
 190 0090 9B08     		lsrs	r3, r3, #2	@ D.5495, D.5495,
 191 0092 1549     		ldr	r1, .L8+4	@ D.5497,
 192 0094 6A46     		mov	r2, sp	@ tmp208,
 193 0096 0732     		adds	r2, r2, #7	@ tmp187,
 194 0098 1278     		ldrb	r2, [r2]	@ D.5495, IRQn
 195 009a 52B2     		sxtb	r2, r2	@ D.5495, D.5495
 196 009c 9208     		lsrs	r2, r2, #2	@ D.5495, D.5495,
 197 009e C032     		adds	r2, r2, #192	@ tmp188,
 198 00a0 9200     		lsls	r2, r2, #2	@ tmp189, tmp188,
 199 00a2 5258     		ldr	r2, [r2, r1]	@ D.5495, _38->IP
 200 00a4 6946     		mov	r1, sp	@ tmp209,
 201 00a6 0731     		adds	r1, r1, #7	@ tmp190,
 202 00a8 0978     		ldrb	r1, [r1]	@ D.5494, IRQn
 203 00aa 0800     		movs	r0, r1	@ D.5495, D.5494
 204 00ac 0321     		movs	r1, #3	@ tmp191,
 205 00ae 0140     		ands	r1, r0	@ D.5495, D.5495
 206 00b0 C900     		lsls	r1, r1, #3	@ D.5495, D.5495,
 207 00b2 FF20     		movs	r0, #255	@ tmp192,
 208 00b4 8840     		lsls	r0, r0, r1	@ D.5496, D.5496, D.5495
 209 00b6 0100     		movs	r1, r0	@ D.5496, D.5496
 210 00b8 C943     		mvns	r1, r1	@ D.5496, D.5496
 211 00ba 1140     		ands	r1, r2	@ D.5495, D.5495
 899:./cmsis_core/core_cm0.h **** }
 212              		.loc 1 899 0
 213 00bc 009A     		ldr	r2, [sp]	@ tmp193, priority
 214 00be 9201     		lsls	r2, r2, #6	@ D.5495, tmp193,
 215 00c0 FF20     		movs	r0, #255	@ tmp194,
 216 00c2 1040     		ands	r0, r2	@ D.5495, D.5495
 217 00c4 6A46     		mov	r2, sp	@ tmp211,
 218 00c6 0732     		adds	r2, r2, #7	@ tmp195,
 219 00c8 1278     		ldrb	r2, [r2]	@ D.5494, IRQn
 220 00ca 1500     		movs	r5, r2	@ D.5495, D.5494
 221 00cc 0322     		movs	r2, #3	@ tmp196,
 222 00ce 2A40     		ands	r2, r5	@ D.5495, D.5495
 223 00d0 D200     		lsls	r2, r2, #3	@ D.5495, D.5495,
 224 00d2 9040     		lsls	r0, r0, r2	@ D.5495, D.5495, D.5495
 225 00d4 0200     		movs	r2, r0	@ D.5495, D.5495
 898:./cmsis_core/core_cm0.h ****         (((priority << (8 - __NVIC_PRIO_BITS)) & 0xFF) << _BIT_SHIFT(IRQn)); }
 226              		.loc 1 898 0
 227 00d6 0A43     		orrs	r2, r1	@ D.5495, D.5495
 228 00d8 C033     		adds	r3, r3, #192	@ tmp197,
 229 00da 9B00     		lsls	r3, r3, #2	@ tmp198, tmp197,
 230 00dc 1A51     		str	r2, [r3, r4]	@ D.5495, _35->IP
 231              	.L7:
 232              		.loc 1 900 0
 233 00de C046     		nop
 234 00e0 03B0     		add	sp, sp, #12	@,,
 235              		@ sp needed	@
 236 00e2 30BD     		pop	{r4, r5, pc}
ARM GAS  /tmp/ccGefySF.s 			page 21


 237              	.L9:
 238              		.align	2
 239              	.L8:
 240 00e4 00ED00E0 		.word	-536810240
 241 00e8 00E100E0 		.word	-536813312
 242              		.cfi_endproc
 243              	.LFE16:
 244              		.size	NVIC_SetPriority, .-NVIC_SetPriority
 245              		.comm	ptx1,4,4
 246              		.comm	ptx1_pckt_index,4,4
 247              		.comm	prx1,4,4
 248              		.comm	ptx2,4,4
 249              		.comm	ptx2_pckt_index,4,4
 250              		.comm	prx2,4,4
 251              		.global	pckt_gps_ready
 252              		.section	.bss.pckt_gps_ready,"aw",%nobits
 253              		.type	pckt_gps_ready, %object
 254              		.size	pckt_gps_ready, 1
 255              	pckt_gps_ready:
 256 0000 00       		.space	1
 257              		.global	usart_mode
 258              		.section	.data.usart_mode,"aw",%progbits
 259              		.type	usart_mode, %object
 260              		.size	usart_mode, 1
 261              	usart_mode:
 262 0000 01       		.byte	1
 263              		.section	.text.Usart1Mode,"ax",%progbits
 264              		.align	2
 265              		.global	Usart1Mode
 266              		.code	16
 267              		.thumb_func
 268              		.type	Usart1Mode, %function
 269              	Usart1Mode:
 270              	.LFB20:
 271              		.file 2 "src/uart.c"
   1:src/uart.c    **** /**
   2:src/uart.c    ****   ******************************************************************************
   3:src/uart.c    ****   * @file    Template_2/stm32f0_uart.c
   4:src/uart.c    ****   * @author  Nahuel
   5:src/uart.c    ****   * @version V1.0
   6:src/uart.c    ****   * @date    22-August-2014
   7:src/uart.c    ****   * @brief   UART functions.
   8:src/uart.c    ****   ******************************************************************************
   9:src/uart.c    ****   * @attention
  10:src/uart.c    ****   *
  11:src/uart.c    ****   * Use this functions to configure serial comunication interface (UART).
  12:src/uart.c    ****   *
  13:src/uart.c    ****   ******************************************************************************
  14:src/uart.c    ****   */
  15:src/uart.c    **** 
  16:src/uart.c    **** /* Includes ------------------------------------------------------------------*/
  17:src/uart.c    **** #include "hard.h"
  18:src/uart.c    **** #include "stm32f0xx.h"
  19:src/uart.c    **** #include "uart.h"
  20:src/uart.c    **** 
  21:src/uart.c    **** #include "gps_vktel.h"
  22:src/uart.c    **** 
ARM GAS  /tmp/ccGefySF.s 			page 22


  23:src/uart.c    **** #include <string.h>
  24:src/uart.c    **** 
  25:src/uart.c    **** 
  26:src/uart.c    **** 
  27:src/uart.c    **** 
  28:src/uart.c    **** //--- Private typedef ---//
  29:src/uart.c    **** //--- Private define ---//
  30:src/uart.c    **** //--- Private macro ---//
  31:src/uart.c    **** 
  32:src/uart.c    **** //#define USE_USARTx_TIMEOUT
  33:src/uart.c    **** 
  34:src/uart.c    **** 
  35:src/uart.c    **** 
  36:src/uart.c    **** //--- Externals variables ---//
  37:src/uart.c    **** 
  38:src/uart.c    **** //--- Externals del GPS ---//
  39:src/uart.c    **** extern volatile unsigned char usart1_mini_timeout;
  40:src/uart.c    **** extern volatile unsigned char usart1_pckt_ready;
  41:src/uart.c    **** extern volatile unsigned char usart1_have_data;
  42:src/uart.c    **** 
  43:src/uart.c    **** #ifdef USE_GSM_GATEWAY
  44:src/uart.c    **** extern volatile unsigned char usart2_mini_timeout;
  45:src/uart.c    **** extern volatile unsigned char usart2_pckt_ready;
  46:src/uart.c    **** extern volatile unsigned char usart2_have_data;
  47:src/uart.c    **** #endif
  48:src/uart.c    **** 
  49:src/uart.c    **** //#define data512		data1		//en rx es la trama recibida; en tx es la trama a enviar
  50:src/uart.c    **** //#define data256		data		//en rx son los valores del channel elegido
  51:src/uart.c    **** //volatile unsigned char * pdmx;
  52:src/uart.c    **** 
  53:src/uart.c    **** extern volatile unsigned char tx1buff[];
  54:src/uart.c    **** extern volatile unsigned char rx1buff[];
  55:src/uart.c    **** 
  56:src/uart.c    **** extern volatile unsigned char tx2buff[];
  57:src/uart.c    **** extern volatile unsigned char rx2buff[];
  58:src/uart.c    **** 
  59:src/uart.c    **** //--- Private variables ---//
  60:src/uart.c    **** volatile unsigned char * ptx1;
  61:src/uart.c    **** volatile unsigned char * ptx1_pckt_index;
  62:src/uart.c    **** volatile unsigned char * prx1;
  63:src/uart.c    **** 
  64:src/uart.c    **** volatile unsigned char * ptx2;
  65:src/uart.c    **** volatile unsigned char * ptx2_pckt_index;
  66:src/uart.c    **** volatile unsigned char * prx2;
  67:src/uart.c    **** 
  68:src/uart.c    **** volatile unsigned char pckt_gps_ready = 0;
  69:src/uart.c    **** volatile unsigned char usart_mode = USART_GPS_MODE;
  70:src/uart.c    **** 
  71:src/uart.c    **** //Reception buffer.
  72:src/uart.c    **** 
  73:src/uart.c    **** //Transmission buffer.
  74:src/uart.c    **** 
  75:src/uart.c    **** //--- Private function prototypes ---//
  76:src/uart.c    **** //--- Private functions ---//
  77:src/uart.c    **** 
  78:src/uart.c    **** //cambio de modo al USART del GPS al GSM
  79:src/uart.c    **** //le paso el modo o le pregunto
ARM GAS  /tmp/ccGefySF.s 			page 23


  80:src/uart.c    **** //responde modo
  81:src/uart.c    **** unsigned char Usart1Mode (unsigned char new_mode)
  82:src/uart.c    **** {
 272              		.loc 2 82 0
 273              		.cfi_startproc
 274 0000 84B0     		sub	sp, sp, #16	@,,
 275              	.LCFI3:
 276              		.cfi_def_cfa_offset 16
 277 0002 0200     		movs	r2, r0	@ tmp142, new_mode
 278 0004 6B46     		mov	r3, sp	@ tmp202,
 279 0006 0733     		adds	r3, r3, #7	@ tmp143,
 280 0008 1A70     		strb	r2, [r3]	@ tmp144, new_mode
  83:src/uart.c    **** 	unsigned int temp_int;
  84:src/uart.c    **** 	unsigned int temp_gpio;
  85:src/uart.c    **** 
  86:src/uart.c    **** 	temp_int = USART1->CR1;
 281              		.loc 2 86 0
 282 000a 3A4B     		ldr	r3, .L14	@ D.5498,
 283 000c 1B68     		ldr	r3, [r3]	@ tmp145, _3->CR1
 284 000e 0393     		str	r3, [sp, #12]	@ tmp145, temp_int
  87:src/uart.c    **** 	USART1->CR1 &= 0xFFFFFF6F;		//limpio flags IE
 285              		.loc 2 87 0
 286 0010 384B     		ldr	r3, .L14	@ D.5498,
 287 0012 384A     		ldr	r2, .L14	@ D.5498,
 288 0014 1268     		ldr	r2, [r2]	@ D.5499, _7->CR1
 289 0016 9021     		movs	r1, #144	@ tmp146,
 290 0018 8A43     		bics	r2, r1	@ D.5499, tmp146
 291 001a 1A60     		str	r2, [r3]	@ D.5499, _6->CR1
  88:src/uart.c    **** 
  89:src/uart.c    **** 	if (new_mode == USART_GPS_MODE)
 292              		.loc 2 89 0
 293 001c 6B46     		mov	r3, sp	@ tmp203,
 294 001e 0733     		adds	r3, r3, #7	@ tmp147,
 295 0020 1B78     		ldrb	r3, [r3]	@ tmp148, new_mode
 296 0022 012B     		cmp	r3, #1	@ tmp148,
 297 0024 2BD1     		bne	.L11	@,
  90:src/uart.c    **** 	{
  91:src/uart.c    **** 		//config gpio A to Input
  92:src/uart.c    **** 		temp_gpio = GPIOA->MODER;		//2 bits por pin
 298              		.loc 2 92 0
 299 0026 9023     		movs	r3, #144	@ tmp197,
 300 0028 DB05     		lsls	r3, r3, #23	@ D.5500, tmp197,
 301 002a 1B68     		ldr	r3, [r3]	@ tmp149, _12->MODER
 302 002c 0293     		str	r3, [sp, #8]	@ tmp149, temp_gpio
  93:src/uart.c    **** 		temp_gpio &= 0xFFC3FFFF;		//PA9 PA10 input
 303              		.loc 2 93 0
 304 002e 029B     		ldr	r3, [sp, #8]	@ tmp151, temp_gpio
 305 0030 314A     		ldr	r2, .L14+4	@ tmp152,
 306 0032 1340     		ands	r3, r2	@ tmp150, tmp152
 307 0034 0293     		str	r3, [sp, #8]	@ tmp150, temp_gpio
  94:src/uart.c    **** 		temp_gpio |= 0x00000000;		//
  95:src/uart.c    **** 		GPIOA->MODER = temp_gpio;
 308              		.loc 2 95 0
 309 0036 9023     		movs	r3, #144	@ tmp198,
 310 0038 DB05     		lsls	r3, r3, #23	@ D.5500, tmp198,
 311 003a 029A     		ldr	r2, [sp, #8]	@ tmp153, temp_gpio
 312 003c 1A60     		str	r2, [r3]	@ tmp153, _16->MODER
ARM GAS  /tmp/ccGefySF.s 			page 24


  96:src/uart.c    **** 
  97:src/uart.c    **** 		GPIOA->AFR[1] &= 0xFFFFF00F;	//PA9 -> AF0 A10 -> AF0
 313              		.loc 2 97 0
 314 003e 9023     		movs	r3, #144	@ tmp199,
 315 0040 DB05     		lsls	r3, r3, #23	@ D.5500, tmp199,
 316 0042 9022     		movs	r2, #144	@ tmp200,
 317 0044 D205     		lsls	r2, r2, #23	@ D.5500, tmp200,
 318 0046 526A     		ldr	r2, [r2, #36]	@ D.5499, _19->AFR
 319 0048 2C49     		ldr	r1, .L14+8	@ tmp154,
 320 004a 0A40     		ands	r2, r1	@ D.5499, tmp154
 321 004c 5A62     		str	r2, [r3, #36]	@ D.5499, _18->AFR
  98:src/uart.c    **** 
  99:src/uart.c    **** 		//config gpio B to Alternative
 100:src/uart.c    **** 		temp_gpio = GPIOB->MODER;		//2 bits por pin
 322              		.loc 2 100 0
 323 004e 2C4B     		ldr	r3, .L14+12	@ D.5500,
 324 0050 1B68     		ldr	r3, [r3]	@ tmp155, _23->MODER
 325 0052 0293     		str	r3, [sp, #8]	@ tmp155, temp_gpio
 101:src/uart.c    **** 		temp_gpio &= 0xFFFF0FFF;		//PB6 PB7 alternative
 326              		.loc 2 101 0
 327 0054 029B     		ldr	r3, [sp, #8]	@ tmp157, temp_gpio
 328 0056 2B4A     		ldr	r2, .L14+16	@ tmp158,
 329 0058 1340     		ands	r3, r2	@ tmp156, tmp158
 330 005a 0293     		str	r3, [sp, #8]	@ tmp156, temp_gpio
 102:src/uart.c    **** 		temp_gpio |= 0x0000A000;		//
 331              		.loc 2 102 0
 332 005c 029B     		ldr	r3, [sp, #8]	@ tmp160, temp_gpio
 333 005e A022     		movs	r2, #160	@ tmp201,
 334 0060 1202     		lsls	r2, r2, #8	@ tmp161, tmp201,
 335 0062 1343     		orrs	r3, r2	@ tmp159, tmp161
 336 0064 0293     		str	r3, [sp, #8]	@ tmp159, temp_gpio
 103:src/uart.c    **** 		GPIOB->MODER = temp_gpio;
 337              		.loc 2 103 0
 338 0066 264B     		ldr	r3, .L14+12	@ D.5500,
 339 0068 029A     		ldr	r2, [sp, #8]	@ tmp162, temp_gpio
 340 006a 1A60     		str	r2, [r3]	@ tmp162, _27->MODER
 104:src/uart.c    **** 
 105:src/uart.c    **** 		GPIOB->AFR[0] &= 0x00FFFFFF;	//PB7 -> AF0 PB6 -> AF0
 341              		.loc 2 105 0
 342 006c 244B     		ldr	r3, .L14+12	@ D.5500,
 343 006e 244A     		ldr	r2, .L14+12	@ D.5500,
 344 0070 126A     		ldr	r2, [r2, #32]	@ D.5499, _30->AFR
 345 0072 1202     		lsls	r2, r2, #8	@ tmp163, D.5499,
 346 0074 120A     		lsrs	r2, r2, #8	@ D.5499, tmp163,
 347 0076 1A62     		str	r2, [r3, #32]	@ D.5499, _29->AFR
 106:src/uart.c    **** 
 107:src/uart.c    **** 		usart_mode = USART_GPS_MODE;
 348              		.loc 2 107 0
 349 0078 234B     		ldr	r3, .L14+20	@ tmp164,
 350 007a 0122     		movs	r2, #1	@ tmp165,
 351 007c 1A70     		strb	r2, [r3]	@ tmp166, usart_mode
 352              	.L11:
 108:src/uart.c    **** 	}
 109:src/uart.c    **** 
 110:src/uart.c    **** 	if (new_mode == USART_GSM_MODE)
 353              		.loc 2 110 0
 354 007e 6B46     		mov	r3, sp	@ tmp204,
ARM GAS  /tmp/ccGefySF.s 			page 25


 355 0080 0733     		adds	r3, r3, #7	@ tmp167,
 356 0082 1B78     		ldrb	r3, [r3]	@ tmp168, new_mode
 357 0084 022B     		cmp	r3, #2	@ tmp168,
 358 0086 2CD1     		bne	.L12	@,
 111:src/uart.c    **** 	{
 112:src/uart.c    **** 		//config gpio B to Input
 113:src/uart.c    **** 		temp_gpio = GPIOB->MODER;		//2 bits por pin
 359              		.loc 2 113 0
 360 0088 1D4B     		ldr	r3, .L14+12	@ D.5500,
 361 008a 1B68     		ldr	r3, [r3]	@ tmp169, _35->MODER
 362 008c 0293     		str	r3, [sp, #8]	@ tmp169, temp_gpio
 114:src/uart.c    **** 		temp_gpio &= 0xFFFF0FFF;		//PB6 PB7 input
 363              		.loc 2 114 0
 364 008e 029B     		ldr	r3, [sp, #8]	@ tmp171, temp_gpio
 365 0090 1C4A     		ldr	r2, .L14+16	@ tmp172,
 366 0092 1340     		ands	r3, r2	@ tmp170, tmp172
 367 0094 0293     		str	r3, [sp, #8]	@ tmp170, temp_gpio
 115:src/uart.c    **** 		temp_gpio |= 0x00000000;		//
 116:src/uart.c    **** 		GPIOB->MODER = temp_gpio;
 368              		.loc 2 116 0
 369 0096 1A4B     		ldr	r3, .L14+12	@ D.5500,
 370 0098 029A     		ldr	r2, [sp, #8]	@ tmp173, temp_gpio
 371 009a 1A60     		str	r2, [r3]	@ tmp173, _39->MODER
 117:src/uart.c    **** 
 118:src/uart.c    **** 		GPIOB->AFR[0] &= 0x00FFFFFF;	//PB7 -> AF0 PB6 -> AF0
 372              		.loc 2 118 0
 373 009c 184B     		ldr	r3, .L14+12	@ D.5500,
 374 009e 184A     		ldr	r2, .L14+12	@ D.5500,
 375 00a0 126A     		ldr	r2, [r2, #32]	@ D.5499, _42->AFR
 376 00a2 1202     		lsls	r2, r2, #8	@ tmp174, D.5499,
 377 00a4 120A     		lsrs	r2, r2, #8	@ D.5499, tmp174,
 378 00a6 1A62     		str	r2, [r3, #32]	@ D.5499, _41->AFR
 119:src/uart.c    **** 
 120:src/uart.c    **** 		//config gpio A to Alternative
 121:src/uart.c    **** 		temp_gpio = GPIOA->MODER;		//2 bits por pin
 379              		.loc 2 121 0
 380 00a8 9023     		movs	r3, #144	@ tmp191,
 381 00aa DB05     		lsls	r3, r3, #23	@ D.5500, tmp191,
 382 00ac 1B68     		ldr	r3, [r3]	@ tmp175, _46->MODER
 383 00ae 0293     		str	r3, [sp, #8]	@ tmp175, temp_gpio
 122:src/uart.c    **** 		temp_gpio &= 0xFFC3FFFF;		//PA9 PA10 alternative
 384              		.loc 2 122 0
 385 00b0 029B     		ldr	r3, [sp, #8]	@ tmp177, temp_gpio
 386 00b2 114A     		ldr	r2, .L14+4	@ tmp178,
 387 00b4 1340     		ands	r3, r2	@ tmp176, tmp178
 388 00b6 0293     		str	r3, [sp, #8]	@ tmp176, temp_gpio
 123:src/uart.c    **** 		temp_gpio |= 0x00280000;		//
 389              		.loc 2 123 0
 390 00b8 029B     		ldr	r3, [sp, #8]	@ tmp180, temp_gpio
 391 00ba A022     		movs	r2, #160	@ tmp192,
 392 00bc 9203     		lsls	r2, r2, #14	@ tmp181, tmp192,
 393 00be 1343     		orrs	r3, r2	@ tmp179, tmp181
 394 00c0 0293     		str	r3, [sp, #8]	@ tmp179, temp_gpio
 124:src/uart.c    **** 		GPIOA->MODER = temp_gpio;
 395              		.loc 2 124 0
 396 00c2 9023     		movs	r3, #144	@ tmp193,
 397 00c4 DB05     		lsls	r3, r3, #23	@ D.5500, tmp193,
ARM GAS  /tmp/ccGefySF.s 			page 26


 398 00c6 029A     		ldr	r2, [sp, #8]	@ tmp182, temp_gpio
 399 00c8 1A60     		str	r2, [r3]	@ tmp182, _50->MODER
 125:src/uart.c    **** 
 126:src/uart.c    **** 		GPIOA->AFR[1] |= 0x00000110;	//PA10 -> AF1 PA9 -> AF1
 400              		.loc 2 126 0
 401 00ca 9023     		movs	r3, #144	@ tmp194,
 402 00cc DB05     		lsls	r3, r3, #23	@ D.5500, tmp194,
 403 00ce 9022     		movs	r2, #144	@ tmp195,
 404 00d0 D205     		lsls	r2, r2, #23	@ D.5500, tmp195,
 405 00d2 526A     		ldr	r2, [r2, #36]	@ D.5499, _53->AFR
 406 00d4 8821     		movs	r1, #136	@ tmp196,
 407 00d6 4900     		lsls	r1, r1, #1	@ tmp183, tmp196,
 408 00d8 0A43     		orrs	r2, r1	@ D.5499, tmp183
 409 00da 5A62     		str	r2, [r3, #36]	@ D.5499, _52->AFR
 127:src/uart.c    **** 
 128:src/uart.c    **** 		usart_mode = USART_GSM_MODE;
 410              		.loc 2 128 0
 411 00dc 0A4B     		ldr	r3, .L14+20	@ tmp184,
 412 00de 0222     		movs	r2, #2	@ tmp185,
 413 00e0 1A70     		strb	r2, [r3]	@ tmp186, usart_mode
 414              	.L12:
 129:src/uart.c    **** 	}
 130:src/uart.c    **** 
 131:src/uart.c    **** 	USART1->CR1 = temp_int;
 415              		.loc 2 131 0
 416 00e2 044B     		ldr	r3, .L14	@ D.5498,
 417 00e4 039A     		ldr	r2, [sp, #12]	@ tmp187, temp_int
 418 00e6 1A60     		str	r2, [r3]	@ tmp187, _58->CR1
 132:src/uart.c    **** 	return usart_mode;
 419              		.loc 2 132 0
 420 00e8 074B     		ldr	r3, .L14+20	@ tmp188,
 421 00ea 1B78     		ldrb	r3, [r3]	@ tmp189, usart_mode
 422 00ec DBB2     		uxtb	r3, r3	@ D.5501, tmp189
 133:src/uart.c    **** }
 423              		.loc 2 133 0
 424 00ee 1800     		movs	r0, r3	@, <retval>
 425 00f0 04B0     		add	sp, sp, #16	@,,
 426              		@ sp needed	@
 427 00f2 7047     		bx	lr
 428              	.L15:
 429              		.align	2
 430              	.L14:
 431 00f4 00380140 		.word	1073821696
 432 00f8 FFFFC3FF 		.word	-3932161
 433 00fc 0FF0FFFF 		.word	-4081
 434 0100 00040048 		.word	1207960576
 435 0104 FF0FFFFF 		.word	-61441
 436 0108 00000000 		.word	usart_mode
 437              		.cfi_endproc
 438              	.LFE20:
 439              		.size	Usart1Mode, .-Usart1Mode
 440              		.section	.text.ReadUsart1Buffer,"ax",%progbits
 441              		.align	2
 442              		.global	ReadUsart1Buffer
 443              		.code	16
 444              		.thumb_func
 445              		.type	ReadUsart1Buffer, %function
ARM GAS  /tmp/ccGefySF.s 			page 27


 446              	ReadUsart1Buffer:
 447              	.LFB21:
 134:src/uart.c    **** 
 135:src/uart.c    **** unsigned char ReadUsart1Buffer (unsigned char * bout, unsigned short max_len)
 136:src/uart.c    **** {
 448              		.loc 2 136 0
 449              		.cfi_startproc
 450 0000 00B5     		push	{lr}	@
 451              	.LCFI4:
 452              		.cfi_def_cfa_offset 4
 453              		.cfi_offset 14, -4
 454 0002 85B0     		sub	sp, sp, #20	@,,
 455              	.LCFI5:
 456              		.cfi_def_cfa_offset 24
 457 0004 0190     		str	r0, [sp, #4]	@ bout, bout
 458 0006 0A00     		movs	r2, r1	@ tmp117, max_len
 459 0008 6B46     		mov	r3, sp	@ tmp136,
 460 000a 0233     		adds	r3, r3, #2	@ tmp118,
 461 000c 1A80     		strh	r2, [r3]	@ tmp119, max_len
 137:src/uart.c    **** 	unsigned int len;
 138:src/uart.c    **** 
 139:src/uart.c    **** 	len = prx1 - rx1buff;
 462              		.loc 2 139 0
 463 000e 124B     		ldr	r3, .L20	@ tmp120,
 464 0010 1B68     		ldr	r3, [r3]	@ D.5502, prx1
 465 0012 1A00     		movs	r2, r3	@ D.5503, D.5502
 466 0014 114B     		ldr	r3, .L20+4	@ D.5503,
 467 0016 D31A     		subs	r3, r2, r3	@ D.5503, D.5503, D.5503
 468 0018 0393     		str	r3, [sp, #12]	@ D.5503, len
 140:src/uart.c    **** 
 141:src/uart.c    **** 	if (len < max_len)
 469              		.loc 2 141 0
 470 001a 6B46     		mov	r3, sp	@ tmp137,
 471 001c 0233     		adds	r3, r3, #2	@ tmp121,
 472 001e 1A88     		ldrh	r2, [r3]	@ D.5504, max_len
 473 0020 039B     		ldr	r3, [sp, #12]	@ tmp122, len
 474 0022 9A42     		cmp	r2, r3	@ D.5504, tmp122
 475 0024 06D9     		bls	.L17	@,
 142:src/uart.c    **** 		memcpy(bout, (unsigned char *) rx1buff, len);
 476              		.loc 2 142 0
 477 0026 039A     		ldr	r2, [sp, #12]	@ tmp123, len
 478 0028 0C49     		ldr	r1, .L20+4	@ tmp124,
 479 002a 019B     		ldr	r3, [sp, #4]	@ tmp125, bout
 480 002c 1800     		movs	r0, r3	@, tmp125
 481 002e FFF7FEFF 		bl	memcpy	@
 482 0032 09E0     		b	.L18	@
 483              	.L17:
 143:src/uart.c    **** 	else
 144:src/uart.c    **** 	{
 145:src/uart.c    **** 		memcpy(bout, (unsigned char *) rx1buff, len);
 484              		.loc 2 145 0
 485 0034 039A     		ldr	r2, [sp, #12]	@ tmp126, len
 486 0036 0949     		ldr	r1, .L20+4	@ tmp127,
 487 0038 019B     		ldr	r3, [sp, #4]	@ tmp128, bout
 488 003a 1800     		movs	r0, r3	@, tmp128
 489 003c FFF7FEFF 		bl	memcpy	@
 146:src/uart.c    **** 		len = max_len;
ARM GAS  /tmp/ccGefySF.s 			page 28


 490              		.loc 2 146 0
 491 0040 6B46     		mov	r3, sp	@ tmp138,
 492 0042 0233     		adds	r3, r3, #2	@ tmp129,
 493 0044 1B88     		ldrh	r3, [r3]	@ tmp130, max_len
 494 0046 0393     		str	r3, [sp, #12]	@ tmp130, len
 495              	.L18:
 147:src/uart.c    **** 	}
 148:src/uart.c    **** 
 149:src/uart.c    **** 	//ajusto punteros de rx luego de la copia
 150:src/uart.c    **** 	prx1 = rx1buff;
 496              		.loc 2 150 0
 497 0048 034B     		ldr	r3, .L20	@ tmp131,
 498 004a 044A     		ldr	r2, .L20+4	@ tmp132,
 499 004c 1A60     		str	r2, [r3]	@ tmp132, prx1
 151:src/uart.c    **** 
 152:src/uart.c    **** 	return (unsigned char) len;
 500              		.loc 2 152 0
 501 004e 039B     		ldr	r3, [sp, #12]	@ tmp134, len
 502 0050 DBB2     		uxtb	r3, r3	@ D.5505, tmp133
 153:src/uart.c    **** }
 503              		.loc 2 153 0
 504 0052 1800     		movs	r0, r3	@, <retval>
 505 0054 05B0     		add	sp, sp, #20	@,,
 506              		@ sp needed	@
 507 0056 00BD     		pop	{pc}
 508              	.L21:
 509              		.align	2
 510              	.L20:
 511 0058 00000000 		.word	prx1
 512 005c 00000000 		.word	rx1buff
 513              		.cfi_endproc
 514              	.LFE21:
 515              		.size	ReadUsart1Buffer, .-ReadUsart1Buffer
 516              		.section	.text.USART1_IRQHandler,"ax",%progbits
 517              		.align	2
 518              		.global	USART1_IRQHandler
 519              		.code	16
 520              		.thumb_func
 521              		.type	USART1_IRQHandler, %function
 522              	USART1_IRQHandler:
 523              	.LFB22:
 154:src/uart.c    **** 
 155:src/uart.c    **** void USART1_IRQHandler(void)
 156:src/uart.c    **** {
 524              		.loc 2 156 0
 525              		.cfi_startproc
 526 0000 82B0     		sub	sp, sp, #8	@,,
 527              	.LCFI6:
 528              		.cfi_def_cfa_offset 8
 157:src/uart.c    **** 	unsigned char dummy;
 158:src/uart.c    **** 
 159:src/uart.c    **** 	/* USART in mode Receiver --------------------------------------------------*/
 160:src/uart.c    **** 	if (USART1->ISR & USART_ISR_RXNE)
 529              		.loc 2 160 0
 530 0002 3B4B     		ldr	r3, .L31	@ D.5506,
 531 0004 DB69     		ldr	r3, [r3, #28]	@ D.5507, _5->ISR
 532 0006 2022     		movs	r2, #32	@ tmp155,
ARM GAS  /tmp/ccGefySF.s 			page 29


 533 0008 1340     		ands	r3, r2	@ D.5507, tmp155
 534 000a 25D0     		beq	.L23	@,
 161:src/uart.c    **** 	{
 162:src/uart.c    **** 		dummy = USART1->RDR & 0x0FF;
 535              		.loc 2 162 0
 536 000c 384B     		ldr	r3, .L31	@ D.5506,
 537 000e 9B8C     		ldrh	r3, [r3, #36]	@ tmp157,
 538 0010 9AB2     		uxth	r2, r3	@ D.5508, tmp157
 539 0012 6B46     		mov	r3, sp	@ tmp201,
 540 0014 0733     		adds	r3, r3, #7	@ tmp158,
 541 0016 1A70     		strb	r2, [r3]	@ tmp159, dummy
 163:src/uart.c    **** 
 164:src/uart.c    **** 		//RX GPS & GSM
 165:src/uart.c    **** 		if ((usart_mode == USART_GPS_MODE) || (usart_mode == USART_GSM_MODE))
 542              		.loc 2 165 0
 543 0018 364B     		ldr	r3, .L31+4	@ tmp160,
 544 001a 1B78     		ldrb	r3, [r3]	@ tmp161, usart_mode
 545 001c DBB2     		uxtb	r3, r3	@ D.5509, tmp161
 546 001e 012B     		cmp	r3, #1	@ D.5509,
 547 0020 04D0     		beq	.L24	@,
 548              		.loc 2 165 0 is_stmt 0 discriminator 1
 549 0022 344B     		ldr	r3, .L31+4	@ tmp162,
 550 0024 1B78     		ldrb	r3, [r3]	@ tmp163, usart_mode
 551 0026 DBB2     		uxtb	r3, r3	@ D.5509, tmp163
 552 0028 022B     		cmp	r3, #2	@ D.5509,
 553 002a 15D1     		bne	.L23	@,
 554              	.L24:
 166:src/uart.c    **** 		{
 167:src/uart.c    **** 			if (prx1 < &rx1buff[SIZEOF_DATA])
 555              		.loc 2 167 0 is_stmt 1
 556 002c 324B     		ldr	r3, .L31+8	@ tmp164,
 557 002e 1A68     		ldr	r2, [r3]	@ D.5510, prx1
 558 0030 324B     		ldr	r3, .L31+12	@ tmp165,
 559 0032 9A42     		cmp	r2, r3	@ D.5510, tmp165
 560 0034 0DD2     		bcs	.L25	@,
 168:src/uart.c    **** 			{
 169:src/uart.c    **** 				*prx1 = dummy;
 561              		.loc 2 169 0
 562 0036 304B     		ldr	r3, .L31+8	@ tmp166,
 563 0038 1B68     		ldr	r3, [r3]	@ D.5510, prx1
 564 003a 6A46     		mov	r2, sp	@ tmp202,
 565 003c 0732     		adds	r2, r2, #7	@ tmp167,
 566 003e 1278     		ldrb	r2, [r2]	@ tmp168, dummy
 567 0040 1A70     		strb	r2, [r3]	@ tmp168, *_15
 170:src/uart.c    **** 				prx1++;
 568              		.loc 2 170 0
 569 0042 2D4B     		ldr	r3, .L31+8	@ tmp169,
 570 0044 1B68     		ldr	r3, [r3]	@ D.5510, prx1
 571 0046 5A1C     		adds	r2, r3, #1	@ D.5510, D.5510,
 572 0048 2B4B     		ldr	r3, .L31+8	@ tmp170,
 573 004a 1A60     		str	r2, [r3]	@ D.5510, prx1
 171:src/uart.c    **** 				usart1_have_data = 1;
 574              		.loc 2 171 0
 575 004c 2C4B     		ldr	r3, .L31+16	@ tmp171,
 576 004e 0122     		movs	r2, #1	@ tmp172,
 577 0050 1A70     		strb	r2, [r3]	@ tmp173, usart1_have_data
 578              	.L25:
ARM GAS  /tmp/ccGefySF.s 			page 30


 172:src/uart.c    **** 			}
 173:src/uart.c    **** 			usart1_mini_timeout = TT_GPS_MINI;
 579              		.loc 2 173 0
 580 0052 2C4B     		ldr	r3, .L31+20	@ tmp174,
 581 0054 0522     		movs	r2, #5	@ tmp175,
 582 0056 1A70     		strb	r2, [r3]	@ tmp176, usart1_mini_timeout
 583              	.L23:
 174:src/uart.c    **** 		}
 175:src/uart.c    **** 
 176:src/uart.c    **** //		//RX GSM
 177:src/uart.c    **** //		if (usart_mode == USART_GSM_MODE)
 178:src/uart.c    **** //		{
 179:src/uart.c    **** //			if (prx1 < &rx1buff[SIZEOF_DATA])
 180:src/uart.c    **** //			{
 181:src/uart.c    **** //				*prx1 = dummy;
 182:src/uart.c    **** //				prx1++;
 183:src/uart.c    **** //				gsm_have_data = 1;
 184:src/uart.c    **** //			}
 185:src/uart.c    **** //			gsm_mini_timeout = TT_GSM_MINI;
 186:src/uart.c    **** //		}
 187:src/uart.c    **** 	}
 188:src/uart.c    **** 
 189:src/uart.c    **** 	/* USART in mode Transmitter -------------------------------------------------*/
 190:src/uart.c    **** 
 191:src/uart.c    **** 	if (USART1->CR1 & USART_CR1_TXEIE)
 584              		.loc 2 191 0
 585 0058 254B     		ldr	r3, .L31	@ D.5506,
 586 005a 1B68     		ldr	r3, [r3]	@ D.5507, _22->CR1
 587 005c 8022     		movs	r2, #128	@ tmp177,
 588 005e 1340     		ands	r3, r2	@ D.5507, tmp177
 589 0060 28D0     		beq	.L26	@,
 192:src/uart.c    **** 	{
 193:src/uart.c    **** 		if (USART1->ISR & USART_ISR_TXE)
 590              		.loc 2 193 0
 591 0062 234B     		ldr	r3, .L31	@ D.5506,
 592 0064 DB69     		ldr	r3, [r3, #28]	@ D.5507, _25->ISR
 593 0066 8022     		movs	r2, #128	@ tmp178,
 594 0068 1340     		ands	r3, r2	@ D.5507, tmp178
 595 006a 23D0     		beq	.L26	@,
 194:src/uart.c    **** 		{
 195:src/uart.c    **** 			if ((ptx1 < &tx1buff[SIZEOF_DATA]) && (ptx1 < ptx1_pckt_index))
 596              		.loc 2 195 0
 597 006c 264B     		ldr	r3, .L31+24	@ tmp179,
 598 006e 1A68     		ldr	r2, [r3]	@ D.5510, ptx1
 599 0070 264B     		ldr	r3, .L31+28	@ tmp180,
 600 0072 9A42     		cmp	r2, r3	@ D.5510, tmp180
 601 0074 12D2     		bcs	.L27	@,
 602              		.loc 2 195 0 is_stmt 0 discriminator 1
 603 0076 244B     		ldr	r3, .L31+24	@ tmp181,
 604 0078 1A68     		ldr	r2, [r3]	@ D.5510, ptx1
 605 007a 254B     		ldr	r3, .L31+32	@ tmp182,
 606 007c 1B68     		ldr	r3, [r3]	@ D.5510, ptx1_pckt_index
 607 007e 9A42     		cmp	r2, r3	@ D.5510, D.5510
 608 0080 0CD2     		bcs	.L27	@,
 196:src/uart.c    **** 			{
 197:src/uart.c    **** 				USART1->TDR = *ptx1;
 609              		.loc 2 197 0 is_stmt 1
ARM GAS  /tmp/ccGefySF.s 			page 31


 610 0082 1B4A     		ldr	r2, .L31	@ D.5506,
 611 0084 204B     		ldr	r3, .L31+24	@ tmp183,
 612 0086 1B68     		ldr	r3, [r3]	@ D.5510, ptx1
 613 0088 1B78     		ldrb	r3, [r3]	@ tmp184, *_32
 614 008a DBB2     		uxtb	r3, r3	@ D.5509, tmp184
 615 008c 9BB2     		uxth	r3, r3	@ D.5508, D.5509
 616 008e 1385     		strh	r3, [r2, #40]	@ tmp185, _31->TDR
 198:src/uart.c    **** 				ptx1++;
 617              		.loc 2 198 0
 618 0090 1D4B     		ldr	r3, .L31+24	@ tmp186,
 619 0092 1B68     		ldr	r3, [r3]	@ D.5510, ptx1
 620 0094 5A1C     		adds	r2, r3, #1	@ D.5510, D.5510,
 621 0096 1C4B     		ldr	r3, .L31+24	@ tmp187,
 622 0098 1A60     		str	r2, [r3]	@ D.5510, ptx1
 623 009a 0BE0     		b	.L26	@
 624              	.L27:
 199:src/uart.c    **** 			}
 200:src/uart.c    **** 			else
 201:src/uart.c    **** 			{
 202:src/uart.c    **** 				ptx1 = tx1buff;
 625              		.loc 2 202 0
 626 009c 1A4B     		ldr	r3, .L31+24	@ tmp188,
 627 009e 1D4A     		ldr	r2, .L31+36	@ tmp189,
 628 00a0 1A60     		str	r2, [r3]	@ tmp189, ptx1
 203:src/uart.c    **** 				ptx1_pckt_index = tx1buff;
 629              		.loc 2 203 0
 630 00a2 1B4B     		ldr	r3, .L31+32	@ tmp190,
 631 00a4 1B4A     		ldr	r2, .L31+36	@ tmp191,
 632 00a6 1A60     		str	r2, [r3]	@ tmp191, ptx1_pckt_index
 204:src/uart.c    **** 				USART1->CR1 &= ~USART_CR1_TXEIE;
 633              		.loc 2 204 0
 634 00a8 114B     		ldr	r3, .L31	@ D.5506,
 635 00aa 114A     		ldr	r2, .L31	@ D.5506,
 636 00ac 1268     		ldr	r2, [r2]	@ D.5507, _42->CR1
 637 00ae 8021     		movs	r1, #128	@ tmp192,
 638 00b0 8A43     		bics	r2, r1	@ D.5507, tmp192
 639 00b2 1A60     		str	r2, [r3]	@ D.5507, _41->CR1
 640              	.L26:
 205:src/uart.c    **** 			}
 206:src/uart.c    **** 		}
 207:src/uart.c    **** 	}
 208:src/uart.c    **** 
 209:src/uart.c    **** 	if ((USART1->ISR & USART_ISR_ORE) || (USART1->ISR & USART_ISR_NE) || (USART1->ISR & USART_ISR_FE))
 641              		.loc 2 209 0
 642 00b4 0E4B     		ldr	r3, .L31	@ D.5506,
 643 00b6 DB69     		ldr	r3, [r3, #28]	@ D.5507, _46->ISR
 644 00b8 0822     		movs	r2, #8	@ tmp193,
 645 00ba 1340     		ands	r3, r2	@ D.5507, tmp193
 646 00bc 09D1     		bne	.L28	@,
 647              		.loc 2 209 0 is_stmt 0 discriminator 1
 648 00be 0C4B     		ldr	r3, .L31	@ D.5506,
 649 00c0 DB69     		ldr	r3, [r3, #28]	@ D.5507, _49->ISR
 650 00c2 0422     		movs	r2, #4	@ tmp194,
 651 00c4 1340     		ands	r3, r2	@ D.5507, tmp194
 652 00c6 04D1     		bne	.L28	@,
 653              		.loc 2 209 0 discriminator 2
 654 00c8 094B     		ldr	r3, .L31	@ D.5506,
ARM GAS  /tmp/ccGefySF.s 			page 32


 655 00ca DB69     		ldr	r3, [r3, #28]	@ D.5507, _52->ISR
 656 00cc 0222     		movs	r2, #2	@ tmp195,
 657 00ce 1340     		ands	r3, r2	@ D.5507, tmp195
 658 00d0 0BD0     		beq	.L30	@,
 659              	.L28:
 210:src/uart.c    **** 	{
 211:src/uart.c    **** 		USART1->ICR |= 0x0e;
 660              		.loc 2 211 0 is_stmt 1
 661 00d2 074B     		ldr	r3, .L31	@ D.5506,
 662 00d4 064A     		ldr	r2, .L31	@ D.5506,
 663 00d6 126A     		ldr	r2, [r2, #32]	@ D.5507, _56->ICR
 664 00d8 0E21     		movs	r1, #14	@ tmp196,
 665 00da 0A43     		orrs	r2, r1	@ D.5507, tmp196
 666 00dc 1A62     		str	r2, [r3, #32]	@ D.5507, _55->ICR
 212:src/uart.c    **** 		dummy = USART1->RDR;
 667              		.loc 2 212 0
 668 00de 044B     		ldr	r3, .L31	@ D.5506,
 669 00e0 9B8C     		ldrh	r3, [r3, #36]	@ tmp198,
 670 00e2 9AB2     		uxth	r2, r3	@ D.5508, tmp198
 671 00e4 6B46     		mov	r3, sp	@ tmp203,
 672 00e6 0733     		adds	r3, r3, #7	@ tmp199,
 673 00e8 1A70     		strb	r2, [r3]	@ tmp200, dummy
 674              	.L30:
 213:src/uart.c    **** 	}
 214:src/uart.c    **** }
 675              		.loc 2 214 0
 676 00ea C046     		nop
 677 00ec 02B0     		add	sp, sp, #8	@,,
 678              		@ sp needed	@
 679 00ee 7047     		bx	lr
 680              	.L32:
 681              		.align	2
 682              	.L31:
 683 00f0 00380140 		.word	1073821696
 684 00f4 00000000 		.word	usart_mode
 685 00f8 00000000 		.word	prx1
 686 00fc 00010000 		.word	rx1buff+256
 687 0100 00000000 		.word	usart1_have_data
 688 0104 00000000 		.word	usart1_mini_timeout
 689 0108 00000000 		.word	ptx1
 690 010c 00010000 		.word	tx1buff+256
 691 0110 00000000 		.word	ptx1_pckt_index
 692 0114 00000000 		.word	tx1buff
 693              		.cfi_endproc
 694              	.LFE22:
 695              		.size	USART1_IRQHandler, .-USART1_IRQHandler
 696              		.section	.text.USART2_IRQHandler,"ax",%progbits
 697              		.align	2
 698              		.global	USART2_IRQHandler
 699              		.code	16
 700              		.thumb_func
 701              		.type	USART2_IRQHandler, %function
 702              	USART2_IRQHandler:
 703              	.LFB23:
 215:src/uart.c    **** 
 216:src/uart.c    **** void USART2_IRQHandler(void)
 217:src/uart.c    **** {
ARM GAS  /tmp/ccGefySF.s 			page 33


 704              		.loc 2 217 0
 705              		.cfi_startproc
 706 0000 82B0     		sub	sp, sp, #8	@,,
 707              	.LCFI7:
 708              		.cfi_def_cfa_offset 8
 218:src/uart.c    **** 	unsigned char dummy;
 219:src/uart.c    **** 
 220:src/uart.c    **** 	/* USART in mode Receiver --------------------------------------------------*/
 221:src/uart.c    **** 	if (USART2->ISR & USART_ISR_RXNE)
 709              		.loc 2 221 0
 710 0002 2B4B     		ldr	r3, .L40	@ D.5511,
 711 0004 DB69     		ldr	r3, [r3, #28]	@ D.5512, _3->ISR
 712 0006 2022     		movs	r2, #32	@ tmp149,
 713 0008 1340     		ands	r3, r2	@ D.5512, tmp149
 714 000a 05D0     		beq	.L34	@,
 222:src/uart.c    **** 	{
 223:src/uart.c    **** 		//RX WIFI
 224:src/uart.c    **** 		dummy = USART2->RDR & 0x0FF;
 715              		.loc 2 224 0
 716 000c 284B     		ldr	r3, .L40	@ D.5511,
 717 000e 9B8C     		ldrh	r3, [r3, #36]	@ tmp151,
 718 0010 9AB2     		uxth	r2, r3	@ D.5513, tmp151
 719 0012 6B46     		mov	r3, sp	@ tmp178,
 720 0014 0733     		adds	r3, r3, #7	@ tmp152,
 721 0016 1A70     		strb	r2, [r3]	@ tmp153, dummy
 722              	.L34:
 225:src/uart.c    **** 
 226:src/uart.c    **** #ifdef USE_GSM_GATEWAY
 227:src/uart.c    **** 		if (prx2 < &rx2buff[SIZEOF_DATA])
 228:src/uart.c    **** 		{
 229:src/uart.c    **** 			*prx2 = dummy;
 230:src/uart.c    **** 			prx2++;
 231:src/uart.c    **** 			usart2_have_data = 1;
 232:src/uart.c    **** 		}
 233:src/uart.c    **** 			usart2_mini_timeout = TT_GPS_MINI;
 234:src/uart.c    **** #endif
 235:src/uart.c    **** 
 236:src/uart.c    **** 	}
 237:src/uart.c    **** 
 238:src/uart.c    **** 	/* USART in mode Transmitter -------------------------------------------------*/
 239:src/uart.c    **** 
 240:src/uart.c    **** 	if (USART2->CR1 & USART_CR1_TXEIE)
 723              		.loc 2 240 0
 724 0018 254B     		ldr	r3, .L40	@ D.5511,
 725 001a 1B68     		ldr	r3, [r3]	@ D.5512, _10->CR1
 726 001c 8022     		movs	r2, #128	@ tmp154,
 727 001e 1340     		ands	r3, r2	@ D.5512, tmp154
 728 0020 28D0     		beq	.L35	@,
 241:src/uart.c    **** 	{
 242:src/uart.c    **** 		if (USART2->ISR & USART_ISR_TXE)
 729              		.loc 2 242 0
 730 0022 234B     		ldr	r3, .L40	@ D.5511,
 731 0024 DB69     		ldr	r3, [r3, #28]	@ D.5512, _13->ISR
 732 0026 8022     		movs	r2, #128	@ tmp155,
 733 0028 1340     		ands	r3, r2	@ D.5512, tmp155
 734 002a 23D0     		beq	.L35	@,
 243:src/uart.c    **** 		{
ARM GAS  /tmp/ccGefySF.s 			page 34


 244:src/uart.c    **** 			if ((ptx2 < &tx2buff[SIZEOF_DATA]) && (ptx2 < ptx2_pckt_index))
 735              		.loc 2 244 0
 736 002c 214B     		ldr	r3, .L40+4	@ tmp156,
 737 002e 1A68     		ldr	r2, [r3]	@ D.5514, ptx2
 738 0030 214B     		ldr	r3, .L40+8	@ tmp157,
 739 0032 9A42     		cmp	r2, r3	@ D.5514, tmp157
 740 0034 12D2     		bcs	.L36	@,
 741              		.loc 2 244 0 is_stmt 0 discriminator 1
 742 0036 1F4B     		ldr	r3, .L40+4	@ tmp158,
 743 0038 1A68     		ldr	r2, [r3]	@ D.5514, ptx2
 744 003a 204B     		ldr	r3, .L40+12	@ tmp159,
 745 003c 1B68     		ldr	r3, [r3]	@ D.5514, ptx2_pckt_index
 746 003e 9A42     		cmp	r2, r3	@ D.5514, D.5514
 747 0040 0CD2     		bcs	.L36	@,
 245:src/uart.c    **** 			{
 246:src/uart.c    **** 				USART2->TDR = *ptx2;
 748              		.loc 2 246 0 is_stmt 1
 749 0042 1B4A     		ldr	r2, .L40	@ D.5511,
 750 0044 1B4B     		ldr	r3, .L40+4	@ tmp160,
 751 0046 1B68     		ldr	r3, [r3]	@ D.5514, ptx2
 752 0048 1B78     		ldrb	r3, [r3]	@ tmp161, *_20
 753 004a DBB2     		uxtb	r3, r3	@ D.5515, tmp161
 754 004c 9BB2     		uxth	r3, r3	@ D.5513, D.5515
 755 004e 1385     		strh	r3, [r2, #40]	@ tmp162, _19->TDR
 247:src/uart.c    **** 				ptx2++;
 756              		.loc 2 247 0
 757 0050 184B     		ldr	r3, .L40+4	@ tmp163,
 758 0052 1B68     		ldr	r3, [r3]	@ D.5514, ptx2
 759 0054 5A1C     		adds	r2, r3, #1	@ D.5514, D.5514,
 760 0056 174B     		ldr	r3, .L40+4	@ tmp164,
 761 0058 1A60     		str	r2, [r3]	@ D.5514, ptx2
 762 005a 0BE0     		b	.L35	@
 763              	.L36:
 248:src/uart.c    **** 			}
 249:src/uart.c    **** 			else
 250:src/uart.c    **** 			{
 251:src/uart.c    **** 				ptx2 = tx2buff;
 764              		.loc 2 251 0
 765 005c 154B     		ldr	r3, .L40+4	@ tmp165,
 766 005e 184A     		ldr	r2, .L40+16	@ tmp166,
 767 0060 1A60     		str	r2, [r3]	@ tmp166, ptx2
 252:src/uart.c    **** 				ptx2_pckt_index = tx2buff;
 768              		.loc 2 252 0
 769 0062 164B     		ldr	r3, .L40+12	@ tmp167,
 770 0064 164A     		ldr	r2, .L40+16	@ tmp168,
 771 0066 1A60     		str	r2, [r3]	@ tmp168, ptx2_pckt_index
 253:src/uart.c    **** 				USART2->CR1 &= ~USART_CR1_TXEIE;
 772              		.loc 2 253 0
 773 0068 114B     		ldr	r3, .L40	@ D.5511,
 774 006a 114A     		ldr	r2, .L40	@ D.5511,
 775 006c 1268     		ldr	r2, [r2]	@ D.5512, _30->CR1
 776 006e 8021     		movs	r1, #128	@ tmp169,
 777 0070 8A43     		bics	r2, r1	@ D.5512, tmp169
 778 0072 1A60     		str	r2, [r3]	@ D.5512, _29->CR1
 779              	.L35:
 254:src/uart.c    **** 			}
 255:src/uart.c    **** 		}
ARM GAS  /tmp/ccGefySF.s 			page 35


 256:src/uart.c    **** 	}
 257:src/uart.c    **** 
 258:src/uart.c    **** 	if ((USART2->ISR & USART_ISR_ORE) || (USART2->ISR & USART_ISR_NE) || (USART2->ISR & USART_ISR_FE))
 780              		.loc 2 258 0
 781 0074 0E4B     		ldr	r3, .L40	@ D.5511,
 782 0076 DB69     		ldr	r3, [r3, #28]	@ D.5512, _34->ISR
 783 0078 0822     		movs	r2, #8	@ tmp170,
 784 007a 1340     		ands	r3, r2	@ D.5512, tmp170
 785 007c 09D1     		bne	.L37	@,
 786              		.loc 2 258 0 is_stmt 0 discriminator 1
 787 007e 0C4B     		ldr	r3, .L40	@ D.5511,
 788 0080 DB69     		ldr	r3, [r3, #28]	@ D.5512, _37->ISR
 789 0082 0422     		movs	r2, #4	@ tmp171,
 790 0084 1340     		ands	r3, r2	@ D.5512, tmp171
 791 0086 04D1     		bne	.L37	@,
 792              		.loc 2 258 0 discriminator 2
 793 0088 094B     		ldr	r3, .L40	@ D.5511,
 794 008a DB69     		ldr	r3, [r3, #28]	@ D.5512, _40->ISR
 795 008c 0222     		movs	r2, #2	@ tmp172,
 796 008e 1340     		ands	r3, r2	@ D.5512, tmp172
 797 0090 0BD0     		beq	.L39	@,
 798              	.L37:
 259:src/uart.c    **** 	{
 260:src/uart.c    **** 		USART2->ICR |= 0x0e;
 799              		.loc 2 260 0 is_stmt 1
 800 0092 074B     		ldr	r3, .L40	@ D.5511,
 801 0094 064A     		ldr	r2, .L40	@ D.5511,
 802 0096 126A     		ldr	r2, [r2, #32]	@ D.5512, _44->ICR
 803 0098 0E21     		movs	r1, #14	@ tmp173,
 804 009a 0A43     		orrs	r2, r1	@ D.5512, tmp173
 805 009c 1A62     		str	r2, [r3, #32]	@ D.5512, _43->ICR
 261:src/uart.c    **** 		dummy = USART2->RDR;
 806              		.loc 2 261 0
 807 009e 044B     		ldr	r3, .L40	@ D.5511,
 808 00a0 9B8C     		ldrh	r3, [r3, #36]	@ tmp175,
 809 00a2 9AB2     		uxth	r2, r3	@ D.5513, tmp175
 810 00a4 6B46     		mov	r3, sp	@ tmp179,
 811 00a6 0733     		adds	r3, r3, #7	@ tmp176,
 812 00a8 1A70     		strb	r2, [r3]	@ tmp177, dummy
 813              	.L39:
 262:src/uart.c    **** 	}
 263:src/uart.c    **** }
 814              		.loc 2 263 0
 815 00aa C046     		nop
 816 00ac 02B0     		add	sp, sp, #8	@,,
 817              		@ sp needed	@
 818 00ae 7047     		bx	lr
 819              	.L41:
 820              		.align	2
 821              	.L40:
 822 00b0 00440040 		.word	1073759232
 823 00b4 00000000 		.word	ptx2
 824 00b8 00010000 		.word	tx2buff+256
 825 00bc 00000000 		.word	ptx2_pckt_index
 826 00c0 00000000 		.word	tx2buff
 827              		.cfi_endproc
 828              	.LFE23:
ARM GAS  /tmp/ccGefySF.s 			page 36


 829              		.size	USART2_IRQHandler, .-USART2_IRQHandler
 830              		.section	.text.Usart2Send,"ax",%progbits
 831              		.align	2
 832              		.global	Usart2Send
 833              		.code	16
 834              		.thumb_func
 835              		.type	Usart2Send, %function
 836              	Usart2Send:
 837              	.LFB24:
 264:src/uart.c    **** 
 265:src/uart.c    **** void Usart2Send (char * send)
 266:src/uart.c    **** {
 838              		.loc 2 266 0
 839              		.cfi_startproc
 840 0000 00B5     		push	{lr}	@
 841              	.LCFI8:
 842              		.cfi_def_cfa_offset 4
 843              		.cfi_offset 14, -4
 844 0002 85B0     		sub	sp, sp, #20	@,,
 845              	.LCFI9:
 846              		.cfi_def_cfa_offset 24
 847 0004 0190     		str	r0, [sp, #4]	@ send, send
 267:src/uart.c    **** 	unsigned char i;
 268:src/uart.c    **** 
 269:src/uart.c    **** 	i = strlen(send);
 848              		.loc 2 269 0
 849 0006 019B     		ldr	r3, [sp, #4]	@ tmp111, send
 850 0008 1800     		movs	r0, r3	@, tmp111
 851 000a FFF7FEFF 		bl	strlen	@
 852 000e 0200     		movs	r2, r0	@ D.5516,
 853 0010 0F23     		movs	r3, #15	@ tmp112,
 854 0012 6B44     		add	r3, r3, sp	@ tmp112,
 855 0014 1A70     		strb	r2, [r3]	@ tmp113, i
 270:src/uart.c    **** 	Usart2SendUnsigned((unsigned char *) send, i);
 856              		.loc 2 270 0
 857 0016 0F23     		movs	r3, #15	@ tmp114,
 858 0018 6B44     		add	r3, r3, sp	@ tmp114,
 859 001a 1A78     		ldrb	r2, [r3]	@ tmp115, i
 860 001c 019B     		ldr	r3, [sp, #4]	@ tmp116, send
 861 001e 1100     		movs	r1, r2	@, tmp115
 862 0020 1800     		movs	r0, r3	@, tmp116
 863 0022 FFF7FEFF 		bl	Usart2SendUnsigned	@
 271:src/uart.c    **** }
 864              		.loc 2 271 0
 865 0026 C046     		nop
 866 0028 05B0     		add	sp, sp, #20	@,,
 867              		@ sp needed	@
 868 002a 00BD     		pop	{pc}
 869              		.cfi_endproc
 870              	.LFE24:
 871              		.size	Usart2Send, .-Usart2Send
 872              		.section	.text.Usart2SendUnsigned,"ax",%progbits
 873              		.align	2
 874              		.global	Usart2SendUnsigned
 875              		.code	16
 876              		.thumb_func
 877              		.type	Usart2SendUnsigned, %function
ARM GAS  /tmp/ccGefySF.s 			page 37


 878              	Usart2SendUnsigned:
 879              	.LFB25:
 272:src/uart.c    **** 
 273:src/uart.c    **** void Usart2SendUnsigned(unsigned char * send, unsigned char size)
 274:src/uart.c    **** {
 880              		.loc 2 274 0
 881              		.cfi_startproc
 882 0000 00B5     		push	{lr}	@
 883              	.LCFI10:
 884              		.cfi_def_cfa_offset 4
 885              		.cfi_offset 14, -4
 886 0002 83B0     		sub	sp, sp, #12	@,,
 887              	.LCFI11:
 888              		.cfi_def_cfa_offset 16
 889 0004 0190     		str	r0, [sp, #4]	@ send, send
 890 0006 0A00     		movs	r2, r1	@ tmp122, size
 891 0008 6B46     		mov	r3, sp	@ tmp135,
 892 000a 0333     		adds	r3, r3, #3	@ tmp123,
 893 000c 1A70     		strb	r2, [r3]	@ tmp124, size
 275:src/uart.c    **** 	if ((ptx2_pckt_index + size) < &tx2buff[SIZEOF_DATA])
 894              		.loc 2 275 0
 895 000e 114B     		ldr	r3, .L46	@ tmp125,
 896 0010 1A68     		ldr	r2, [r3]	@ D.5517, ptx2_pckt_index
 897 0012 6B46     		mov	r3, sp	@ tmp136,
 898 0014 0333     		adds	r3, r3, #3	@ tmp126,
 899 0016 1B78     		ldrb	r3, [r3]	@ D.5518, size
 900 0018 D218     		adds	r2, r2, r3	@ D.5517, D.5517, D.5518
 901 001a 0F4B     		ldr	r3, .L46+4	@ tmp127,
 902 001c 9A42     		cmp	r2, r3	@ D.5517, tmp127
 903 001e 16D2     		bcs	.L45	@,
 276:src/uart.c    **** 	{
 277:src/uart.c    **** 		memcpy((unsigned char *)ptx2_pckt_index, send, size);
 904              		.loc 2 277 0
 905 0020 0C4B     		ldr	r3, .L46	@ tmp128,
 906 0022 1868     		ldr	r0, [r3]	@ D.5517, ptx2_pckt_index
 907 0024 6B46     		mov	r3, sp	@ tmp137,
 908 0026 0333     		adds	r3, r3, #3	@ tmp129,
 909 0028 1A78     		ldrb	r2, [r3]	@ D.5519, size
 910 002a 019B     		ldr	r3, [sp, #4]	@ tmp130, send
 911 002c 1900     		movs	r1, r3	@, tmp130
 912 002e FFF7FEFF 		bl	memcpy	@
 278:src/uart.c    **** 		ptx2_pckt_index += size;
 913              		.loc 2 278 0
 914 0032 084B     		ldr	r3, .L46	@ tmp131,
 915 0034 1A68     		ldr	r2, [r3]	@ D.5517, ptx2_pckt_index
 916 0036 6B46     		mov	r3, sp	@ tmp138,
 917 0038 0333     		adds	r3, r3, #3	@ tmp132,
 918 003a 1B78     		ldrb	r3, [r3]	@ D.5518, size
 919 003c D218     		adds	r2, r2, r3	@ D.5517, D.5517, D.5518
 920 003e 054B     		ldr	r3, .L46	@ tmp133,
 921 0040 1A60     		str	r2, [r3]	@ D.5517, ptx2_pckt_index
 279:src/uart.c    **** 		USART2->CR1 |= USART_CR1_TXEIE;
 922              		.loc 2 279 0
 923 0042 064B     		ldr	r3, .L46+8	@ D.5520,
 924 0044 054A     		ldr	r2, .L46+8	@ D.5520,
 925 0046 1268     		ldr	r2, [r2]	@ D.5521, _16->CR1
 926 0048 8021     		movs	r1, #128	@ tmp134,
ARM GAS  /tmp/ccGefySF.s 			page 38


 927 004a 0A43     		orrs	r2, r1	@ D.5521, tmp134
 928 004c 1A60     		str	r2, [r3]	@ D.5521, _15->CR1
 929              	.L45:
 280:src/uart.c    **** 	}
 281:src/uart.c    **** }
 930              		.loc 2 281 0
 931 004e C046     		nop
 932 0050 03B0     		add	sp, sp, #12	@,,
 933              		@ sp needed	@
 934 0052 00BD     		pop	{pc}
 935              	.L47:
 936              		.align	2
 937              	.L46:
 938 0054 00000000 		.word	ptx2_pckt_index
 939 0058 00010000 		.word	tx2buff+256
 940 005c 00440040 		.word	1073759232
 941              		.cfi_endproc
 942              	.LFE25:
 943              		.size	Usart2SendUnsigned, .-Usart2SendUnsigned
 944              		.section	.text.Usart2SendSingle,"ax",%progbits
 945              		.align	2
 946              		.global	Usart2SendSingle
 947              		.code	16
 948              		.thumb_func
 949              		.type	Usart2SendSingle, %function
 950              	Usart2SendSingle:
 951              	.LFB26:
 282:src/uart.c    **** 
 283:src/uart.c    **** void Usart2SendSingle(unsigned char tosend)
 284:src/uart.c    **** {
 952              		.loc 2 284 0
 953              		.cfi_startproc
 954 0000 00B5     		push	{lr}	@
 955              	.LCFI12:
 956              		.cfi_def_cfa_offset 4
 957              		.cfi_offset 14, -4
 958 0002 83B0     		sub	sp, sp, #12	@,,
 959              	.LCFI13:
 960              		.cfi_def_cfa_offset 16
 961 0004 0200     		movs	r2, r0	@ tmp110, tosend
 962 0006 6B46     		mov	r3, sp	@ tmp114,
 963 0008 0733     		adds	r3, r3, #7	@ tmp111,
 964 000a 1A70     		strb	r2, [r3]	@ tmp112, tosend
 285:src/uart.c    **** 	Usart2SendUnsigned(&tosend, 1);
 965              		.loc 2 285 0
 966 000c 6B46     		mov	r3, sp	@ tmp115,
 967 000e 0733     		adds	r3, r3, #7	@ tmp113,
 968 0010 0121     		movs	r1, #1	@,
 969 0012 1800     		movs	r0, r3	@, tmp113
 970 0014 FFF7FEFF 		bl	Usart2SendUnsigned	@
 286:src/uart.c    **** }
 971              		.loc 2 286 0
 972 0018 C046     		nop
 973 001a 03B0     		add	sp, sp, #12	@,,
 974              		@ sp needed	@
 975 001c 00BD     		pop	{pc}
 976              		.cfi_endproc
ARM GAS  /tmp/ccGefySF.s 			page 39


 977              	.LFE26:
 978              		.size	Usart2SendSingle, .-Usart2SendSingle
 979 001e C046     		.section	.text.ReadUsart2Buffer,"ax",%progbits
 980              		.align	2
 981              		.global	ReadUsart2Buffer
 982              		.code	16
 983              		.thumb_func
 984              		.type	ReadUsart2Buffer, %function
 985              	ReadUsart2Buffer:
 986              	.LFB27:
 287:src/uart.c    **** 
 288:src/uart.c    **** unsigned char ReadUsart2Buffer (unsigned char * bout, unsigned short max_len)
 289:src/uart.c    **** {
 987              		.loc 2 289 0
 988              		.cfi_startproc
 989 0000 00B5     		push	{lr}	@
 990              	.LCFI14:
 991              		.cfi_def_cfa_offset 4
 992              		.cfi_offset 14, -4
 993 0002 85B0     		sub	sp, sp, #20	@,,
 994              	.LCFI15:
 995              		.cfi_def_cfa_offset 24
 996 0004 0190     		str	r0, [sp, #4]	@ bout, bout
 997 0006 0A00     		movs	r2, r1	@ tmp117, max_len
 998 0008 6B46     		mov	r3, sp	@ tmp136,
 999 000a 0233     		adds	r3, r3, #2	@ tmp118,
 1000 000c 1A80     		strh	r2, [r3]	@ tmp119, max_len
 290:src/uart.c    **** 	unsigned int len;
 291:src/uart.c    **** 
 292:src/uart.c    **** 	len = prx2 - rx2buff;
 1001              		.loc 2 292 0
 1002 000e 124B     		ldr	r3, .L53	@ tmp120,
 1003 0010 1B68     		ldr	r3, [r3]	@ D.5522, prx2
 1004 0012 1A00     		movs	r2, r3	@ D.5523, D.5522
 1005 0014 114B     		ldr	r3, .L53+4	@ D.5523,
 1006 0016 D31A     		subs	r3, r2, r3	@ D.5523, D.5523, D.5523
 1007 0018 0393     		str	r3, [sp, #12]	@ D.5523, len
 293:src/uart.c    **** 
 294:src/uart.c    **** 	if (len < max_len)
 1008              		.loc 2 294 0
 1009 001a 6B46     		mov	r3, sp	@ tmp137,
 1010 001c 0233     		adds	r3, r3, #2	@ tmp121,
 1011 001e 1A88     		ldrh	r2, [r3]	@ D.5524, max_len
 1012 0020 039B     		ldr	r3, [sp, #12]	@ tmp122, len
 1013 0022 9A42     		cmp	r2, r3	@ D.5524, tmp122
 1014 0024 06D9     		bls	.L50	@,
 295:src/uart.c    **** 		memcpy(bout, (unsigned char *) rx2buff, len);
 1015              		.loc 2 295 0
 1016 0026 039A     		ldr	r2, [sp, #12]	@ tmp123, len
 1017 0028 0C49     		ldr	r1, .L53+4	@ tmp124,
 1018 002a 019B     		ldr	r3, [sp, #4]	@ tmp125, bout
 1019 002c 1800     		movs	r0, r3	@, tmp125
 1020 002e FFF7FEFF 		bl	memcpy	@
 1021 0032 09E0     		b	.L51	@
 1022              	.L50:
 296:src/uart.c    **** 	else
 297:src/uart.c    **** 	{
ARM GAS  /tmp/ccGefySF.s 			page 40


 298:src/uart.c    **** 		memcpy(bout, (unsigned char *) rx2buff, len);
 1023              		.loc 2 298 0
 1024 0034 039A     		ldr	r2, [sp, #12]	@ tmp126, len
 1025 0036 0949     		ldr	r1, .L53+4	@ tmp127,
 1026 0038 019B     		ldr	r3, [sp, #4]	@ tmp128, bout
 1027 003a 1800     		movs	r0, r3	@, tmp128
 1028 003c FFF7FEFF 		bl	memcpy	@
 299:src/uart.c    **** 		len = max_len;
 1029              		.loc 2 299 0
 1030 0040 6B46     		mov	r3, sp	@ tmp138,
 1031 0042 0233     		adds	r3, r3, #2	@ tmp129,
 1032 0044 1B88     		ldrh	r3, [r3]	@ tmp130, max_len
 1033 0046 0393     		str	r3, [sp, #12]	@ tmp130, len
 1034              	.L51:
 300:src/uart.c    **** 	}
 301:src/uart.c    **** 
 302:src/uart.c    **** 	//ajusto punteros de rx luego de la copia
 303:src/uart.c    **** 	prx2 = rx2buff;
 1035              		.loc 2 303 0
 1036 0048 034B     		ldr	r3, .L53	@ tmp131,
 1037 004a 044A     		ldr	r2, .L53+4	@ tmp132,
 1038 004c 1A60     		str	r2, [r3]	@ tmp132, prx2
 304:src/uart.c    **** 
 305:src/uart.c    **** 	return (unsigned char) len;
 1039              		.loc 2 305 0
 1040 004e 039B     		ldr	r3, [sp, #12]	@ tmp134, len
 1041 0050 DBB2     		uxtb	r3, r3	@ D.5525, tmp133
 306:src/uart.c    **** }
 1042              		.loc 2 306 0
 1043 0052 1800     		movs	r0, r3	@, <retval>
 1044 0054 05B0     		add	sp, sp, #20	@,,
 1045              		@ sp needed	@
 1046 0056 00BD     		pop	{pc}
 1047              	.L54:
 1048              		.align	2
 1049              	.L53:
 1050 0058 00000000 		.word	prx2
 1051 005c 00000000 		.word	rx2buff
 1052              		.cfi_endproc
 1053              	.LFE27:
 1054              		.size	ReadUsart2Buffer, .-ReadUsart2Buffer
 1055              		.section	.text.Usart1Send,"ax",%progbits
 1056              		.align	2
 1057              		.global	Usart1Send
 1058              		.code	16
 1059              		.thumb_func
 1060              		.type	Usart1Send, %function
 1061              	Usart1Send:
 1062              	.LFB28:
 307:src/uart.c    **** 
 308:src/uart.c    **** void Usart1Send (char * send)
 309:src/uart.c    **** {
 1063              		.loc 2 309 0
 1064              		.cfi_startproc
 1065 0000 00B5     		push	{lr}	@
 1066              	.LCFI16:
 1067              		.cfi_def_cfa_offset 4
ARM GAS  /tmp/ccGefySF.s 			page 41


 1068              		.cfi_offset 14, -4
 1069 0002 85B0     		sub	sp, sp, #20	@,,
 1070              	.LCFI17:
 1071              		.cfi_def_cfa_offset 24
 1072 0004 0190     		str	r0, [sp, #4]	@ send, send
 310:src/uart.c    **** 	unsigned char i;
 311:src/uart.c    **** 
 312:src/uart.c    **** 	i = strlen(send);
 1073              		.loc 2 312 0
 1074 0006 019B     		ldr	r3, [sp, #4]	@ tmp111, send
 1075 0008 1800     		movs	r0, r3	@, tmp111
 1076 000a FFF7FEFF 		bl	strlen	@
 1077 000e 0200     		movs	r2, r0	@ D.5526,
 1078 0010 0F23     		movs	r3, #15	@ tmp112,
 1079 0012 6B44     		add	r3, r3, sp	@ tmp112,
 1080 0014 1A70     		strb	r2, [r3]	@ tmp113, i
 313:src/uart.c    **** 	Usart1SendUnsigned((unsigned char *) send, i);
 1081              		.loc 2 313 0
 1082 0016 0F23     		movs	r3, #15	@ tmp114,
 1083 0018 6B44     		add	r3, r3, sp	@ tmp114,
 1084 001a 1A78     		ldrb	r2, [r3]	@ tmp115, i
 1085 001c 019B     		ldr	r3, [sp, #4]	@ tmp116, send
 1086 001e 1100     		movs	r1, r2	@, tmp115
 1087 0020 1800     		movs	r0, r3	@, tmp116
 1088 0022 FFF7FEFF 		bl	Usart1SendUnsigned	@
 314:src/uart.c    **** }
 1089              		.loc 2 314 0
 1090 0026 C046     		nop
 1091 0028 05B0     		add	sp, sp, #20	@,,
 1092              		@ sp needed	@
 1093 002a 00BD     		pop	{pc}
 1094              		.cfi_endproc
 1095              	.LFE28:
 1096              		.size	Usart1Send, .-Usart1Send
 1097              		.section	.text.Usart1SendUnsigned,"ax",%progbits
 1098              		.align	2
 1099              		.global	Usart1SendUnsigned
 1100              		.code	16
 1101              		.thumb_func
 1102              		.type	Usart1SendUnsigned, %function
 1103              	Usart1SendUnsigned:
 1104              	.LFB29:
 315:src/uart.c    **** 
 316:src/uart.c    **** void Usart1SendUnsigned(unsigned char * send, unsigned char size)
 317:src/uart.c    **** {
 1105              		.loc 2 317 0
 1106              		.cfi_startproc
 1107 0000 00B5     		push	{lr}	@
 1108              	.LCFI18:
 1109              		.cfi_def_cfa_offset 4
 1110              		.cfi_offset 14, -4
 1111 0002 83B0     		sub	sp, sp, #12	@,,
 1112              	.LCFI19:
 1113              		.cfi_def_cfa_offset 16
 1114 0004 0190     		str	r0, [sp, #4]	@ send, send
 1115 0006 0A00     		movs	r2, r1	@ tmp122, size
 1116 0008 6B46     		mov	r3, sp	@ tmp135,
ARM GAS  /tmp/ccGefySF.s 			page 42


 1117 000a 0333     		adds	r3, r3, #3	@ tmp123,
 1118 000c 1A70     		strb	r2, [r3]	@ tmp124, size
 318:src/uart.c    **** 	if ((ptx1_pckt_index + size) < &tx1buff[SIZEOF_DATA])
 1119              		.loc 2 318 0
 1120 000e 114B     		ldr	r3, .L59	@ tmp125,
 1121 0010 1A68     		ldr	r2, [r3]	@ D.5527, ptx1_pckt_index
 1122 0012 6B46     		mov	r3, sp	@ tmp136,
 1123 0014 0333     		adds	r3, r3, #3	@ tmp126,
 1124 0016 1B78     		ldrb	r3, [r3]	@ D.5528, size
 1125 0018 D218     		adds	r2, r2, r3	@ D.5527, D.5527, D.5528
 1126 001a 0F4B     		ldr	r3, .L59+4	@ tmp127,
 1127 001c 9A42     		cmp	r2, r3	@ D.5527, tmp127
 1128 001e 16D2     		bcs	.L58	@,
 319:src/uart.c    **** 	{
 320:src/uart.c    **** 		memcpy((unsigned char *)ptx1_pckt_index, send, size);
 1129              		.loc 2 320 0
 1130 0020 0C4B     		ldr	r3, .L59	@ tmp128,
 1131 0022 1868     		ldr	r0, [r3]	@ D.5527, ptx1_pckt_index
 1132 0024 6B46     		mov	r3, sp	@ tmp137,
 1133 0026 0333     		adds	r3, r3, #3	@ tmp129,
 1134 0028 1A78     		ldrb	r2, [r3]	@ D.5529, size
 1135 002a 019B     		ldr	r3, [sp, #4]	@ tmp130, send
 1136 002c 1900     		movs	r1, r3	@, tmp130
 1137 002e FFF7FEFF 		bl	memcpy	@
 321:src/uart.c    **** 		ptx1_pckt_index += size;
 1138              		.loc 2 321 0
 1139 0032 084B     		ldr	r3, .L59	@ tmp131,
 1140 0034 1A68     		ldr	r2, [r3]	@ D.5527, ptx1_pckt_index
 1141 0036 6B46     		mov	r3, sp	@ tmp138,
 1142 0038 0333     		adds	r3, r3, #3	@ tmp132,
 1143 003a 1B78     		ldrb	r3, [r3]	@ D.5528, size
 1144 003c D218     		adds	r2, r2, r3	@ D.5527, D.5527, D.5528
 1145 003e 054B     		ldr	r3, .L59	@ tmp133,
 1146 0040 1A60     		str	r2, [r3]	@ D.5527, ptx1_pckt_index
 322:src/uart.c    **** 		USART1->CR1 |= USART_CR1_TXEIE;
 1147              		.loc 2 322 0
 1148 0042 064B     		ldr	r3, .L59+8	@ D.5530,
 1149 0044 054A     		ldr	r2, .L59+8	@ D.5530,
 1150 0046 1268     		ldr	r2, [r2]	@ D.5531, _16->CR1
 1151 0048 8021     		movs	r1, #128	@ tmp134,
 1152 004a 0A43     		orrs	r2, r1	@ D.5531, tmp134
 1153 004c 1A60     		str	r2, [r3]	@ D.5531, _15->CR1
 1154              	.L58:
 323:src/uart.c    **** 	}
 324:src/uart.c    **** }
 1155              		.loc 2 324 0
 1156 004e C046     		nop
 1157 0050 03B0     		add	sp, sp, #12	@,,
 1158              		@ sp needed	@
 1159 0052 00BD     		pop	{pc}
 1160              	.L60:
 1161              		.align	2
 1162              	.L59:
 1163 0054 00000000 		.word	ptx1_pckt_index
 1164 0058 00010000 		.word	tx1buff+256
 1165 005c 00380140 		.word	1073821696
 1166              		.cfi_endproc
ARM GAS  /tmp/ccGefySF.s 			page 43


 1167              	.LFE29:
 1168              		.size	Usart1SendUnsigned, .-Usart1SendUnsigned
 1169              		.section	.text.Usart1SendSingle,"ax",%progbits
 1170              		.align	2
 1171              		.global	Usart1SendSingle
 1172              		.code	16
 1173              		.thumb_func
 1174              		.type	Usart1SendSingle, %function
 1175              	Usart1SendSingle:
 1176              	.LFB30:
 325:src/uart.c    **** 
 326:src/uart.c    **** void Usart1SendSingle(unsigned char tosend)
 327:src/uart.c    **** {
 1177              		.loc 2 327 0
 1178              		.cfi_startproc
 1179 0000 00B5     		push	{lr}	@
 1180              	.LCFI20:
 1181              		.cfi_def_cfa_offset 4
 1182              		.cfi_offset 14, -4
 1183 0002 83B0     		sub	sp, sp, #12	@,,
 1184              	.LCFI21:
 1185              		.cfi_def_cfa_offset 16
 1186 0004 0200     		movs	r2, r0	@ tmp110, tosend
 1187 0006 6B46     		mov	r3, sp	@ tmp114,
 1188 0008 0733     		adds	r3, r3, #7	@ tmp111,
 1189 000a 1A70     		strb	r2, [r3]	@ tmp112, tosend
 328:src/uart.c    **** 	Usart1SendUnsigned(&tosend, 1);
 1190              		.loc 2 328 0
 1191 000c 6B46     		mov	r3, sp	@ tmp115,
 1192 000e 0733     		adds	r3, r3, #7	@ tmp113,
 1193 0010 0121     		movs	r1, #1	@,
 1194 0012 1800     		movs	r0, r3	@, tmp113
 1195 0014 FFF7FEFF 		bl	Usart1SendUnsigned	@
 329:src/uart.c    **** }
 1196              		.loc 2 329 0
 1197 0018 C046     		nop
 1198 001a 03B0     		add	sp, sp, #12	@,,
 1199              		@ sp needed	@
 1200 001c 00BD     		pop	{pc}
 1201              		.cfi_endproc
 1202              	.LFE30:
 1203              		.size	Usart1SendSingle, .-Usart1SendSingle
 1204 001e C046     		.section	.text.USART2Config,"ax",%progbits
 1205              		.align	2
 1206              		.global	USART2Config
 1207              		.code	16
 1208              		.thumb_func
 1209              		.type	USART2Config, %function
 1210              	USART2Config:
 1211              	.LFB31:
 330:src/uart.c    **** 
 331:src/uart.c    **** 
 332:src/uart.c    **** void USART2Config(void)
 333:src/uart.c    **** {
 1212              		.loc 2 333 0
 1213              		.cfi_startproc
 1214 0000 10B5     		push	{r4, lr}	@
ARM GAS  /tmp/ccGefySF.s 			page 44


 1215              	.LCFI22:
 1216              		.cfi_def_cfa_offset 8
 1217              		.cfi_offset 4, -8
 1218              		.cfi_offset 14, -4
 334:src/uart.c    **** 	if (!USART2_CLK)
 1219              		.loc 2 334 0
 1220 0002 174B     		ldr	r3, .L64	@ D.5532,
 1221 0004 DA69     		ldr	r2, [r3, #28]	@ D.5533, _2->APB1ENR
 1222 0006 8023     		movs	r3, #128	@ tmp140,
 1223 0008 9B02     		lsls	r3, r3, #10	@ tmp123, tmp140,
 1224 000a 1340     		ands	r3, r2	@ D.5533, D.5533
 1225 000c 06D1     		bne	.L63	@,
 335:src/uart.c    **** 		USART2_CLK_ON;
 1226              		.loc 2 335 0
 1227 000e 144B     		ldr	r3, .L64	@ D.5532,
 1228 0010 134A     		ldr	r2, .L64	@ D.5532,
 1229 0012 D269     		ldr	r2, [r2, #28]	@ D.5533, _7->APB1ENR
 1230 0014 8021     		movs	r1, #128	@ tmp139,
 1231 0016 8902     		lsls	r1, r1, #10	@ tmp124, tmp139,
 1232 0018 0A43     		orrs	r2, r1	@ D.5533, tmp124
 1233 001a DA61     		str	r2, [r3, #28]	@ D.5533, _6->APB1ENR
 1234              	.L63:
 336:src/uart.c    **** 
 337:src/uart.c    **** 	GPIOA->AFR[0] |= 0x0001100;	//PA2 -> AF1 PA3 -> AF1
 1235              		.loc 2 337 0
 1236 001c 9023     		movs	r3, #144	@ tmp135,
 1237 001e DB05     		lsls	r3, r3, #23	@ D.5534, tmp135,
 1238 0020 9022     		movs	r2, #144	@ tmp136,
 1239 0022 D205     		lsls	r2, r2, #23	@ D.5534, tmp136,
 1240 0024 126A     		ldr	r2, [r2, #32]	@ D.5533, _12->AFR
 1241 0026 8821     		movs	r1, #136	@ tmp137,
 1242 0028 4901     		lsls	r1, r1, #5	@ tmp125, tmp137,
 1243 002a 0A43     		orrs	r2, r1	@ D.5533, tmp125
 1244 002c 1A62     		str	r2, [r3, #32]	@ D.5533, _11->AFR
 338:src/uart.c    **** 
 339:src/uart.c    **** 	ptx2 = tx2buff;
 1245              		.loc 2 339 0
 1246 002e 0D4B     		ldr	r3, .L64+4	@ tmp126,
 1247 0030 0D4A     		ldr	r2, .L64+8	@ tmp127,
 1248 0032 1A60     		str	r2, [r3]	@ tmp127, ptx2
 340:src/uart.c    **** 	ptx2_pckt_index = tx2buff;
 1249              		.loc 2 340 0
 1250 0034 0D4B     		ldr	r3, .L64+12	@ tmp128,
 1251 0036 0C4A     		ldr	r2, .L64+8	@ tmp129,
 1252 0038 1A60     		str	r2, [r3]	@ tmp129, ptx2_pckt_index
 341:src/uart.c    **** 	prx2 = rx2buff;
 1253              		.loc 2 341 0
 1254 003a 0D4B     		ldr	r3, .L64+16	@ tmp130,
 1255 003c 0D4A     		ldr	r2, .L64+20	@ tmp131,
 1256 003e 1A60     		str	r2, [r3]	@ tmp131, prx2
 342:src/uart.c    **** 
 343:src/uart.c    **** 	USART2->BRR = USART_115200;
 1257              		.loc 2 343 0
 1258 0040 0D4B     		ldr	r3, .L64+24	@ D.5535,
 1259 0042 D022     		movs	r2, #208	@ tmp138,
 1260 0044 5200     		lsls	r2, r2, #1	@ tmp132, tmp138,
 1261 0046 9A81     		strh	r2, [r3, #12]	@ tmp133, _19->BRR
ARM GAS  /tmp/ccGefySF.s 			page 45


 344:src/uart.c    **** 	USART2->CR1 = USART_CR1_RXNEIE | USART_CR1_RE | USART_CR1_TE | USART_CR1_UE;
 1262              		.loc 2 344 0
 1263 0048 0B4B     		ldr	r3, .L64+24	@ D.5535,
 1264 004a 2D22     		movs	r2, #45	@ tmp134,
 1265 004c 1A60     		str	r2, [r3]	@ tmp134, _21->CR1
 345:src/uart.c    **** 
 346:src/uart.c    **** 	NVIC_EnableIRQ(USART2_IRQn);
 1266              		.loc 2 346 0
 1267 004e 1C20     		movs	r0, #28	@,
 1268 0050 FFF7FEFF 		bl	NVIC_EnableIRQ	@
 347:src/uart.c    **** 	NVIC_SetPriority(USART2_IRQn, 7);
 1269              		.loc 2 347 0
 1270 0054 0721     		movs	r1, #7	@,
 1271 0056 1C20     		movs	r0, #28	@,
 1272 0058 FFF7FEFF 		bl	NVIC_SetPriority	@
 348:src/uart.c    **** }
 1273              		.loc 2 348 0
 1274 005c C046     		nop
 1275              		@ sp needed	@
 1276 005e 10BD     		pop	{r4, pc}
 1277              	.L65:
 1278              		.align	2
 1279              	.L64:
 1280 0060 00100240 		.word	1073876992
 1281 0064 00000000 		.word	ptx2
 1282 0068 00000000 		.word	tx2buff
 1283 006c 00000000 		.word	ptx2_pckt_index
 1284 0070 00000000 		.word	prx2
 1285 0074 00000000 		.word	rx2buff
 1286 0078 00440040 		.word	1073759232
 1287              		.cfi_endproc
 1288              	.LFE31:
 1289              		.size	USART2Config, .-USART2Config
 1290              		.section	.text.USART1Config,"ax",%progbits
 1291              		.align	2
 1292              		.global	USART1Config
 1293              		.code	16
 1294              		.thumb_func
 1295              		.type	USART1Config, %function
 1296              	USART1Config:
 1297              	.LFB32:
 349:src/uart.c    **** 
 350:src/uart.c    **** void USART1Config(void)
 351:src/uart.c    **** {
 1298              		.loc 2 351 0
 1299              		.cfi_startproc
 1300 0000 10B5     		push	{r4, lr}	@
 1301              	.LCFI23:
 1302              		.cfi_def_cfa_offset 8
 1303              		.cfi_offset 4, -8
 1304              		.cfi_offset 14, -4
 352:src/uart.c    **** 	if (!USART1_CLK)
 1305              		.loc 2 352 0
 1306 0002 154B     		ldr	r3, .L68	@ D.5536,
 1307 0004 9A69     		ldr	r2, [r3, #24]	@ D.5537, _2->APB2ENR
 1308 0006 8023     		movs	r3, #128	@ tmp136,
 1309 0008 DB01     		lsls	r3, r3, #7	@ tmp123, tmp136,
ARM GAS  /tmp/ccGefySF.s 			page 46


 1310 000a 1340     		ands	r3, r2	@ D.5537, D.5537
 1311 000c 06D1     		bne	.L67	@,
 353:src/uart.c    **** 		USART1_CLK_ON;
 1312              		.loc 2 353 0
 1313 000e 124B     		ldr	r3, .L68	@ D.5536,
 1314 0010 114A     		ldr	r2, .L68	@ D.5536,
 1315 0012 9269     		ldr	r2, [r2, #24]	@ D.5537, _7->APB2ENR
 1316 0014 8021     		movs	r1, #128	@ tmp135,
 1317 0016 C901     		lsls	r1, r1, #7	@ tmp124, tmp135,
 1318 0018 0A43     		orrs	r2, r1	@ D.5537, tmp124
 1319 001a 9A61     		str	r2, [r3, #24]	@ D.5537, _6->APB2ENR
 1320              	.L67:
 354:src/uart.c    **** 
 355:src/uart.c    **** #ifdef VER_1_0
 356:src/uart.c    **** 	//para empezar con el GPS
 357:src/uart.c    **** 	//GPIOB->AFR[0] |= 0x00000000;	//PB7 -> AF0 PB6 -> AF0
 358:src/uart.c    **** 	GPIOB->AFR[0] &= 0x00FFFFFF;	//PB7 -> AF0 PB6 -> AF0
 1321              		.loc 2 358 0
 1322 001c 0F4B     		ldr	r3, .L68+4	@ D.5538,
 1323 001e 0F4A     		ldr	r2, .L68+4	@ D.5538,
 1324 0020 126A     		ldr	r2, [r2, #32]	@ D.5537, _12->AFR
 1325 0022 1202     		lsls	r2, r2, #8	@ tmp125, D.5537,
 1326 0024 120A     		lsrs	r2, r2, #8	@ D.5537, tmp125,
 1327 0026 1A62     		str	r2, [r3, #32]	@ D.5537, _11->AFR
 359:src/uart.c    **** 	//para empezar con el GSM
 360:src/uart.c    **** 	//GPIOA->AFR[1] |= 0x00000110;	//PA10 -> AF1 PA9 -> AF1
 361:src/uart.c    **** #endif
 362:src/uart.c    **** 
 363:src/uart.c    **** 	ptx1 = tx1buff;
 1328              		.loc 2 363 0
 1329 0028 0D4B     		ldr	r3, .L68+8	@ tmp126,
 1330 002a 0E4A     		ldr	r2, .L68+12	@ tmp127,
 1331 002c 1A60     		str	r2, [r3]	@ tmp127, ptx1
 364:src/uart.c    **** 	ptx1_pckt_index = tx1buff;
 1332              		.loc 2 364 0
 1333 002e 0E4B     		ldr	r3, .L68+16	@ tmp128,
 1334 0030 0C4A     		ldr	r2, .L68+12	@ tmp129,
 1335 0032 1A60     		str	r2, [r3]	@ tmp129, ptx1_pckt_index
 365:src/uart.c    **** 	prx1 = rx1buff;
 1336              		.loc 2 365 0
 1337 0034 0D4B     		ldr	r3, .L68+20	@ tmp130,
 1338 0036 0E4A     		ldr	r2, .L68+24	@ tmp131,
 1339 0038 1A60     		str	r2, [r3]	@ tmp131, prx1
 366:src/uart.c    **** 
 367:src/uart.c    **** 	USART1->BRR = USART_9600;
 1340              		.loc 2 367 0
 1341 003a 0E4B     		ldr	r3, .L68+28	@ D.5539,
 1342 003c 0E4A     		ldr	r2, .L68+32	@ tmp132,
 1343 003e 9A81     		strh	r2, [r3, #12]	@ tmp133, _19->BRR
 368:src/uart.c    **** //	USART1->CR2 |= USART_CR2_STOP_1;	//2 bits stop
 369:src/uart.c    **** //	USART1->CR1 = USART_CR1_RE | USART_CR1_TE | USART_CR1_UE;
 370:src/uart.c    **** //	USART1->CR1 = USART_CR1_RXNEIE | USART_CR1_RE | USART_CR1_UE;	//SIN TX
 371:src/uart.c    **** 	USART1->CR1 = USART_CR1_RXNEIE | USART_CR1_RE | USART_CR1_TE | USART_CR1_UE;	//para pruebas TX
 1344              		.loc 2 371 0
 1345 0040 0C4B     		ldr	r3, .L68+28	@ D.5539,
 1346 0042 2D22     		movs	r2, #45	@ tmp134,
 1347 0044 1A60     		str	r2, [r3]	@ tmp134, _21->CR1
ARM GAS  /tmp/ccGefySF.s 			page 47


 372:src/uart.c    **** 
 373:src/uart.c    **** 	NVIC_EnableIRQ(USART1_IRQn);
 1348              		.loc 2 373 0
 1349 0046 1B20     		movs	r0, #27	@,
 1350 0048 FFF7FEFF 		bl	NVIC_EnableIRQ	@
 374:src/uart.c    **** 	NVIC_SetPriority(USART1_IRQn, 5);
 1351              		.loc 2 374 0
 1352 004c 0521     		movs	r1, #5	@,
 1353 004e 1B20     		movs	r0, #27	@,
 1354 0050 FFF7FEFF 		bl	NVIC_SetPriority	@
 375:src/uart.c    **** }
 1355              		.loc 2 375 0
 1356 0054 C046     		nop
 1357              		@ sp needed	@
 1358 0056 10BD     		pop	{r4, pc}
 1359              	.L69:
 1360              		.align	2
 1361              	.L68:
 1362 0058 00100240 		.word	1073876992
 1363 005c 00040048 		.word	1207960576
 1364 0060 00000000 		.word	ptx1
 1365 0064 00000000 		.word	tx1buff
 1366 0068 00000000 		.word	ptx1_pckt_index
 1367 006c 00000000 		.word	prx1
 1368 0070 00000000 		.word	rx1buff
 1369 0074 00380140 		.word	1073821696
 1370 0078 88130000 		.word	5000
 1371              		.cfi_endproc
 1372              	.LFE32:
 1373              		.size	USART1Config, .-USART1Config
 1374              		.text
 1375              	.Letext0:
 1376              		.file 3 "./cmsis_boot/stm32f0xx.h"
 1377              		.file 4 "/usr/local/sbin/gcc-arm-none-eabi-5_2-2015q4/arm-none-eabi/include/machine/_default_types
 1378              		.file 5 "/usr/local/sbin/gcc-arm-none-eabi-5_2-2015q4/arm-none-eabi/include/sys/_stdint.h"